ARM GAS  /tmp/ccIyyzxP.s 			page 1


   1              		.cpu cortex-m4
   2              		.eabi_attribute 27, 1
   3              		.eabi_attribute 28, 1
   4              		.eabi_attribute 20, 1
   5              		.eabi_attribute 21, 1
   6              		.eabi_attribute 23, 3
   7              		.eabi_attribute 24, 1
   8              		.eabi_attribute 25, 1
   9              		.eabi_attribute 26, 1
  10              		.eabi_attribute 30, 1
  11              		.eabi_attribute 34, 1
  12              		.eabi_attribute 18, 4
  13              		.file	"arm_convolve_get_buffer_sizes_s8.c"
  14              		.text
  15              	.Ltext0:
  16              		.cfi_sections	.debug_frame
  17              		.section	.text.arm_convolve_s8_get_buffer_size,"ax",%progbits
  18              		.align	1
  19              		.global	arm_convolve_s8_get_buffer_size
  20              		.arch armv7e-m
  21              		.syntax unified
  22              		.thumb
  23              		.thumb_func
  24              		.fpu fpv4-sp-d16
  26              	arm_convolve_s8_get_buffer_size:
  27              	.LVL0:
  28              	.LFB29:
  29              		.file 1 "Middlewares/tensorflow/third_party/cmsis_nn/Source/ConvolutionFunctions/arm_convolve_get_
   1:Middlewares/tensorflow/third_party/cmsis_nn/Source/ConvolutionFunctions/arm_convolve_get_buffer_sizes_s8.c **** /*
   2:Middlewares/tensorflow/third_party/cmsis_nn/Source/ConvolutionFunctions/arm_convolve_get_buffer_sizes_s8.c ****  * SPDX-FileCopyrightText: Copyright 2023 Arm Limited and/or its affiliates <open-source-office@arm
   3:Middlewares/tensorflow/third_party/cmsis_nn/Source/ConvolutionFunctions/arm_convolve_get_buffer_sizes_s8.c ****  *
   4:Middlewares/tensorflow/third_party/cmsis_nn/Source/ConvolutionFunctions/arm_convolve_get_buffer_sizes_s8.c ****  * SPDX-License-Identifier: Apache-2.0
   5:Middlewares/tensorflow/third_party/cmsis_nn/Source/ConvolutionFunctions/arm_convolve_get_buffer_sizes_s8.c ****  *
   6:Middlewares/tensorflow/third_party/cmsis_nn/Source/ConvolutionFunctions/arm_convolve_get_buffer_sizes_s8.c ****  * Licensed under the Apache License, Version 2.0 (the License); you may
   7:Middlewares/tensorflow/third_party/cmsis_nn/Source/ConvolutionFunctions/arm_convolve_get_buffer_sizes_s8.c ****  * not use this file except in compliance with the License.
   8:Middlewares/tensorflow/third_party/cmsis_nn/Source/ConvolutionFunctions/arm_convolve_get_buffer_sizes_s8.c ****  * You may obtain a copy of the License at
   9:Middlewares/tensorflow/third_party/cmsis_nn/Source/ConvolutionFunctions/arm_convolve_get_buffer_sizes_s8.c ****  *
  10:Middlewares/tensorflow/third_party/cmsis_nn/Source/ConvolutionFunctions/arm_convolve_get_buffer_sizes_s8.c ****  * www.apache.org/licenses/LICENSE-2.0
  11:Middlewares/tensorflow/third_party/cmsis_nn/Source/ConvolutionFunctions/arm_convolve_get_buffer_sizes_s8.c ****  *
  12:Middlewares/tensorflow/third_party/cmsis_nn/Source/ConvolutionFunctions/arm_convolve_get_buffer_sizes_s8.c ****  * Unless required by applicable law or agreed to in writing, software
  13:Middlewares/tensorflow/third_party/cmsis_nn/Source/ConvolutionFunctions/arm_convolve_get_buffer_sizes_s8.c ****  * distributed under the License is distributed on an AS IS BASIS, WITHOUT
  14:Middlewares/tensorflow/third_party/cmsis_nn/Source/ConvolutionFunctions/arm_convolve_get_buffer_sizes_s8.c ****  * WARRANTIES OR CONDITIONS OF ANY KIND, either express or implied.
  15:Middlewares/tensorflow/third_party/cmsis_nn/Source/ConvolutionFunctions/arm_convolve_get_buffer_sizes_s8.c ****  * See the License for the specific language governing permissions and
  16:Middlewares/tensorflow/third_party/cmsis_nn/Source/ConvolutionFunctions/arm_convolve_get_buffer_sizes_s8.c ****  * limitations under the License.
  17:Middlewares/tensorflow/third_party/cmsis_nn/Source/ConvolutionFunctions/arm_convolve_get_buffer_sizes_s8.c ****  */
  18:Middlewares/tensorflow/third_party/cmsis_nn/Source/ConvolutionFunctions/arm_convolve_get_buffer_sizes_s8.c **** 
  19:Middlewares/tensorflow/third_party/cmsis_nn/Source/ConvolutionFunctions/arm_convolve_get_buffer_sizes_s8.c **** /* ----------------------------------------------------------------------
  20:Middlewares/tensorflow/third_party/cmsis_nn/Source/ConvolutionFunctions/arm_convolve_get_buffer_sizes_s8.c ****  * Project:      CMSIS NN Library
  21:Middlewares/tensorflow/third_party/cmsis_nn/Source/ConvolutionFunctions/arm_convolve_get_buffer_sizes_s8.c ****  * Title:        arm_convolve_get_buffer_sizes_s8.c
  22:Middlewares/tensorflow/third_party/cmsis_nn/Source/ConvolutionFunctions/arm_convolve_get_buffer_sizes_s8.c ****  * Description:  Collection of get buffer size functions for the various s8 convolution layer funct
  23:Middlewares/tensorflow/third_party/cmsis_nn/Source/ConvolutionFunctions/arm_convolve_get_buffer_sizes_s8.c ****  *
  24:Middlewares/tensorflow/third_party/cmsis_nn/Source/ConvolutionFunctions/arm_convolve_get_buffer_sizes_s8.c ****  * $Date:        31 January 2023
  25:Middlewares/tensorflow/third_party/cmsis_nn/Source/ConvolutionFunctions/arm_convolve_get_buffer_sizes_s8.c ****  * $Revision:    V.1.0.0
  26:Middlewares/tensorflow/third_party/cmsis_nn/Source/ConvolutionFunctions/arm_convolve_get_buffer_sizes_s8.c ****  *
  27:Middlewares/tensorflow/third_party/cmsis_nn/Source/ConvolutionFunctions/arm_convolve_get_buffer_sizes_s8.c ****  * Target :  Arm(R) M-Profile Architecture
  28:Middlewares/tensorflow/third_party/cmsis_nn/Source/ConvolutionFunctions/arm_convolve_get_buffer_sizes_s8.c ****  *
  29:Middlewares/tensorflow/third_party/cmsis_nn/Source/ConvolutionFunctions/arm_convolve_get_buffer_sizes_s8.c ****  * -------------------------------------------------------------------- */
ARM GAS  /tmp/ccIyyzxP.s 			page 2


  30:Middlewares/tensorflow/third_party/cmsis_nn/Source/ConvolutionFunctions/arm_convolve_get_buffer_sizes_s8.c **** 
  31:Middlewares/tensorflow/third_party/cmsis_nn/Source/ConvolutionFunctions/arm_convolve_get_buffer_sizes_s8.c **** #include "Internal/arm_nn_compiler.h"
  32:Middlewares/tensorflow/third_party/cmsis_nn/Source/ConvolutionFunctions/arm_convolve_get_buffer_sizes_s8.c **** #include "arm_nnfunctions.h"
  33:Middlewares/tensorflow/third_party/cmsis_nn/Source/ConvolutionFunctions/arm_convolve_get_buffer_sizes_s8.c **** 
  34:Middlewares/tensorflow/third_party/cmsis_nn/Source/ConvolutionFunctions/arm_convolve_get_buffer_sizes_s8.c **** /**
  35:Middlewares/tensorflow/third_party/cmsis_nn/Source/ConvolutionFunctions/arm_convolve_get_buffer_sizes_s8.c ****  *  @ingroup NNConv
  36:Middlewares/tensorflow/third_party/cmsis_nn/Source/ConvolutionFunctions/arm_convolve_get_buffer_sizes_s8.c ****  */
  37:Middlewares/tensorflow/third_party/cmsis_nn/Source/ConvolutionFunctions/arm_convolve_get_buffer_sizes_s8.c **** 
  38:Middlewares/tensorflow/third_party/cmsis_nn/Source/ConvolutionFunctions/arm_convolve_get_buffer_sizes_s8.c **** /**
  39:Middlewares/tensorflow/third_party/cmsis_nn/Source/ConvolutionFunctions/arm_convolve_get_buffer_sizes_s8.c ****  * @addtogroup GetBufferSizeNNConv
  40:Middlewares/tensorflow/third_party/cmsis_nn/Source/ConvolutionFunctions/arm_convolve_get_buffer_sizes_s8.c ****  * @{
  41:Middlewares/tensorflow/third_party/cmsis_nn/Source/ConvolutionFunctions/arm_convolve_get_buffer_sizes_s8.c ****  */
  42:Middlewares/tensorflow/third_party/cmsis_nn/Source/ConvolutionFunctions/arm_convolve_get_buffer_sizes_s8.c **** 
  43:Middlewares/tensorflow/third_party/cmsis_nn/Source/ConvolutionFunctions/arm_convolve_get_buffer_sizes_s8.c **** __STATIC_INLINE int32_t arm_convolve_s8_get_buffer_size_mve(const cmsis_nn_dims *input_dims,
  44:Middlewares/tensorflow/third_party/cmsis_nn/Source/ConvolutionFunctions/arm_convolve_get_buffer_sizes_s8.c ****                                                             const cmsis_nn_dims *filter_dims)
  45:Middlewares/tensorflow/third_party/cmsis_nn/Source/ConvolutionFunctions/arm_convolve_get_buffer_sizes_s8.c **** {
  46:Middlewares/tensorflow/third_party/cmsis_nn/Source/ConvolutionFunctions/arm_convolve_get_buffer_sizes_s8.c ****     int32_t col_length = input_dims->c * filter_dims->w * filter_dims->h;
  47:Middlewares/tensorflow/third_party/cmsis_nn/Source/ConvolutionFunctions/arm_convolve_get_buffer_sizes_s8.c ****     // Get number of complete int16 lanes(multiple of 8) for given col_length. This is dependent on
  48:Middlewares/tensorflow/third_party/cmsis_nn/Source/ConvolutionFunctions/arm_convolve_get_buffer_sizes_s8.c ****     // implementation of  arm_nn_mat_mult_s8
  49:Middlewares/tensorflow/third_party/cmsis_nn/Source/ConvolutionFunctions/arm_convolve_get_buffer_sizes_s8.c ****     col_length = (col_length + 7) / 8;
  50:Middlewares/tensorflow/third_party/cmsis_nn/Source/ConvolutionFunctions/arm_convolve_get_buffer_sizes_s8.c ****     // 4 -> number of im2col buffers, 8 -> 8 elements per Q register
  51:Middlewares/tensorflow/third_party/cmsis_nn/Source/ConvolutionFunctions/arm_convolve_get_buffer_sizes_s8.c ****     return 4 * col_length * 8 * (int32_t)sizeof(int8_t);
  52:Middlewares/tensorflow/third_party/cmsis_nn/Source/ConvolutionFunctions/arm_convolve_get_buffer_sizes_s8.c **** }
  53:Middlewares/tensorflow/third_party/cmsis_nn/Source/ConvolutionFunctions/arm_convolve_get_buffer_sizes_s8.c **** 
  54:Middlewares/tensorflow/third_party/cmsis_nn/Source/ConvolutionFunctions/arm_convolve_get_buffer_sizes_s8.c **** __STATIC_INLINE int32_t arm_convolve_1_x_n_s8_get_buffer_size_mve(const cmsis_nn_dims *input_dims,
  55:Middlewares/tensorflow/third_party/cmsis_nn/Source/ConvolutionFunctions/arm_convolve_get_buffer_sizes_s8.c ****                                                                   const cmsis_nn_dims *filter_dims)
  56:Middlewares/tensorflow/third_party/cmsis_nn/Source/ConvolutionFunctions/arm_convolve_get_buffer_sizes_s8.c **** {
  57:Middlewares/tensorflow/third_party/cmsis_nn/Source/ConvolutionFunctions/arm_convolve_get_buffer_sizes_s8.c ****     (void)input_dims;
  58:Middlewares/tensorflow/third_party/cmsis_nn/Source/ConvolutionFunctions/arm_convolve_get_buffer_sizes_s8.c ****     (void)filter_dims;
  59:Middlewares/tensorflow/third_party/cmsis_nn/Source/ConvolutionFunctions/arm_convolve_get_buffer_sizes_s8.c ****     return 0;
  60:Middlewares/tensorflow/third_party/cmsis_nn/Source/ConvolutionFunctions/arm_convolve_get_buffer_sizes_s8.c **** }
  61:Middlewares/tensorflow/third_party/cmsis_nn/Source/ConvolutionFunctions/arm_convolve_get_buffer_sizes_s8.c **** 
  62:Middlewares/tensorflow/third_party/cmsis_nn/Source/ConvolutionFunctions/arm_convolve_get_buffer_sizes_s8.c **** int32_t arm_convolve_s8_get_buffer_size(const cmsis_nn_dims *input_dims, const cmsis_nn_dims *filte
  63:Middlewares/tensorflow/third_party/cmsis_nn/Source/ConvolutionFunctions/arm_convolve_get_buffer_sizes_s8.c **** {
  30              		.loc 1 63 1 view -0
  31              		.cfi_startproc
  32              		@ args = 0, pretend = 0, frame = 0
  33              		@ frame_needed = 0, uses_anonymous_args = 0
  34              		@ link register save eliminated.
  64:Middlewares/tensorflow/third_party/cmsis_nn/Source/ConvolutionFunctions/arm_convolve_get_buffer_sizes_s8.c **** #if defined(ARM_MATH_MVEI)
  65:Middlewares/tensorflow/third_party/cmsis_nn/Source/ConvolutionFunctions/arm_convolve_get_buffer_sizes_s8.c ****     return arm_convolve_s8_get_buffer_size_mve(input_dims, filter_dims);
  66:Middlewares/tensorflow/third_party/cmsis_nn/Source/ConvolutionFunctions/arm_convolve_get_buffer_sizes_s8.c **** #else
  67:Middlewares/tensorflow/third_party/cmsis_nn/Source/ConvolutionFunctions/arm_convolve_get_buffer_sizes_s8.c ****     return (2 * input_dims->c * filter_dims->w * filter_dims->h) * (int32_t)sizeof(int16_t);
  35              		.loc 1 67 5 view .LVU1
  36              		.loc 1 67 27 is_stmt 0 view .LVU2
  37 0000 C368     		ldr	r3, [r0, #12]
  38              		.loc 1 67 44 view .LVU3
  39 0002 8868     		ldr	r0, [r1, #8]
  40              	.LVL1:
  41              		.loc 1 67 31 view .LVU4
  42 0004 00FB03F3 		mul	r3, r0, r3
  43              		.loc 1 67 61 view .LVU5
  44 0008 4868     		ldr	r0, [r1, #4]
  45              		.loc 1 67 48 view .LVU6
  46 000a 00FB03F0 		mul	r0, r0, r3
  68:Middlewares/tensorflow/third_party/cmsis_nn/Source/ConvolutionFunctions/arm_convolve_get_buffer_sizes_s8.c **** #endif
  69:Middlewares/tensorflow/third_party/cmsis_nn/Source/ConvolutionFunctions/arm_convolve_get_buffer_sizes_s8.c **** }
ARM GAS  /tmp/ccIyyzxP.s 			page 3


  47              		.loc 1 69 1 view .LVU7
  48 000e 8000     		lsls	r0, r0, #2
  49 0010 7047     		bx	lr
  50              		.cfi_endproc
  51              	.LFE29:
  53              		.section	.text.arm_convolve_1_x_n_s8_get_buffer_size,"ax",%progbits
  54              		.align	1
  55              		.global	arm_convolve_1_x_n_s8_get_buffer_size
  56              		.syntax unified
  57              		.thumb
  58              		.thumb_func
  59              		.fpu fpv4-sp-d16
  61              	arm_convolve_1_x_n_s8_get_buffer_size:
  62              	.LVL2:
  63              	.LFB30:
  70:Middlewares/tensorflow/third_party/cmsis_nn/Source/ConvolutionFunctions/arm_convolve_get_buffer_sizes_s8.c **** 
  71:Middlewares/tensorflow/third_party/cmsis_nn/Source/ConvolutionFunctions/arm_convolve_get_buffer_sizes_s8.c **** int32_t arm_convolve_1_x_n_s8_get_buffer_size(const cmsis_nn_dims *input_dims, const cmsis_nn_dims 
  72:Middlewares/tensorflow/third_party/cmsis_nn/Source/ConvolutionFunctions/arm_convolve_get_buffer_sizes_s8.c **** {
  64              		.loc 1 72 1 is_stmt 1 view -0
  65              		.cfi_startproc
  66              		@ args = 0, pretend = 0, frame = 0
  67              		@ frame_needed = 0, uses_anonymous_args = 0
  68              		.loc 1 72 1 is_stmt 0 view .LVU9
  69 0000 08B5     		push	{r3, lr}
  70              	.LCFI0:
  71              		.cfi_def_cfa_offset 8
  72              		.cfi_offset 3, -8
  73              		.cfi_offset 14, -4
  73:Middlewares/tensorflow/third_party/cmsis_nn/Source/ConvolutionFunctions/arm_convolve_get_buffer_sizes_s8.c **** #if !defined(ARM_MATH_MVEI)
  74:Middlewares/tensorflow/third_party/cmsis_nn/Source/ConvolutionFunctions/arm_convolve_get_buffer_sizes_s8.c ****     return arm_convolve_s8_get_buffer_size(input_dims, filter_dims);
  74              		.loc 1 74 5 is_stmt 1 view .LVU10
  75              		.loc 1 74 12 is_stmt 0 view .LVU11
  76 0002 FFF7FEFF 		bl	arm_convolve_s8_get_buffer_size
  77              	.LVL3:
  75:Middlewares/tensorflow/third_party/cmsis_nn/Source/ConvolutionFunctions/arm_convolve_get_buffer_sizes_s8.c **** #else
  76:Middlewares/tensorflow/third_party/cmsis_nn/Source/ConvolutionFunctions/arm_convolve_get_buffer_sizes_s8.c ****     return arm_convolve_1_x_n_s8_get_buffer_size_mve(input_dims, filter_dims);
  77:Middlewares/tensorflow/third_party/cmsis_nn/Source/ConvolutionFunctions/arm_convolve_get_buffer_sizes_s8.c **** #endif
  78:Middlewares/tensorflow/third_party/cmsis_nn/Source/ConvolutionFunctions/arm_convolve_get_buffer_sizes_s8.c **** }
  78              		.loc 1 78 1 view .LVU12
  79 0006 08BD     		pop	{r3, pc}
  80              		.cfi_endproc
  81              	.LFE30:
  83              		.section	.text.arm_convolve_1x1_s8_fast_get_buffer_size,"ax",%progbits
  84              		.align	1
  85              		.global	arm_convolve_1x1_s8_fast_get_buffer_size
  86              		.syntax unified
  87              		.thumb
  88              		.thumb_func
  89              		.fpu fpv4-sp-d16
  91              	arm_convolve_1x1_s8_fast_get_buffer_size:
  92              	.LVL4:
  93              	.LFB31:
  79:Middlewares/tensorflow/third_party/cmsis_nn/Source/ConvolutionFunctions/arm_convolve_get_buffer_sizes_s8.c **** 
  80:Middlewares/tensorflow/third_party/cmsis_nn/Source/ConvolutionFunctions/arm_convolve_get_buffer_sizes_s8.c **** int32_t arm_convolve_1x1_s8_fast_get_buffer_size(const cmsis_nn_dims *input_dims)
  81:Middlewares/tensorflow/third_party/cmsis_nn/Source/ConvolutionFunctions/arm_convolve_get_buffer_sizes_s8.c **** {
  94              		.loc 1 81 1 is_stmt 1 view -0
  95              		.cfi_startproc
ARM GAS  /tmp/ccIyyzxP.s 			page 4


  96              		@ args = 0, pretend = 0, frame = 0
  97              		@ frame_needed = 0, uses_anonymous_args = 0
  98              		@ link register save eliminated.
  82:Middlewares/tensorflow/third_party/cmsis_nn/Source/ConvolutionFunctions/arm_convolve_get_buffer_sizes_s8.c ****     (void)input_dims;
  99              		.loc 1 82 5 view .LVU14
  83:Middlewares/tensorflow/third_party/cmsis_nn/Source/ConvolutionFunctions/arm_convolve_get_buffer_sizes_s8.c ****     return 0;
 100              		.loc 1 83 5 view .LVU15
  84:Middlewares/tensorflow/third_party/cmsis_nn/Source/ConvolutionFunctions/arm_convolve_get_buffer_sizes_s8.c **** }
 101              		.loc 1 84 1 is_stmt 0 view .LVU16
 102 0000 0020     		movs	r0, #0
 103              	.LVL5:
 104              		.loc 1 84 1 view .LVU17
 105 0002 7047     		bx	lr
 106              		.cfi_endproc
 107              	.LFE31:
 109              		.section	.text.arm_convolve_wrapper_s8_get_buffer_size,"ax",%progbits
 110              		.align	1
 111              		.global	arm_convolve_wrapper_s8_get_buffer_size
 112              		.syntax unified
 113              		.thumb
 114              		.thumb_func
 115              		.fpu fpv4-sp-d16
 117              	arm_convolve_wrapper_s8_get_buffer_size:
 118              	.LVL6:
 119              	.LFB32:
  85:Middlewares/tensorflow/third_party/cmsis_nn/Source/ConvolutionFunctions/arm_convolve_get_buffer_sizes_s8.c **** 
  86:Middlewares/tensorflow/third_party/cmsis_nn/Source/ConvolutionFunctions/arm_convolve_get_buffer_sizes_s8.c **** /*
  87:Middlewares/tensorflow/third_party/cmsis_nn/Source/ConvolutionFunctions/arm_convolve_get_buffer_sizes_s8.c ****  * Get the required buffer size for arm_convolve_wrapper_s8. This is the recommended function convo
  88:Middlewares/tensorflow/third_party/cmsis_nn/Source/ConvolutionFunctions/arm_convolve_get_buffer_sizes_s8.c ****  * function.
  89:Middlewares/tensorflow/third_party/cmsis_nn/Source/ConvolutionFunctions/arm_convolve_get_buffer_sizes_s8.c ****  *
  90:Middlewares/tensorflow/third_party/cmsis_nn/Source/ConvolutionFunctions/arm_convolve_get_buffer_sizes_s8.c ****  * Refer to header file for details.
  91:Middlewares/tensorflow/third_party/cmsis_nn/Source/ConvolutionFunctions/arm_convolve_get_buffer_sizes_s8.c ****  *
  92:Middlewares/tensorflow/third_party/cmsis_nn/Source/ConvolutionFunctions/arm_convolve_get_buffer_sizes_s8.c ****  */
  93:Middlewares/tensorflow/third_party/cmsis_nn/Source/ConvolutionFunctions/arm_convolve_get_buffer_sizes_s8.c **** int32_t arm_convolve_wrapper_s8_get_buffer_size(const cmsis_nn_conv_params *conv_params,
  94:Middlewares/tensorflow/third_party/cmsis_nn/Source/ConvolutionFunctions/arm_convolve_get_buffer_sizes_s8.c ****                                                 const cmsis_nn_dims *input_dims,
  95:Middlewares/tensorflow/third_party/cmsis_nn/Source/ConvolutionFunctions/arm_convolve_get_buffer_sizes_s8.c ****                                                 const cmsis_nn_dims *filter_dims,
  96:Middlewares/tensorflow/third_party/cmsis_nn/Source/ConvolutionFunctions/arm_convolve_get_buffer_sizes_s8.c ****                                                 const cmsis_nn_dims *output_dims)
  97:Middlewares/tensorflow/third_party/cmsis_nn/Source/ConvolutionFunctions/arm_convolve_get_buffer_sizes_s8.c **** {
 120              		.loc 1 97 1 is_stmt 1 view -0
 121              		.cfi_startproc
 122              		@ args = 0, pretend = 0, frame = 0
 123              		@ frame_needed = 0, uses_anonymous_args = 0
 124              		.loc 1 97 1 is_stmt 0 view .LVU19
 125 0000 38B5     		push	{r3, r4, r5, lr}
 126              	.LCFI1:
 127              		.cfi_def_cfa_offset 16
 128              		.cfi_offset 3, -16
 129              		.cfi_offset 4, -12
 130              		.cfi_offset 5, -8
 131              		.cfi_offset 14, -4
 132 0002 0546     		mov	r5, r0
 133 0004 0C46     		mov	r4, r1
 134 0006 1146     		mov	r1, r2
 135              	.LVL7:
  98:Middlewares/tensorflow/third_party/cmsis_nn/Source/ConvolutionFunctions/arm_convolve_get_buffer_sizes_s8.c **** #if defined(ARM_MATH_MVEI)
  99:Middlewares/tensorflow/third_party/cmsis_nn/Source/ConvolutionFunctions/arm_convolve_get_buffer_sizes_s8.c ****     return arm_convolve_wrapper_s8_get_buffer_size_mve(conv_params, input_dims, filter_dims, output
 100:Middlewares/tensorflow/third_party/cmsis_nn/Source/ConvolutionFunctions/arm_convolve_get_buffer_sizes_s8.c **** #else
ARM GAS  /tmp/ccIyyzxP.s 			page 5


 101:Middlewares/tensorflow/third_party/cmsis_nn/Source/ConvolutionFunctions/arm_convolve_get_buffer_sizes_s8.c **** 
 102:Middlewares/tensorflow/third_party/cmsis_nn/Source/ConvolutionFunctions/arm_convolve_get_buffer_sizes_s8.c ****     if ((conv_params->padding.w == 0) && (conv_params->padding.h == 0) && (filter_dims->w == 1) &&
 136              		.loc 1 102 5 is_stmt 1 view .LVU20
 137              		.loc 1 102 30 is_stmt 0 view .LVU21
 138 0008 0269     		ldr	r2, [r0, #16]
 139              	.LVL8:
 140              		.loc 1 102 8 view .LVU22
 141 000a 22B9     		cbnz	r2, .L6
 142              		.loc 1 102 63 discriminator 1 view .LVU23
 143 000c 4069     		ldr	r0, [r0, #20]
 144              	.LVL9:
 145              		.loc 1 102 39 discriminator 1 view .LVU24
 146 000e 10B9     		cbnz	r0, .L6
 147              		.loc 1 102 87 discriminator 2 view .LVU25
 148 0010 8A68     		ldr	r2, [r1, #8]
 149              		.loc 1 102 72 discriminator 2 view .LVU26
 150 0012 012A     		cmp	r2, #1
 151 0014 10D0     		beq	.L10
 152              	.L6:
 103:Middlewares/tensorflow/third_party/cmsis_nn/Source/ConvolutionFunctions/arm_convolve_get_buffer_sizes_s8.c ****         (filter_dims->h == 1) && (conv_params->dilation.w == 1 && conv_params->dilation.h == 1))
 104:Middlewares/tensorflow/third_party/cmsis_nn/Source/ConvolutionFunctions/arm_convolve_get_buffer_sizes_s8.c ****     {
 105:Middlewares/tensorflow/third_party/cmsis_nn/Source/ConvolutionFunctions/arm_convolve_get_buffer_sizes_s8.c ****         if ((conv_params->stride.w == 1) && (conv_params->stride.h == 1))
 106:Middlewares/tensorflow/third_party/cmsis_nn/Source/ConvolutionFunctions/arm_convolve_get_buffer_sizes_s8.c ****         {
 107:Middlewares/tensorflow/third_party/cmsis_nn/Source/ConvolutionFunctions/arm_convolve_get_buffer_sizes_s8.c ****             return arm_convolve_1x1_s8_fast_get_buffer_size(input_dims);
 108:Middlewares/tensorflow/third_party/cmsis_nn/Source/ConvolutionFunctions/arm_convolve_get_buffer_sizes_s8.c ****         }
 109:Middlewares/tensorflow/third_party/cmsis_nn/Source/ConvolutionFunctions/arm_convolve_get_buffer_sizes_s8.c ****         else
 110:Middlewares/tensorflow/third_party/cmsis_nn/Source/ConvolutionFunctions/arm_convolve_get_buffer_sizes_s8.c ****         {
 111:Middlewares/tensorflow/third_party/cmsis_nn/Source/ConvolutionFunctions/arm_convolve_get_buffer_sizes_s8.c ****             return 0;
 112:Middlewares/tensorflow/third_party/cmsis_nn/Source/ConvolutionFunctions/arm_convolve_get_buffer_sizes_s8.c ****         }
 113:Middlewares/tensorflow/third_party/cmsis_nn/Source/ConvolutionFunctions/arm_convolve_get_buffer_sizes_s8.c ****     }
 114:Middlewares/tensorflow/third_party/cmsis_nn/Source/ConvolutionFunctions/arm_convolve_get_buffer_sizes_s8.c ****     else if ((input_dims->h == 1) && (output_dims->w % 4 == 0) && (conv_params->dilation.w == 1) &&
 153              		.loc 1 114 10 is_stmt 1 view .LVU27
 154              		.loc 1 114 25 is_stmt 0 view .LVU28
 155 0016 6268     		ldr	r2, [r4, #4]
 156              		.loc 1 114 13 view .LVU29
 157 0018 012A     		cmp	r2, #1
 158 001a 09D1     		bne	.L8
 159              		.loc 1 114 50 discriminator 1 view .LVU30
 160 001c 9B68     		ldr	r3, [r3, #8]
 161              	.LVL10:
 162              		.loc 1 114 35 discriminator 1 view .LVU31
 163 001e 13F0030F 		tst	r3, #3
 164 0022 05D1     		bne	.L8
 165              		.loc 1 114 89 discriminator 2 view .LVU32
 166 0024 AB69     		ldr	r3, [r5, #24]
 167              		.loc 1 114 64 discriminator 2 view .LVU33
 168 0026 012B     		cmp	r3, #1
 169 0028 02D1     		bne	.L8
 115:Middlewares/tensorflow/third_party/cmsis_nn/Source/ConvolutionFunctions/arm_convolve_get_buffer_sizes_s8.c ****              (filter_dims->h == 1))
 170              		.loc 1 115 26 discriminator 3 view .LVU34
 171 002a 4B68     		ldr	r3, [r1, #4]
 114:Middlewares/tensorflow/third_party/cmsis_nn/Source/ConvolutionFunctions/arm_convolve_get_buffer_sizes_s8.c ****              (filter_dims->h == 1))
 172              		.loc 1 114 98 discriminator 3 view .LVU35
 173 002c 012B     		cmp	r3, #1
 174 002e 16D0     		beq	.L11
 175              	.L8:
 116:Middlewares/tensorflow/third_party/cmsis_nn/Source/ConvolutionFunctions/arm_convolve_get_buffer_sizes_s8.c ****     {
ARM GAS  /tmp/ccIyyzxP.s 			page 6


 117:Middlewares/tensorflow/third_party/cmsis_nn/Source/ConvolutionFunctions/arm_convolve_get_buffer_sizes_s8.c ****         return arm_convolve_1_x_n_s8_get_buffer_size(input_dims, filter_dims);
 118:Middlewares/tensorflow/third_party/cmsis_nn/Source/ConvolutionFunctions/arm_convolve_get_buffer_sizes_s8.c ****     }
 119:Middlewares/tensorflow/third_party/cmsis_nn/Source/ConvolutionFunctions/arm_convolve_get_buffer_sizes_s8.c ****     else
 120:Middlewares/tensorflow/third_party/cmsis_nn/Source/ConvolutionFunctions/arm_convolve_get_buffer_sizes_s8.c ****     {
 121:Middlewares/tensorflow/third_party/cmsis_nn/Source/ConvolutionFunctions/arm_convolve_get_buffer_sizes_s8.c ****         return arm_convolve_s8_get_buffer_size(input_dims, filter_dims);
 176              		.loc 1 121 9 is_stmt 1 view .LVU36
 177              		.loc 1 121 16 is_stmt 0 view .LVU37
 178 0030 2046     		mov	r0, r4
 179 0032 FFF7FEFF 		bl	arm_convolve_s8_get_buffer_size
 180              	.LVL11:
 181              	.L5:
 122:Middlewares/tensorflow/third_party/cmsis_nn/Source/ConvolutionFunctions/arm_convolve_get_buffer_sizes_s8.c ****     }
 123:Middlewares/tensorflow/third_party/cmsis_nn/Source/ConvolutionFunctions/arm_convolve_get_buffer_sizes_s8.c **** #endif
 124:Middlewares/tensorflow/third_party/cmsis_nn/Source/ConvolutionFunctions/arm_convolve_get_buffer_sizes_s8.c **** }
 182              		.loc 1 124 1 view .LVU38
 183 0036 38BD     		pop	{r3, r4, r5, pc}
 184              	.LVL12:
 185              	.L10:
 103:Middlewares/tensorflow/third_party/cmsis_nn/Source/ConvolutionFunctions/arm_convolve_get_buffer_sizes_s8.c ****     {
 186              		.loc 1 103 21 discriminator 3 view .LVU39
 187 0038 4A68     		ldr	r2, [r1, #4]
 102:Middlewares/tensorflow/third_party/cmsis_nn/Source/ConvolutionFunctions/arm_convolve_get_buffer_sizes_s8.c ****         (filter_dims->h == 1) && (conv_params->dilation.w == 1 && conv_params->dilation.h == 1))
 188              		.loc 1 102 97 discriminator 3 view .LVU40
 189 003a 012A     		cmp	r2, #1
 190 003c EBD1     		bne	.L6
 103:Middlewares/tensorflow/third_party/cmsis_nn/Source/ConvolutionFunctions/arm_convolve_get_buffer_sizes_s8.c ****     {
 191              		.loc 1 103 56 view .LVU41
 192 003e AA69     		ldr	r2, [r5, #24]
 103:Middlewares/tensorflow/third_party/cmsis_nn/Source/ConvolutionFunctions/arm_convolve_get_buffer_sizes_s8.c ****     {
 193              		.loc 1 103 31 view .LVU42
 194 0040 012A     		cmp	r2, #1
 195 0042 E8D1     		bne	.L6
 103:Middlewares/tensorflow/third_party/cmsis_nn/Source/ConvolutionFunctions/arm_convolve_get_buffer_sizes_s8.c ****     {
 196              		.loc 1 103 88 discriminator 1 view .LVU43
 197 0044 EA69     		ldr	r2, [r5, #28]
 103:Middlewares/tensorflow/third_party/cmsis_nn/Source/ConvolutionFunctions/arm_convolve_get_buffer_sizes_s8.c ****     {
 198              		.loc 1 103 64 discriminator 1 view .LVU44
 199 0046 012A     		cmp	r2, #1
 200 0048 E5D1     		bne	.L6
 105:Middlewares/tensorflow/third_party/cmsis_nn/Source/ConvolutionFunctions/arm_convolve_get_buffer_sizes_s8.c ****         {
 201              		.loc 1 105 9 is_stmt 1 view .LVU45
 105:Middlewares/tensorflow/third_party/cmsis_nn/Source/ConvolutionFunctions/arm_convolve_get_buffer_sizes_s8.c ****         {
 202              		.loc 1 105 33 is_stmt 0 view .LVU46
 203 004a AB68     		ldr	r3, [r5, #8]
 204              	.LVL13:
 105:Middlewares/tensorflow/third_party/cmsis_nn/Source/ConvolutionFunctions/arm_convolve_get_buffer_sizes_s8.c ****         {
 205              		.loc 1 105 12 view .LVU47
 206 004c 012B     		cmp	r3, #1
 207 004e F2D1     		bne	.L5
 105:Middlewares/tensorflow/third_party/cmsis_nn/Source/ConvolutionFunctions/arm_convolve_get_buffer_sizes_s8.c ****         {
 208              		.loc 1 105 65 discriminator 1 view .LVU48
 209 0050 EB68     		ldr	r3, [r5, #12]
 105:Middlewares/tensorflow/third_party/cmsis_nn/Source/ConvolutionFunctions/arm_convolve_get_buffer_sizes_s8.c ****         {
 210              		.loc 1 105 42 discriminator 1 view .LVU49
 211 0052 012B     		cmp	r3, #1
 212 0054 EFD1     		bne	.L5
 107:Middlewares/tensorflow/third_party/cmsis_nn/Source/ConvolutionFunctions/arm_convolve_get_buffer_sizes_s8.c ****         }
ARM GAS  /tmp/ccIyyzxP.s 			page 7


 213              		.loc 1 107 13 is_stmt 1 view .LVU50
 107:Middlewares/tensorflow/third_party/cmsis_nn/Source/ConvolutionFunctions/arm_convolve_get_buffer_sizes_s8.c ****         }
 214              		.loc 1 107 20 is_stmt 0 view .LVU51
 215 0056 2046     		mov	r0, r4
 216 0058 FFF7FEFF 		bl	arm_convolve_1x1_s8_fast_get_buffer_size
 217              	.LVL14:
 107:Middlewares/tensorflow/third_party/cmsis_nn/Source/ConvolutionFunctions/arm_convolve_get_buffer_sizes_s8.c ****         }
 218              		.loc 1 107 20 view .LVU52
 219 005c EBE7     		b	.L5
 220              	.LVL15:
 221              	.L11:
 117:Middlewares/tensorflow/third_party/cmsis_nn/Source/ConvolutionFunctions/arm_convolve_get_buffer_sizes_s8.c ****     }
 222              		.loc 1 117 9 is_stmt 1 view .LVU53
 117:Middlewares/tensorflow/third_party/cmsis_nn/Source/ConvolutionFunctions/arm_convolve_get_buffer_sizes_s8.c ****     }
 223              		.loc 1 117 16 is_stmt 0 view .LVU54
 224 005e 2046     		mov	r0, r4
 225 0060 FFF7FEFF 		bl	arm_convolve_1_x_n_s8_get_buffer_size
 226              	.LVL16:
 117:Middlewares/tensorflow/third_party/cmsis_nn/Source/ConvolutionFunctions/arm_convolve_get_buffer_sizes_s8.c ****     }
 227              		.loc 1 117 16 view .LVU55
 228 0064 E7E7     		b	.L5
 229              		.cfi_endproc
 230              	.LFE32:
 232              		.section	.text.arm_convolve_wrapper_s8_get_buffer_size_mve,"ax",%progbits
 233              		.align	1
 234              		.global	arm_convolve_wrapper_s8_get_buffer_size_mve
 235              		.syntax unified
 236              		.thumb
 237              		.thumb_func
 238              		.fpu fpv4-sp-d16
 240              	arm_convolve_wrapper_s8_get_buffer_size_mve:
 241              	.LVL17:
 242              	.LFB33:
 125:Middlewares/tensorflow/third_party/cmsis_nn/Source/ConvolutionFunctions/arm_convolve_get_buffer_sizes_s8.c **** 
 126:Middlewares/tensorflow/third_party/cmsis_nn/Source/ConvolutionFunctions/arm_convolve_get_buffer_sizes_s8.c **** int32_t arm_convolve_wrapper_s8_get_buffer_size_mve(const cmsis_nn_conv_params *conv_params,
 127:Middlewares/tensorflow/third_party/cmsis_nn/Source/ConvolutionFunctions/arm_convolve_get_buffer_sizes_s8.c ****                                                     const cmsis_nn_dims *input_dims,
 128:Middlewares/tensorflow/third_party/cmsis_nn/Source/ConvolutionFunctions/arm_convolve_get_buffer_sizes_s8.c ****                                                     const cmsis_nn_dims *filter_dims,
 129:Middlewares/tensorflow/third_party/cmsis_nn/Source/ConvolutionFunctions/arm_convolve_get_buffer_sizes_s8.c ****                                                     const cmsis_nn_dims *output_dims)
 130:Middlewares/tensorflow/third_party/cmsis_nn/Source/ConvolutionFunctions/arm_convolve_get_buffer_sizes_s8.c **** {
 243              		.loc 1 130 1 is_stmt 1 view -0
 244              		.cfi_startproc
 245              		@ args = 0, pretend = 0, frame = 0
 246              		@ frame_needed = 0, uses_anonymous_args = 0
 247              		.loc 1 130 1 is_stmt 0 view .LVU57
 248 0000 38B5     		push	{r3, r4, r5, lr}
 249              	.LCFI2:
 250              		.cfi_def_cfa_offset 16
 251              		.cfi_offset 3, -16
 252              		.cfi_offset 4, -12
 253              		.cfi_offset 5, -8
 254              		.cfi_offset 14, -4
 255 0002 0546     		mov	r5, r0
 131:Middlewares/tensorflow/third_party/cmsis_nn/Source/ConvolutionFunctions/arm_convolve_get_buffer_sizes_s8.c ****     if ((conv_params->padding.w == 0) && (conv_params->padding.h == 0) && (filter_dims->w == 1) &&
 256              		.loc 1 131 5 is_stmt 1 view .LVU58
 257              		.loc 1 131 30 is_stmt 0 view .LVU59
 258 0004 0469     		ldr	r4, [r0, #16]
 259              		.loc 1 131 8 view .LVU60
ARM GAS  /tmp/ccIyyzxP.s 			page 8


 260 0006 24B9     		cbnz	r4, .L13
 261              		.loc 1 131 63 discriminator 1 view .LVU61
 262 0008 4069     		ldr	r0, [r0, #20]
 263              	.LVL18:
 264              		.loc 1 131 39 discriminator 1 view .LVU62
 265 000a 10B9     		cbnz	r0, .L13
 266              		.loc 1 131 87 discriminator 2 view .LVU63
 267 000c 9468     		ldr	r4, [r2, #8]
 268              		.loc 1 131 72 discriminator 2 view .LVU64
 269 000e 012C     		cmp	r4, #1
 270 0010 18D0     		beq	.L19
 271              	.L13:
 132:Middlewares/tensorflow/third_party/cmsis_nn/Source/ConvolutionFunctions/arm_convolve_get_buffer_sizes_s8.c ****         (filter_dims->h == 1) && (conv_params->dilation.w == 1 && conv_params->dilation.h == 1))
 133:Middlewares/tensorflow/third_party/cmsis_nn/Source/ConvolutionFunctions/arm_convolve_get_buffer_sizes_s8.c ****     {
 134:Middlewares/tensorflow/third_party/cmsis_nn/Source/ConvolutionFunctions/arm_convolve_get_buffer_sizes_s8.c ****         if ((conv_params->stride.w == 1) && (conv_params->stride.h == 1))
 135:Middlewares/tensorflow/third_party/cmsis_nn/Source/ConvolutionFunctions/arm_convolve_get_buffer_sizes_s8.c ****         {
 136:Middlewares/tensorflow/third_party/cmsis_nn/Source/ConvolutionFunctions/arm_convolve_get_buffer_sizes_s8.c ****             return arm_convolve_1x1_s8_fast_get_buffer_size(input_dims);
 137:Middlewares/tensorflow/third_party/cmsis_nn/Source/ConvolutionFunctions/arm_convolve_get_buffer_sizes_s8.c ****         }
 138:Middlewares/tensorflow/third_party/cmsis_nn/Source/ConvolutionFunctions/arm_convolve_get_buffer_sizes_s8.c ****         else
 139:Middlewares/tensorflow/third_party/cmsis_nn/Source/ConvolutionFunctions/arm_convolve_get_buffer_sizes_s8.c ****         {
 140:Middlewares/tensorflow/third_party/cmsis_nn/Source/ConvolutionFunctions/arm_convolve_get_buffer_sizes_s8.c ****             return 0;
 141:Middlewares/tensorflow/third_party/cmsis_nn/Source/ConvolutionFunctions/arm_convolve_get_buffer_sizes_s8.c ****         }
 142:Middlewares/tensorflow/third_party/cmsis_nn/Source/ConvolutionFunctions/arm_convolve_get_buffer_sizes_s8.c ****     }
 143:Middlewares/tensorflow/third_party/cmsis_nn/Source/ConvolutionFunctions/arm_convolve_get_buffer_sizes_s8.c ****     else if ((input_dims->h == 1) && (output_dims->w % 4 == 0) && (conv_params->dilation.w == 1) &&
 272              		.loc 1 143 10 is_stmt 1 view .LVU65
 273              		.loc 1 143 25 is_stmt 0 view .LVU66
 274 0012 4868     		ldr	r0, [r1, #4]
 275              		.loc 1 143 13 view .LVU67
 276 0014 0128     		cmp	r0, #1
 277 0016 09D1     		bne	.L15
 278              		.loc 1 143 50 discriminator 1 view .LVU68
 279 0018 9B68     		ldr	r3, [r3, #8]
 280              	.LVL19:
 281              		.loc 1 143 35 discriminator 1 view .LVU69
 282 001a 13F0030F 		tst	r3, #3
 283 001e 05D1     		bne	.L15
 284              		.loc 1 143 89 discriminator 2 view .LVU70
 285 0020 AB69     		ldr	r3, [r5, #24]
 286              		.loc 1 143 64 discriminator 2 view .LVU71
 287 0022 012B     		cmp	r3, #1
 288 0024 02D1     		bne	.L15
 144:Middlewares/tensorflow/third_party/cmsis_nn/Source/ConvolutionFunctions/arm_convolve_get_buffer_sizes_s8.c ****              (filter_dims->h == 1))
 289              		.loc 1 144 26 discriminator 3 view .LVU72
 290 0026 5368     		ldr	r3, [r2, #4]
 143:Middlewares/tensorflow/third_party/cmsis_nn/Source/ConvolutionFunctions/arm_convolve_get_buffer_sizes_s8.c ****              (filter_dims->h == 1))
 291              		.loc 1 143 98 discriminator 3 view .LVU73
 292 0028 012B     		cmp	r3, #1
 293 002a 20D0     		beq	.L17
 294              	.L15:
 145:Middlewares/tensorflow/third_party/cmsis_nn/Source/ConvolutionFunctions/arm_convolve_get_buffer_sizes_s8.c ****     {
 146:Middlewares/tensorflow/third_party/cmsis_nn/Source/ConvolutionFunctions/arm_convolve_get_buffer_sizes_s8.c ****         return arm_convolve_1_x_n_s8_get_buffer_size_mve(input_dims, filter_dims);
 147:Middlewares/tensorflow/third_party/cmsis_nn/Source/ConvolutionFunctions/arm_convolve_get_buffer_sizes_s8.c ****     }
 148:Middlewares/tensorflow/third_party/cmsis_nn/Source/ConvolutionFunctions/arm_convolve_get_buffer_sizes_s8.c ****     else
 149:Middlewares/tensorflow/third_party/cmsis_nn/Source/ConvolutionFunctions/arm_convolve_get_buffer_sizes_s8.c ****     {
 150:Middlewares/tensorflow/third_party/cmsis_nn/Source/ConvolutionFunctions/arm_convolve_get_buffer_sizes_s8.c ****         return arm_convolve_s8_get_buffer_size_mve(input_dims, filter_dims);
 295              		.loc 1 150 9 is_stmt 1 view .LVU74
 296              	.LVL20:
ARM GAS  /tmp/ccIyyzxP.s 			page 9


 297              	.LBB6:
 298              	.LBI6:
  43:Middlewares/tensorflow/third_party/cmsis_nn/Source/ConvolutionFunctions/arm_convolve_get_buffer_sizes_s8.c ****                                                             const cmsis_nn_dims *filter_dims)
 299              		.loc 1 43 25 view .LVU75
 300              	.LBB7:
  46:Middlewares/tensorflow/third_party/cmsis_nn/Source/ConvolutionFunctions/arm_convolve_get_buffer_sizes_s8.c ****     // Get number of complete int16 lanes(multiple of 8) for given col_length. This is dependent on
 301              		.loc 1 46 5 view .LVU76
  46:Middlewares/tensorflow/third_party/cmsis_nn/Source/ConvolutionFunctions/arm_convolve_get_buffer_sizes_s8.c ****     // Get number of complete int16 lanes(multiple of 8) for given col_length. This is dependent on
 302              		.loc 1 46 36 is_stmt 0 view .LVU77
 303 002c C868     		ldr	r0, [r1, #12]
  46:Middlewares/tensorflow/third_party/cmsis_nn/Source/ConvolutionFunctions/arm_convolve_get_buffer_sizes_s8.c ****     // Get number of complete int16 lanes(multiple of 8) for given col_length. This is dependent on
 304              		.loc 1 46 53 view .LVU78
 305 002e 9368     		ldr	r3, [r2, #8]
  46:Middlewares/tensorflow/third_party/cmsis_nn/Source/ConvolutionFunctions/arm_convolve_get_buffer_sizes_s8.c ****     // Get number of complete int16 lanes(multiple of 8) for given col_length. This is dependent on
 306              		.loc 1 46 40 view .LVU79
 307 0030 00FB03F3 		mul	r3, r0, r3
  46:Middlewares/tensorflow/third_party/cmsis_nn/Source/ConvolutionFunctions/arm_convolve_get_buffer_sizes_s8.c ****     // Get number of complete int16 lanes(multiple of 8) for given col_length. This is dependent on
 308              		.loc 1 46 70 view .LVU80
 309 0034 5068     		ldr	r0, [r2, #4]
  46:Middlewares/tensorflow/third_party/cmsis_nn/Source/ConvolutionFunctions/arm_convolve_get_buffer_sizes_s8.c ****     // Get number of complete int16 lanes(multiple of 8) for given col_length. This is dependent on
 310              		.loc 1 46 13 view .LVU81
 311 0036 00FB03F0 		mul	r0, r0, r3
 312              	.LVL21:
  49:Middlewares/tensorflow/third_party/cmsis_nn/Source/ConvolutionFunctions/arm_convolve_get_buffer_sizes_s8.c ****     // 4 -> number of im2col buffers, 8 -> 8 elements per Q register
 313              		.loc 1 49 5 is_stmt 1 view .LVU82
  49:Middlewares/tensorflow/third_party/cmsis_nn/Source/ConvolutionFunctions/arm_convolve_get_buffer_sizes_s8.c ****     // 4 -> number of im2col buffers, 8 -> 8 elements per Q register
 314              		.loc 1 49 16 is_stmt 0 view .LVU83
 315 003a 0730     		adds	r0, r0, #7
 316              	.LVL22:
  49:Middlewares/tensorflow/third_party/cmsis_nn/Source/ConvolutionFunctions/arm_convolve_get_buffer_sizes_s8.c ****     // 4 -> number of im2col buffers, 8 -> 8 elements per Q register
 317              		.loc 1 49 16 view .LVU84
 318 003c 15D4     		bmi	.L20
 319              	.LVL23:
 320              	.L16:
  49:Middlewares/tensorflow/third_party/cmsis_nn/Source/ConvolutionFunctions/arm_convolve_get_buffer_sizes_s8.c ****     // 4 -> number of im2col buffers, 8 -> 8 elements per Q register
 321              		.loc 1 49 16 view .LVU85
 322 003e C010     		asrs	r0, r0, #3
 323              	.LVL24:
  51:Middlewares/tensorflow/third_party/cmsis_nn/Source/ConvolutionFunctions/arm_convolve_get_buffer_sizes_s8.c **** }
 324              		.loc 1 51 5 is_stmt 1 view .LVU86
  51:Middlewares/tensorflow/third_party/cmsis_nn/Source/ConvolutionFunctions/arm_convolve_get_buffer_sizes_s8.c **** }
 325              		.loc 1 51 31 is_stmt 0 view .LVU87
 326 0040 4001     		lsls	r0, r0, #5
 327              	.LVL25:
 328              	.L12:
  51:Middlewares/tensorflow/third_party/cmsis_nn/Source/ConvolutionFunctions/arm_convolve_get_buffer_sizes_s8.c **** }
 329              		.loc 1 51 31 view .LVU88
 330              	.LBE7:
 331              	.LBE6:
 151:Middlewares/tensorflow/third_party/cmsis_nn/Source/ConvolutionFunctions/arm_convolve_get_buffer_sizes_s8.c ****     }
 152:Middlewares/tensorflow/third_party/cmsis_nn/Source/ConvolutionFunctions/arm_convolve_get_buffer_sizes_s8.c **** }
 332              		.loc 1 152 1 view .LVU89
 333 0042 38BD     		pop	{r3, r4, r5, pc}
 334              	.LVL26:
 335              	.L19:
 132:Middlewares/tensorflow/third_party/cmsis_nn/Source/ConvolutionFunctions/arm_convolve_get_buffer_sizes_s8.c ****     {
 336              		.loc 1 132 21 discriminator 3 view .LVU90
ARM GAS  /tmp/ccIyyzxP.s 			page 10


 337 0044 5468     		ldr	r4, [r2, #4]
 131:Middlewares/tensorflow/third_party/cmsis_nn/Source/ConvolutionFunctions/arm_convolve_get_buffer_sizes_s8.c ****         (filter_dims->h == 1) && (conv_params->dilation.w == 1 && conv_params->dilation.h == 1))
 338              		.loc 1 131 97 discriminator 3 view .LVU91
 339 0046 012C     		cmp	r4, #1
 340 0048 E3D1     		bne	.L13
 132:Middlewares/tensorflow/third_party/cmsis_nn/Source/ConvolutionFunctions/arm_convolve_get_buffer_sizes_s8.c ****     {
 341              		.loc 1 132 56 view .LVU92
 342 004a AC69     		ldr	r4, [r5, #24]
 132:Middlewares/tensorflow/third_party/cmsis_nn/Source/ConvolutionFunctions/arm_convolve_get_buffer_sizes_s8.c ****     {
 343              		.loc 1 132 31 view .LVU93
 344 004c 012C     		cmp	r4, #1
 345 004e E0D1     		bne	.L13
 132:Middlewares/tensorflow/third_party/cmsis_nn/Source/ConvolutionFunctions/arm_convolve_get_buffer_sizes_s8.c ****     {
 346              		.loc 1 132 88 discriminator 1 view .LVU94
 347 0050 EC69     		ldr	r4, [r5, #28]
 132:Middlewares/tensorflow/third_party/cmsis_nn/Source/ConvolutionFunctions/arm_convolve_get_buffer_sizes_s8.c ****     {
 348              		.loc 1 132 64 discriminator 1 view .LVU95
 349 0052 012C     		cmp	r4, #1
 350 0054 DDD1     		bne	.L13
 134:Middlewares/tensorflow/third_party/cmsis_nn/Source/ConvolutionFunctions/arm_convolve_get_buffer_sizes_s8.c ****         {
 351              		.loc 1 134 9 is_stmt 1 view .LVU96
 134:Middlewares/tensorflow/third_party/cmsis_nn/Source/ConvolutionFunctions/arm_convolve_get_buffer_sizes_s8.c ****         {
 352              		.loc 1 134 33 is_stmt 0 view .LVU97
 353 0056 AB68     		ldr	r3, [r5, #8]
 354              	.LVL27:
 134:Middlewares/tensorflow/third_party/cmsis_nn/Source/ConvolutionFunctions/arm_convolve_get_buffer_sizes_s8.c ****         {
 355              		.loc 1 134 12 view .LVU98
 356 0058 012B     		cmp	r3, #1
 357 005a F2D1     		bne	.L12
 134:Middlewares/tensorflow/third_party/cmsis_nn/Source/ConvolutionFunctions/arm_convolve_get_buffer_sizes_s8.c ****         {
 358              		.loc 1 134 65 discriminator 1 view .LVU99
 359 005c EB68     		ldr	r3, [r5, #12]
 134:Middlewares/tensorflow/third_party/cmsis_nn/Source/ConvolutionFunctions/arm_convolve_get_buffer_sizes_s8.c ****         {
 360              		.loc 1 134 42 discriminator 1 view .LVU100
 361 005e 012B     		cmp	r3, #1
 362 0060 EFD1     		bne	.L12
 136:Middlewares/tensorflow/third_party/cmsis_nn/Source/ConvolutionFunctions/arm_convolve_get_buffer_sizes_s8.c ****         }
 363              		.loc 1 136 13 is_stmt 1 view .LVU101
 136:Middlewares/tensorflow/third_party/cmsis_nn/Source/ConvolutionFunctions/arm_convolve_get_buffer_sizes_s8.c ****         }
 364              		.loc 1 136 20 is_stmt 0 view .LVU102
 365 0062 0846     		mov	r0, r1
 366 0064 FFF7FEFF 		bl	arm_convolve_1x1_s8_fast_get_buffer_size
 367              	.LVL28:
 136:Middlewares/tensorflow/third_party/cmsis_nn/Source/ConvolutionFunctions/arm_convolve_get_buffer_sizes_s8.c ****         }
 368              		.loc 1 136 20 view .LVU103
 369 0068 EBE7     		b	.L12
 370              	.LVL29:
 371              	.L20:
 372              	.LBB9:
 373              	.LBB8:
  49:Middlewares/tensorflow/third_party/cmsis_nn/Source/ConvolutionFunctions/arm_convolve_get_buffer_sizes_s8.c ****     // 4 -> number of im2col buffers, 8 -> 8 elements per Q register
 374              		.loc 1 49 16 view .LVU104
 375 006a 0730     		adds	r0, r0, #7
 376              	.LVL30:
  49:Middlewares/tensorflow/third_party/cmsis_nn/Source/ConvolutionFunctions/arm_convolve_get_buffer_sizes_s8.c ****     // 4 -> number of im2col buffers, 8 -> 8 elements per Q register
 377              		.loc 1 49 16 view .LVU105
 378 006c E7E7     		b	.L16
ARM GAS  /tmp/ccIyyzxP.s 			page 11


 379              	.LVL31:
 380              	.L17:
  49:Middlewares/tensorflow/third_party/cmsis_nn/Source/ConvolutionFunctions/arm_convolve_get_buffer_sizes_s8.c ****     // 4 -> number of im2col buffers, 8 -> 8 elements per Q register
 381              		.loc 1 49 16 view .LVU106
 382              	.LBE8:
 383              	.LBE9:
 146:Middlewares/tensorflow/third_party/cmsis_nn/Source/ConvolutionFunctions/arm_convolve_get_buffer_sizes_s8.c ****     }
 384              		.loc 1 146 16 view .LVU107
 385 006e 0020     		movs	r0, #0
 386 0070 E7E7     		b	.L12
 387              		.cfi_endproc
 388              	.LFE33:
 390              		.section	.text.arm_convolve_wrapper_s8_get_buffer_size_dsp,"ax",%progbits
 391              		.align	1
 392              		.global	arm_convolve_wrapper_s8_get_buffer_size_dsp
 393              		.syntax unified
 394              		.thumb
 395              		.thumb_func
 396              		.fpu fpv4-sp-d16
 398              	arm_convolve_wrapper_s8_get_buffer_size_dsp:
 399              	.LVL32:
 400              	.LFB34:
 153:Middlewares/tensorflow/third_party/cmsis_nn/Source/ConvolutionFunctions/arm_convolve_get_buffer_sizes_s8.c **** 
 154:Middlewares/tensorflow/third_party/cmsis_nn/Source/ConvolutionFunctions/arm_convolve_get_buffer_sizes_s8.c **** int32_t arm_convolve_wrapper_s8_get_buffer_size_dsp(const cmsis_nn_conv_params *conv_params,
 155:Middlewares/tensorflow/third_party/cmsis_nn/Source/ConvolutionFunctions/arm_convolve_get_buffer_sizes_s8.c ****                                                     const cmsis_nn_dims *input_dims,
 156:Middlewares/tensorflow/third_party/cmsis_nn/Source/ConvolutionFunctions/arm_convolve_get_buffer_sizes_s8.c ****                                                     const cmsis_nn_dims *filter_dims,
 157:Middlewares/tensorflow/third_party/cmsis_nn/Source/ConvolutionFunctions/arm_convolve_get_buffer_sizes_s8.c ****                                                     const cmsis_nn_dims *output_dims)
 158:Middlewares/tensorflow/third_party/cmsis_nn/Source/ConvolutionFunctions/arm_convolve_get_buffer_sizes_s8.c **** {
 401              		.loc 1 158 1 is_stmt 1 view -0
 402              		.cfi_startproc
 403              		@ args = 0, pretend = 0, frame = 0
 404              		@ frame_needed = 0, uses_anonymous_args = 0
 405              		.loc 1 158 1 is_stmt 0 view .LVU109
 406 0000 08B5     		push	{r3, lr}
 407              	.LCFI3:
 408              		.cfi_def_cfa_offset 8
 409              		.cfi_offset 3, -8
 410              		.cfi_offset 14, -4
 159:Middlewares/tensorflow/third_party/cmsis_nn/Source/ConvolutionFunctions/arm_convolve_get_buffer_sizes_s8.c ****     return arm_convolve_wrapper_s8_get_buffer_size(conv_params, input_dims, filter_dims, output_dim
 411              		.loc 1 159 5 is_stmt 1 view .LVU110
 412              		.loc 1 159 12 is_stmt 0 view .LVU111
 413 0002 FFF7FEFF 		bl	arm_convolve_wrapper_s8_get_buffer_size
 414              	.LVL33:
 160:Middlewares/tensorflow/third_party/cmsis_nn/Source/ConvolutionFunctions/arm_convolve_get_buffer_sizes_s8.c **** }
 415              		.loc 1 160 1 view .LVU112
 416 0006 08BD     		pop	{r3, pc}
 417              		.cfi_endproc
 418              	.LFE34:
 420              		.text
 421              	.Letext0:
 422              		.file 2 "/usr/lib/gcc/arm-none-eabi/9.2.1/include/stdint.h"
 423              		.file 3 "/usr/lib/gcc/arm-none-eabi/9.2.1/include/stddef.h"
 424              		.file 4 "/usr/include/newlib/sys/_types.h"
 425              		.file 5 "/usr/include/newlib/sys/reent.h"
 426              		.file 6 "/usr/include/newlib/sys/lock.h"
 427              		.file 7 "Middlewares/tensorflow/third_party/cmsis_nn/Include/arm_nn_types.h"
ARM GAS  /tmp/ccIyyzxP.s 			page 12

