ARM GAS  /tmp/ccQr0DhO.s 			page 1


   1              		.cpu cortex-m4
   2              		.eabi_attribute 27, 1
   3              		.eabi_attribute 28, 1
   4              		.eabi_attribute 20, 1
   5              		.eabi_attribute 21, 1
   6              		.eabi_attribute 23, 3
   7              		.eabi_attribute 24, 1
   8              		.eabi_attribute 25, 1
   9              		.eabi_attribute 26, 1
  10              		.eabi_attribute 30, 1
  11              		.eabi_attribute 34, 1
  12              		.eabi_attribute 18, 4
  13              		.file	"arm_nn_vec_mat_mult_t_svdf_s8.c"
  14              		.text
  15              	.Ltext0:
  16              		.cfi_sections	.debug_frame
  17              		.section	.text.arm_nn_vec_mat_mult_t_svdf_s8,"ax",%progbits
  18              		.align	1
  19              		.global	arm_nn_vec_mat_mult_t_svdf_s8
  20              		.arch armv7e-m
  21              		.syntax unified
  22              		.thumb
  23              		.thumb_func
  24              		.fpu fpv4-sp-d16
  26              	arm_nn_vec_mat_mult_t_svdf_s8:
  27              	.LVL0:
  28              	.LFB47:
  29              		.file 1 "Middlewares/tensorflow/third_party/cmsis_nn/Source/NNSupportFunctions/arm_nn_vec_mat_mult
   1:Middlewares/tensorflow/third_party/cmsis_nn/Source/NNSupportFunctions/arm_nn_vec_mat_mult_t_svdf_s8.c **** /*
   2:Middlewares/tensorflow/third_party/cmsis_nn/Source/NNSupportFunctions/arm_nn_vec_mat_mult_t_svdf_s8.c ****  * SPDX-FileCopyrightText: Copyright 2021-2023 Arm Limited and/or its affiliates <open-source-offic
   3:Middlewares/tensorflow/third_party/cmsis_nn/Source/NNSupportFunctions/arm_nn_vec_mat_mult_t_svdf_s8.c ****  *
   4:Middlewares/tensorflow/third_party/cmsis_nn/Source/NNSupportFunctions/arm_nn_vec_mat_mult_t_svdf_s8.c ****  * SPDX-License-Identifier: Apache-2.0
   5:Middlewares/tensorflow/third_party/cmsis_nn/Source/NNSupportFunctions/arm_nn_vec_mat_mult_t_svdf_s8.c ****  *
   6:Middlewares/tensorflow/third_party/cmsis_nn/Source/NNSupportFunctions/arm_nn_vec_mat_mult_t_svdf_s8.c ****  * Licensed under the Apache License, Version 2.0 (the License); you may
   7:Middlewares/tensorflow/third_party/cmsis_nn/Source/NNSupportFunctions/arm_nn_vec_mat_mult_t_svdf_s8.c ****  * not use this file except in compliance with the License.
   8:Middlewares/tensorflow/third_party/cmsis_nn/Source/NNSupportFunctions/arm_nn_vec_mat_mult_t_svdf_s8.c ****  * You may obtain a copy of the License at
   9:Middlewares/tensorflow/third_party/cmsis_nn/Source/NNSupportFunctions/arm_nn_vec_mat_mult_t_svdf_s8.c ****  *
  10:Middlewares/tensorflow/third_party/cmsis_nn/Source/NNSupportFunctions/arm_nn_vec_mat_mult_t_svdf_s8.c ****  * www.apache.org/licenses/LICENSE-2.0
  11:Middlewares/tensorflow/third_party/cmsis_nn/Source/NNSupportFunctions/arm_nn_vec_mat_mult_t_svdf_s8.c ****  *
  12:Middlewares/tensorflow/third_party/cmsis_nn/Source/NNSupportFunctions/arm_nn_vec_mat_mult_t_svdf_s8.c ****  * Unless required by applicable law or agreed to in writing, software
  13:Middlewares/tensorflow/third_party/cmsis_nn/Source/NNSupportFunctions/arm_nn_vec_mat_mult_t_svdf_s8.c ****  * distributed under the License is distributed on an AS IS BASIS, WITHOUT
  14:Middlewares/tensorflow/third_party/cmsis_nn/Source/NNSupportFunctions/arm_nn_vec_mat_mult_t_svdf_s8.c ****  * WARRANTIES OR CONDITIONS OF ANY KIND, either express or implied.
  15:Middlewares/tensorflow/third_party/cmsis_nn/Source/NNSupportFunctions/arm_nn_vec_mat_mult_t_svdf_s8.c ****  * See the License for the specific language governing permissions and
  16:Middlewares/tensorflow/third_party/cmsis_nn/Source/NNSupportFunctions/arm_nn_vec_mat_mult_t_svdf_s8.c ****  * limitations under the License.
  17:Middlewares/tensorflow/third_party/cmsis_nn/Source/NNSupportFunctions/arm_nn_vec_mat_mult_t_svdf_s8.c ****  */
  18:Middlewares/tensorflow/third_party/cmsis_nn/Source/NNSupportFunctions/arm_nn_vec_mat_mult_t_svdf_s8.c **** 
  19:Middlewares/tensorflow/third_party/cmsis_nn/Source/NNSupportFunctions/arm_nn_vec_mat_mult_t_svdf_s8.c **** /* ----------------------------------------------------------------------
  20:Middlewares/tensorflow/third_party/cmsis_nn/Source/NNSupportFunctions/arm_nn_vec_mat_mult_t_svdf_s8.c ****  * Project:      CMSIS NN Library
  21:Middlewares/tensorflow/third_party/cmsis_nn/Source/NNSupportFunctions/arm_nn_vec_mat_mult_t_svdf_s8.c ****  * Title:        arm_nn_vec_mat_mult_t_svdf_s8
  22:Middlewares/tensorflow/third_party/cmsis_nn/Source/NNSupportFunctions/arm_nn_vec_mat_mult_t_svdf_s8.c ****  * Description:  s8 vector by matrix (transposed) multiplication with
  23:Middlewares/tensorflow/third_party/cmsis_nn/Source/NNSupportFunctions/arm_nn_vec_mat_mult_t_svdf_s8.c ****  *               s16 output. Targetted at SVDF operator.
  24:Middlewares/tensorflow/third_party/cmsis_nn/Source/NNSupportFunctions/arm_nn_vec_mat_mult_t_svdf_s8.c ****  *
  25:Middlewares/tensorflow/third_party/cmsis_nn/Source/NNSupportFunctions/arm_nn_vec_mat_mult_t_svdf_s8.c ****  * $Date:        5 January 2023
  26:Middlewares/tensorflow/third_party/cmsis_nn/Source/NNSupportFunctions/arm_nn_vec_mat_mult_t_svdf_s8.c ****  * $Revision:    V.3.1.0
  27:Middlewares/tensorflow/third_party/cmsis_nn/Source/NNSupportFunctions/arm_nn_vec_mat_mult_t_svdf_s8.c ****  *
  28:Middlewares/tensorflow/third_party/cmsis_nn/Source/NNSupportFunctions/arm_nn_vec_mat_mult_t_svdf_s8.c ****  * Target :  Arm(R) M-Profile Architecture
  29:Middlewares/tensorflow/third_party/cmsis_nn/Source/NNSupportFunctions/arm_nn_vec_mat_mult_t_svdf_s8.c ****  *
ARM GAS  /tmp/ccQr0DhO.s 			page 2


  30:Middlewares/tensorflow/third_party/cmsis_nn/Source/NNSupportFunctions/arm_nn_vec_mat_mult_t_svdf_s8.c ****  * -------------------------------------------------------------------- */
  31:Middlewares/tensorflow/third_party/cmsis_nn/Source/NNSupportFunctions/arm_nn_vec_mat_mult_t_svdf_s8.c **** 
  32:Middlewares/tensorflow/third_party/cmsis_nn/Source/NNSupportFunctions/arm_nn_vec_mat_mult_t_svdf_s8.c **** #include "arm_nnsupportfunctions.h"
  33:Middlewares/tensorflow/third_party/cmsis_nn/Source/NNSupportFunctions/arm_nn_vec_mat_mult_t_svdf_s8.c **** 
  34:Middlewares/tensorflow/third_party/cmsis_nn/Source/NNSupportFunctions/arm_nn_vec_mat_mult_t_svdf_s8.c **** /**
  35:Middlewares/tensorflow/third_party/cmsis_nn/Source/NNSupportFunctions/arm_nn_vec_mat_mult_t_svdf_s8.c ****  * @ingroup groupSupport
  36:Middlewares/tensorflow/third_party/cmsis_nn/Source/NNSupportFunctions/arm_nn_vec_mat_mult_t_svdf_s8.c ****  */
  37:Middlewares/tensorflow/third_party/cmsis_nn/Source/NNSupportFunctions/arm_nn_vec_mat_mult_t_svdf_s8.c **** 
  38:Middlewares/tensorflow/third_party/cmsis_nn/Source/NNSupportFunctions/arm_nn_vec_mat_mult_t_svdf_s8.c **** /**
  39:Middlewares/tensorflow/third_party/cmsis_nn/Source/NNSupportFunctions/arm_nn_vec_mat_mult_t_svdf_s8.c ****  * @addtogroup supportFC
  40:Middlewares/tensorflow/third_party/cmsis_nn/Source/NNSupportFunctions/arm_nn_vec_mat_mult_t_svdf_s8.c ****  * @{
  41:Middlewares/tensorflow/third_party/cmsis_nn/Source/NNSupportFunctions/arm_nn_vec_mat_mult_t_svdf_s8.c ****  */
  42:Middlewares/tensorflow/third_party/cmsis_nn/Source/NNSupportFunctions/arm_nn_vec_mat_mult_t_svdf_s8.c **** 
  43:Middlewares/tensorflow/third_party/cmsis_nn/Source/NNSupportFunctions/arm_nn_vec_mat_mult_t_svdf_s8.c **** /*
  44:Middlewares/tensorflow/third_party/cmsis_nn/Source/NNSupportFunctions/arm_nn_vec_mat_mult_t_svdf_s8.c ****  * s8 vector(lhs) by matrix (transposed) multiplication
  45:Middlewares/tensorflow/third_party/cmsis_nn/Source/NNSupportFunctions/arm_nn_vec_mat_mult_t_svdf_s8.c ****  *
  46:Middlewares/tensorflow/third_party/cmsis_nn/Source/NNSupportFunctions/arm_nn_vec_mat_mult_t_svdf_s8.c ****  * Refer header file for details.
  47:Middlewares/tensorflow/third_party/cmsis_nn/Source/NNSupportFunctions/arm_nn_vec_mat_mult_t_svdf_s8.c ****  *
  48:Middlewares/tensorflow/third_party/cmsis_nn/Source/NNSupportFunctions/arm_nn_vec_mat_mult_t_svdf_s8.c ****  */
  49:Middlewares/tensorflow/third_party/cmsis_nn/Source/NNSupportFunctions/arm_nn_vec_mat_mult_t_svdf_s8.c **** arm_cmsis_nn_status arm_nn_vec_mat_mult_t_svdf_s8(const int8_t *lhs,
  50:Middlewares/tensorflow/third_party/cmsis_nn/Source/NNSupportFunctions/arm_nn_vec_mat_mult_t_svdf_s8.c ****                                                   const int8_t *rhs,
  51:Middlewares/tensorflow/third_party/cmsis_nn/Source/NNSupportFunctions/arm_nn_vec_mat_mult_t_svdf_s8.c ****                                                   int16_t *dst,
  52:Middlewares/tensorflow/third_party/cmsis_nn/Source/NNSupportFunctions/arm_nn_vec_mat_mult_t_svdf_s8.c ****                                                   const int32_t lhs_offset,
  53:Middlewares/tensorflow/third_party/cmsis_nn/Source/NNSupportFunctions/arm_nn_vec_mat_mult_t_svdf_s8.c ****                                                   const int32_t dst_offset,
  54:Middlewares/tensorflow/third_party/cmsis_nn/Source/NNSupportFunctions/arm_nn_vec_mat_mult_t_svdf_s8.c ****                                                   const int32_t dst_multiplier,
  55:Middlewares/tensorflow/third_party/cmsis_nn/Source/NNSupportFunctions/arm_nn_vec_mat_mult_t_svdf_s8.c ****                                                   const int32_t dst_shift,
  56:Middlewares/tensorflow/third_party/cmsis_nn/Source/NNSupportFunctions/arm_nn_vec_mat_mult_t_svdf_s8.c ****                                                   const int32_t rhs_cols,
  57:Middlewares/tensorflow/third_party/cmsis_nn/Source/NNSupportFunctions/arm_nn_vec_mat_mult_t_svdf_s8.c ****                                                   const int32_t rhs_rows,
  58:Middlewares/tensorflow/third_party/cmsis_nn/Source/NNSupportFunctions/arm_nn_vec_mat_mult_t_svdf_s8.c ****                                                   const int32_t activation_min,
  59:Middlewares/tensorflow/third_party/cmsis_nn/Source/NNSupportFunctions/arm_nn_vec_mat_mult_t_svdf_s8.c ****                                                   const int32_t activation_max)
  60:Middlewares/tensorflow/third_party/cmsis_nn/Source/NNSupportFunctions/arm_nn_vec_mat_mult_t_svdf_s8.c **** {
  30              		.loc 1 60 1 view -0
  31              		.cfi_startproc
  32              		@ args = 28, pretend = 0, frame = 40
  33              		@ frame_needed = 0, uses_anonymous_args = 0
  34              		.loc 1 60 1 is_stmt 0 view .LVU1
  35 0000 2DE9F04F 		push	{r4, r5, r6, r7, r8, r9, r10, fp, lr}
  36              	.LCFI0:
  37              		.cfi_def_cfa_offset 36
  38              		.cfi_offset 4, -36
  39              		.cfi_offset 5, -32
  40              		.cfi_offset 6, -28
  41              		.cfi_offset 7, -24
  42              		.cfi_offset 8, -20
  43              		.cfi_offset 9, -16
  44              		.cfi_offset 10, -12
  45              		.cfi_offset 11, -8
  46              		.cfi_offset 14, -4
  47 0004 8BB0     		sub	sp, sp, #44
  48              	.LCFI1:
  49              		.cfi_def_cfa_offset 80
  50 0006 0890     		str	r0, [sp, #32]
  51 0008 0192     		str	r2, [sp, #4]
  52 000a 0993     		str	r3, [sp, #36]
  53 000c DDF854C0 		ldr	ip, [sp, #84]
  54 0010 DDF85CA0 		ldr	r10, [sp, #92]
  61:Middlewares/tensorflow/third_party/cmsis_nn/Source/NNSupportFunctions/arm_nn_vec_mat_mult_t_svdf_s8.c ****     if (rhs_cols < 0 || (NN_Q31_MAX - rhs_cols) < 16 || dst_offset < 0)
ARM GAS  /tmp/ccQr0DhO.s 			page 3


  55              		.loc 1 61 5 is_stmt 1 view .LVU2
  56              		.loc 1 61 8 is_stmt 0 view .LVU3
  57 0014 BAF1000F 		cmp	r10, #0
  58 0018 C0F2A181 		blt	.L24
  59 001c 1846     		mov	r0, r3
  60              	.LVL1:
  61              		.loc 1 61 37 discriminator 1 view .LVU4
  62 001e 6FF00043 		mvn	r3, #-2147483648
  63              	.LVL2:
  64              		.loc 1 61 37 discriminator 1 view .LVU5
  65 0022 A3EB0A03 		sub	r3, r3, r10
  66              		.loc 1 61 22 discriminator 1 view .LVU6
  67 0026 0F2B     		cmp	r3, #15
  68 0028 40F39C81 		ble	.L25
  69              		.loc 1 61 54 discriminator 2 view .LVU7
  70 002c 149A     		ldr	r2, [sp, #80]
  71              	.LVL3:
  72              		.loc 1 61 54 discriminator 2 view .LVU8
  73 002e 002A     		cmp	r2, #0
  74 0030 C0F29B81 		blt	.L26
  62:Middlewares/tensorflow/third_party/cmsis_nn/Source/NNSupportFunctions/arm_nn_vec_mat_mult_t_svdf_s8.c ****     {
  63:Middlewares/tensorflow/third_party/cmsis_nn/Source/NNSupportFunctions/arm_nn_vec_mat_mult_t_svdf_s8.c ****         return ARM_CMSIS_NN_ARG_ERROR;
  64:Middlewares/tensorflow/third_party/cmsis_nn/Source/NNSupportFunctions/arm_nn_vec_mat_mult_t_svdf_s8.c ****     }
  65:Middlewares/tensorflow/third_party/cmsis_nn/Source/NNSupportFunctions/arm_nn_vec_mat_mult_t_svdf_s8.c **** 
  66:Middlewares/tensorflow/third_party/cmsis_nn/Source/NNSupportFunctions/arm_nn_vec_mat_mult_t_svdf_s8.c **** #if defined(ARM_MATH_MVEI)
  67:Middlewares/tensorflow/third_party/cmsis_nn/Source/NNSupportFunctions/arm_nn_vec_mat_mult_t_svdf_s8.c ****     int32_t row_loop_cnt = rhs_rows / 3;
  68:Middlewares/tensorflow/third_party/cmsis_nn/Source/NNSupportFunctions/arm_nn_vec_mat_mult_t_svdf_s8.c **** 
  69:Middlewares/tensorflow/third_party/cmsis_nn/Source/NNSupportFunctions/arm_nn_vec_mat_mult_t_svdf_s8.c ****     for (int i_row_loop_cnt = 0; i_row_loop_cnt < row_loop_cnt; i_row_loop_cnt++)
  70:Middlewares/tensorflow/third_party/cmsis_nn/Source/NNSupportFunctions/arm_nn_vec_mat_mult_t_svdf_s8.c ****     {
  71:Middlewares/tensorflow/third_party/cmsis_nn/Source/NNSupportFunctions/arm_nn_vec_mat_mult_t_svdf_s8.c ****         int32_t acc_0 = 0;
  72:Middlewares/tensorflow/third_party/cmsis_nn/Source/NNSupportFunctions/arm_nn_vec_mat_mult_t_svdf_s8.c ****         int32_t acc_1 = 0;
  73:Middlewares/tensorflow/third_party/cmsis_nn/Source/NNSupportFunctions/arm_nn_vec_mat_mult_t_svdf_s8.c ****         int32_t acc_2 = 0;
  74:Middlewares/tensorflow/third_party/cmsis_nn/Source/NNSupportFunctions/arm_nn_vec_mat_mult_t_svdf_s8.c **** 
  75:Middlewares/tensorflow/third_party/cmsis_nn/Source/NNSupportFunctions/arm_nn_vec_mat_mult_t_svdf_s8.c ****         const int32_t col_loop_cnt = (rhs_cols + 15) / 16;
  76:Middlewares/tensorflow/third_party/cmsis_nn/Source/NNSupportFunctions/arm_nn_vec_mat_mult_t_svdf_s8.c **** 
  77:Middlewares/tensorflow/third_party/cmsis_nn/Source/NNSupportFunctions/arm_nn_vec_mat_mult_t_svdf_s8.c ****         const int8_t *lhs_vec = lhs;
  78:Middlewares/tensorflow/third_party/cmsis_nn/Source/NNSupportFunctions/arm_nn_vec_mat_mult_t_svdf_s8.c ****         const int8_t *rhs_0 = rhs;
  79:Middlewares/tensorflow/third_party/cmsis_nn/Source/NNSupportFunctions/arm_nn_vec_mat_mult_t_svdf_s8.c ****         const int8_t *rhs_1 = rhs + rhs_cols;
  80:Middlewares/tensorflow/third_party/cmsis_nn/Source/NNSupportFunctions/arm_nn_vec_mat_mult_t_svdf_s8.c ****         const int8_t *rhs_2 = rhs + 2 * rhs_cols;
  81:Middlewares/tensorflow/third_party/cmsis_nn/Source/NNSupportFunctions/arm_nn_vec_mat_mult_t_svdf_s8.c **** 
  82:Middlewares/tensorflow/third_party/cmsis_nn/Source/NNSupportFunctions/arm_nn_vec_mat_mult_t_svdf_s8.c ****         int32_t rhs_sum_0 = 0;
  83:Middlewares/tensorflow/third_party/cmsis_nn/Source/NNSupportFunctions/arm_nn_vec_mat_mult_t_svdf_s8.c ****         int32_t rhs_sum_1 = 0;
  84:Middlewares/tensorflow/third_party/cmsis_nn/Source/NNSupportFunctions/arm_nn_vec_mat_mult_t_svdf_s8.c ****         int32_t rhs_sum_2 = 0;
  85:Middlewares/tensorflow/third_party/cmsis_nn/Source/NNSupportFunctions/arm_nn_vec_mat_mult_t_svdf_s8.c **** 
  86:Middlewares/tensorflow/third_party/cmsis_nn/Source/NNSupportFunctions/arm_nn_vec_mat_mult_t_svdf_s8.c ****         uint32_t col_cnt = (uint32_t)rhs_cols;
  87:Middlewares/tensorflow/third_party/cmsis_nn/Source/NNSupportFunctions/arm_nn_vec_mat_mult_t_svdf_s8.c **** 
  88:Middlewares/tensorflow/third_party/cmsis_nn/Source/NNSupportFunctions/arm_nn_vec_mat_mult_t_svdf_s8.c ****         for (int i = 0; i < col_loop_cnt; i++)
  89:Middlewares/tensorflow/third_party/cmsis_nn/Source/NNSupportFunctions/arm_nn_vec_mat_mult_t_svdf_s8.c ****         {
  90:Middlewares/tensorflow/third_party/cmsis_nn/Source/NNSupportFunctions/arm_nn_vec_mat_mult_t_svdf_s8.c ****             mve_pred16_t p = vctp8q(col_cnt);
  91:Middlewares/tensorflow/third_party/cmsis_nn/Source/NNSupportFunctions/arm_nn_vec_mat_mult_t_svdf_s8.c ****             col_cnt -= 16;
  92:Middlewares/tensorflow/third_party/cmsis_nn/Source/NNSupportFunctions/arm_nn_vec_mat_mult_t_svdf_s8.c **** 
  93:Middlewares/tensorflow/third_party/cmsis_nn/Source/NNSupportFunctions/arm_nn_vec_mat_mult_t_svdf_s8.c ****             const int8x16_t input = vldrbq_z_s8(lhs_vec, p);
  94:Middlewares/tensorflow/third_party/cmsis_nn/Source/NNSupportFunctions/arm_nn_vec_mat_mult_t_svdf_s8.c **** 
  95:Middlewares/tensorflow/third_party/cmsis_nn/Source/NNSupportFunctions/arm_nn_vec_mat_mult_t_svdf_s8.c ****             const int8x16_t ker_0 = vldrbq_z_s8(rhs_0, p);
  96:Middlewares/tensorflow/third_party/cmsis_nn/Source/NNSupportFunctions/arm_nn_vec_mat_mult_t_svdf_s8.c ****             rhs_sum_0 = vaddvaq_p_s8(rhs_sum_0, ker_0, p);
  97:Middlewares/tensorflow/third_party/cmsis_nn/Source/NNSupportFunctions/arm_nn_vec_mat_mult_t_svdf_s8.c ****             acc_0 = vmladavaq_p_s8(acc_0, ker_0, input, p);
  98:Middlewares/tensorflow/third_party/cmsis_nn/Source/NNSupportFunctions/arm_nn_vec_mat_mult_t_svdf_s8.c **** 
ARM GAS  /tmp/ccQr0DhO.s 			page 4


  99:Middlewares/tensorflow/third_party/cmsis_nn/Source/NNSupportFunctions/arm_nn_vec_mat_mult_t_svdf_s8.c ****             const int8x16_t ker_1 = vldrbq_z_s8(rhs_1, p);
 100:Middlewares/tensorflow/third_party/cmsis_nn/Source/NNSupportFunctions/arm_nn_vec_mat_mult_t_svdf_s8.c ****             rhs_sum_1 = vaddvaq_p_s8(rhs_sum_1, ker_1, p);
 101:Middlewares/tensorflow/third_party/cmsis_nn/Source/NNSupportFunctions/arm_nn_vec_mat_mult_t_svdf_s8.c ****             acc_1 = vmladavaq_p_s8(acc_1, ker_1, input, p);
 102:Middlewares/tensorflow/third_party/cmsis_nn/Source/NNSupportFunctions/arm_nn_vec_mat_mult_t_svdf_s8.c **** 
 103:Middlewares/tensorflow/third_party/cmsis_nn/Source/NNSupportFunctions/arm_nn_vec_mat_mult_t_svdf_s8.c ****             const int8x16_t ker_2 = vldrbq_z_s8(rhs_2, p);
 104:Middlewares/tensorflow/third_party/cmsis_nn/Source/NNSupportFunctions/arm_nn_vec_mat_mult_t_svdf_s8.c ****             rhs_sum_2 = vaddvaq_p_s8(rhs_sum_2, ker_2, p);
 105:Middlewares/tensorflow/third_party/cmsis_nn/Source/NNSupportFunctions/arm_nn_vec_mat_mult_t_svdf_s8.c ****             acc_2 = vmladavaq_p_s8(acc_2, ker_2, input, p);
 106:Middlewares/tensorflow/third_party/cmsis_nn/Source/NNSupportFunctions/arm_nn_vec_mat_mult_t_svdf_s8.c **** 
 107:Middlewares/tensorflow/third_party/cmsis_nn/Source/NNSupportFunctions/arm_nn_vec_mat_mult_t_svdf_s8.c ****             lhs_vec += 16;
 108:Middlewares/tensorflow/third_party/cmsis_nn/Source/NNSupportFunctions/arm_nn_vec_mat_mult_t_svdf_s8.c ****             rhs_0 += 16;
 109:Middlewares/tensorflow/third_party/cmsis_nn/Source/NNSupportFunctions/arm_nn_vec_mat_mult_t_svdf_s8.c ****             rhs_1 += 16;
 110:Middlewares/tensorflow/third_party/cmsis_nn/Source/NNSupportFunctions/arm_nn_vec_mat_mult_t_svdf_s8.c ****             rhs_2 += 16;
 111:Middlewares/tensorflow/third_party/cmsis_nn/Source/NNSupportFunctions/arm_nn_vec_mat_mult_t_svdf_s8.c ****         }
 112:Middlewares/tensorflow/third_party/cmsis_nn/Source/NNSupportFunctions/arm_nn_vec_mat_mult_t_svdf_s8.c ****         rhs += 3 * rhs_cols;
 113:Middlewares/tensorflow/third_party/cmsis_nn/Source/NNSupportFunctions/arm_nn_vec_mat_mult_t_svdf_s8.c **** 
 114:Middlewares/tensorflow/third_party/cmsis_nn/Source/NNSupportFunctions/arm_nn_vec_mat_mult_t_svdf_s8.c ****         int32x4_t acc = {acc_0, acc_1, acc_2, 0};
 115:Middlewares/tensorflow/third_party/cmsis_nn/Source/NNSupportFunctions/arm_nn_vec_mat_mult_t_svdf_s8.c ****         const int32x4_t rhs_sum = {rhs_sum_0, rhs_sum_1, rhs_sum_2, 0};
 116:Middlewares/tensorflow/third_party/cmsis_nn/Source/NNSupportFunctions/arm_nn_vec_mat_mult_t_svdf_s8.c ****         acc += vdupq_n_s32(lhs_offset) * rhs_sum;
 117:Middlewares/tensorflow/third_party/cmsis_nn/Source/NNSupportFunctions/arm_nn_vec_mat_mult_t_svdf_s8.c **** 
 118:Middlewares/tensorflow/third_party/cmsis_nn/Source/NNSupportFunctions/arm_nn_vec_mat_mult_t_svdf_s8.c ****         acc = arm_requantize_mve(acc, dst_multiplier, dst_shift);
 119:Middlewares/tensorflow/third_party/cmsis_nn/Source/NNSupportFunctions/arm_nn_vec_mat_mult_t_svdf_s8.c ****         acc = vmaxq_s32(acc, vdupq_n_s32(activation_min));
 120:Middlewares/tensorflow/third_party/cmsis_nn/Source/NNSupportFunctions/arm_nn_vec_mat_mult_t_svdf_s8.c ****         acc = vminq_s32(acc, vdupq_n_s32(activation_max));
 121:Middlewares/tensorflow/third_party/cmsis_nn/Source/NNSupportFunctions/arm_nn_vec_mat_mult_t_svdf_s8.c ****         *(dst) = (int16_t)acc[0];
 122:Middlewares/tensorflow/third_party/cmsis_nn/Source/NNSupportFunctions/arm_nn_vec_mat_mult_t_svdf_s8.c ****         *(dst + dst_offset) = (int16_t)acc[1];
 123:Middlewares/tensorflow/third_party/cmsis_nn/Source/NNSupportFunctions/arm_nn_vec_mat_mult_t_svdf_s8.c ****         *(dst + 2 * dst_offset) = (int16_t)acc[2];
 124:Middlewares/tensorflow/third_party/cmsis_nn/Source/NNSupportFunctions/arm_nn_vec_mat_mult_t_svdf_s8.c ****         dst += 3 * dst_offset;
 125:Middlewares/tensorflow/third_party/cmsis_nn/Source/NNSupportFunctions/arm_nn_vec_mat_mult_t_svdf_s8.c ****     }
 126:Middlewares/tensorflow/third_party/cmsis_nn/Source/NNSupportFunctions/arm_nn_vec_mat_mult_t_svdf_s8.c **** 
 127:Middlewares/tensorflow/third_party/cmsis_nn/Source/NNSupportFunctions/arm_nn_vec_mat_mult_t_svdf_s8.c ****     const int loop_cnt = rhs_rows % 3;
 128:Middlewares/tensorflow/third_party/cmsis_nn/Source/NNSupportFunctions/arm_nn_vec_mat_mult_t_svdf_s8.c ****     for (int i_row_loop_cnt = 0; i_row_loop_cnt < loop_cnt; i_row_loop_cnt++)
 129:Middlewares/tensorflow/third_party/cmsis_nn/Source/NNSupportFunctions/arm_nn_vec_mat_mult_t_svdf_s8.c ****     {
 130:Middlewares/tensorflow/third_party/cmsis_nn/Source/NNSupportFunctions/arm_nn_vec_mat_mult_t_svdf_s8.c ****         int32_t acc_0 = 0;
 131:Middlewares/tensorflow/third_party/cmsis_nn/Source/NNSupportFunctions/arm_nn_vec_mat_mult_t_svdf_s8.c ****         const int32_t col_loop_cnt = (rhs_cols + 15) / 16;
 132:Middlewares/tensorflow/third_party/cmsis_nn/Source/NNSupportFunctions/arm_nn_vec_mat_mult_t_svdf_s8.c ****         const int8_t *lhs_vec = lhs;
 133:Middlewares/tensorflow/third_party/cmsis_nn/Source/NNSupportFunctions/arm_nn_vec_mat_mult_t_svdf_s8.c ****         const int8_t *rhs_0 = rhs;
 134:Middlewares/tensorflow/third_party/cmsis_nn/Source/NNSupportFunctions/arm_nn_vec_mat_mult_t_svdf_s8.c ****         int32_t rhs_sum_0 = 0;
 135:Middlewares/tensorflow/third_party/cmsis_nn/Source/NNSupportFunctions/arm_nn_vec_mat_mult_t_svdf_s8.c ****         uint32_t col_cnt = (uint32_t)rhs_cols;
 136:Middlewares/tensorflow/third_party/cmsis_nn/Source/NNSupportFunctions/arm_nn_vec_mat_mult_t_svdf_s8.c **** 
 137:Middlewares/tensorflow/third_party/cmsis_nn/Source/NNSupportFunctions/arm_nn_vec_mat_mult_t_svdf_s8.c ****         for (int i = 0; i < col_loop_cnt; i++)
 138:Middlewares/tensorflow/third_party/cmsis_nn/Source/NNSupportFunctions/arm_nn_vec_mat_mult_t_svdf_s8.c ****         {
 139:Middlewares/tensorflow/third_party/cmsis_nn/Source/NNSupportFunctions/arm_nn_vec_mat_mult_t_svdf_s8.c ****             mve_pred16_t p = vctp8q(col_cnt);
 140:Middlewares/tensorflow/third_party/cmsis_nn/Source/NNSupportFunctions/arm_nn_vec_mat_mult_t_svdf_s8.c ****             col_cnt -= 16;
 141:Middlewares/tensorflow/third_party/cmsis_nn/Source/NNSupportFunctions/arm_nn_vec_mat_mult_t_svdf_s8.c ****             const int8x16_t input = vldrbq_z_s8(lhs_vec, p);
 142:Middlewares/tensorflow/third_party/cmsis_nn/Source/NNSupportFunctions/arm_nn_vec_mat_mult_t_svdf_s8.c **** 
 143:Middlewares/tensorflow/third_party/cmsis_nn/Source/NNSupportFunctions/arm_nn_vec_mat_mult_t_svdf_s8.c ****             const int8x16_t ker_0 = vldrbq_z_s8(rhs_0, p);
 144:Middlewares/tensorflow/third_party/cmsis_nn/Source/NNSupportFunctions/arm_nn_vec_mat_mult_t_svdf_s8.c ****             rhs_sum_0 = vaddvaq_p_s8(rhs_sum_0, ker_0, p);
 145:Middlewares/tensorflow/third_party/cmsis_nn/Source/NNSupportFunctions/arm_nn_vec_mat_mult_t_svdf_s8.c ****             acc_0 = vmladavaq_p_s8(acc_0, ker_0, input, p);
 146:Middlewares/tensorflow/third_party/cmsis_nn/Source/NNSupportFunctions/arm_nn_vec_mat_mult_t_svdf_s8.c **** 
 147:Middlewares/tensorflow/third_party/cmsis_nn/Source/NNSupportFunctions/arm_nn_vec_mat_mult_t_svdf_s8.c ****             lhs_vec += 16;
 148:Middlewares/tensorflow/third_party/cmsis_nn/Source/NNSupportFunctions/arm_nn_vec_mat_mult_t_svdf_s8.c ****             rhs_0 += 16;
 149:Middlewares/tensorflow/third_party/cmsis_nn/Source/NNSupportFunctions/arm_nn_vec_mat_mult_t_svdf_s8.c ****         }
 150:Middlewares/tensorflow/third_party/cmsis_nn/Source/NNSupportFunctions/arm_nn_vec_mat_mult_t_svdf_s8.c ****         rhs += rhs_cols;
 151:Middlewares/tensorflow/third_party/cmsis_nn/Source/NNSupportFunctions/arm_nn_vec_mat_mult_t_svdf_s8.c **** 
 152:Middlewares/tensorflow/third_party/cmsis_nn/Source/NNSupportFunctions/arm_nn_vec_mat_mult_t_svdf_s8.c ****         const int32_t offsets = rhs_sum_0 * lhs_offset;
 153:Middlewares/tensorflow/third_party/cmsis_nn/Source/NNSupportFunctions/arm_nn_vec_mat_mult_t_svdf_s8.c ****         acc_0 = QADD(acc_0, offsets);
 154:Middlewares/tensorflow/third_party/cmsis_nn/Source/NNSupportFunctions/arm_nn_vec_mat_mult_t_svdf_s8.c ****         acc_0 = arm_nn_requantize(acc_0, dst_multiplier, dst_shift);
 155:Middlewares/tensorflow/third_party/cmsis_nn/Source/NNSupportFunctions/arm_nn_vec_mat_mult_t_svdf_s8.c **** 
ARM GAS  /tmp/ccQr0DhO.s 			page 5


 156:Middlewares/tensorflow/third_party/cmsis_nn/Source/NNSupportFunctions/arm_nn_vec_mat_mult_t_svdf_s8.c ****         // Clamp the result
 157:Middlewares/tensorflow/third_party/cmsis_nn/Source/NNSupportFunctions/arm_nn_vec_mat_mult_t_svdf_s8.c ****         acc_0 = MAX(acc_0, activation_min);
 158:Middlewares/tensorflow/third_party/cmsis_nn/Source/NNSupportFunctions/arm_nn_vec_mat_mult_t_svdf_s8.c ****         *dst = (int16_t)MIN(acc_0, activation_max);
 159:Middlewares/tensorflow/third_party/cmsis_nn/Source/NNSupportFunctions/arm_nn_vec_mat_mult_t_svdf_s8.c ****         dst += dst_offset;
 160:Middlewares/tensorflow/third_party/cmsis_nn/Source/NNSupportFunctions/arm_nn_vec_mat_mult_t_svdf_s8.c ****     }
 161:Middlewares/tensorflow/third_party/cmsis_nn/Source/NNSupportFunctions/arm_nn_vec_mat_mult_t_svdf_s8.c **** 
 162:Middlewares/tensorflow/third_party/cmsis_nn/Source/NNSupportFunctions/arm_nn_vec_mat_mult_t_svdf_s8.c **** #elif defined(ARM_MATH_DSP)
 163:Middlewares/tensorflow/third_party/cmsis_nn/Source/NNSupportFunctions/arm_nn_vec_mat_mult_t_svdf_s8.c ****     int32_t row_loop_cnt = rhs_rows / 2;
  75              		.loc 1 163 5 is_stmt 1 view .LVU9
  76              		.loc 1 163 13 is_stmt 0 view .LVU10
  77 0034 189A     		ldr	r2, [sp, #96]
  78 0036 02EBD273 		add	r3, r2, r2, lsr #31
  79 003a 5A10     		asrs	r2, r3, #1
  80 003c 0792     		str	r2, [sp, #28]
  81              	.LVL4:
 164:Middlewares/tensorflow/third_party/cmsis_nn/Source/NNSupportFunctions/arm_nn_vec_mat_mult_t_svdf_s8.c **** 
 165:Middlewares/tensorflow/third_party/cmsis_nn/Source/NNSupportFunctions/arm_nn_vec_mat_mult_t_svdf_s8.c ****     const int16_t lhs_offset_s16 = lhs_offset;
  82              		.loc 1 165 5 is_stmt 1 view .LVU11
  83              		.loc 1 165 19 is_stmt 0 view .LVU12
  84 003e 04B2     		sxth	r4, r0
  85              	.LVL5:
 166:Middlewares/tensorflow/third_party/cmsis_nn/Source/NNSupportFunctions/arm_nn_vec_mat_mult_t_svdf_s8.c **** 
 167:Middlewares/tensorflow/third_party/cmsis_nn/Source/NNSupportFunctions/arm_nn_vec_mat_mult_t_svdf_s8.c ****     const uint32_t lhs_offset_s16x2 = PKHBT(lhs_offset_s16, lhs_offset_s16, 16);
  86              		.loc 1 167 5 is_stmt 1 view .LVU13
  87              	.LBB253:
  88              		.loc 1 167 39 view .LVU14
  89              		.loc 1 167 39 view .LVU15
  90              		.syntax unified
  91              	@ 167 "Middlewares/tensorflow/third_party/cmsis_nn/Source/NNSupportFunctions/arm_nn_vec_mat_mult_t_
  92 0040 C4EA0444 		pkhbt r4, r4, r4, lsl #16
  93              	@ 0 "" 2
  94              	.LVL6:
  95              		.loc 1 167 39 view .LVU16
  96              		.loc 1 167 39 is_stmt 0 view .LVU17
  97              		.thumb
  98              		.syntax unified
  99              	.LBE253:
 168:Middlewares/tensorflow/third_party/cmsis_nn/Source/NNSupportFunctions/arm_nn_vec_mat_mult_t_svdf_s8.c ****     for (int32_t i = 0; i < row_loop_cnt; i++)
 100              		.loc 1 168 5 is_stmt 1 view .LVU18
 101              	.LBB254:
 102              		.loc 1 168 10 view .LVU19
 103              		.loc 1 168 18 is_stmt 0 view .LVU20
 104 0044 0023     		movs	r3, #0
 105 0046 0093     		str	r3, [sp]
 106              		.loc 1 168 5 view .LVU21
 107 0048 05E1     		b	.L3
 108              	.LVL7:
 109              	.L5:
 110              	.LBB255:
 169:Middlewares/tensorflow/third_party/cmsis_nn/Source/NNSupportFunctions/arm_nn_vec_mat_mult_t_svdf_s8.c ****     {
 170:Middlewares/tensorflow/third_party/cmsis_nn/Source/NNSupportFunctions/arm_nn_vec_mat_mult_t_svdf_s8.c ****         int32_t acc_0 = 0;
 171:Middlewares/tensorflow/third_party/cmsis_nn/Source/NNSupportFunctions/arm_nn_vec_mat_mult_t_svdf_s8.c ****         int32_t acc_1 = 0;
 172:Middlewares/tensorflow/third_party/cmsis_nn/Source/NNSupportFunctions/arm_nn_vec_mat_mult_t_svdf_s8.c **** 
 173:Middlewares/tensorflow/third_party/cmsis_nn/Source/NNSupportFunctions/arm_nn_vec_mat_mult_t_svdf_s8.c ****         const int8_t *lhs_vec = lhs;
 174:Middlewares/tensorflow/third_party/cmsis_nn/Source/NNSupportFunctions/arm_nn_vec_mat_mult_t_svdf_s8.c ****         const int8_t *rhs_0 = rhs;
 175:Middlewares/tensorflow/third_party/cmsis_nn/Source/NNSupportFunctions/arm_nn_vec_mat_mult_t_svdf_s8.c ****         const int8_t *rhs_1 = rhs + rhs_cols;
 176:Middlewares/tensorflow/third_party/cmsis_nn/Source/NNSupportFunctions/arm_nn_vec_mat_mult_t_svdf_s8.c ****         rhs += 2 * rhs_cols;
ARM GAS  /tmp/ccQr0DhO.s 			page 6


 177:Middlewares/tensorflow/third_party/cmsis_nn/Source/NNSupportFunctions/arm_nn_vec_mat_mult_t_svdf_s8.c **** 
 178:Middlewares/tensorflow/third_party/cmsis_nn/Source/NNSupportFunctions/arm_nn_vec_mat_mult_t_svdf_s8.c ****         int32_t rhs_cols_idx = 0;
 179:Middlewares/tensorflow/third_party/cmsis_nn/Source/NNSupportFunctions/arm_nn_vec_mat_mult_t_svdf_s8.c **** 
 180:Middlewares/tensorflow/third_party/cmsis_nn/Source/NNSupportFunctions/arm_nn_vec_mat_mult_t_svdf_s8.c ****         int32_t vec_0, vec_1, ker_0, ker_1;
 181:Middlewares/tensorflow/third_party/cmsis_nn/Source/NNSupportFunctions/arm_nn_vec_mat_mult_t_svdf_s8.c **** 
 182:Middlewares/tensorflow/third_party/cmsis_nn/Source/NNSupportFunctions/arm_nn_vec_mat_mult_t_svdf_s8.c ****     #if defined(__ARMCC_VERSION) && (__ARMCC_VERSION >= 6010050)
 183:Middlewares/tensorflow/third_party/cmsis_nn/Source/NNSupportFunctions/arm_nn_vec_mat_mult_t_svdf_s8.c ****         #pragma clang loop unroll(disable)
 184:Middlewares/tensorflow/third_party/cmsis_nn/Source/NNSupportFunctions/arm_nn_vec_mat_mult_t_svdf_s8.c ****     #endif
 185:Middlewares/tensorflow/third_party/cmsis_nn/Source/NNSupportFunctions/arm_nn_vec_mat_mult_t_svdf_s8.c ****         for (; rhs_cols_idx <= (rhs_cols - 16); rhs_cols_idx += 16)
 186:Middlewares/tensorflow/third_party/cmsis_nn/Source/NNSupportFunctions/arm_nn_vec_mat_mult_t_svdf_s8.c ****         {
 187:Middlewares/tensorflow/third_party/cmsis_nn/Source/NNSupportFunctions/arm_nn_vec_mat_mult_t_svdf_s8.c ****             // 4 x MAC acc_0, acc1
 188:Middlewares/tensorflow/third_party/cmsis_nn/Source/NNSupportFunctions/arm_nn_vec_mat_mult_t_svdf_s8.c ****             vec_0 = arm_nn_read_s8x4_ia(&lhs_vec);
 111              		.loc 1 188 13 is_stmt 1 view .LVU22
 112              		.loc 1 188 13 is_stmt 0 view .LVU23
 113              	.LBE255:
 114              	.LBE254:
 115              		.file 2 "Middlewares/tensorflow/third_party/cmsis_nn/Include/arm_nnsupportfunctions.h"
   1:Middlewares/tensorflow/third_party/cmsis_nn/Include/arm_nnsupportfunctions.h **** /*
   2:Middlewares/tensorflow/third_party/cmsis_nn/Include/arm_nnsupportfunctions.h ****  * SPDX-FileCopyrightText: Copyright 2010-2023 Arm Limited and/or its affiliates <open-source-offic
   3:Middlewares/tensorflow/third_party/cmsis_nn/Include/arm_nnsupportfunctions.h ****  *
   4:Middlewares/tensorflow/third_party/cmsis_nn/Include/arm_nnsupportfunctions.h ****  * SPDX-License-Identifier: Apache-2.0
   5:Middlewares/tensorflow/third_party/cmsis_nn/Include/arm_nnsupportfunctions.h ****  *
   6:Middlewares/tensorflow/third_party/cmsis_nn/Include/arm_nnsupportfunctions.h ****  * Licensed under the Apache License, Version 2.0 (the License); you may
   7:Middlewares/tensorflow/third_party/cmsis_nn/Include/arm_nnsupportfunctions.h ****  * not use this file except in compliance with the License.
   8:Middlewares/tensorflow/third_party/cmsis_nn/Include/arm_nnsupportfunctions.h ****  * You may obtain a copy of the License at
   9:Middlewares/tensorflow/third_party/cmsis_nn/Include/arm_nnsupportfunctions.h ****  *
  10:Middlewares/tensorflow/third_party/cmsis_nn/Include/arm_nnsupportfunctions.h ****  * www.apache.org/licenses/LICENSE-2.0
  11:Middlewares/tensorflow/third_party/cmsis_nn/Include/arm_nnsupportfunctions.h ****  *
  12:Middlewares/tensorflow/third_party/cmsis_nn/Include/arm_nnsupportfunctions.h ****  * Unless required by applicable law or agreed to in writing, software
  13:Middlewares/tensorflow/third_party/cmsis_nn/Include/arm_nnsupportfunctions.h ****  * distributed under the License is distributed on an AS IS BASIS, WITHOUT
  14:Middlewares/tensorflow/third_party/cmsis_nn/Include/arm_nnsupportfunctions.h ****  * WARRANTIES OR CONDITIONS OF ANY KIND, either express or implied.
  15:Middlewares/tensorflow/third_party/cmsis_nn/Include/arm_nnsupportfunctions.h ****  * See the License for the specific language governing permissions and
  16:Middlewares/tensorflow/third_party/cmsis_nn/Include/arm_nnsupportfunctions.h ****  * limitations under the License.
  17:Middlewares/tensorflow/third_party/cmsis_nn/Include/arm_nnsupportfunctions.h ****  */
  18:Middlewares/tensorflow/third_party/cmsis_nn/Include/arm_nnsupportfunctions.h **** 
  19:Middlewares/tensorflow/third_party/cmsis_nn/Include/arm_nnsupportfunctions.h **** /* ----------------------------------------------------------------------
  20:Middlewares/tensorflow/third_party/cmsis_nn/Include/arm_nnsupportfunctions.h ****  * Project:      CMSIS NN Library
  21:Middlewares/tensorflow/third_party/cmsis_nn/Include/arm_nnsupportfunctions.h ****  * Title:        arm_nnsupportfunctions.h
  22:Middlewares/tensorflow/third_party/cmsis_nn/Include/arm_nnsupportfunctions.h ****  * Description:  Public header file of support functions for CMSIS NN Library
  23:Middlewares/tensorflow/third_party/cmsis_nn/Include/arm_nnsupportfunctions.h ****  *
  24:Middlewares/tensorflow/third_party/cmsis_nn/Include/arm_nnsupportfunctions.h ****  * $Date:        13 Februari 2023
  25:Middlewares/tensorflow/third_party/cmsis_nn/Include/arm_nnsupportfunctions.h ****  * $Revision:    V.15.0.0
  26:Middlewares/tensorflow/third_party/cmsis_nn/Include/arm_nnsupportfunctions.h ****  *
  27:Middlewares/tensorflow/third_party/cmsis_nn/Include/arm_nnsupportfunctions.h ****  * Target :  Arm(R) M-Profile Architecture
  28:Middlewares/tensorflow/third_party/cmsis_nn/Include/arm_nnsupportfunctions.h ****  * -------------------------------------------------------------------- */
  29:Middlewares/tensorflow/third_party/cmsis_nn/Include/arm_nnsupportfunctions.h **** 
  30:Middlewares/tensorflow/third_party/cmsis_nn/Include/arm_nnsupportfunctions.h **** #ifndef _ARM_NNSUPPORTFUNCTIONS_H_
  31:Middlewares/tensorflow/third_party/cmsis_nn/Include/arm_nnsupportfunctions.h **** #define _ARM_NNSUPPORTFUNCTIONS_H_
  32:Middlewares/tensorflow/third_party/cmsis_nn/Include/arm_nnsupportfunctions.h **** 
  33:Middlewares/tensorflow/third_party/cmsis_nn/Include/arm_nnsupportfunctions.h **** #include "Internal/arm_nn_compiler.h"
  34:Middlewares/tensorflow/third_party/cmsis_nn/Include/arm_nnsupportfunctions.h **** #include "arm_nn_math_types.h"
  35:Middlewares/tensorflow/third_party/cmsis_nn/Include/arm_nnsupportfunctions.h **** #include "arm_nn_types.h"
  36:Middlewares/tensorflow/third_party/cmsis_nn/Include/arm_nnsupportfunctions.h **** 
  37:Middlewares/tensorflow/third_party/cmsis_nn/Include/arm_nnsupportfunctions.h **** #include <stdbool.h>
  38:Middlewares/tensorflow/third_party/cmsis_nn/Include/arm_nnsupportfunctions.h **** 
  39:Middlewares/tensorflow/third_party/cmsis_nn/Include/arm_nnsupportfunctions.h **** #ifdef __cplusplus
  40:Middlewares/tensorflow/third_party/cmsis_nn/Include/arm_nnsupportfunctions.h **** extern "C" {
ARM GAS  /tmp/ccQr0DhO.s 			page 7


  41:Middlewares/tensorflow/third_party/cmsis_nn/Include/arm_nnsupportfunctions.h **** #endif
  42:Middlewares/tensorflow/third_party/cmsis_nn/Include/arm_nnsupportfunctions.h **** 
  43:Middlewares/tensorflow/third_party/cmsis_nn/Include/arm_nnsupportfunctions.h **** #define USE_FAST_DW_CONV_S16_FUNCTION(dw_conv_params, filter_dims, input_dims)                     
  44:Middlewares/tensorflow/third_party/cmsis_nn/Include/arm_nnsupportfunctions.h ****     (dw_conv_params->ch_mult == 1 && dw_conv_params->dilation.w == 1 && dw_conv_params->dilation.h 
  45:Middlewares/tensorflow/third_party/cmsis_nn/Include/arm_nnsupportfunctions.h ****      filter_dims->w * filter_dims->h < 512)
  46:Middlewares/tensorflow/third_party/cmsis_nn/Include/arm_nnsupportfunctions.h **** 
  47:Middlewares/tensorflow/third_party/cmsis_nn/Include/arm_nnsupportfunctions.h **** #define LEFT_SHIFT(_shift) (_shift > 0 ? _shift : 0)
  48:Middlewares/tensorflow/third_party/cmsis_nn/Include/arm_nnsupportfunctions.h **** #define RIGHT_SHIFT(_shift) (_shift > 0 ? 0 : -_shift)
  49:Middlewares/tensorflow/third_party/cmsis_nn/Include/arm_nnsupportfunctions.h **** #define MASK_IF_ZERO(x) (x) == 0 ? ~0 : 0
  50:Middlewares/tensorflow/third_party/cmsis_nn/Include/arm_nnsupportfunctions.h **** #define MASK_IF_NON_ZERO(x) (x) != 0 ? ~0 : 0
  51:Middlewares/tensorflow/third_party/cmsis_nn/Include/arm_nnsupportfunctions.h **** #define SELECT_USING_MASK(mask, a, b) ((mask) & (a)) ^ (~(mask) & (b))
  52:Middlewares/tensorflow/third_party/cmsis_nn/Include/arm_nnsupportfunctions.h **** 
  53:Middlewares/tensorflow/third_party/cmsis_nn/Include/arm_nnsupportfunctions.h **** #define MAX(A, B) ((A) > (B) ? (A) : (B))
  54:Middlewares/tensorflow/third_party/cmsis_nn/Include/arm_nnsupportfunctions.h **** #define MIN(A, B) ((A) < (B) ? (A) : (B))
  55:Middlewares/tensorflow/third_party/cmsis_nn/Include/arm_nnsupportfunctions.h **** #define CLAMP(x, h, l) MAX(MIN((x), (h)), (l))
  56:Middlewares/tensorflow/third_party/cmsis_nn/Include/arm_nnsupportfunctions.h **** #define REDUCE_MULTIPLIER(_mult) ((_mult < 0x7FFF0000) ? ((_mult + (1 << 15)) >> 16) : 0x7FFF)
  57:Middlewares/tensorflow/third_party/cmsis_nn/Include/arm_nnsupportfunctions.h **** 
  58:Middlewares/tensorflow/third_party/cmsis_nn/Include/arm_nnsupportfunctions.h **** // Number of channels processed in a block for DW Conv(MVE)
  59:Middlewares/tensorflow/third_party/cmsis_nn/Include/arm_nnsupportfunctions.h **** // Requirement: Greater than 0 & less than 128
  60:Middlewares/tensorflow/third_party/cmsis_nn/Include/arm_nnsupportfunctions.h **** // This can be fine tuned to match number of input channels for best performance.
  61:Middlewares/tensorflow/third_party/cmsis_nn/Include/arm_nnsupportfunctions.h **** // A layer with lower number of channels than CH_IN_BLOCK_MVE will result in higher
  62:Middlewares/tensorflow/third_party/cmsis_nn/Include/arm_nnsupportfunctions.h **** // scratch buffer usage and a layer with higher number of channels than CH_IN_BLOCK_MVE
  63:Middlewares/tensorflow/third_party/cmsis_nn/Include/arm_nnsupportfunctions.h **** // will result in lower scratch buffer usage.
  64:Middlewares/tensorflow/third_party/cmsis_nn/Include/arm_nnsupportfunctions.h **** #define CH_IN_BLOCK_MVE (124)
  65:Middlewares/tensorflow/third_party/cmsis_nn/Include/arm_nnsupportfunctions.h **** 
  66:Middlewares/tensorflow/third_party/cmsis_nn/Include/arm_nnsupportfunctions.h **** /**
  67:Middlewares/tensorflow/third_party/cmsis_nn/Include/arm_nnsupportfunctions.h ****  * @brief definition to pack four 8 bit values.
  68:Middlewares/tensorflow/third_party/cmsis_nn/Include/arm_nnsupportfunctions.h ****  */
  69:Middlewares/tensorflow/third_party/cmsis_nn/Include/arm_nnsupportfunctions.h **** #define PACK_S8x4_32x1(v0, v1, v2, v3)                                                             
  70:Middlewares/tensorflow/third_party/cmsis_nn/Include/arm_nnsupportfunctions.h ****     ((((int32_t)(v0) << 0) & (int32_t)0x000000FF) | (((int32_t)(v1) << 8) & (int32_t)0x0000FF00) | 
  71:Middlewares/tensorflow/third_party/cmsis_nn/Include/arm_nnsupportfunctions.h ****      (((int32_t)(v2) << 16) & (int32_t)0x00FF0000) | (((int32_t)(v3) << 24) & (int32_t)0xFF000000))
  72:Middlewares/tensorflow/third_party/cmsis_nn/Include/arm_nnsupportfunctions.h **** 
  73:Middlewares/tensorflow/third_party/cmsis_nn/Include/arm_nnsupportfunctions.h **** /**
  74:Middlewares/tensorflow/third_party/cmsis_nn/Include/arm_nnsupportfunctions.h ****  * @brief definition to pack two 16 bit values.
  75:Middlewares/tensorflow/third_party/cmsis_nn/Include/arm_nnsupportfunctions.h ****  */
  76:Middlewares/tensorflow/third_party/cmsis_nn/Include/arm_nnsupportfunctions.h **** #define PACK_Q15x2_32x1(v0, v1) (((int32_t)v0 & (int32_t)0xFFFF) | ((int32_t)v1 << 16))
  77:Middlewares/tensorflow/third_party/cmsis_nn/Include/arm_nnsupportfunctions.h **** 
  78:Middlewares/tensorflow/third_party/cmsis_nn/Include/arm_nnsupportfunctions.h **** /**
  79:Middlewares/tensorflow/third_party/cmsis_nn/Include/arm_nnsupportfunctions.h ****  * @brief Union for SIMD access of q31/s16/s8 types
  80:Middlewares/tensorflow/third_party/cmsis_nn/Include/arm_nnsupportfunctions.h ****  */
  81:Middlewares/tensorflow/third_party/cmsis_nn/Include/arm_nnsupportfunctions.h **** union arm_nnword
  82:Middlewares/tensorflow/third_party/cmsis_nn/Include/arm_nnsupportfunctions.h **** {
  83:Middlewares/tensorflow/third_party/cmsis_nn/Include/arm_nnsupportfunctions.h ****     int32_t word;
  84:Middlewares/tensorflow/third_party/cmsis_nn/Include/arm_nnsupportfunctions.h ****     /**< q31 type */
  85:Middlewares/tensorflow/third_party/cmsis_nn/Include/arm_nnsupportfunctions.h ****     int16_t half_words[2];
  86:Middlewares/tensorflow/third_party/cmsis_nn/Include/arm_nnsupportfunctions.h ****     /**< s16 type */
  87:Middlewares/tensorflow/third_party/cmsis_nn/Include/arm_nnsupportfunctions.h ****     int8_t bytes[4];
  88:Middlewares/tensorflow/third_party/cmsis_nn/Include/arm_nnsupportfunctions.h ****     /**< s8 type */
  89:Middlewares/tensorflow/third_party/cmsis_nn/Include/arm_nnsupportfunctions.h **** };
  90:Middlewares/tensorflow/third_party/cmsis_nn/Include/arm_nnsupportfunctions.h **** 
  91:Middlewares/tensorflow/third_party/cmsis_nn/Include/arm_nnsupportfunctions.h **** /**
  92:Middlewares/tensorflow/third_party/cmsis_nn/Include/arm_nnsupportfunctions.h ****  * @brief Union for data type long long
  93:Middlewares/tensorflow/third_party/cmsis_nn/Include/arm_nnsupportfunctions.h ****  */
  94:Middlewares/tensorflow/third_party/cmsis_nn/Include/arm_nnsupportfunctions.h **** struct arm_nn_double
  95:Middlewares/tensorflow/third_party/cmsis_nn/Include/arm_nnsupportfunctions.h **** {
  96:Middlewares/tensorflow/third_party/cmsis_nn/Include/arm_nnsupportfunctions.h ****     uint32_t low;
  97:Middlewares/tensorflow/third_party/cmsis_nn/Include/arm_nnsupportfunctions.h ****     int32_t high;
ARM GAS  /tmp/ccQr0DhO.s 			page 8


  98:Middlewares/tensorflow/third_party/cmsis_nn/Include/arm_nnsupportfunctions.h **** };
  99:Middlewares/tensorflow/third_party/cmsis_nn/Include/arm_nnsupportfunctions.h **** 
 100:Middlewares/tensorflow/third_party/cmsis_nn/Include/arm_nnsupportfunctions.h **** union arm_nn_long_long
 101:Middlewares/tensorflow/third_party/cmsis_nn/Include/arm_nnsupportfunctions.h **** {
 102:Middlewares/tensorflow/third_party/cmsis_nn/Include/arm_nnsupportfunctions.h ****     int64_t long_long;
 103:Middlewares/tensorflow/third_party/cmsis_nn/Include/arm_nnsupportfunctions.h ****     struct arm_nn_double word;
 104:Middlewares/tensorflow/third_party/cmsis_nn/Include/arm_nnsupportfunctions.h **** };
 105:Middlewares/tensorflow/third_party/cmsis_nn/Include/arm_nnsupportfunctions.h **** 
 106:Middlewares/tensorflow/third_party/cmsis_nn/Include/arm_nnsupportfunctions.h **** /**
 107:Middlewares/tensorflow/third_party/cmsis_nn/Include/arm_nnsupportfunctions.h ****  * @defgroup groupSupport Private
 108:Middlewares/tensorflow/third_party/cmsis_nn/Include/arm_nnsupportfunctions.h ****  *
 109:Middlewares/tensorflow/third_party/cmsis_nn/Include/arm_nnsupportfunctions.h ****  * Internal Support functions. Not intended to be called direclty by a CMSIS-NN user.
 110:Middlewares/tensorflow/third_party/cmsis_nn/Include/arm_nnsupportfunctions.h ****  *
 111:Middlewares/tensorflow/third_party/cmsis_nn/Include/arm_nnsupportfunctions.h ****  */
 112:Middlewares/tensorflow/third_party/cmsis_nn/Include/arm_nnsupportfunctions.h **** 
 113:Middlewares/tensorflow/third_party/cmsis_nn/Include/arm_nnsupportfunctions.h **** /**
 114:Middlewares/tensorflow/third_party/cmsis_nn/Include/arm_nnsupportfunctions.h ****  * @defgroup supportConversion Data Conversion
 115:Middlewares/tensorflow/third_party/cmsis_nn/Include/arm_nnsupportfunctions.h ****  *
 116:Middlewares/tensorflow/third_party/cmsis_nn/Include/arm_nnsupportfunctions.h ****  * Perform data type conversion in-between neural network operations
 117:Middlewares/tensorflow/third_party/cmsis_nn/Include/arm_nnsupportfunctions.h ****  *
 118:Middlewares/tensorflow/third_party/cmsis_nn/Include/arm_nnsupportfunctions.h ****  */
 119:Middlewares/tensorflow/third_party/cmsis_nn/Include/arm_nnsupportfunctions.h **** 
 120:Middlewares/tensorflow/third_party/cmsis_nn/Include/arm_nnsupportfunctions.h **** /**
 121:Middlewares/tensorflow/third_party/cmsis_nn/Include/arm_nnsupportfunctions.h ****  * @brief Converts the elements from a s8 vector to a s16 vector with an added offset
 122:Middlewares/tensorflow/third_party/cmsis_nn/Include/arm_nnsupportfunctions.h ****  * @param[in]    src        pointer to the s8 input vector
 123:Middlewares/tensorflow/third_party/cmsis_nn/Include/arm_nnsupportfunctions.h ****  * @param[out]   dst        pointer to the s16 output vector
 124:Middlewares/tensorflow/third_party/cmsis_nn/Include/arm_nnsupportfunctions.h ****  * @param[in]    block_size length of the input vector
 125:Middlewares/tensorflow/third_party/cmsis_nn/Include/arm_nnsupportfunctions.h ****  * @param[in]    offset     s8 offset to be added to each input vector element.
 126:Middlewares/tensorflow/third_party/cmsis_nn/Include/arm_nnsupportfunctions.h ****  *
 127:Middlewares/tensorflow/third_party/cmsis_nn/Include/arm_nnsupportfunctions.h ****  * \par Description:
 128:Middlewares/tensorflow/third_party/cmsis_nn/Include/arm_nnsupportfunctions.h ****  *
 129:Middlewares/tensorflow/third_party/cmsis_nn/Include/arm_nnsupportfunctions.h ****  * The equation used for the conversion process is:
 130:Middlewares/tensorflow/third_party/cmsis_nn/Include/arm_nnsupportfunctions.h ****  *
 131:Middlewares/tensorflow/third_party/cmsis_nn/Include/arm_nnsupportfunctions.h ****  * <pre>
 132:Middlewares/tensorflow/third_party/cmsis_nn/Include/arm_nnsupportfunctions.h ****  *  dst[n] = (int16_t) src[n] + offset;   0 <= n < block_size.
 133:Middlewares/tensorflow/third_party/cmsis_nn/Include/arm_nnsupportfunctions.h ****  * </pre>
 134:Middlewares/tensorflow/third_party/cmsis_nn/Include/arm_nnsupportfunctions.h ****  *
 135:Middlewares/tensorflow/third_party/cmsis_nn/Include/arm_nnsupportfunctions.h ****  */
 136:Middlewares/tensorflow/third_party/cmsis_nn/Include/arm_nnsupportfunctions.h **** void arm_q7_to_q15_with_offset(const int8_t *src, int16_t *dst, uint32_t block_size, int16_t offset
 137:Middlewares/tensorflow/third_party/cmsis_nn/Include/arm_nnsupportfunctions.h **** 
 138:Middlewares/tensorflow/third_party/cmsis_nn/Include/arm_nnsupportfunctions.h **** /**
 139:Middlewares/tensorflow/third_party/cmsis_nn/Include/arm_nnsupportfunctions.h ****  * @brief Depthwise conv on an im2col buffer where the input channel equals output channel.
 140:Middlewares/tensorflow/third_party/cmsis_nn/Include/arm_nnsupportfunctions.h ****  * @param[in]    row     pointer to row
 141:Middlewares/tensorflow/third_party/cmsis_nn/Include/arm_nnsupportfunctions.h ****  * @param[in]    col     pointer to im2col buffer, always consists of 2 columns.
 142:Middlewares/tensorflow/third_party/cmsis_nn/Include/arm_nnsupportfunctions.h ****  * @param[in]    num_ch   number of channels
 143:Middlewares/tensorflow/third_party/cmsis_nn/Include/arm_nnsupportfunctions.h ****  * @param[in]    out_shift  pointer to per output channel requantization shift parameter.
 144:Middlewares/tensorflow/third_party/cmsis_nn/Include/arm_nnsupportfunctions.h ****  * @param[in]    out_mult   pointer to per output channel requantization multiplier parameter.
 145:Middlewares/tensorflow/third_party/cmsis_nn/Include/arm_nnsupportfunctions.h ****  * @param[in]    out_offset      output tensor offset.
 146:Middlewares/tensorflow/third_party/cmsis_nn/Include/arm_nnsupportfunctions.h ****  * @param[in]    activation_min   minimum value to clamp the output to. Range : int8
 147:Middlewares/tensorflow/third_party/cmsis_nn/Include/arm_nnsupportfunctions.h ****  * @param[in]    activation_max   maximum value to clamp the output to. Range : int8
 148:Middlewares/tensorflow/third_party/cmsis_nn/Include/arm_nnsupportfunctions.h ****  * @param[in]    kernel_size   number of elements in one column.
 149:Middlewares/tensorflow/third_party/cmsis_nn/Include/arm_nnsupportfunctions.h ****  * @param[in]    output_bias per output channel bias. Range : int32
 150:Middlewares/tensorflow/third_party/cmsis_nn/Include/arm_nnsupportfunctions.h ****  * @param[out]   out         pointer to output
 151:Middlewares/tensorflow/third_party/cmsis_nn/Include/arm_nnsupportfunctions.h ****  * @return     The function returns one of the two
 152:Middlewares/tensorflow/third_party/cmsis_nn/Include/arm_nnsupportfunctions.h ****  *              1. The incremented output pointer for a successful operation or
 153:Middlewares/tensorflow/third_party/cmsis_nn/Include/arm_nnsupportfunctions.h ****  *              2. NULL if implementation is not available.
 154:Middlewares/tensorflow/third_party/cmsis_nn/Include/arm_nnsupportfunctions.h ****  *
ARM GAS  /tmp/ccQr0DhO.s 			page 9


 155:Middlewares/tensorflow/third_party/cmsis_nn/Include/arm_nnsupportfunctions.h ****  * @details     Supported framework: TensorFlow Lite micro.
 156:Middlewares/tensorflow/third_party/cmsis_nn/Include/arm_nnsupportfunctions.h ****  */
 157:Middlewares/tensorflow/third_party/cmsis_nn/Include/arm_nnsupportfunctions.h **** int8_t *arm_nn_depthwise_conv_s8_core(const int8_t *row,
 158:Middlewares/tensorflow/third_party/cmsis_nn/Include/arm_nnsupportfunctions.h ****                                       const int16_t *col,
 159:Middlewares/tensorflow/third_party/cmsis_nn/Include/arm_nnsupportfunctions.h ****                                       const uint16_t num_ch,
 160:Middlewares/tensorflow/third_party/cmsis_nn/Include/arm_nnsupportfunctions.h ****                                       const int32_t *out_shift,
 161:Middlewares/tensorflow/third_party/cmsis_nn/Include/arm_nnsupportfunctions.h ****                                       const int32_t *out_mult,
 162:Middlewares/tensorflow/third_party/cmsis_nn/Include/arm_nnsupportfunctions.h ****                                       const int32_t out_offset,
 163:Middlewares/tensorflow/third_party/cmsis_nn/Include/arm_nnsupportfunctions.h ****                                       const int32_t activation_min,
 164:Middlewares/tensorflow/third_party/cmsis_nn/Include/arm_nnsupportfunctions.h ****                                       const int32_t activation_max,
 165:Middlewares/tensorflow/third_party/cmsis_nn/Include/arm_nnsupportfunctions.h ****                                       const uint16_t kernel_size,
 166:Middlewares/tensorflow/third_party/cmsis_nn/Include/arm_nnsupportfunctions.h ****                                       const int32_t *const output_bias,
 167:Middlewares/tensorflow/third_party/cmsis_nn/Include/arm_nnsupportfunctions.h ****                                       int8_t *out);
 168:Middlewares/tensorflow/third_party/cmsis_nn/Include/arm_nnsupportfunctions.h **** 
 169:Middlewares/tensorflow/third_party/cmsis_nn/Include/arm_nnsupportfunctions.h **** /**
 170:Middlewares/tensorflow/third_party/cmsis_nn/Include/arm_nnsupportfunctions.h ****  * @brief General Matrix-multiplication function with per-channel requantization.
 171:Middlewares/tensorflow/third_party/cmsis_nn/Include/arm_nnsupportfunctions.h ****  * @param[in]       input_row    pointer to row operand
 172:Middlewares/tensorflow/third_party/cmsis_nn/Include/arm_nnsupportfunctions.h ****  * @param[in]       input_col    pointer to col operand
 173:Middlewares/tensorflow/third_party/cmsis_nn/Include/arm_nnsupportfunctions.h ****  * @param[in]       output_ch    number of rows of input_row
 174:Middlewares/tensorflow/third_party/cmsis_nn/Include/arm_nnsupportfunctions.h ****  * @param[in]       col_batches  number of column batches. Range: 1 to 4
 175:Middlewares/tensorflow/third_party/cmsis_nn/Include/arm_nnsupportfunctions.h ****  * @param[in]       output_shift  pointer to per output channel requantization shift parameter.
 176:Middlewares/tensorflow/third_party/cmsis_nn/Include/arm_nnsupportfunctions.h ****  * @param[in]       output_mult   pointer to per output channel requantization multiplier parameter
 177:Middlewares/tensorflow/third_party/cmsis_nn/Include/arm_nnsupportfunctions.h ****  * @param[in]       out_offset    output tensor offset.
 178:Middlewares/tensorflow/third_party/cmsis_nn/Include/arm_nnsupportfunctions.h ****  * @param[in]       col_offset    input tensor(col) offset.
 179:Middlewares/tensorflow/third_party/cmsis_nn/Include/arm_nnsupportfunctions.h ****  * @param[in]       row_offset    kernel offset(row). Not used.
 180:Middlewares/tensorflow/third_party/cmsis_nn/Include/arm_nnsupportfunctions.h ****  * @param[in]       out_activation_min   minimum value to clamp the output to. Range : int8
 181:Middlewares/tensorflow/third_party/cmsis_nn/Include/arm_nnsupportfunctions.h ****  * @param[in]       out_activation_max   maximum value to clamp the output to. Range : int8
 182:Middlewares/tensorflow/third_party/cmsis_nn/Include/arm_nnsupportfunctions.h ****  * @param[in]       row_len       number of elements in each row
 183:Middlewares/tensorflow/third_party/cmsis_nn/Include/arm_nnsupportfunctions.h ****  * @param[in]       bias          per output channel bias. Range : int32
 184:Middlewares/tensorflow/third_party/cmsis_nn/Include/arm_nnsupportfunctions.h ****  * @param[in,out]   out           pointer to output
 185:Middlewares/tensorflow/third_party/cmsis_nn/Include/arm_nnsupportfunctions.h ****  * @return     The function returns one of the two
 186:Middlewares/tensorflow/third_party/cmsis_nn/Include/arm_nnsupportfunctions.h ****  *              1. The incremented output pointer for a successful operation or
 187:Middlewares/tensorflow/third_party/cmsis_nn/Include/arm_nnsupportfunctions.h ****  *              2. NULL if implementation is not available.
 188:Middlewares/tensorflow/third_party/cmsis_nn/Include/arm_nnsupportfunctions.h ****  *
 189:Middlewares/tensorflow/third_party/cmsis_nn/Include/arm_nnsupportfunctions.h ****  * @details   Supported framework: TensorFlow Lite
 190:Middlewares/tensorflow/third_party/cmsis_nn/Include/arm_nnsupportfunctions.h ****  */
 191:Middlewares/tensorflow/third_party/cmsis_nn/Include/arm_nnsupportfunctions.h **** int8_t *arm_nn_mat_mult_s8(const int8_t *input_row,
 192:Middlewares/tensorflow/third_party/cmsis_nn/Include/arm_nnsupportfunctions.h ****                            const int8_t *input_col,
 193:Middlewares/tensorflow/third_party/cmsis_nn/Include/arm_nnsupportfunctions.h ****                            const uint16_t output_ch,
 194:Middlewares/tensorflow/third_party/cmsis_nn/Include/arm_nnsupportfunctions.h ****                            const uint16_t col_batches,
 195:Middlewares/tensorflow/third_party/cmsis_nn/Include/arm_nnsupportfunctions.h ****                            const int32_t *output_shift,
 196:Middlewares/tensorflow/third_party/cmsis_nn/Include/arm_nnsupportfunctions.h ****                            const int32_t *output_mult,
 197:Middlewares/tensorflow/third_party/cmsis_nn/Include/arm_nnsupportfunctions.h ****                            const int32_t out_offset,
 198:Middlewares/tensorflow/third_party/cmsis_nn/Include/arm_nnsupportfunctions.h ****                            const int32_t col_offset,
 199:Middlewares/tensorflow/third_party/cmsis_nn/Include/arm_nnsupportfunctions.h ****                            const int32_t row_offset,
 200:Middlewares/tensorflow/third_party/cmsis_nn/Include/arm_nnsupportfunctions.h ****                            const int16_t out_activation_min,
 201:Middlewares/tensorflow/third_party/cmsis_nn/Include/arm_nnsupportfunctions.h ****                            const int16_t out_activation_max,
 202:Middlewares/tensorflow/third_party/cmsis_nn/Include/arm_nnsupportfunctions.h ****                            const uint16_t row_len,
 203:Middlewares/tensorflow/third_party/cmsis_nn/Include/arm_nnsupportfunctions.h ****                            const int32_t *const bias,
 204:Middlewares/tensorflow/third_party/cmsis_nn/Include/arm_nnsupportfunctions.h ****                            int8_t *out);
 205:Middlewares/tensorflow/third_party/cmsis_nn/Include/arm_nnsupportfunctions.h **** /**
 206:Middlewares/tensorflow/third_party/cmsis_nn/Include/arm_nnsupportfunctions.h ****  * @brief Matrix-multiplication function for convolution with per-channel requantization for 16 bit
 207:Middlewares/tensorflow/third_party/cmsis_nn/Include/arm_nnsupportfunctions.h ****  * @param[in]       input_a     pointer to operand A
 208:Middlewares/tensorflow/third_party/cmsis_nn/Include/arm_nnsupportfunctions.h ****  * @param[in]       input_b     pointer to operand B, always consists of 2 vectors.
 209:Middlewares/tensorflow/third_party/cmsis_nn/Include/arm_nnsupportfunctions.h ****  * @param[in]       output_ch   number of rows of A
 210:Middlewares/tensorflow/third_party/cmsis_nn/Include/arm_nnsupportfunctions.h ****  * @param[in]       out_shift  pointer to per output channel requantization shift parameter.
 211:Middlewares/tensorflow/third_party/cmsis_nn/Include/arm_nnsupportfunctions.h ****  * @param[in]       out_mult   pointer to per output channel requantization multiplier parameter.
ARM GAS  /tmp/ccQr0DhO.s 			page 10


 212:Middlewares/tensorflow/third_party/cmsis_nn/Include/arm_nnsupportfunctions.h ****  * @param[in]       activation_min   minimum value to clamp the output to. Range : int16
 213:Middlewares/tensorflow/third_party/cmsis_nn/Include/arm_nnsupportfunctions.h ****  * @param[in]       activation_max   maximum value to clamp the output to. Range : int16
 214:Middlewares/tensorflow/third_party/cmsis_nn/Include/arm_nnsupportfunctions.h ****  * @param[in]       num_col_a   number of columns of A
 215:Middlewares/tensorflow/third_party/cmsis_nn/Include/arm_nnsupportfunctions.h ****  * @param[in]       output_bias per output channel bias. Range : int64
 216:Middlewares/tensorflow/third_party/cmsis_nn/Include/arm_nnsupportfunctions.h ****  * @param[in,out]   out_0       pointer to output
 217:Middlewares/tensorflow/third_party/cmsis_nn/Include/arm_nnsupportfunctions.h ****  * @return     The function returns one of the two
 218:Middlewares/tensorflow/third_party/cmsis_nn/Include/arm_nnsupportfunctions.h ****  *              1. The incremented output pointer for a successful operation or
 219:Middlewares/tensorflow/third_party/cmsis_nn/Include/arm_nnsupportfunctions.h ****  *              2. NULL if implementation is not available.
 220:Middlewares/tensorflow/third_party/cmsis_nn/Include/arm_nnsupportfunctions.h ****  *
 221:Middlewares/tensorflow/third_party/cmsis_nn/Include/arm_nnsupportfunctions.h ****  * @details   This function does the matrix multiplication of weight matrix for all output channels
 222:Middlewares/tensorflow/third_party/cmsis_nn/Include/arm_nnsupportfunctions.h ****  *            with 2 columns from im2col and produces two elements/output_channel. The outputs are
 223:Middlewares/tensorflow/third_party/cmsis_nn/Include/arm_nnsupportfunctions.h ****  *            clamped in the range provided by activation min and max.
 224:Middlewares/tensorflow/third_party/cmsis_nn/Include/arm_nnsupportfunctions.h ****  *            Supported framework: TensorFlow Lite micro.
 225:Middlewares/tensorflow/third_party/cmsis_nn/Include/arm_nnsupportfunctions.h ****  */
 226:Middlewares/tensorflow/third_party/cmsis_nn/Include/arm_nnsupportfunctions.h **** int16_t *arm_nn_mat_mult_kernel_s16(const int8_t *input_a,
 227:Middlewares/tensorflow/third_party/cmsis_nn/Include/arm_nnsupportfunctions.h ****                                     const int16_t *input_b,
 228:Middlewares/tensorflow/third_party/cmsis_nn/Include/arm_nnsupportfunctions.h ****                                     const int32_t output_ch,
 229:Middlewares/tensorflow/third_party/cmsis_nn/Include/arm_nnsupportfunctions.h ****                                     const int32_t *out_shift,
 230:Middlewares/tensorflow/third_party/cmsis_nn/Include/arm_nnsupportfunctions.h ****                                     const int32_t *out_mult,
 231:Middlewares/tensorflow/third_party/cmsis_nn/Include/arm_nnsupportfunctions.h ****                                     const int16_t activation_min,
 232:Middlewares/tensorflow/third_party/cmsis_nn/Include/arm_nnsupportfunctions.h ****                                     const int16_t activation_max,
 233:Middlewares/tensorflow/third_party/cmsis_nn/Include/arm_nnsupportfunctions.h ****                                     const int32_t num_col_a,
 234:Middlewares/tensorflow/third_party/cmsis_nn/Include/arm_nnsupportfunctions.h ****                                     const int64_t *const output_bias,
 235:Middlewares/tensorflow/third_party/cmsis_nn/Include/arm_nnsupportfunctions.h ****                                     int16_t *out_0);
 236:Middlewares/tensorflow/third_party/cmsis_nn/Include/arm_nnsupportfunctions.h **** 
 237:Middlewares/tensorflow/third_party/cmsis_nn/Include/arm_nnsupportfunctions.h **** /**
 238:Middlewares/tensorflow/third_party/cmsis_nn/Include/arm_nnsupportfunctions.h ****  * @brief General Vector by Matrix multiplication with requantization and storage of result.
 239:Middlewares/tensorflow/third_party/cmsis_nn/Include/arm_nnsupportfunctions.h ****  * @param[in]       row_elements          number of row elements
 240:Middlewares/tensorflow/third_party/cmsis_nn/Include/arm_nnsupportfunctions.h ****  * @param[in]       skipped_row_elements  number of row elements skipped due to padding.
 241:Middlewares/tensorflow/third_party/cmsis_nn/Include/arm_nnsupportfunctions.h ****  *                                        row_elements + skipped_row_elements = (kernel_x * kernel_
 242:Middlewares/tensorflow/third_party/cmsis_nn/Include/arm_nnsupportfunctions.h ****  * @param[in]       row_base_ref          pointer to row operand
 243:Middlewares/tensorflow/third_party/cmsis_nn/Include/arm_nnsupportfunctions.h ****  * @param[in]       col_base_ref          pointer to col operand
 244:Middlewares/tensorflow/third_party/cmsis_nn/Include/arm_nnsupportfunctions.h ****  * @param[out]      out_ch                Number of output channels
 245:Middlewares/tensorflow/third_party/cmsis_nn/Include/arm_nnsupportfunctions.h ****  * @param[in]       conv_params           Pointer to convolution parameters like offsets and activa
 246:Middlewares/tensorflow/third_party/cmsis_nn/Include/arm_nnsupportfunctions.h ****  * @param[in]       quant_params          Pointer to per-channel quantization parameters
 247:Middlewares/tensorflow/third_party/cmsis_nn/Include/arm_nnsupportfunctions.h ****  * @param[in]       bias                  Pointer to optional per-channel bias
 248:Middlewares/tensorflow/third_party/cmsis_nn/Include/arm_nnsupportfunctions.h ****  * @param[out]      output                Pointer to output where int8 results are stored.
 249:Middlewares/tensorflow/third_party/cmsis_nn/Include/arm_nnsupportfunctions.h ****  * @return     The function performs matrix(row_base_ref) multiplication with vector(col_base_ref) 
 250:Middlewares/tensorflow/third_party/cmsis_nn/Include/arm_nnsupportfunctions.h ****  *             scaled result is stored in memory.
 251:Middlewares/tensorflow/third_party/cmsis_nn/Include/arm_nnsupportfunctions.h ****  *
 252:Middlewares/tensorflow/third_party/cmsis_nn/Include/arm_nnsupportfunctions.h ****  * @details Pseudo-code
 253:Middlewares/tensorflow/third_party/cmsis_nn/Include/arm_nnsupportfunctions.h ****  *      *output = 0
 254:Middlewares/tensorflow/third_party/cmsis_nn/Include/arm_nnsupportfunctions.h ****  *      sum_col = 0
 255:Middlewares/tensorflow/third_party/cmsis_nn/Include/arm_nnsupportfunctions.h ****  *      for (j = 0; j < out_ch; j++)
 256:Middlewares/tensorflow/third_party/cmsis_nn/Include/arm_nnsupportfunctions.h ****  *      for (i = 0; i < row_elements; i++)
 257:Middlewares/tensorflow/third_party/cmsis_nn/Include/arm_nnsupportfunctions.h ****  *          *output += row_base_ref[i] * col_base_ref[i]
 258:Middlewares/tensorflow/third_party/cmsis_nn/Include/arm_nnsupportfunctions.h ****  *          sum_col += col_base_ref[i]
 259:Middlewares/tensorflow/third_party/cmsis_nn/Include/arm_nnsupportfunctions.h ****  *      scale sum_col using quant_params and bias
 260:Middlewares/tensorflow/third_party/cmsis_nn/Include/arm_nnsupportfunctions.h ****  *      store result in 'output'
 261:Middlewares/tensorflow/third_party/cmsis_nn/Include/arm_nnsupportfunctions.h ****  *
 262:Middlewares/tensorflow/third_party/cmsis_nn/Include/arm_nnsupportfunctions.h ****  *
 263:Middlewares/tensorflow/third_party/cmsis_nn/Include/arm_nnsupportfunctions.h ****  */
 264:Middlewares/tensorflow/third_party/cmsis_nn/Include/arm_nnsupportfunctions.h **** arm_cmsis_nn_status arm_nn_mat_mul_core_1x_s8(int32_t row_elements,
 265:Middlewares/tensorflow/third_party/cmsis_nn/Include/arm_nnsupportfunctions.h ****                                               const int32_t skipped_row_elements,
 266:Middlewares/tensorflow/third_party/cmsis_nn/Include/arm_nnsupportfunctions.h ****                                               const int8_t *row_base_ref,
 267:Middlewares/tensorflow/third_party/cmsis_nn/Include/arm_nnsupportfunctions.h ****                                               const int8_t *col_base_ref,
 268:Middlewares/tensorflow/third_party/cmsis_nn/Include/arm_nnsupportfunctions.h ****                                               const int32_t out_ch,
ARM GAS  /tmp/ccQr0DhO.s 			page 11


 269:Middlewares/tensorflow/third_party/cmsis_nn/Include/arm_nnsupportfunctions.h ****                                               const cmsis_nn_conv_params *conv_params,
 270:Middlewares/tensorflow/third_party/cmsis_nn/Include/arm_nnsupportfunctions.h ****                                               const cmsis_nn_per_channel_quant_params *quant_params
 271:Middlewares/tensorflow/third_party/cmsis_nn/Include/arm_nnsupportfunctions.h ****                                               const int32_t *bias,
 272:Middlewares/tensorflow/third_party/cmsis_nn/Include/arm_nnsupportfunctions.h ****                                               int8_t *output);
 273:Middlewares/tensorflow/third_party/cmsis_nn/Include/arm_nnsupportfunctions.h **** 
 274:Middlewares/tensorflow/third_party/cmsis_nn/Include/arm_nnsupportfunctions.h **** /**
 275:Middlewares/tensorflow/third_party/cmsis_nn/Include/arm_nnsupportfunctions.h ****  * @brief Matrix-multiplication with requantization & activation function for four rows and one col
 276:Middlewares/tensorflow/third_party/cmsis_nn/Include/arm_nnsupportfunctions.h ****  * @param[in]       row_elements  number of row elements
 277:Middlewares/tensorflow/third_party/cmsis_nn/Include/arm_nnsupportfunctions.h ****  * @param[in]       offset        offset between rows. Can be the same as row_elements.
 278:Middlewares/tensorflow/third_party/cmsis_nn/Include/arm_nnsupportfunctions.h ****  *                                For e.g, in a 1x1 conv scenario with stride as 1.
 279:Middlewares/tensorflow/third_party/cmsis_nn/Include/arm_nnsupportfunctions.h ****  * @param[in]       row_base      pointer to row operand
 280:Middlewares/tensorflow/third_party/cmsis_nn/Include/arm_nnsupportfunctions.h ****  * @param[in]       col_base      pointer to col operand
 281:Middlewares/tensorflow/third_party/cmsis_nn/Include/arm_nnsupportfunctions.h ****  * @param[in]       out_ch        Number of output channels
 282:Middlewares/tensorflow/third_party/cmsis_nn/Include/arm_nnsupportfunctions.h ****  * @param[in]       conv_params   Pointer to convolution parameters like offsets and activation val
 283:Middlewares/tensorflow/third_party/cmsis_nn/Include/arm_nnsupportfunctions.h ****  * @param[in]       quant_params  Pointer to per-channel quantization parameters
 284:Middlewares/tensorflow/third_party/cmsis_nn/Include/arm_nnsupportfunctions.h ****  * @param[in]       bias          Pointer to per-channel bias
 285:Middlewares/tensorflow/third_party/cmsis_nn/Include/arm_nnsupportfunctions.h ****  * @param[out]      output        Pointer to output where int8 results are stored.
 286:Middlewares/tensorflow/third_party/cmsis_nn/Include/arm_nnsupportfunctions.h ****  *
 287:Middlewares/tensorflow/third_party/cmsis_nn/Include/arm_nnsupportfunctions.h ****  * @return     The function returns the updated output pointer or NULL if implementation is not ava
 288:Middlewares/tensorflow/third_party/cmsis_nn/Include/arm_nnsupportfunctions.h ****  *
 289:Middlewares/tensorflow/third_party/cmsis_nn/Include/arm_nnsupportfunctions.h ****  * @details Compliant to TFLM int8 specification. MVE implementation only
 290:Middlewares/tensorflow/third_party/cmsis_nn/Include/arm_nnsupportfunctions.h ****  */
 291:Middlewares/tensorflow/third_party/cmsis_nn/Include/arm_nnsupportfunctions.h **** int8_t *arm_nn_mat_mul_core_4x_s8(const int32_t row_elements,
 292:Middlewares/tensorflow/third_party/cmsis_nn/Include/arm_nnsupportfunctions.h ****                                   const int32_t offset,
 293:Middlewares/tensorflow/third_party/cmsis_nn/Include/arm_nnsupportfunctions.h ****                                   const int8_t *row_base,
 294:Middlewares/tensorflow/third_party/cmsis_nn/Include/arm_nnsupportfunctions.h ****                                   const int8_t *col_base,
 295:Middlewares/tensorflow/third_party/cmsis_nn/Include/arm_nnsupportfunctions.h ****                                   const int32_t out_ch,
 296:Middlewares/tensorflow/third_party/cmsis_nn/Include/arm_nnsupportfunctions.h ****                                   const cmsis_nn_conv_params *conv_params,
 297:Middlewares/tensorflow/third_party/cmsis_nn/Include/arm_nnsupportfunctions.h ****                                   const cmsis_nn_per_channel_quant_params *quant_params,
 298:Middlewares/tensorflow/third_party/cmsis_nn/Include/arm_nnsupportfunctions.h ****                                   const int32_t *bias,
 299:Middlewares/tensorflow/third_party/cmsis_nn/Include/arm_nnsupportfunctions.h ****                                   int8_t *output);
 300:Middlewares/tensorflow/third_party/cmsis_nn/Include/arm_nnsupportfunctions.h **** 
 301:Middlewares/tensorflow/third_party/cmsis_nn/Include/arm_nnsupportfunctions.h **** /**
 302:Middlewares/tensorflow/third_party/cmsis_nn/Include/arm_nnsupportfunctions.h ****  * @brief General Matrix-multiplication function with per-channel requantization.
 303:Middlewares/tensorflow/third_party/cmsis_nn/Include/arm_nnsupportfunctions.h ****  *        This function assumes:
 304:Middlewares/tensorflow/third_party/cmsis_nn/Include/arm_nnsupportfunctions.h ****  *        - LHS input matrix NOT transposed (nt)
 305:Middlewares/tensorflow/third_party/cmsis_nn/Include/arm_nnsupportfunctions.h ****  *        - RHS input matrix transposed (t)
 306:Middlewares/tensorflow/third_party/cmsis_nn/Include/arm_nnsupportfunctions.h ****  *
 307:Middlewares/tensorflow/third_party/cmsis_nn/Include/arm_nnsupportfunctions.h ****  *  @note This operation also performs the broadcast bias addition before the requantization
 308:Middlewares/tensorflow/third_party/cmsis_nn/Include/arm_nnsupportfunctions.h ****  *
 309:Middlewares/tensorflow/third_party/cmsis_nn/Include/arm_nnsupportfunctions.h ****  * @param[in]  lhs                Pointer to the LHS input matrix
 310:Middlewares/tensorflow/third_party/cmsis_nn/Include/arm_nnsupportfunctions.h ****  * @param[in]  rhs                Pointer to the RHS input matrix
 311:Middlewares/tensorflow/third_party/cmsis_nn/Include/arm_nnsupportfunctions.h ****  * @param[in]  bias               Pointer to the bias vector. The length of this vector is equal to
 312:Middlewares/tensorflow/third_party/cmsis_nn/Include/arm_nnsupportfunctions.h ****  * output columns (or RHS input rows)
 313:Middlewares/tensorflow/third_party/cmsis_nn/Include/arm_nnsupportfunctions.h ****  * @param[out] dst                Pointer to the output matrix with "m" rows and "n" columns
 314:Middlewares/tensorflow/third_party/cmsis_nn/Include/arm_nnsupportfunctions.h ****  * @param[in]  dst_multipliers    Pointer to the multipliers vector needed for the per-channel requ
 315:Middlewares/tensorflow/third_party/cmsis_nn/Include/arm_nnsupportfunctions.h ****  *                                The length of this vector is equal to the number of output column
 316:Middlewares/tensorflow/third_party/cmsis_nn/Include/arm_nnsupportfunctions.h ****  * rows)
 317:Middlewares/tensorflow/third_party/cmsis_nn/Include/arm_nnsupportfunctions.h ****  * @param[in]  dst_shifts         Pointer to the shifts vector needed for the per-channel requantiz
 318:Middlewares/tensorflow/third_party/cmsis_nn/Include/arm_nnsupportfunctions.h ****  * of this vector is equal to the number of output columns (or RHS input rows)
 319:Middlewares/tensorflow/third_party/cmsis_nn/Include/arm_nnsupportfunctions.h ****  * @param[in]  lhs_rows           Number of LHS input rows
 320:Middlewares/tensorflow/third_party/cmsis_nn/Include/arm_nnsupportfunctions.h ****  * @param[in]  rhs_rows           Number of RHS input rows
 321:Middlewares/tensorflow/third_party/cmsis_nn/Include/arm_nnsupportfunctions.h ****  * @param[in]  rhs_cols           Number of LHS/RHS input columns
 322:Middlewares/tensorflow/third_party/cmsis_nn/Include/arm_nnsupportfunctions.h ****  * @param[in]  lhs_offset         Offset to be applied to the LHS input value
 323:Middlewares/tensorflow/third_party/cmsis_nn/Include/arm_nnsupportfunctions.h ****  * @param[in]  dst_offset         Offset to be applied the output result
 324:Middlewares/tensorflow/third_party/cmsis_nn/Include/arm_nnsupportfunctions.h ****  * @param[in]  activation_min     Minimum value to clamp down the output. Range : int8
 325:Middlewares/tensorflow/third_party/cmsis_nn/Include/arm_nnsupportfunctions.h ****  * @param[in]  activation_max     Maximum value to clamp up the output. Range : int8
ARM GAS  /tmp/ccQr0DhO.s 			page 12


 326:Middlewares/tensorflow/third_party/cmsis_nn/Include/arm_nnsupportfunctions.h ****  * @param[in]  rhs_cols_offset    Offset between input columns. Used to handle non-unity strides
 327:Middlewares/tensorflow/third_party/cmsis_nn/Include/arm_nnsupportfunctions.h ****  *                                Expected value : x * rhs_cols, where x >= 1
 328:Middlewares/tensorflow/third_party/cmsis_nn/Include/arm_nnsupportfunctions.h ****  *
 329:Middlewares/tensorflow/third_party/cmsis_nn/Include/arm_nnsupportfunctions.h ****  * @return     The function returns <code>ARM_CMSIS_NN_SUCCESS</code>
 330:Middlewares/tensorflow/third_party/cmsis_nn/Include/arm_nnsupportfunctions.h ****  *
 331:Middlewares/tensorflow/third_party/cmsis_nn/Include/arm_nnsupportfunctions.h ****  */
 332:Middlewares/tensorflow/third_party/cmsis_nn/Include/arm_nnsupportfunctions.h **** arm_cmsis_nn_status arm_nn_mat_mult_nt_t_s8(const int8_t *lhs,
 333:Middlewares/tensorflow/third_party/cmsis_nn/Include/arm_nnsupportfunctions.h ****                                             const int8_t *rhs,
 334:Middlewares/tensorflow/third_party/cmsis_nn/Include/arm_nnsupportfunctions.h ****                                             const int32_t *bias,
 335:Middlewares/tensorflow/third_party/cmsis_nn/Include/arm_nnsupportfunctions.h ****                                             int8_t *dst,
 336:Middlewares/tensorflow/third_party/cmsis_nn/Include/arm_nnsupportfunctions.h ****                                             const int32_t *dst_multipliers,
 337:Middlewares/tensorflow/third_party/cmsis_nn/Include/arm_nnsupportfunctions.h ****                                             const int32_t *dst_shifts,
 338:Middlewares/tensorflow/third_party/cmsis_nn/Include/arm_nnsupportfunctions.h ****                                             const int32_t lhs_rows,
 339:Middlewares/tensorflow/third_party/cmsis_nn/Include/arm_nnsupportfunctions.h ****                                             const int32_t rhs_rows,
 340:Middlewares/tensorflow/third_party/cmsis_nn/Include/arm_nnsupportfunctions.h ****                                             const int32_t rhs_cols,
 341:Middlewares/tensorflow/third_party/cmsis_nn/Include/arm_nnsupportfunctions.h ****                                             const int32_t lhs_offset,
 342:Middlewares/tensorflow/third_party/cmsis_nn/Include/arm_nnsupportfunctions.h ****                                             const int32_t dst_offset,
 343:Middlewares/tensorflow/third_party/cmsis_nn/Include/arm_nnsupportfunctions.h ****                                             const int32_t activation_min,
 344:Middlewares/tensorflow/third_party/cmsis_nn/Include/arm_nnsupportfunctions.h ****                                             const int32_t activation_max,
 345:Middlewares/tensorflow/third_party/cmsis_nn/Include/arm_nnsupportfunctions.h ****                                             const int32_t rhs_cols_offset);
 346:Middlewares/tensorflow/third_party/cmsis_nn/Include/arm_nnsupportfunctions.h **** 
 347:Middlewares/tensorflow/third_party/cmsis_nn/Include/arm_nnsupportfunctions.h **** /**
 348:Middlewares/tensorflow/third_party/cmsis_nn/Include/arm_nnsupportfunctions.h ****  * @brief s8 Vector by Matrix (transposed) multiplication
 349:Middlewares/tensorflow/third_party/cmsis_nn/Include/arm_nnsupportfunctions.h ****  *
 350:Middlewares/tensorflow/third_party/cmsis_nn/Include/arm_nnsupportfunctions.h ****  * @param[in]      lhs             Input left-hand side vector
 351:Middlewares/tensorflow/third_party/cmsis_nn/Include/arm_nnsupportfunctions.h ****  * @param[in]      rhs             Input right-hand side matrix (transposed)
 352:Middlewares/tensorflow/third_party/cmsis_nn/Include/arm_nnsupportfunctions.h ****  * @param[in]      bias            Input bias
 353:Middlewares/tensorflow/third_party/cmsis_nn/Include/arm_nnsupportfunctions.h ****  * @param[out]     dst             Output vector
 354:Middlewares/tensorflow/third_party/cmsis_nn/Include/arm_nnsupportfunctions.h ****  * @param[in]      lhs_offset      Offset to be added to the input values of the left-hand side vec
 355:Middlewares/tensorflow/third_party/cmsis_nn/Include/arm_nnsupportfunctions.h ****  *                                 Range: -127 to 128
 356:Middlewares/tensorflow/third_party/cmsis_nn/Include/arm_nnsupportfunctions.h ****  * @param[in]      dst_offset      Offset to be added to the output values. Range: -127 to 128
 357:Middlewares/tensorflow/third_party/cmsis_nn/Include/arm_nnsupportfunctions.h ****  * @param[in]      dst_multiplier  Output multiplier
 358:Middlewares/tensorflow/third_party/cmsis_nn/Include/arm_nnsupportfunctions.h ****  * @param[in]      dst_shift       Output shift
 359:Middlewares/tensorflow/third_party/cmsis_nn/Include/arm_nnsupportfunctions.h ****  * @param[in]      rhs_cols        Number of columns in the right-hand side input matrix
 360:Middlewares/tensorflow/third_party/cmsis_nn/Include/arm_nnsupportfunctions.h ****  * @param[in]      rhs_rows        Number of rows in the right-hand side input matrix
 361:Middlewares/tensorflow/third_party/cmsis_nn/Include/arm_nnsupportfunctions.h ****  * @param[in]      activation_min  Minimum value to clamp the output to. Range: int8
 362:Middlewares/tensorflow/third_party/cmsis_nn/Include/arm_nnsupportfunctions.h ****  * @param[in]      activation_max  Maximum value to clamp the output to. Range: int8
 363:Middlewares/tensorflow/third_party/cmsis_nn/Include/arm_nnsupportfunctions.h ****  * @param[in]      address_offset  Memory position offset for dst. First output is stored at 'dst',
 364:Middlewares/tensorflow/third_party/cmsis_nn/Include/arm_nnsupportfunctions.h ****  *                                 second at 'dst + address_offset' and so on. Default value is typ
 365:Middlewares/tensorflow/third_party/cmsis_nn/Include/arm_nnsupportfunctions.h ****  *
 366:Middlewares/tensorflow/third_party/cmsis_nn/Include/arm_nnsupportfunctions.h ****  * @return         The function returns <code>ARM_CMSIS_NN_SUCCESS</code>
 367:Middlewares/tensorflow/third_party/cmsis_nn/Include/arm_nnsupportfunctions.h ****  *
 368:Middlewares/tensorflow/third_party/cmsis_nn/Include/arm_nnsupportfunctions.h ****  */
 369:Middlewares/tensorflow/third_party/cmsis_nn/Include/arm_nnsupportfunctions.h **** arm_cmsis_nn_status arm_nn_vec_mat_mult_t_s8(const int8_t *lhs,
 370:Middlewares/tensorflow/third_party/cmsis_nn/Include/arm_nnsupportfunctions.h ****                                              const int8_t *rhs,
 371:Middlewares/tensorflow/third_party/cmsis_nn/Include/arm_nnsupportfunctions.h ****                                              const int32_t *bias,
 372:Middlewares/tensorflow/third_party/cmsis_nn/Include/arm_nnsupportfunctions.h ****                                              int8_t *dst,
 373:Middlewares/tensorflow/third_party/cmsis_nn/Include/arm_nnsupportfunctions.h ****                                              const int32_t lhs_offset,
 374:Middlewares/tensorflow/third_party/cmsis_nn/Include/arm_nnsupportfunctions.h ****                                              const int32_t dst_offset,
 375:Middlewares/tensorflow/third_party/cmsis_nn/Include/arm_nnsupportfunctions.h ****                                              const int32_t dst_multiplier,
 376:Middlewares/tensorflow/third_party/cmsis_nn/Include/arm_nnsupportfunctions.h ****                                              const int32_t dst_shift,
 377:Middlewares/tensorflow/third_party/cmsis_nn/Include/arm_nnsupportfunctions.h ****                                              const int32_t rhs_cols,
 378:Middlewares/tensorflow/third_party/cmsis_nn/Include/arm_nnsupportfunctions.h ****                                              const int32_t rhs_rows,
 379:Middlewares/tensorflow/third_party/cmsis_nn/Include/arm_nnsupportfunctions.h ****                                              const int32_t activation_min,
 380:Middlewares/tensorflow/third_party/cmsis_nn/Include/arm_nnsupportfunctions.h ****                                              const int32_t activation_max,
 381:Middlewares/tensorflow/third_party/cmsis_nn/Include/arm_nnsupportfunctions.h ****                                              const int32_t address_offset);
 382:Middlewares/tensorflow/third_party/cmsis_nn/Include/arm_nnsupportfunctions.h **** 
ARM GAS  /tmp/ccQr0DhO.s 			page 13


 383:Middlewares/tensorflow/third_party/cmsis_nn/Include/arm_nnsupportfunctions.h **** /**
 384:Middlewares/tensorflow/third_party/cmsis_nn/Include/arm_nnsupportfunctions.h ****  * @brief s16 Vector by Matrix (transposed) multiplication
 385:Middlewares/tensorflow/third_party/cmsis_nn/Include/arm_nnsupportfunctions.h ****  *
 386:Middlewares/tensorflow/third_party/cmsis_nn/Include/arm_nnsupportfunctions.h ****  * @param[in]      lhs             Input left-hand side vector
 387:Middlewares/tensorflow/third_party/cmsis_nn/Include/arm_nnsupportfunctions.h ****  * @param[in]      rhs             Input right-hand side matrix (transposed)
 388:Middlewares/tensorflow/third_party/cmsis_nn/Include/arm_nnsupportfunctions.h ****  * @param[in]      bias            Input bias
 389:Middlewares/tensorflow/third_party/cmsis_nn/Include/arm_nnsupportfunctions.h ****  * @param[out]     dst             Output vector
 390:Middlewares/tensorflow/third_party/cmsis_nn/Include/arm_nnsupportfunctions.h ****  * @param[in]      dst_multiplier  Output multiplier
 391:Middlewares/tensorflow/third_party/cmsis_nn/Include/arm_nnsupportfunctions.h ****  * @param[in]      dst_shift       Output shift
 392:Middlewares/tensorflow/third_party/cmsis_nn/Include/arm_nnsupportfunctions.h ****  * @param[in]      rhs_cols        Number of columns in the right-hand side input matrix
 393:Middlewares/tensorflow/third_party/cmsis_nn/Include/arm_nnsupportfunctions.h ****  * @param[in]      rhs_rows        Number of rows in the right-hand side input matrix
 394:Middlewares/tensorflow/third_party/cmsis_nn/Include/arm_nnsupportfunctions.h ****  * @param[in]      activation_min  Minimum value to clamp the output to. Range: int16
 395:Middlewares/tensorflow/third_party/cmsis_nn/Include/arm_nnsupportfunctions.h ****  * @param[in]      activation_max  Maximum value to clamp the output to. Range: int16
 396:Middlewares/tensorflow/third_party/cmsis_nn/Include/arm_nnsupportfunctions.h ****  *
 397:Middlewares/tensorflow/third_party/cmsis_nn/Include/arm_nnsupportfunctions.h ****  * @return         The function returns <code>ARM_CMSIS_NN_SUCCESS</code>
 398:Middlewares/tensorflow/third_party/cmsis_nn/Include/arm_nnsupportfunctions.h ****  *
 399:Middlewares/tensorflow/third_party/cmsis_nn/Include/arm_nnsupportfunctions.h ****  */
 400:Middlewares/tensorflow/third_party/cmsis_nn/Include/arm_nnsupportfunctions.h **** arm_cmsis_nn_status arm_nn_vec_mat_mult_t_s16(const int16_t *lhs,
 401:Middlewares/tensorflow/third_party/cmsis_nn/Include/arm_nnsupportfunctions.h ****                                               const int8_t *rhs,
 402:Middlewares/tensorflow/third_party/cmsis_nn/Include/arm_nnsupportfunctions.h ****                                               const int64_t *bias,
 403:Middlewares/tensorflow/third_party/cmsis_nn/Include/arm_nnsupportfunctions.h ****                                               int16_t *dst,
 404:Middlewares/tensorflow/third_party/cmsis_nn/Include/arm_nnsupportfunctions.h ****                                               const int32_t dst_multiplier,
 405:Middlewares/tensorflow/third_party/cmsis_nn/Include/arm_nnsupportfunctions.h ****                                               const int32_t dst_shift,
 406:Middlewares/tensorflow/third_party/cmsis_nn/Include/arm_nnsupportfunctions.h ****                                               const int32_t rhs_cols,
 407:Middlewares/tensorflow/third_party/cmsis_nn/Include/arm_nnsupportfunctions.h ****                                               const int32_t rhs_rows,
 408:Middlewares/tensorflow/third_party/cmsis_nn/Include/arm_nnsupportfunctions.h ****                                               const int32_t activation_min,
 409:Middlewares/tensorflow/third_party/cmsis_nn/Include/arm_nnsupportfunctions.h ****                                               const int32_t activation_max);
 410:Middlewares/tensorflow/third_party/cmsis_nn/Include/arm_nnsupportfunctions.h **** 
 411:Middlewares/tensorflow/third_party/cmsis_nn/Include/arm_nnsupportfunctions.h **** /**
 412:Middlewares/tensorflow/third_party/cmsis_nn/Include/arm_nnsupportfunctions.h ****  * @brief s8 Vector by Matrix (transposed) multiplication with s16 output
 413:Middlewares/tensorflow/third_party/cmsis_nn/Include/arm_nnsupportfunctions.h ****  *
 414:Middlewares/tensorflow/third_party/cmsis_nn/Include/arm_nnsupportfunctions.h ****  * @param[in]      lhs             Input left-hand side vector
 415:Middlewares/tensorflow/third_party/cmsis_nn/Include/arm_nnsupportfunctions.h ****  * @param[in]      rhs             Input right-hand side matrix (transposed)
 416:Middlewares/tensorflow/third_party/cmsis_nn/Include/arm_nnsupportfunctions.h ****  * @param[out]     dst             Output vector
 417:Middlewares/tensorflow/third_party/cmsis_nn/Include/arm_nnsupportfunctions.h ****  * @param[in]      lhs_offset      Offset to be added to the input values of the left-hand side
 418:Middlewares/tensorflow/third_party/cmsis_nn/Include/arm_nnsupportfunctions.h ****  *                                 vector. Range: -127 to 128
 419:Middlewares/tensorflow/third_party/cmsis_nn/Include/arm_nnsupportfunctions.h ****  * @param[in]      scatter_offset  Address offset for dst. First output is stored at 'dst', the
 420:Middlewares/tensorflow/third_party/cmsis_nn/Include/arm_nnsupportfunctions.h ****  *                                 second at 'dst + scatter_offset' and so on.
 421:Middlewares/tensorflow/third_party/cmsis_nn/Include/arm_nnsupportfunctions.h ****  * @param[in]      dst_multiplier  Output multiplier
 422:Middlewares/tensorflow/third_party/cmsis_nn/Include/arm_nnsupportfunctions.h ****  * @param[in]      dst_shift       Output shift
 423:Middlewares/tensorflow/third_party/cmsis_nn/Include/arm_nnsupportfunctions.h ****  * @param[in]      rhs_cols        Number of columns in the right-hand side input matrix
 424:Middlewares/tensorflow/third_party/cmsis_nn/Include/arm_nnsupportfunctions.h ****  * @param[in]      rhs_rows        Number of rows in the right-hand side input matrix
 425:Middlewares/tensorflow/third_party/cmsis_nn/Include/arm_nnsupportfunctions.h ****  * @param[in]      activation_min  Minimum value to clamp the output to. Range: int16
 426:Middlewares/tensorflow/third_party/cmsis_nn/Include/arm_nnsupportfunctions.h ****  * @param[in]      activation_max  Maximum value to clamp the output to. Range: int16
 427:Middlewares/tensorflow/third_party/cmsis_nn/Include/arm_nnsupportfunctions.h ****  *
 428:Middlewares/tensorflow/third_party/cmsis_nn/Include/arm_nnsupportfunctions.h ****  * @return         The function returns <code>ARM_CMSIS_NN_SUCCESS</code>
 429:Middlewares/tensorflow/third_party/cmsis_nn/Include/arm_nnsupportfunctions.h ****  *
 430:Middlewares/tensorflow/third_party/cmsis_nn/Include/arm_nnsupportfunctions.h ****  */
 431:Middlewares/tensorflow/third_party/cmsis_nn/Include/arm_nnsupportfunctions.h **** arm_cmsis_nn_status arm_nn_vec_mat_mult_t_svdf_s8(const int8_t *lhs,
 432:Middlewares/tensorflow/third_party/cmsis_nn/Include/arm_nnsupportfunctions.h ****                                                   const int8_t *rhs,
 433:Middlewares/tensorflow/third_party/cmsis_nn/Include/arm_nnsupportfunctions.h ****                                                   int16_t *dst,
 434:Middlewares/tensorflow/third_party/cmsis_nn/Include/arm_nnsupportfunctions.h ****                                                   const int32_t lhs_offset,
 435:Middlewares/tensorflow/third_party/cmsis_nn/Include/arm_nnsupportfunctions.h ****                                                   const int32_t scatter_offset,
 436:Middlewares/tensorflow/third_party/cmsis_nn/Include/arm_nnsupportfunctions.h ****                                                   const int32_t dst_multiplier,
 437:Middlewares/tensorflow/third_party/cmsis_nn/Include/arm_nnsupportfunctions.h ****                                                   const int32_t dst_shift,
 438:Middlewares/tensorflow/third_party/cmsis_nn/Include/arm_nnsupportfunctions.h ****                                                   const int32_t rhs_cols,
 439:Middlewares/tensorflow/third_party/cmsis_nn/Include/arm_nnsupportfunctions.h ****                                                   const int32_t rhs_rows,
ARM GAS  /tmp/ccQr0DhO.s 			page 14


 440:Middlewares/tensorflow/third_party/cmsis_nn/Include/arm_nnsupportfunctions.h ****                                                   const int32_t activation_min,
 441:Middlewares/tensorflow/third_party/cmsis_nn/Include/arm_nnsupportfunctions.h ****                                                   const int32_t activation_max);
 442:Middlewares/tensorflow/third_party/cmsis_nn/Include/arm_nnsupportfunctions.h **** 
 443:Middlewares/tensorflow/third_party/cmsis_nn/Include/arm_nnsupportfunctions.h **** /**
 444:Middlewares/tensorflow/third_party/cmsis_nn/Include/arm_nnsupportfunctions.h ****  * @brief Depthwise convolution of transposed rhs matrix with 4 lhs matrices. To be used in padded 
 445:Middlewares/tensorflow/third_party/cmsis_nn/Include/arm_nnsupportfunctions.h ****  *        the padding is -lhs_offset(Range: int8). Dimensions are the same for lhs and rhs.
 446:Middlewares/tensorflow/third_party/cmsis_nn/Include/arm_nnsupportfunctions.h ****  *
 447:Middlewares/tensorflow/third_party/cmsis_nn/Include/arm_nnsupportfunctions.h ****  * @param[in]      lhs             Input left-hand side matrix
 448:Middlewares/tensorflow/third_party/cmsis_nn/Include/arm_nnsupportfunctions.h ****  * @param[in]      rhs             Input right-hand side matrix (transposed)
 449:Middlewares/tensorflow/third_party/cmsis_nn/Include/arm_nnsupportfunctions.h ****  * @param[in]      lhs_offset      LHS matrix offset(input offset). Range: -127 to 128
 450:Middlewares/tensorflow/third_party/cmsis_nn/Include/arm_nnsupportfunctions.h ****  * @param[in]      active_ch       Subset of total_ch processed
 451:Middlewares/tensorflow/third_party/cmsis_nn/Include/arm_nnsupportfunctions.h ****  * @param[in]      total_ch        Number of channels in LHS/RHS
 452:Middlewares/tensorflow/third_party/cmsis_nn/Include/arm_nnsupportfunctions.h ****  * @param[in]      out_shift       Per channel output shift. Length of vector is equal to number of
 453:Middlewares/tensorflow/third_party/cmsis_nn/Include/arm_nnsupportfunctions.h ****  * @param[in]      out_mult        Per channel output multiplier. Length of vector is equal to numb
 454:Middlewares/tensorflow/third_party/cmsis_nn/Include/arm_nnsupportfunctions.h ****  * @param[in]      out_offset      Offset to be added to the output values. Range: -127 to 128
 455:Middlewares/tensorflow/third_party/cmsis_nn/Include/arm_nnsupportfunctions.h ****  * @param[in]      activation_min  Minimum value to clamp the output to. Range: int8
 456:Middlewares/tensorflow/third_party/cmsis_nn/Include/arm_nnsupportfunctions.h ****  * @param[in]      activation_max  Maximum value to clamp the output to. Range: int8
 457:Middlewares/tensorflow/third_party/cmsis_nn/Include/arm_nnsupportfunctions.h ****  * @param[in]       row_x_col       (row_dimension * col_dimension) of LHS/RHS matrix
 458:Middlewares/tensorflow/third_party/cmsis_nn/Include/arm_nnsupportfunctions.h ****  * @param[in]      output_bias     Per channel output bias. Length of vector is equal to number of 
 459:Middlewares/tensorflow/third_party/cmsis_nn/Include/arm_nnsupportfunctions.h ****  * @param[in]      out             Output pointer
 460:Middlewares/tensorflow/third_party/cmsis_nn/Include/arm_nnsupportfunctions.h ****  *
 461:Middlewares/tensorflow/third_party/cmsis_nn/Include/arm_nnsupportfunctions.h ****  * @return         The function returns one of the two
 462:Middlewares/tensorflow/third_party/cmsis_nn/Include/arm_nnsupportfunctions.h ****  *                  - Updated output pointer if an implementation is available
 463:Middlewares/tensorflow/third_party/cmsis_nn/Include/arm_nnsupportfunctions.h ****  *                  - NULL if no implementation is available.
 464:Middlewares/tensorflow/third_party/cmsis_nn/Include/arm_nnsupportfunctions.h ****  *
 465:Middlewares/tensorflow/third_party/cmsis_nn/Include/arm_nnsupportfunctions.h ****  * @note           If number of channels is not a multiple of 4, upto 3 elements outside the bounda
 466:Middlewares/tensorflow/third_party/cmsis_nn/Include/arm_nnsupportfunctions.h ****  * out for the following.
 467:Middlewares/tensorflow/third_party/cmsis_nn/Include/arm_nnsupportfunctions.h ****  *                  - Output shift
 468:Middlewares/tensorflow/third_party/cmsis_nn/Include/arm_nnsupportfunctions.h ****  *                  - Output multiplier
 469:Middlewares/tensorflow/third_party/cmsis_nn/Include/arm_nnsupportfunctions.h ****  *                  - Output bias
 470:Middlewares/tensorflow/third_party/cmsis_nn/Include/arm_nnsupportfunctions.h ****  *                  - rhs
 471:Middlewares/tensorflow/third_party/cmsis_nn/Include/arm_nnsupportfunctions.h ****  */
 472:Middlewares/tensorflow/third_party/cmsis_nn/Include/arm_nnsupportfunctions.h **** arm_cmsis_nn_status arm_nn_depthwise_conv_nt_t_padded_s8(const int8_t *lhs,
 473:Middlewares/tensorflow/third_party/cmsis_nn/Include/arm_nnsupportfunctions.h ****                                                          const int8_t *rhs,
 474:Middlewares/tensorflow/third_party/cmsis_nn/Include/arm_nnsupportfunctions.h ****                                                          const int32_t lhs_offset,
 475:Middlewares/tensorflow/third_party/cmsis_nn/Include/arm_nnsupportfunctions.h ****                                                          const int32_t active_ch,
 476:Middlewares/tensorflow/third_party/cmsis_nn/Include/arm_nnsupportfunctions.h ****                                                          const int32_t total_ch,
 477:Middlewares/tensorflow/third_party/cmsis_nn/Include/arm_nnsupportfunctions.h ****                                                          const int32_t *out_shift,
 478:Middlewares/tensorflow/third_party/cmsis_nn/Include/arm_nnsupportfunctions.h ****                                                          const int32_t *out_mult,
 479:Middlewares/tensorflow/third_party/cmsis_nn/Include/arm_nnsupportfunctions.h ****                                                          const int32_t out_offset,
 480:Middlewares/tensorflow/third_party/cmsis_nn/Include/arm_nnsupportfunctions.h ****                                                          const int32_t activation_min,
 481:Middlewares/tensorflow/third_party/cmsis_nn/Include/arm_nnsupportfunctions.h ****                                                          const int32_t activation_max,
 482:Middlewares/tensorflow/third_party/cmsis_nn/Include/arm_nnsupportfunctions.h ****                                                          const uint16_t row_x_col,
 483:Middlewares/tensorflow/third_party/cmsis_nn/Include/arm_nnsupportfunctions.h ****                                                          const int32_t *const output_bias,
 484:Middlewares/tensorflow/third_party/cmsis_nn/Include/arm_nnsupportfunctions.h ****                                                          int8_t *out);
 485:Middlewares/tensorflow/third_party/cmsis_nn/Include/arm_nnsupportfunctions.h **** 
 486:Middlewares/tensorflow/third_party/cmsis_nn/Include/arm_nnsupportfunctions.h **** /**
 487:Middlewares/tensorflow/third_party/cmsis_nn/Include/arm_nnsupportfunctions.h ****  * @brief Depthwise convolution of transposed rhs matrix with 4 lhs matrices. To be used in non-pad
 488:Middlewares/tensorflow/third_party/cmsis_nn/Include/arm_nnsupportfunctions.h ****  *        Dimensions are the same for lhs and rhs.
 489:Middlewares/tensorflow/third_party/cmsis_nn/Include/arm_nnsupportfunctions.h ****  *
 490:Middlewares/tensorflow/third_party/cmsis_nn/Include/arm_nnsupportfunctions.h ****  * @param[in]      lhs             Input left-hand side matrix
 491:Middlewares/tensorflow/third_party/cmsis_nn/Include/arm_nnsupportfunctions.h ****  * @param[in]      rhs             Input right-hand side matrix (transposed)
 492:Middlewares/tensorflow/third_party/cmsis_nn/Include/arm_nnsupportfunctions.h ****  * @param[in]      lhs_offset      LHS matrix offset(input offset). Range: -127 to 128
 493:Middlewares/tensorflow/third_party/cmsis_nn/Include/arm_nnsupportfunctions.h ****  * @param[in]      active_ch       Subset of total_ch processed
 494:Middlewares/tensorflow/third_party/cmsis_nn/Include/arm_nnsupportfunctions.h ****  * @param[in]      total_ch        Number of channels in LHS/RHS
 495:Middlewares/tensorflow/third_party/cmsis_nn/Include/arm_nnsupportfunctions.h ****  * @param[in]      out_shift       Per channel output shift. Length of vector is equal to number of
 496:Middlewares/tensorflow/third_party/cmsis_nn/Include/arm_nnsupportfunctions.h ****  * @param[in]      out_mult        Per channel output multiplier. Length of vector is equal to numb
ARM GAS  /tmp/ccQr0DhO.s 			page 15


 497:Middlewares/tensorflow/third_party/cmsis_nn/Include/arm_nnsupportfunctions.h ****  * @param[in]      out_offset      Offset to be added to the output values. Range: -127 to 128
 498:Middlewares/tensorflow/third_party/cmsis_nn/Include/arm_nnsupportfunctions.h ****  * @param[in]      activation_min  Minimum value to clamp the output to. Range: int8
 499:Middlewares/tensorflow/third_party/cmsis_nn/Include/arm_nnsupportfunctions.h ****  * @param[in]      activation_max  Maximum value to clamp the output to. Range: int8
 500:Middlewares/tensorflow/third_party/cmsis_nn/Include/arm_nnsupportfunctions.h ****  * @param[in]       row_x_col       (row_dimension * col_dimension) of LHS/RHS matrix
 501:Middlewares/tensorflow/third_party/cmsis_nn/Include/arm_nnsupportfunctions.h ****  * @param[in]      output_bias     Per channel output bias. Length of vector is equal to number of 
 502:Middlewares/tensorflow/third_party/cmsis_nn/Include/arm_nnsupportfunctions.h ****  * @param[in]      out             Output pointer
 503:Middlewares/tensorflow/third_party/cmsis_nn/Include/arm_nnsupportfunctions.h ****  *
 504:Middlewares/tensorflow/third_party/cmsis_nn/Include/arm_nnsupportfunctions.h ****  * @return         The function returns one of the two
 505:Middlewares/tensorflow/third_party/cmsis_nn/Include/arm_nnsupportfunctions.h ****  *                  - Updated output pointer if an implementation is available
 506:Middlewares/tensorflow/third_party/cmsis_nn/Include/arm_nnsupportfunctions.h ****  *                  - NULL if no implementation is available.
 507:Middlewares/tensorflow/third_party/cmsis_nn/Include/arm_nnsupportfunctions.h ****  *
 508:Middlewares/tensorflow/third_party/cmsis_nn/Include/arm_nnsupportfunctions.h ****  * @note           If number of channels is not a multiple of 4, upto 3 elements outside the bounda
 509:Middlewares/tensorflow/third_party/cmsis_nn/Include/arm_nnsupportfunctions.h ****  * out for the following.
 510:Middlewares/tensorflow/third_party/cmsis_nn/Include/arm_nnsupportfunctions.h ****  *                  - Output shift
 511:Middlewares/tensorflow/third_party/cmsis_nn/Include/arm_nnsupportfunctions.h ****  *                  - Output multiplier
 512:Middlewares/tensorflow/third_party/cmsis_nn/Include/arm_nnsupportfunctions.h ****  *                  - Output bias
 513:Middlewares/tensorflow/third_party/cmsis_nn/Include/arm_nnsupportfunctions.h ****  *                  - rhs
 514:Middlewares/tensorflow/third_party/cmsis_nn/Include/arm_nnsupportfunctions.h ****  */
 515:Middlewares/tensorflow/third_party/cmsis_nn/Include/arm_nnsupportfunctions.h **** arm_cmsis_nn_status arm_nn_depthwise_conv_nt_t_s8(const int8_t *lhs,
 516:Middlewares/tensorflow/third_party/cmsis_nn/Include/arm_nnsupportfunctions.h ****                                                   const int8_t *rhs,
 517:Middlewares/tensorflow/third_party/cmsis_nn/Include/arm_nnsupportfunctions.h ****                                                   const int32_t lhs_offset,
 518:Middlewares/tensorflow/third_party/cmsis_nn/Include/arm_nnsupportfunctions.h ****                                                   const int32_t active_ch,
 519:Middlewares/tensorflow/third_party/cmsis_nn/Include/arm_nnsupportfunctions.h ****                                                   const int32_t total_ch,
 520:Middlewares/tensorflow/third_party/cmsis_nn/Include/arm_nnsupportfunctions.h ****                                                   const int32_t *out_shift,
 521:Middlewares/tensorflow/third_party/cmsis_nn/Include/arm_nnsupportfunctions.h ****                                                   const int32_t *out_mult,
 522:Middlewares/tensorflow/third_party/cmsis_nn/Include/arm_nnsupportfunctions.h ****                                                   const int32_t out_offset,
 523:Middlewares/tensorflow/third_party/cmsis_nn/Include/arm_nnsupportfunctions.h ****                                                   const int32_t activation_min,
 524:Middlewares/tensorflow/third_party/cmsis_nn/Include/arm_nnsupportfunctions.h ****                                                   const int32_t activation_max,
 525:Middlewares/tensorflow/third_party/cmsis_nn/Include/arm_nnsupportfunctions.h ****                                                   const uint16_t row_x_col,
 526:Middlewares/tensorflow/third_party/cmsis_nn/Include/arm_nnsupportfunctions.h ****                                                   const int32_t *const output_bias,
 527:Middlewares/tensorflow/third_party/cmsis_nn/Include/arm_nnsupportfunctions.h ****                                                   int8_t *out);
 528:Middlewares/tensorflow/third_party/cmsis_nn/Include/arm_nnsupportfunctions.h **** 
 529:Middlewares/tensorflow/third_party/cmsis_nn/Include/arm_nnsupportfunctions.h **** /**
 530:Middlewares/tensorflow/third_party/cmsis_nn/Include/arm_nnsupportfunctions.h ****  * @brief Depthwise convolution of transposed rhs matrix with 4 lhs matrices. To be used in non-pad
 531:Middlewares/tensorflow/third_party/cmsis_nn/Include/arm_nnsupportfunctions.h ****  *        Dimensions are the same for lhs and rhs.
 532:Middlewares/tensorflow/third_party/cmsis_nn/Include/arm_nnsupportfunctions.h ****  *
 533:Middlewares/tensorflow/third_party/cmsis_nn/Include/arm_nnsupportfunctions.h ****  * @param[in]      lhs             Input left-hand side matrix
 534:Middlewares/tensorflow/third_party/cmsis_nn/Include/arm_nnsupportfunctions.h ****  * @param[in]      rhs             Input right-hand side matrix (transposed)
 535:Middlewares/tensorflow/third_party/cmsis_nn/Include/arm_nnsupportfunctions.h ****  * @param[in]      num_ch          Number of channels in LHS/RHS
 536:Middlewares/tensorflow/third_party/cmsis_nn/Include/arm_nnsupportfunctions.h ****  * @param[in]      out_shift       Per channel output shift. Length of vector is equal to number of
 537:Middlewares/tensorflow/third_party/cmsis_nn/Include/arm_nnsupportfunctions.h ****  * @param[in]      out_mult        Per channel output multiplier. Length of vector is equal to numb
 538:Middlewares/tensorflow/third_party/cmsis_nn/Include/arm_nnsupportfunctions.h ****  * @param[in]      activation_min  Minimum value to clamp the output to. Range: int8
 539:Middlewares/tensorflow/third_party/cmsis_nn/Include/arm_nnsupportfunctions.h ****  * @param[in]      activation_max  Maximum value to clamp the output to. Range: int8
 540:Middlewares/tensorflow/third_party/cmsis_nn/Include/arm_nnsupportfunctions.h ****  * @param[in]       row_x_col       (row_dimension * col_dimension) of LHS/RHS matrix
 541:Middlewares/tensorflow/third_party/cmsis_nn/Include/arm_nnsupportfunctions.h ****  * @param[in]      output_bias     Per channel output bias. Length of vector is equal to number of 
 542:Middlewares/tensorflow/third_party/cmsis_nn/Include/arm_nnsupportfunctions.h ****  * @param[in]      out             Output pointer
 543:Middlewares/tensorflow/third_party/cmsis_nn/Include/arm_nnsupportfunctions.h ****  *
 544:Middlewares/tensorflow/third_party/cmsis_nn/Include/arm_nnsupportfunctions.h ****  * @return         The function returns one of the two
 545:Middlewares/tensorflow/third_party/cmsis_nn/Include/arm_nnsupportfunctions.h ****  *                  - Updated output pointer if an implementation is available
 546:Middlewares/tensorflow/third_party/cmsis_nn/Include/arm_nnsupportfunctions.h ****  *                  - NULL if no implementation is available.
 547:Middlewares/tensorflow/third_party/cmsis_nn/Include/arm_nnsupportfunctions.h ****  *
 548:Middlewares/tensorflow/third_party/cmsis_nn/Include/arm_nnsupportfunctions.h ****  * @note           If number of channels is not a multiple of 4, upto 3 elements outside the bounda
 549:Middlewares/tensorflow/third_party/cmsis_nn/Include/arm_nnsupportfunctions.h ****  * out for the following.
 550:Middlewares/tensorflow/third_party/cmsis_nn/Include/arm_nnsupportfunctions.h ****  *                  - Output shift
 551:Middlewares/tensorflow/third_party/cmsis_nn/Include/arm_nnsupportfunctions.h ****  *                  - Output multiplier
 552:Middlewares/tensorflow/third_party/cmsis_nn/Include/arm_nnsupportfunctions.h ****  *                  - Output bias
 553:Middlewares/tensorflow/third_party/cmsis_nn/Include/arm_nnsupportfunctions.h ****  *                  - rhs
ARM GAS  /tmp/ccQr0DhO.s 			page 16


 554:Middlewares/tensorflow/third_party/cmsis_nn/Include/arm_nnsupportfunctions.h ****  */
 555:Middlewares/tensorflow/third_party/cmsis_nn/Include/arm_nnsupportfunctions.h **** int16_t *arm_nn_depthwise_conv_nt_t_s16(const int16_t *lhs,
 556:Middlewares/tensorflow/third_party/cmsis_nn/Include/arm_nnsupportfunctions.h ****                                         const int8_t *rhs,
 557:Middlewares/tensorflow/third_party/cmsis_nn/Include/arm_nnsupportfunctions.h ****                                         const uint16_t num_ch,
 558:Middlewares/tensorflow/third_party/cmsis_nn/Include/arm_nnsupportfunctions.h ****                                         const int32_t *out_shift,
 559:Middlewares/tensorflow/third_party/cmsis_nn/Include/arm_nnsupportfunctions.h ****                                         const int32_t *out_mult,
 560:Middlewares/tensorflow/third_party/cmsis_nn/Include/arm_nnsupportfunctions.h ****                                         const int32_t activation_min,
 561:Middlewares/tensorflow/third_party/cmsis_nn/Include/arm_nnsupportfunctions.h ****                                         const int32_t activation_max,
 562:Middlewares/tensorflow/third_party/cmsis_nn/Include/arm_nnsupportfunctions.h ****                                         const uint16_t row_x_col,
 563:Middlewares/tensorflow/third_party/cmsis_nn/Include/arm_nnsupportfunctions.h ****                                         const int64_t *const output_bias,
 564:Middlewares/tensorflow/third_party/cmsis_nn/Include/arm_nnsupportfunctions.h ****                                         int16_t *out);
 565:Middlewares/tensorflow/third_party/cmsis_nn/Include/arm_nnsupportfunctions.h **** 
 566:Middlewares/tensorflow/third_party/cmsis_nn/Include/arm_nnsupportfunctions.h **** /**
 567:Middlewares/tensorflow/third_party/cmsis_nn/Include/arm_nnsupportfunctions.h ****   @brief         Read 2 s16 elements and post increment pointer.
 568:Middlewares/tensorflow/third_party/cmsis_nn/Include/arm_nnsupportfunctions.h ****   @param[in]     in_q15   Pointer to pointer that holds address of input.
 569:Middlewares/tensorflow/third_party/cmsis_nn/Include/arm_nnsupportfunctions.h ****   @return        q31 value
 570:Middlewares/tensorflow/third_party/cmsis_nn/Include/arm_nnsupportfunctions.h ****  */
 571:Middlewares/tensorflow/third_party/cmsis_nn/Include/arm_nnsupportfunctions.h **** __STATIC_FORCEINLINE int32_t arm_nn_read_q15x2_ia(const int16_t **in_q15)
 572:Middlewares/tensorflow/third_party/cmsis_nn/Include/arm_nnsupportfunctions.h **** {
 573:Middlewares/tensorflow/third_party/cmsis_nn/Include/arm_nnsupportfunctions.h ****     int32_t val;
 574:Middlewares/tensorflow/third_party/cmsis_nn/Include/arm_nnsupportfunctions.h **** 
 575:Middlewares/tensorflow/third_party/cmsis_nn/Include/arm_nnsupportfunctions.h ****     memcpy(&val, *in_q15, 4);
 576:Middlewares/tensorflow/third_party/cmsis_nn/Include/arm_nnsupportfunctions.h ****     *in_q15 += 2;
 577:Middlewares/tensorflow/third_party/cmsis_nn/Include/arm_nnsupportfunctions.h **** 
 578:Middlewares/tensorflow/third_party/cmsis_nn/Include/arm_nnsupportfunctions.h ****     return (val);
 579:Middlewares/tensorflow/third_party/cmsis_nn/Include/arm_nnsupportfunctions.h **** }
 580:Middlewares/tensorflow/third_party/cmsis_nn/Include/arm_nnsupportfunctions.h **** 
 581:Middlewares/tensorflow/third_party/cmsis_nn/Include/arm_nnsupportfunctions.h **** /**
 582:Middlewares/tensorflow/third_party/cmsis_nn/Include/arm_nnsupportfunctions.h ****   @brief         Read 4 s8 from s8 pointer and post increment pointer.
 583:Middlewares/tensorflow/third_party/cmsis_nn/Include/arm_nnsupportfunctions.h ****   @param[in]     in_s8       Pointer to pointer that holds address of input.
 584:Middlewares/tensorflow/third_party/cmsis_nn/Include/arm_nnsupportfunctions.h ****   @return        q31 value
 585:Middlewares/tensorflow/third_party/cmsis_nn/Include/arm_nnsupportfunctions.h ****  */
 586:Middlewares/tensorflow/third_party/cmsis_nn/Include/arm_nnsupportfunctions.h **** __STATIC_FORCEINLINE int32_t arm_nn_read_s8x4_ia(const int8_t **in_s8)
 587:Middlewares/tensorflow/third_party/cmsis_nn/Include/arm_nnsupportfunctions.h **** {
 588:Middlewares/tensorflow/third_party/cmsis_nn/Include/arm_nnsupportfunctions.h ****     int32_t val;
 116              		.loc 2 588 5 is_stmt 1 view .LVU24
 589:Middlewares/tensorflow/third_party/cmsis_nn/Include/arm_nnsupportfunctions.h ****     memcpy(&val, *in_s8, 4);
 117              		.loc 2 589 5 view .LVU25
 118 004a D5F800E0 		ldr	lr, [r5]	@ unaligned
 119              	.LVL8:
 590:Middlewares/tensorflow/third_party/cmsis_nn/Include/arm_nnsupportfunctions.h ****     *in_s8 += 4;
 120              		.loc 2 590 5 view .LVU26
 591:Middlewares/tensorflow/third_party/cmsis_nn/Include/arm_nnsupportfunctions.h **** 
 592:Middlewares/tensorflow/third_party/cmsis_nn/Include/arm_nnsupportfunctions.h ****     return (val);
 121              		.loc 2 592 5 view .LVU27
 122              	.LBB400:
 123              	.LBB389:
 189:Middlewares/tensorflow/third_party/cmsis_nn/Source/NNSupportFunctions/arm_nn_vec_mat_mult_t_svdf_s8.c ****             vec_1 = SXTAB16_RORn(lhs_offset_s16x2, (uint32_t)vec_0, 8);
 124              		.loc 1 189 13 view .LVU28
 125              	.LBB256:
 126              	.LBI256:
 127              		.file 3 "Middlewares/tensorflow/third_party/cmsis_nn/Include/Internal/arm_nn_compiler.h"
   1:Middlewares/tensorflow/third_party/cmsis_nn/Include/Internal/arm_nn_compiler.h **** /*
   2:Middlewares/tensorflow/third_party/cmsis_nn/Include/Internal/arm_nn_compiler.h ****  * SPDX-FileCopyrightText: Copyright 2023 Arm Limited and/or its affiliates <open-source-office@arm
   3:Middlewares/tensorflow/third_party/cmsis_nn/Include/Internal/arm_nn_compiler.h ****  *
   4:Middlewares/tensorflow/third_party/cmsis_nn/Include/Internal/arm_nn_compiler.h ****  * SPDX-License-Identifier: Apache-2.0
   5:Middlewares/tensorflow/third_party/cmsis_nn/Include/Internal/arm_nn_compiler.h ****  *
ARM GAS  /tmp/ccQr0DhO.s 			page 17


   6:Middlewares/tensorflow/third_party/cmsis_nn/Include/Internal/arm_nn_compiler.h ****  * Licensed under the Apache License, Version 2.0 (the License); you may
   7:Middlewares/tensorflow/third_party/cmsis_nn/Include/Internal/arm_nn_compiler.h ****  * not use this file except in compliance with the License.
   8:Middlewares/tensorflow/third_party/cmsis_nn/Include/Internal/arm_nn_compiler.h ****  * You may obtain a copy of the License at
   9:Middlewares/tensorflow/third_party/cmsis_nn/Include/Internal/arm_nn_compiler.h ****  *
  10:Middlewares/tensorflow/third_party/cmsis_nn/Include/Internal/arm_nn_compiler.h ****  * www.apache.org/licenses/LICENSE-2.0
  11:Middlewares/tensorflow/third_party/cmsis_nn/Include/Internal/arm_nn_compiler.h ****  *
  12:Middlewares/tensorflow/third_party/cmsis_nn/Include/Internal/arm_nn_compiler.h ****  * Unless required by applicable law or agreed to in writing, software
  13:Middlewares/tensorflow/third_party/cmsis_nn/Include/Internal/arm_nn_compiler.h ****  * distributed under the License is distributed on an AS IS BASIS, WITHOUT
  14:Middlewares/tensorflow/third_party/cmsis_nn/Include/Internal/arm_nn_compiler.h ****  * WARRANTIES OR CONDITIONS OF ANY KIND, either express or implied.
  15:Middlewares/tensorflow/third_party/cmsis_nn/Include/Internal/arm_nn_compiler.h ****  * See the License for the specific language governing permissions and
  16:Middlewares/tensorflow/third_party/cmsis_nn/Include/Internal/arm_nn_compiler.h ****  * limitations under the License.
  17:Middlewares/tensorflow/third_party/cmsis_nn/Include/Internal/arm_nn_compiler.h ****  */
  18:Middlewares/tensorflow/third_party/cmsis_nn/Include/Internal/arm_nn_compiler.h **** 
  19:Middlewares/tensorflow/third_party/cmsis_nn/Include/Internal/arm_nn_compiler.h **** /* ----------------------------------------------------------------------
  20:Middlewares/tensorflow/third_party/cmsis_nn/Include/Internal/arm_nn_compiler.h ****  * Project:      CMSIS NN Library
  21:Middlewares/tensorflow/third_party/cmsis_nn/Include/Internal/arm_nn_compiler.h ****  * Title:        arm_nn_compiler.h
  22:Middlewares/tensorflow/third_party/cmsis_nn/Include/Internal/arm_nn_compiler.h ****  * Description:  Generic compiler header
  23:Middlewares/tensorflow/third_party/cmsis_nn/Include/Internal/arm_nn_compiler.h ****  *
  24:Middlewares/tensorflow/third_party/cmsis_nn/Include/Internal/arm_nn_compiler.h ****  * $Date:        31 January 2023
  25:Middlewares/tensorflow/third_party/cmsis_nn/Include/Internal/arm_nn_compiler.h ****  * $Revision:    V.1.1.0
  26:Middlewares/tensorflow/third_party/cmsis_nn/Include/Internal/arm_nn_compiler.h ****  *
  27:Middlewares/tensorflow/third_party/cmsis_nn/Include/Internal/arm_nn_compiler.h ****  * Target :  Arm(R) M-Profile Architecture
  28:Middlewares/tensorflow/third_party/cmsis_nn/Include/Internal/arm_nn_compiler.h ****  * -------------------------------------------------------------------- */
  29:Middlewares/tensorflow/third_party/cmsis_nn/Include/Internal/arm_nn_compiler.h **** 
  30:Middlewares/tensorflow/third_party/cmsis_nn/Include/Internal/arm_nn_compiler.h **** #ifndef ARM_NN_COMPILER_H
  31:Middlewares/tensorflow/third_party/cmsis_nn/Include/Internal/arm_nn_compiler.h **** #define ARM_NN_COMPILER_H
  32:Middlewares/tensorflow/third_party/cmsis_nn/Include/Internal/arm_nn_compiler.h **** #include <stdint.h>
  33:Middlewares/tensorflow/third_party/cmsis_nn/Include/Internal/arm_nn_compiler.h **** 
  34:Middlewares/tensorflow/third_party/cmsis_nn/Include/Internal/arm_nn_compiler.h **** /**
  35:Middlewares/tensorflow/third_party/cmsis_nn/Include/Internal/arm_nn_compiler.h ****  *
  36:Middlewares/tensorflow/third_party/cmsis_nn/Include/Internal/arm_nn_compiler.h ****  * @brief Arm C-Language Extension(ACLE) Includes
  37:Middlewares/tensorflow/third_party/cmsis_nn/Include/Internal/arm_nn_compiler.h ****  *
  38:Middlewares/tensorflow/third_party/cmsis_nn/Include/Internal/arm_nn_compiler.h ****  */
  39:Middlewares/tensorflow/third_party/cmsis_nn/Include/Internal/arm_nn_compiler.h **** 
  40:Middlewares/tensorflow/third_party/cmsis_nn/Include/Internal/arm_nn_compiler.h **** #if defined(__ARMCC_VERSION) && (__ARMCC_VERSION >= 6010050)
  41:Middlewares/tensorflow/third_party/cmsis_nn/Include/Internal/arm_nn_compiler.h **** 
  42:Middlewares/tensorflow/third_party/cmsis_nn/Include/Internal/arm_nn_compiler.h ****     #ifndef __ASM
  43:Middlewares/tensorflow/third_party/cmsis_nn/Include/Internal/arm_nn_compiler.h ****         #define __ASM __asm
  44:Middlewares/tensorflow/third_party/cmsis_nn/Include/Internal/arm_nn_compiler.h ****     #endif
  45:Middlewares/tensorflow/third_party/cmsis_nn/Include/Internal/arm_nn_compiler.h ****     #ifndef __INLINE
  46:Middlewares/tensorflow/third_party/cmsis_nn/Include/Internal/arm_nn_compiler.h ****         #define __INLINE __inline
  47:Middlewares/tensorflow/third_party/cmsis_nn/Include/Internal/arm_nn_compiler.h ****     #endif
  48:Middlewares/tensorflow/third_party/cmsis_nn/Include/Internal/arm_nn_compiler.h ****     #ifndef __STATIC_INLINE
  49:Middlewares/tensorflow/third_party/cmsis_nn/Include/Internal/arm_nn_compiler.h ****         #define __STATIC_INLINE static __inline
  50:Middlewares/tensorflow/third_party/cmsis_nn/Include/Internal/arm_nn_compiler.h ****     #endif
  51:Middlewares/tensorflow/third_party/cmsis_nn/Include/Internal/arm_nn_compiler.h ****     #ifndef __STATIC_FORCEINLINE
  52:Middlewares/tensorflow/third_party/cmsis_nn/Include/Internal/arm_nn_compiler.h ****         #define __STATIC_FORCEINLINE __attribute__((always_inline)) static __inline
  53:Middlewares/tensorflow/third_party/cmsis_nn/Include/Internal/arm_nn_compiler.h ****     #endif
  54:Middlewares/tensorflow/third_party/cmsis_nn/Include/Internal/arm_nn_compiler.h ****     #ifndef __RESTRICT
  55:Middlewares/tensorflow/third_party/cmsis_nn/Include/Internal/arm_nn_compiler.h ****         #define __RESTRICT __restrict
  56:Middlewares/tensorflow/third_party/cmsis_nn/Include/Internal/arm_nn_compiler.h ****     #endif
  57:Middlewares/tensorflow/third_party/cmsis_nn/Include/Internal/arm_nn_compiler.h **** 
  58:Middlewares/tensorflow/third_party/cmsis_nn/Include/Internal/arm_nn_compiler.h **** #elif defined(__ICCARM__)
  59:Middlewares/tensorflow/third_party/cmsis_nn/Include/Internal/arm_nn_compiler.h **** 
  60:Middlewares/tensorflow/third_party/cmsis_nn/Include/Internal/arm_nn_compiler.h ****     // #warning IAR support is not tested
  61:Middlewares/tensorflow/third_party/cmsis_nn/Include/Internal/arm_nn_compiler.h ****     #ifndef __ASM
  62:Middlewares/tensorflow/third_party/cmsis_nn/Include/Internal/arm_nn_compiler.h ****         #define __ASM __asm
ARM GAS  /tmp/ccQr0DhO.s 			page 18


  63:Middlewares/tensorflow/third_party/cmsis_nn/Include/Internal/arm_nn_compiler.h ****     #endif
  64:Middlewares/tensorflow/third_party/cmsis_nn/Include/Internal/arm_nn_compiler.h ****     #ifndef __INLINE
  65:Middlewares/tensorflow/third_party/cmsis_nn/Include/Internal/arm_nn_compiler.h ****         #define __INLINE inline
  66:Middlewares/tensorflow/third_party/cmsis_nn/Include/Internal/arm_nn_compiler.h ****     #endif
  67:Middlewares/tensorflow/third_party/cmsis_nn/Include/Internal/arm_nn_compiler.h ****     #ifndef __STATIC_INLINE
  68:Middlewares/tensorflow/third_party/cmsis_nn/Include/Internal/arm_nn_compiler.h ****         #define __STATIC_INLINE static inline
  69:Middlewares/tensorflow/third_party/cmsis_nn/Include/Internal/arm_nn_compiler.h ****     #endif
  70:Middlewares/tensorflow/third_party/cmsis_nn/Include/Internal/arm_nn_compiler.h ****     #ifndef __FORCEINLINE
  71:Middlewares/tensorflow/third_party/cmsis_nn/Include/Internal/arm_nn_compiler.h ****         #define __FORCEINLINE _Pragma("inline=forced")
  72:Middlewares/tensorflow/third_party/cmsis_nn/Include/Internal/arm_nn_compiler.h ****     #endif
  73:Middlewares/tensorflow/third_party/cmsis_nn/Include/Internal/arm_nn_compiler.h ****     #ifndef __STATIC_FORCEINLINE
  74:Middlewares/tensorflow/third_party/cmsis_nn/Include/Internal/arm_nn_compiler.h ****         #define __STATIC_FORCEINLINE __FORCEINLINE __STATIC_INLINE
  75:Middlewares/tensorflow/third_party/cmsis_nn/Include/Internal/arm_nn_compiler.h ****     #endif
  76:Middlewares/tensorflow/third_party/cmsis_nn/Include/Internal/arm_nn_compiler.h ****     #ifndef __RESTRICT
  77:Middlewares/tensorflow/third_party/cmsis_nn/Include/Internal/arm_nn_compiler.h ****         #define __RESTRICT restrict
  78:Middlewares/tensorflow/third_party/cmsis_nn/Include/Internal/arm_nn_compiler.h ****     #endif
  79:Middlewares/tensorflow/third_party/cmsis_nn/Include/Internal/arm_nn_compiler.h **** 
  80:Middlewares/tensorflow/third_party/cmsis_nn/Include/Internal/arm_nn_compiler.h **** #elif defined(_MSC_VER)
  81:Middlewares/tensorflow/third_party/cmsis_nn/Include/Internal/arm_nn_compiler.h **** 
  82:Middlewares/tensorflow/third_party/cmsis_nn/Include/Internal/arm_nn_compiler.h ****     // Build for non Arm Cortex-M processors is not tested or supported.
  83:Middlewares/tensorflow/third_party/cmsis_nn/Include/Internal/arm_nn_compiler.h ****     // Use this section to stub any macros or intrinsics
  84:Middlewares/tensorflow/third_party/cmsis_nn/Include/Internal/arm_nn_compiler.h ****     #warning Unsupported compiler
  85:Middlewares/tensorflow/third_party/cmsis_nn/Include/Internal/arm_nn_compiler.h ****     #ifndef __STATIC_FORCEINLINE
  86:Middlewares/tensorflow/third_party/cmsis_nn/Include/Internal/arm_nn_compiler.h ****         #define __STATIC_FORCEINLINE static __forceinline
  87:Middlewares/tensorflow/third_party/cmsis_nn/Include/Internal/arm_nn_compiler.h ****     #endif
  88:Middlewares/tensorflow/third_party/cmsis_nn/Include/Internal/arm_nn_compiler.h ****     #ifndef __STATIC_INLINE
  89:Middlewares/tensorflow/third_party/cmsis_nn/Include/Internal/arm_nn_compiler.h ****         #define __STATIC_INLINE static __inline
  90:Middlewares/tensorflow/third_party/cmsis_nn/Include/Internal/arm_nn_compiler.h ****     #endif
  91:Middlewares/tensorflow/third_party/cmsis_nn/Include/Internal/arm_nn_compiler.h ****     #ifndef __ALIGNED
  92:Middlewares/tensorflow/third_party/cmsis_nn/Include/Internal/arm_nn_compiler.h ****         #define __ALIGNED(x) __declspec(align(x))
  93:Middlewares/tensorflow/third_party/cmsis_nn/Include/Internal/arm_nn_compiler.h ****     #endif
  94:Middlewares/tensorflow/third_party/cmsis_nn/Include/Internal/arm_nn_compiler.h **** 
  95:Middlewares/tensorflow/third_party/cmsis_nn/Include/Internal/arm_nn_compiler.h **** #elif defined(__GNUC__)
  96:Middlewares/tensorflow/third_party/cmsis_nn/Include/Internal/arm_nn_compiler.h **** 
  97:Middlewares/tensorflow/third_party/cmsis_nn/Include/Internal/arm_nn_compiler.h ****     #ifndef __ASM
  98:Middlewares/tensorflow/third_party/cmsis_nn/Include/Internal/arm_nn_compiler.h ****         #define __ASM __asm
  99:Middlewares/tensorflow/third_party/cmsis_nn/Include/Internal/arm_nn_compiler.h ****     #endif
 100:Middlewares/tensorflow/third_party/cmsis_nn/Include/Internal/arm_nn_compiler.h ****     #ifndef __INLINE
 101:Middlewares/tensorflow/third_party/cmsis_nn/Include/Internal/arm_nn_compiler.h ****         #define __INLINE inline
 102:Middlewares/tensorflow/third_party/cmsis_nn/Include/Internal/arm_nn_compiler.h ****     #endif
 103:Middlewares/tensorflow/third_party/cmsis_nn/Include/Internal/arm_nn_compiler.h ****     #ifndef __STATIC_INLINE
 104:Middlewares/tensorflow/third_party/cmsis_nn/Include/Internal/arm_nn_compiler.h ****         #define __STATIC_INLINE static inline
 105:Middlewares/tensorflow/third_party/cmsis_nn/Include/Internal/arm_nn_compiler.h ****     #endif
 106:Middlewares/tensorflow/third_party/cmsis_nn/Include/Internal/arm_nn_compiler.h ****     #ifndef __STATIC_FORCEINLINE
 107:Middlewares/tensorflow/third_party/cmsis_nn/Include/Internal/arm_nn_compiler.h ****         #define __STATIC_FORCEINLINE __attribute__((always_inline)) static inline
 108:Middlewares/tensorflow/third_party/cmsis_nn/Include/Internal/arm_nn_compiler.h ****     #endif
 109:Middlewares/tensorflow/third_party/cmsis_nn/Include/Internal/arm_nn_compiler.h ****     #ifndef __RESTRICT
 110:Middlewares/tensorflow/third_party/cmsis_nn/Include/Internal/arm_nn_compiler.h ****         #define __RESTRICT __restrict
 111:Middlewares/tensorflow/third_party/cmsis_nn/Include/Internal/arm_nn_compiler.h ****     #endif
 112:Middlewares/tensorflow/third_party/cmsis_nn/Include/Internal/arm_nn_compiler.h **** 
 113:Middlewares/tensorflow/third_party/cmsis_nn/Include/Internal/arm_nn_compiler.h **** #else
 114:Middlewares/tensorflow/third_party/cmsis_nn/Include/Internal/arm_nn_compiler.h **** 
 115:Middlewares/tensorflow/third_party/cmsis_nn/Include/Internal/arm_nn_compiler.h ****     #error Unsupported compiler. Add support as needed
 116:Middlewares/tensorflow/third_party/cmsis_nn/Include/Internal/arm_nn_compiler.h **** 
 117:Middlewares/tensorflow/third_party/cmsis_nn/Include/Internal/arm_nn_compiler.h **** #endif
 118:Middlewares/tensorflow/third_party/cmsis_nn/Include/Internal/arm_nn_compiler.h **** 
 119:Middlewares/tensorflow/third_party/cmsis_nn/Include/Internal/arm_nn_compiler.h **** /**
ARM GAS  /tmp/ccQr0DhO.s 			page 19


 120:Middlewares/tensorflow/third_party/cmsis_nn/Include/Internal/arm_nn_compiler.h ****  *
 121:Middlewares/tensorflow/third_party/cmsis_nn/Include/Internal/arm_nn_compiler.h ****  * @brief Compiler specific diagnostic adjustment / fixes if applicable
 122:Middlewares/tensorflow/third_party/cmsis_nn/Include/Internal/arm_nn_compiler.h ****  *
 123:Middlewares/tensorflow/third_party/cmsis_nn/Include/Internal/arm_nn_compiler.h ****  */
 124:Middlewares/tensorflow/third_party/cmsis_nn/Include/Internal/arm_nn_compiler.h **** 
 125:Middlewares/tensorflow/third_party/cmsis_nn/Include/Internal/arm_nn_compiler.h **** // Note: __ARM_ARCH is used with M-profile architecture as the target here.
 126:Middlewares/tensorflow/third_party/cmsis_nn/Include/Internal/arm_nn_compiler.h **** #if defined(__GNUC__)
 127:Middlewares/tensorflow/third_party/cmsis_nn/Include/Internal/arm_nn_compiler.h ****     #if (__GNUC__ == 12 && (__GNUC_MINOR__ <= 2)) && defined(__ARM_ARCH)
 128:Middlewares/tensorflow/third_party/cmsis_nn/Include/Internal/arm_nn_compiler.h ****         // Workaround for 'Internal Compiler Error' on Arm GNU Toolchain rel 12.2.x
 129:Middlewares/tensorflow/third_party/cmsis_nn/Include/Internal/arm_nn_compiler.h ****         // https://gcc.gnu.org/pipermail/gcc-patches/2022-December/607963.html
 130:Middlewares/tensorflow/third_party/cmsis_nn/Include/Internal/arm_nn_compiler.h ****         #define ARM_GCC_12_2_ICE
 131:Middlewares/tensorflow/third_party/cmsis_nn/Include/Internal/arm_nn_compiler.h ****     #endif
 132:Middlewares/tensorflow/third_party/cmsis_nn/Include/Internal/arm_nn_compiler.h **** #endif
 133:Middlewares/tensorflow/third_party/cmsis_nn/Include/Internal/arm_nn_compiler.h **** 
 134:Middlewares/tensorflow/third_party/cmsis_nn/Include/Internal/arm_nn_compiler.h **** #if ((__ARM_FEATURE_MVE & 3) == 3) || (__ARM_FEATURE_MVE & 1)
 135:Middlewares/tensorflow/third_party/cmsis_nn/Include/Internal/arm_nn_compiler.h ****     #include <arm_mve.h>
 136:Middlewares/tensorflow/third_party/cmsis_nn/Include/Internal/arm_nn_compiler.h **** #endif
 137:Middlewares/tensorflow/third_party/cmsis_nn/Include/Internal/arm_nn_compiler.h **** 
 138:Middlewares/tensorflow/third_party/cmsis_nn/Include/Internal/arm_nn_compiler.h **** #if defined(__ARM_ARCH) || defined(__ARM_ACLE)
 139:Middlewares/tensorflow/third_party/cmsis_nn/Include/Internal/arm_nn_compiler.h ****     #include <arm_acle.h>
 140:Middlewares/tensorflow/third_party/cmsis_nn/Include/Internal/arm_nn_compiler.h **** #endif
 141:Middlewares/tensorflow/third_party/cmsis_nn/Include/Internal/arm_nn_compiler.h **** 
 142:Middlewares/tensorflow/third_party/cmsis_nn/Include/Internal/arm_nn_compiler.h **** /**
 143:Middlewares/tensorflow/third_party/cmsis_nn/Include/Internal/arm_nn_compiler.h ****  *
 144:Middlewares/tensorflow/third_party/cmsis_nn/Include/Internal/arm_nn_compiler.h ****  * @brief ACLE and Intrinsics
 145:Middlewares/tensorflow/third_party/cmsis_nn/Include/Internal/arm_nn_compiler.h ****  *
 146:Middlewares/tensorflow/third_party/cmsis_nn/Include/Internal/arm_nn_compiler.h ****  */
 147:Middlewares/tensorflow/third_party/cmsis_nn/Include/Internal/arm_nn_compiler.h **** 
 148:Middlewares/tensorflow/third_party/cmsis_nn/Include/Internal/arm_nn_compiler.h **** // Note: Have __GNUC__, that is used to check for GCC , checks at the end
 149:Middlewares/tensorflow/third_party/cmsis_nn/Include/Internal/arm_nn_compiler.h **** // as __GNUC__ is defined by non-GCC compilers as well
 150:Middlewares/tensorflow/third_party/cmsis_nn/Include/Internal/arm_nn_compiler.h **** 
 151:Middlewares/tensorflow/third_party/cmsis_nn/Include/Internal/arm_nn_compiler.h **** /* Common intrinsics for all architectures */
 152:Middlewares/tensorflow/third_party/cmsis_nn/Include/Internal/arm_nn_compiler.h **** #if defined(__ARMCC_VERSION) && (__ARMCC_VERSION >= 6010050) || defined(__ICCARM__)
 153:Middlewares/tensorflow/third_party/cmsis_nn/Include/Internal/arm_nn_compiler.h ****     #define CLZ __clz
 154:Middlewares/tensorflow/third_party/cmsis_nn/Include/Internal/arm_nn_compiler.h **** #elif defined(__GNUC__)
 155:Middlewares/tensorflow/third_party/cmsis_nn/Include/Internal/arm_nn_compiler.h **** /**
 156:Middlewares/tensorflow/third_party/cmsis_nn/Include/Internal/arm_nn_compiler.h ****   \brief   Count leading zeros
 157:Middlewares/tensorflow/third_party/cmsis_nn/Include/Internal/arm_nn_compiler.h ****   \details Counts the number of leading zeros of a data value.
 158:Middlewares/tensorflow/third_party/cmsis_nn/Include/Internal/arm_nn_compiler.h ****   \param [in]  value  Value to count the leading zeros
 159:Middlewares/tensorflow/third_party/cmsis_nn/Include/Internal/arm_nn_compiler.h ****   \return             number of leading zeros in value
 160:Middlewares/tensorflow/third_party/cmsis_nn/Include/Internal/arm_nn_compiler.h ****  */
 161:Middlewares/tensorflow/third_party/cmsis_nn/Include/Internal/arm_nn_compiler.h **** __STATIC_FORCEINLINE uint8_t CLZ(uint32_t value)
 162:Middlewares/tensorflow/third_party/cmsis_nn/Include/Internal/arm_nn_compiler.h **** {
 163:Middlewares/tensorflow/third_party/cmsis_nn/Include/Internal/arm_nn_compiler.h ****     /* Even though __builtin_clz produces a CLZ instruction on ARM, formally
 164:Middlewares/tensorflow/third_party/cmsis_nn/Include/Internal/arm_nn_compiler.h ****        __builtin_clz(0) is undefined behaviour, so handle this case specially.
 165:Middlewares/tensorflow/third_party/cmsis_nn/Include/Internal/arm_nn_compiler.h ****        This guarantees Arm-compatible results if compiling on a non-Arm
 166:Middlewares/tensorflow/third_party/cmsis_nn/Include/Internal/arm_nn_compiler.h ****        target, and ensures the compiler doesn't decide to activate any
 167:Middlewares/tensorflow/third_party/cmsis_nn/Include/Internal/arm_nn_compiler.h ****        optimisations using the logic "value was passed to __builtin_clz, so it
 168:Middlewares/tensorflow/third_party/cmsis_nn/Include/Internal/arm_nn_compiler.h ****        is non-zero".
 169:Middlewares/tensorflow/third_party/cmsis_nn/Include/Internal/arm_nn_compiler.h ****        ARM GCC 7.3 and possibly earlier will optimise this test away, leaving a
 170:Middlewares/tensorflow/third_party/cmsis_nn/Include/Internal/arm_nn_compiler.h ****        single CLZ instruction.
 171:Middlewares/tensorflow/third_party/cmsis_nn/Include/Internal/arm_nn_compiler.h ****      */
 172:Middlewares/tensorflow/third_party/cmsis_nn/Include/Internal/arm_nn_compiler.h ****     if (value == 0U)
 173:Middlewares/tensorflow/third_party/cmsis_nn/Include/Internal/arm_nn_compiler.h ****     {
 174:Middlewares/tensorflow/third_party/cmsis_nn/Include/Internal/arm_nn_compiler.h ****         return 32U;
 175:Middlewares/tensorflow/third_party/cmsis_nn/Include/Internal/arm_nn_compiler.h ****     }
 176:Middlewares/tensorflow/third_party/cmsis_nn/Include/Internal/arm_nn_compiler.h ****     return __builtin_clz(value);
ARM GAS  /tmp/ccQr0DhO.s 			page 20


 177:Middlewares/tensorflow/third_party/cmsis_nn/Include/Internal/arm_nn_compiler.h **** }
 178:Middlewares/tensorflow/third_party/cmsis_nn/Include/Internal/arm_nn_compiler.h **** #endif
 179:Middlewares/tensorflow/third_party/cmsis_nn/Include/Internal/arm_nn_compiler.h **** 
 180:Middlewares/tensorflow/third_party/cmsis_nn/Include/Internal/arm_nn_compiler.h **** // ACLE intrinsics under groups __ARM_FEATURE_QBIT, __ARM_FEATURE_DSP , __ARM_FEATURE_SAT, __ARM_FE
 181:Middlewares/tensorflow/third_party/cmsis_nn/Include/Internal/arm_nn_compiler.h **** 
 182:Middlewares/tensorflow/third_party/cmsis_nn/Include/Internal/arm_nn_compiler.h **** // Note: Just __ARM_FEATURE_DSP is checked to collect all intrinsics from the above mentioned group
 183:Middlewares/tensorflow/third_party/cmsis_nn/Include/Internal/arm_nn_compiler.h **** 
 184:Middlewares/tensorflow/third_party/cmsis_nn/Include/Internal/arm_nn_compiler.h **** #if (defined(__ARM_FEATURE_DSP) && (__ARM_FEATURE_DSP == 1))
 185:Middlewares/tensorflow/third_party/cmsis_nn/Include/Internal/arm_nn_compiler.h **** 
 186:Middlewares/tensorflow/third_party/cmsis_nn/Include/Internal/arm_nn_compiler.h ****     // Common intrinsics
 187:Middlewares/tensorflow/third_party/cmsis_nn/Include/Internal/arm_nn_compiler.h ****     #define SMLABB __smlabb
 188:Middlewares/tensorflow/third_party/cmsis_nn/Include/Internal/arm_nn_compiler.h ****     #define SMLATT __smlatt
 189:Middlewares/tensorflow/third_party/cmsis_nn/Include/Internal/arm_nn_compiler.h ****     #define QADD __qadd
 190:Middlewares/tensorflow/third_party/cmsis_nn/Include/Internal/arm_nn_compiler.h ****     #define QSUB8 __qsub8
 191:Middlewares/tensorflow/third_party/cmsis_nn/Include/Internal/arm_nn_compiler.h ****     #define QSUB16 __qsub16
 192:Middlewares/tensorflow/third_party/cmsis_nn/Include/Internal/arm_nn_compiler.h ****     #define SADD16 __sadd16
 193:Middlewares/tensorflow/third_party/cmsis_nn/Include/Internal/arm_nn_compiler.h **** 
 194:Middlewares/tensorflow/third_party/cmsis_nn/Include/Internal/arm_nn_compiler.h ****     // Compiler specifc variants of intrinsics. Create a new section or file for IAR if needed
 195:Middlewares/tensorflow/third_party/cmsis_nn/Include/Internal/arm_nn_compiler.h ****     #if defined(__ARMCC_VERSION) && (__ARMCC_VERSION >= 6010050) || defined(__ICCARM__)
 196:Middlewares/tensorflow/third_party/cmsis_nn/Include/Internal/arm_nn_compiler.h **** 
 197:Middlewares/tensorflow/third_party/cmsis_nn/Include/Internal/arm_nn_compiler.h ****         #define SMULBB __smulbb
 198:Middlewares/tensorflow/third_party/cmsis_nn/Include/Internal/arm_nn_compiler.h ****         #define SMULTT __smultt
 199:Middlewares/tensorflow/third_party/cmsis_nn/Include/Internal/arm_nn_compiler.h ****         #define ROR __ror
 200:Middlewares/tensorflow/third_party/cmsis_nn/Include/Internal/arm_nn_compiler.h ****         #define SXTB16 __sxtb16
 201:Middlewares/tensorflow/third_party/cmsis_nn/Include/Internal/arm_nn_compiler.h ****         #define SXTAB16 __sxtab16
 202:Middlewares/tensorflow/third_party/cmsis_nn/Include/Internal/arm_nn_compiler.h ****         #define SXTB16_RORn(ARG1, ARG2) SXTB16(ROR(ARG1, ARG2))
 203:Middlewares/tensorflow/third_party/cmsis_nn/Include/Internal/arm_nn_compiler.h ****         #define SXTAB16_RORn(ARG1, ARG2, ARG3) SXTAB16(ARG1, ROR(ARG2, ARG3))
 204:Middlewares/tensorflow/third_party/cmsis_nn/Include/Internal/arm_nn_compiler.h ****         #define SMLAD __smlad
 205:Middlewares/tensorflow/third_party/cmsis_nn/Include/Internal/arm_nn_compiler.h ****         // PKH<XY> translates into pkh<xy> on AC6
 206:Middlewares/tensorflow/third_party/cmsis_nn/Include/Internal/arm_nn_compiler.h ****         #define PKHBT(ARG1, ARG2, ARG3)                                                            
 207:Middlewares/tensorflow/third_party/cmsis_nn/Include/Internal/arm_nn_compiler.h ****             (((((uint32_t)(ARG1))) & 0x0000FFFFUL) | ((((uint32_t)(ARG2)) << (ARG3)) & 0xFFFF0000UL
 208:Middlewares/tensorflow/third_party/cmsis_nn/Include/Internal/arm_nn_compiler.h ****         #define PKHTB(ARG1, ARG2, ARG3)                                                            
 209:Middlewares/tensorflow/third_party/cmsis_nn/Include/Internal/arm_nn_compiler.h ****             (((((uint32_t)(ARG1))) & 0xFFFF0000UL) | ((((uint32_t)(ARG2)) >> (ARG3)) & 0x0000FFFFUL
 210:Middlewares/tensorflow/third_party/cmsis_nn/Include/Internal/arm_nn_compiler.h **** 
 211:Middlewares/tensorflow/third_party/cmsis_nn/Include/Internal/arm_nn_compiler.h ****     #elif defined(__GNUC__)
 212:Middlewares/tensorflow/third_party/cmsis_nn/Include/Internal/arm_nn_compiler.h **** 
 213:Middlewares/tensorflow/third_party/cmsis_nn/Include/Internal/arm_nn_compiler.h ****         #define PKHBT(ARG1, ARG2, ARG3)                                                            
 214:Middlewares/tensorflow/third_party/cmsis_nn/Include/Internal/arm_nn_compiler.h ****             __extension__({                                                                        
 215:Middlewares/tensorflow/third_party/cmsis_nn/Include/Internal/arm_nn_compiler.h ****                 uint32_t __RES, __ARG1 = (ARG1), __ARG2 = (ARG2);                                  
 216:Middlewares/tensorflow/third_party/cmsis_nn/Include/Internal/arm_nn_compiler.h ****                 __ASM("pkhbt %0, %1, %2, lsl %3" : "=r"(__RES) : "r"(__ARG1), "r"(__ARG2), "I"(ARG3
 217:Middlewares/tensorflow/third_party/cmsis_nn/Include/Internal/arm_nn_compiler.h ****                 __RES;                                                                             
 218:Middlewares/tensorflow/third_party/cmsis_nn/Include/Internal/arm_nn_compiler.h ****             })
 219:Middlewares/tensorflow/third_party/cmsis_nn/Include/Internal/arm_nn_compiler.h ****         #define PKHTB(ARG1, ARG2, ARG3)                                                            
 220:Middlewares/tensorflow/third_party/cmsis_nn/Include/Internal/arm_nn_compiler.h ****             __extension__({                                                                        
 221:Middlewares/tensorflow/third_party/cmsis_nn/Include/Internal/arm_nn_compiler.h ****                 uint32_t __RES, __ARG1 = (ARG1), __ARG2 = (ARG2);                                  
 222:Middlewares/tensorflow/third_party/cmsis_nn/Include/Internal/arm_nn_compiler.h ****                 if (ARG3 == 0)                                                                     
 223:Middlewares/tensorflow/third_party/cmsis_nn/Include/Internal/arm_nn_compiler.h ****                     __ASM("pkhtb %0, %1, %2" : "=r"(__RES) : "r"(__ARG1), "r"(__ARG2));            
 224:Middlewares/tensorflow/third_party/cmsis_nn/Include/Internal/arm_nn_compiler.h ****                 else                                                                               
 225:Middlewares/tensorflow/third_party/cmsis_nn/Include/Internal/arm_nn_compiler.h ****                     __ASM("pkhtb %0, %1, %2, asr %3" : "=r"(__RES) : "r"(__ARG1), "r"(__ARG2), "I"(
 226:Middlewares/tensorflow/third_party/cmsis_nn/Include/Internal/arm_nn_compiler.h ****                 __RES;                                                                             
 227:Middlewares/tensorflow/third_party/cmsis_nn/Include/Internal/arm_nn_compiler.h ****             })
 228:Middlewares/tensorflow/third_party/cmsis_nn/Include/Internal/arm_nn_compiler.h **** 
 229:Middlewares/tensorflow/third_party/cmsis_nn/Include/Internal/arm_nn_compiler.h **** __STATIC_FORCEINLINE uint32_t SXTAB16(uint32_t op1, uint32_t op2)
 230:Middlewares/tensorflow/third_party/cmsis_nn/Include/Internal/arm_nn_compiler.h **** {
 231:Middlewares/tensorflow/third_party/cmsis_nn/Include/Internal/arm_nn_compiler.h ****     uint32_t result;
 232:Middlewares/tensorflow/third_party/cmsis_nn/Include/Internal/arm_nn_compiler.h **** 
 233:Middlewares/tensorflow/third_party/cmsis_nn/Include/Internal/arm_nn_compiler.h ****     __ASM("sxtab16 %0, %1, %2" : "=r"(result) : "r"(op1), "r"(op2));
ARM GAS  /tmp/ccQr0DhO.s 			page 21


 234:Middlewares/tensorflow/third_party/cmsis_nn/Include/Internal/arm_nn_compiler.h ****     return (result);
 235:Middlewares/tensorflow/third_party/cmsis_nn/Include/Internal/arm_nn_compiler.h **** }
 236:Middlewares/tensorflow/third_party/cmsis_nn/Include/Internal/arm_nn_compiler.h **** 
 237:Middlewares/tensorflow/third_party/cmsis_nn/Include/Internal/arm_nn_compiler.h **** __STATIC_FORCEINLINE uint32_t SXTB16(uint32_t op1)
 238:Middlewares/tensorflow/third_party/cmsis_nn/Include/Internal/arm_nn_compiler.h **** {
 239:Middlewares/tensorflow/third_party/cmsis_nn/Include/Internal/arm_nn_compiler.h ****     uint32_t result;
 240:Middlewares/tensorflow/third_party/cmsis_nn/Include/Internal/arm_nn_compiler.h **** 
 241:Middlewares/tensorflow/third_party/cmsis_nn/Include/Internal/arm_nn_compiler.h ****     __ASM("sxtb16 %0, %1" : "=r"(result) : "r"(op1));
 242:Middlewares/tensorflow/third_party/cmsis_nn/Include/Internal/arm_nn_compiler.h ****     return (result);
 243:Middlewares/tensorflow/third_party/cmsis_nn/Include/Internal/arm_nn_compiler.h **** }
 244:Middlewares/tensorflow/third_party/cmsis_nn/Include/Internal/arm_nn_compiler.h **** 
 245:Middlewares/tensorflow/third_party/cmsis_nn/Include/Internal/arm_nn_compiler.h **** // __smlad is defined by GCC, but results in a performance drop(Tested on Arm GNU Toolchain version
 246:Middlewares/tensorflow/third_party/cmsis_nn/Include/Internal/arm_nn_compiler.h **** __STATIC_FORCEINLINE uint32_t SMLAD(uint32_t op1, uint32_t op2, uint32_t op3)
 247:Middlewares/tensorflow/third_party/cmsis_nn/Include/Internal/arm_nn_compiler.h **** {
 248:Middlewares/tensorflow/third_party/cmsis_nn/Include/Internal/arm_nn_compiler.h ****     uint32_t result;
 249:Middlewares/tensorflow/third_party/cmsis_nn/Include/Internal/arm_nn_compiler.h **** 
 250:Middlewares/tensorflow/third_party/cmsis_nn/Include/Internal/arm_nn_compiler.h ****     __ASM volatile("smlad %0, %1, %2, %3" : "=r"(result) : "r"(op1), "r"(op2), "r"(op3));
 251:Middlewares/tensorflow/third_party/cmsis_nn/Include/Internal/arm_nn_compiler.h ****     return (result);
 252:Middlewares/tensorflow/third_party/cmsis_nn/Include/Internal/arm_nn_compiler.h **** }
 253:Middlewares/tensorflow/third_party/cmsis_nn/Include/Internal/arm_nn_compiler.h **** 
 254:Middlewares/tensorflow/third_party/cmsis_nn/Include/Internal/arm_nn_compiler.h **** __STATIC_FORCEINLINE uint32_t ROR(uint32_t op1, uint32_t op2)
 255:Middlewares/tensorflow/third_party/cmsis_nn/Include/Internal/arm_nn_compiler.h **** {
 256:Middlewares/tensorflow/third_party/cmsis_nn/Include/Internal/arm_nn_compiler.h ****     op2 %= 32U;
 257:Middlewares/tensorflow/third_party/cmsis_nn/Include/Internal/arm_nn_compiler.h ****     if (op2 == 0U)
 258:Middlewares/tensorflow/third_party/cmsis_nn/Include/Internal/arm_nn_compiler.h ****     {
 259:Middlewares/tensorflow/third_party/cmsis_nn/Include/Internal/arm_nn_compiler.h ****         return op1;
 260:Middlewares/tensorflow/third_party/cmsis_nn/Include/Internal/arm_nn_compiler.h ****     }
 261:Middlewares/tensorflow/third_party/cmsis_nn/Include/Internal/arm_nn_compiler.h ****     return (op1 >> op2) | (op1 << (32U - op2));
 262:Middlewares/tensorflow/third_party/cmsis_nn/Include/Internal/arm_nn_compiler.h **** }
 263:Middlewares/tensorflow/third_party/cmsis_nn/Include/Internal/arm_nn_compiler.h **** 
 264:Middlewares/tensorflow/third_party/cmsis_nn/Include/Internal/arm_nn_compiler.h **** __STATIC_FORCEINLINE uint32_t SXTB16_RORn(uint32_t op1, uint32_t rotate)
 265:Middlewares/tensorflow/third_party/cmsis_nn/Include/Internal/arm_nn_compiler.h **** {
 266:Middlewares/tensorflow/third_party/cmsis_nn/Include/Internal/arm_nn_compiler.h ****     uint32_t result;
 267:Middlewares/tensorflow/third_party/cmsis_nn/Include/Internal/arm_nn_compiler.h ****     if (__builtin_constant_p(rotate) && ((rotate == 8U) || (rotate == 16U) || (rotate == 24U)))
 268:Middlewares/tensorflow/third_party/cmsis_nn/Include/Internal/arm_nn_compiler.h ****     {
 269:Middlewares/tensorflow/third_party/cmsis_nn/Include/Internal/arm_nn_compiler.h ****         __ASM volatile("sxtb16 %0, %1, ROR %2" : "=r"(result) : "r"(op1), "i"(rotate));
 270:Middlewares/tensorflow/third_party/cmsis_nn/Include/Internal/arm_nn_compiler.h ****     }
 271:Middlewares/tensorflow/third_party/cmsis_nn/Include/Internal/arm_nn_compiler.h ****     else
 272:Middlewares/tensorflow/third_party/cmsis_nn/Include/Internal/arm_nn_compiler.h ****     {
 273:Middlewares/tensorflow/third_party/cmsis_nn/Include/Internal/arm_nn_compiler.h ****         result = SXTB16(ROR(op1, rotate));
 274:Middlewares/tensorflow/third_party/cmsis_nn/Include/Internal/arm_nn_compiler.h ****     }
 275:Middlewares/tensorflow/third_party/cmsis_nn/Include/Internal/arm_nn_compiler.h ****     return result;
 276:Middlewares/tensorflow/third_party/cmsis_nn/Include/Internal/arm_nn_compiler.h **** }
 277:Middlewares/tensorflow/third_party/cmsis_nn/Include/Internal/arm_nn_compiler.h **** 
 278:Middlewares/tensorflow/third_party/cmsis_nn/Include/Internal/arm_nn_compiler.h **** __STATIC_FORCEINLINE uint32_t SXTAB16_RORn(uint32_t op1, uint32_t op2, uint32_t rotate)
 128              		.loc 3 278 31 view .LVU29
 129              	.LBB257:
 279:Middlewares/tensorflow/third_party/cmsis_nn/Include/Internal/arm_nn_compiler.h **** {
 280:Middlewares/tensorflow/third_party/cmsis_nn/Include/Internal/arm_nn_compiler.h ****     uint32_t result;
 130              		.loc 3 280 5 view .LVU30
 281:Middlewares/tensorflow/third_party/cmsis_nn/Include/Internal/arm_nn_compiler.h ****     if (__builtin_constant_p(rotate) && ((rotate == 8U) || (rotate == 16U) || (rotate == 24U)))
 131              		.loc 3 281 5 view .LVU31
 282:Middlewares/tensorflow/third_party/cmsis_nn/Include/Internal/arm_nn_compiler.h ****     {
 283:Middlewares/tensorflow/third_party/cmsis_nn/Include/Internal/arm_nn_compiler.h ****         __ASM volatile("sxtab16 %0, %1, %2, ROR %3" : "=r"(result) : "r"(op1), "r"(op2), "i"(rotate
 132              		.loc 3 283 9 view .LVU32
 133              		.syntax unified
 134              	@ 283 "Middlewares/tensorflow/third_party/cmsis_nn/Include/Internal/arm_nn_compiler.h" 1
ARM GAS  /tmp/ccQr0DhO.s 			page 22


 135 004e 24FA9EFB 		sxtab16 fp, r4, lr, ROR #8
 136              	@ 0 "" 2
 137              	.LVL9:
 284:Middlewares/tensorflow/third_party/cmsis_nn/Include/Internal/arm_nn_compiler.h ****     }
 285:Middlewares/tensorflow/third_party/cmsis_nn/Include/Internal/arm_nn_compiler.h ****     else
 286:Middlewares/tensorflow/third_party/cmsis_nn/Include/Internal/arm_nn_compiler.h ****     {
 287:Middlewares/tensorflow/third_party/cmsis_nn/Include/Internal/arm_nn_compiler.h ****         result = SXTAB16(op1, ROR(op2, rotate));
 288:Middlewares/tensorflow/third_party/cmsis_nn/Include/Internal/arm_nn_compiler.h ****     }
 289:Middlewares/tensorflow/third_party/cmsis_nn/Include/Internal/arm_nn_compiler.h ****     return result;
 138              		.loc 3 289 5 view .LVU33
 139              		.loc 3 289 5 is_stmt 0 view .LVU34
 140              		.thumb
 141              		.syntax unified
 142              	.LBE257:
 143              	.LBE256:
 190:Middlewares/tensorflow/third_party/cmsis_nn/Source/NNSupportFunctions/arm_nn_vec_mat_mult_t_svdf_s8.c ****             vec_0 = SXTAB16(lhs_offset_s16x2, vec_0);
 144              		.loc 1 190 13 is_stmt 1 view .LVU35
 145              	.LBB258:
 146              	.LBI258:
 229:Middlewares/tensorflow/third_party/cmsis_nn/Include/Internal/arm_nn_compiler.h **** {
 147              		.loc 3 229 31 view .LVU36
 148              	.LBB259:
 231:Middlewares/tensorflow/third_party/cmsis_nn/Include/Internal/arm_nn_compiler.h **** 
 149              		.loc 3 231 5 view .LVU37
 233:Middlewares/tensorflow/third_party/cmsis_nn/Include/Internal/arm_nn_compiler.h ****     return (result);
 150              		.loc 3 233 5 view .LVU38
 151              		.syntax unified
 152              	@ 233 "Middlewares/tensorflow/third_party/cmsis_nn/Include/Internal/arm_nn_compiler.h" 1
 153 0052 24FA8EFE 		sxtab16 lr, r4, lr
 154              	@ 0 "" 2
 155              	.LVL10:
 234:Middlewares/tensorflow/third_party/cmsis_nn/Include/Internal/arm_nn_compiler.h **** }
 156              		.loc 3 234 5 view .LVU39
 234:Middlewares/tensorflow/third_party/cmsis_nn/Include/Internal/arm_nn_compiler.h **** }
 157              		.loc 3 234 5 is_stmt 0 view .LVU40
 158              		.thumb
 159              		.syntax unified
 160              	.LBE259:
 161              	.LBE258:
 191:Middlewares/tensorflow/third_party/cmsis_nn/Source/NNSupportFunctions/arm_nn_vec_mat_mult_t_svdf_s8.c ****             ker_0 = arm_nn_read_s8x4_ia(&rhs_0);
 162              		.loc 1 191 13 is_stmt 1 view .LVU41
 163              		.loc 1 191 13 is_stmt 0 view .LVU42
 164              	.LBE389:
 165              	.LBE400:
 588:Middlewares/tensorflow/third_party/cmsis_nn/Include/arm_nnsupportfunctions.h ****     memcpy(&val, *in_s8, 4);
 166              		.loc 2 588 5 is_stmt 1 view .LVU43
 589:Middlewares/tensorflow/third_party/cmsis_nn/Include/arm_nnsupportfunctions.h ****     *in_s8 += 4;
 167              		.loc 2 589 5 view .LVU44
 168 0056 0F68     		ldr	r7, [r1]	@ unaligned
 169              	.LVL11:
 590:Middlewares/tensorflow/third_party/cmsis_nn/Include/arm_nnsupportfunctions.h **** 
 170              		.loc 2 590 5 view .LVU45
 171              		.loc 2 592 5 view .LVU46
 172              	.LBB401:
 173              	.LBB390:
 192:Middlewares/tensorflow/third_party/cmsis_nn/Source/NNSupportFunctions/arm_nn_vec_mat_mult_t_svdf_s8.c ****             ker_1 = SXTB16_RORn((uint32_t)ker_0, 8);
 174              		.loc 1 192 13 view .LVU47
ARM GAS  /tmp/ccQr0DhO.s 			page 23


 175              	.LBB260:
 176              	.LBI260:
 264:Middlewares/tensorflow/third_party/cmsis_nn/Include/Internal/arm_nn_compiler.h **** {
 177              		.loc 3 264 31 view .LVU48
 178              	.LBB261:
 266:Middlewares/tensorflow/third_party/cmsis_nn/Include/Internal/arm_nn_compiler.h ****     if (__builtin_constant_p(rotate) && ((rotate == 8U) || (rotate == 16U) || (rotate == 24U)))
 179              		.loc 3 266 5 view .LVU49
 267:Middlewares/tensorflow/third_party/cmsis_nn/Include/Internal/arm_nn_compiler.h ****     {
 180              		.loc 3 267 5 view .LVU50
 269:Middlewares/tensorflow/third_party/cmsis_nn/Include/Internal/arm_nn_compiler.h ****     }
 181              		.loc 3 269 9 view .LVU51
 182              		.syntax unified
 183              	@ 269 "Middlewares/tensorflow/third_party/cmsis_nn/Include/Internal/arm_nn_compiler.h" 1
 184 0058 2FFA97F8 		sxtb16 r8, r7, ROR #8
 185              	@ 0 "" 2
 186              	.LVL12:
 275:Middlewares/tensorflow/third_party/cmsis_nn/Include/Internal/arm_nn_compiler.h **** }
 187              		.loc 3 275 5 view .LVU52
 275:Middlewares/tensorflow/third_party/cmsis_nn/Include/Internal/arm_nn_compiler.h **** }
 188              		.loc 3 275 5 is_stmt 0 view .LVU53
 189              		.thumb
 190              		.syntax unified
 191              	.LBE261:
 192              	.LBE260:
 193:Middlewares/tensorflow/third_party/cmsis_nn/Source/NNSupportFunctions/arm_nn_vec_mat_mult_t_svdf_s8.c ****             ker_0 = SXTB16(ker_0);
 193              		.loc 1 193 13 is_stmt 1 view .LVU54
 194              	.LBB262:
 195              	.LBI262:
 237:Middlewares/tensorflow/third_party/cmsis_nn/Include/Internal/arm_nn_compiler.h **** {
 196              		.loc 3 237 31 view .LVU55
 197              	.LBB263:
 239:Middlewares/tensorflow/third_party/cmsis_nn/Include/Internal/arm_nn_compiler.h **** 
 198              		.loc 3 239 5 view .LVU56
 241:Middlewares/tensorflow/third_party/cmsis_nn/Include/Internal/arm_nn_compiler.h ****     return (result);
 199              		.loc 3 241 5 view .LVU57
 200              		.syntax unified
 201              	@ 241 "Middlewares/tensorflow/third_party/cmsis_nn/Include/Internal/arm_nn_compiler.h" 1
 202 005c 2FFA87F7 		sxtb16 r7, r7
 203              	@ 0 "" 2
 204              	.LVL13:
 242:Middlewares/tensorflow/third_party/cmsis_nn/Include/Internal/arm_nn_compiler.h **** }
 205              		.loc 3 242 5 view .LVU58
 242:Middlewares/tensorflow/third_party/cmsis_nn/Include/Internal/arm_nn_compiler.h **** }
 206              		.loc 3 242 5 is_stmt 0 view .LVU59
 207              		.thumb
 208              		.syntax unified
 209              	.LBE263:
 210              	.LBE262:
 194:Middlewares/tensorflow/third_party/cmsis_nn/Source/NNSupportFunctions/arm_nn_vec_mat_mult_t_svdf_s8.c ****             acc_0 = SMLAD(ker_1, vec_1, acc_0);
 211              		.loc 1 194 13 is_stmt 1 view .LVU60
 212              	.LBB264:
 213              	.LBI264:
 246:Middlewares/tensorflow/third_party/cmsis_nn/Include/Internal/arm_nn_compiler.h **** {
 214              		.loc 3 246 31 view .LVU61
 215              	.LBB265:
 248:Middlewares/tensorflow/third_party/cmsis_nn/Include/Internal/arm_nn_compiler.h **** 
 216              		.loc 3 248 5 view .LVU62
ARM GAS  /tmp/ccQr0DhO.s 			page 24


 250:Middlewares/tensorflow/third_party/cmsis_nn/Include/Internal/arm_nn_compiler.h ****     return (result);
 217              		.loc 3 250 5 view .LVU63
 218              		.syntax unified
 219              	@ 250 "Middlewares/tensorflow/third_party/cmsis_nn/Include/Internal/arm_nn_compiler.h" 1
 220 0060 28FB0B00 		smlad r0, r8, fp, r0
 221              	@ 0 "" 2
 222              	.LVL14:
 251:Middlewares/tensorflow/third_party/cmsis_nn/Include/Internal/arm_nn_compiler.h **** }
 223              		.loc 3 251 5 view .LVU64
 251:Middlewares/tensorflow/third_party/cmsis_nn/Include/Internal/arm_nn_compiler.h **** }
 224              		.loc 3 251 5 is_stmt 0 view .LVU65
 225              		.thumb
 226              		.syntax unified
 227              	.LBE265:
 228              	.LBE264:
 195:Middlewares/tensorflow/third_party/cmsis_nn/Source/NNSupportFunctions/arm_nn_vec_mat_mult_t_svdf_s8.c ****             acc_0 = SMLAD(ker_0, vec_0, acc_0);
 229              		.loc 1 195 13 is_stmt 1 view .LVU66
 230              	.LBB266:
 231              	.LBI266:
 246:Middlewares/tensorflow/third_party/cmsis_nn/Include/Internal/arm_nn_compiler.h **** {
 232              		.loc 3 246 31 view .LVU67
 233              	.LBB267:
 248:Middlewares/tensorflow/third_party/cmsis_nn/Include/Internal/arm_nn_compiler.h **** 
 234              		.loc 3 248 5 view .LVU68
 250:Middlewares/tensorflow/third_party/cmsis_nn/Include/Internal/arm_nn_compiler.h ****     return (result);
 235              		.loc 3 250 5 view .LVU69
 236              		.syntax unified
 237              	@ 250 "Middlewares/tensorflow/third_party/cmsis_nn/Include/Internal/arm_nn_compiler.h" 1
 238 0064 27FB0E00 		smlad r0, r7, lr, r0
 239              	@ 0 "" 2
 240              	.LVL15:
 251:Middlewares/tensorflow/third_party/cmsis_nn/Include/Internal/arm_nn_compiler.h **** }
 241              		.loc 3 251 5 view .LVU70
 251:Middlewares/tensorflow/third_party/cmsis_nn/Include/Internal/arm_nn_compiler.h **** }
 242              		.loc 3 251 5 is_stmt 0 view .LVU71
 243              		.thumb
 244              		.syntax unified
 245              	.LBE267:
 246              	.LBE266:
 196:Middlewares/tensorflow/third_party/cmsis_nn/Source/NNSupportFunctions/arm_nn_vec_mat_mult_t_svdf_s8.c ****             ker_0 = arm_nn_read_s8x4_ia(&rhs_1);
 247              		.loc 1 196 13 is_stmt 1 view .LVU72
 248              		.loc 1 196 13 is_stmt 0 view .LVU73
 249              	.LBE390:
 250              	.LBE401:
 588:Middlewares/tensorflow/third_party/cmsis_nn/Include/arm_nnsupportfunctions.h ****     memcpy(&val, *in_s8, 4);
 251              		.loc 2 588 5 is_stmt 1 view .LVU74
 589:Middlewares/tensorflow/third_party/cmsis_nn/Include/arm_nnsupportfunctions.h ****     *in_s8 += 4;
 252              		.loc 2 589 5 view .LVU75
 253 0068 D3F80090 		ldr	r9, [r3]	@ unaligned
 254              	.LVL16:
 590:Middlewares/tensorflow/third_party/cmsis_nn/Include/arm_nnsupportfunctions.h **** 
 255              		.loc 2 590 5 view .LVU76
 256              		.loc 2 592 5 view .LVU77
 257              	.LBB402:
 258              	.LBB391:
 197:Middlewares/tensorflow/third_party/cmsis_nn/Source/NNSupportFunctions/arm_nn_vec_mat_mult_t_svdf_s8.c ****             ker_1 = SXTB16_RORn((uint32_t)ker_0, 8);
 259              		.loc 1 197 13 view .LVU78
ARM GAS  /tmp/ccQr0DhO.s 			page 25


 260              	.LBB268:
 261              	.LBI268:
 264:Middlewares/tensorflow/third_party/cmsis_nn/Include/Internal/arm_nn_compiler.h **** {
 262              		.loc 3 264 31 view .LVU79
 263              	.LBB269:
 266:Middlewares/tensorflow/third_party/cmsis_nn/Include/Internal/arm_nn_compiler.h ****     if (__builtin_constant_p(rotate) && ((rotate == 8U) || (rotate == 16U) || (rotate == 24U)))
 264              		.loc 3 266 5 view .LVU80
 267:Middlewares/tensorflow/third_party/cmsis_nn/Include/Internal/arm_nn_compiler.h ****     {
 265              		.loc 3 267 5 view .LVU81
 269:Middlewares/tensorflow/third_party/cmsis_nn/Include/Internal/arm_nn_compiler.h ****     }
 266              		.loc 3 269 9 view .LVU82
 267              		.syntax unified
 268              	@ 269 "Middlewares/tensorflow/third_party/cmsis_nn/Include/Internal/arm_nn_compiler.h" 1
 269 006c 2FFA99F8 		sxtb16 r8, r9, ROR #8
 270              	@ 0 "" 2
 271              	.LVL17:
 275:Middlewares/tensorflow/third_party/cmsis_nn/Include/Internal/arm_nn_compiler.h **** }
 272              		.loc 3 275 5 view .LVU83
 275:Middlewares/tensorflow/third_party/cmsis_nn/Include/Internal/arm_nn_compiler.h **** }
 273              		.loc 3 275 5 is_stmt 0 view .LVU84
 274              		.thumb
 275              		.syntax unified
 276              	.LBE269:
 277              	.LBE268:
 198:Middlewares/tensorflow/third_party/cmsis_nn/Source/NNSupportFunctions/arm_nn_vec_mat_mult_t_svdf_s8.c ****             ker_0 = SXTB16(ker_0);
 278              		.loc 1 198 13 is_stmt 1 view .LVU85
 279              	.LBB270:
 280              	.LBI270:
 237:Middlewares/tensorflow/third_party/cmsis_nn/Include/Internal/arm_nn_compiler.h **** {
 281              		.loc 3 237 31 view .LVU86
 282              	.LBB271:
 239:Middlewares/tensorflow/third_party/cmsis_nn/Include/Internal/arm_nn_compiler.h **** 
 283              		.loc 3 239 5 view .LVU87
 241:Middlewares/tensorflow/third_party/cmsis_nn/Include/Internal/arm_nn_compiler.h ****     return (result);
 284              		.loc 3 241 5 view .LVU88
 285              		.syntax unified
 286              	@ 241 "Middlewares/tensorflow/third_party/cmsis_nn/Include/Internal/arm_nn_compiler.h" 1
 287 0070 2FFA89F9 		sxtb16 r9, r9
 288              	@ 0 "" 2
 289              	.LVL18:
 242:Middlewares/tensorflow/third_party/cmsis_nn/Include/Internal/arm_nn_compiler.h **** }
 290              		.loc 3 242 5 view .LVU89
 242:Middlewares/tensorflow/third_party/cmsis_nn/Include/Internal/arm_nn_compiler.h **** }
 291              		.loc 3 242 5 is_stmt 0 view .LVU90
 292              		.thumb
 293              		.syntax unified
 294              	.LBE271:
 295              	.LBE270:
 199:Middlewares/tensorflow/third_party/cmsis_nn/Source/NNSupportFunctions/arm_nn_vec_mat_mult_t_svdf_s8.c ****             acc_1 = SMLAD(ker_1, vec_1, acc_1);
 296              		.loc 1 199 13 is_stmt 1 view .LVU91
 297              	.LBB272:
 298              	.LBI272:
 246:Middlewares/tensorflow/third_party/cmsis_nn/Include/Internal/arm_nn_compiler.h **** {
 299              		.loc 3 246 31 view .LVU92
 300              	.LBB273:
 248:Middlewares/tensorflow/third_party/cmsis_nn/Include/Internal/arm_nn_compiler.h **** 
 301              		.loc 3 248 5 view .LVU93
ARM GAS  /tmp/ccQr0DhO.s 			page 26


 250:Middlewares/tensorflow/third_party/cmsis_nn/Include/Internal/arm_nn_compiler.h ****     return (result);
 302              		.loc 3 250 5 view .LVU94
 303              		.syntax unified
 304              	@ 250 "Middlewares/tensorflow/third_party/cmsis_nn/Include/Internal/arm_nn_compiler.h" 1
 305 0074 28FB0B22 		smlad r2, r8, fp, r2
 306              	@ 0 "" 2
 307              	.LVL19:
 251:Middlewares/tensorflow/third_party/cmsis_nn/Include/Internal/arm_nn_compiler.h **** }
 308              		.loc 3 251 5 view .LVU95
 251:Middlewares/tensorflow/third_party/cmsis_nn/Include/Internal/arm_nn_compiler.h **** }
 309              		.loc 3 251 5 is_stmt 0 view .LVU96
 310              		.thumb
 311              		.syntax unified
 312              	.LBE273:
 313              	.LBE272:
 200:Middlewares/tensorflow/third_party/cmsis_nn/Source/NNSupportFunctions/arm_nn_vec_mat_mult_t_svdf_s8.c ****             acc_1 = SMLAD(ker_0, vec_0, acc_1);
 314              		.loc 1 200 13 is_stmt 1 view .LVU97
 315              	.LBB274:
 316              	.LBI274:
 246:Middlewares/tensorflow/third_party/cmsis_nn/Include/Internal/arm_nn_compiler.h **** {
 317              		.loc 3 246 31 view .LVU98
 318              	.LBB275:
 248:Middlewares/tensorflow/third_party/cmsis_nn/Include/Internal/arm_nn_compiler.h **** 
 319              		.loc 3 248 5 view .LVU99
 250:Middlewares/tensorflow/third_party/cmsis_nn/Include/Internal/arm_nn_compiler.h ****     return (result);
 320              		.loc 3 250 5 view .LVU100
 321              		.syntax unified
 322              	@ 250 "Middlewares/tensorflow/third_party/cmsis_nn/Include/Internal/arm_nn_compiler.h" 1
 323 0078 29FB0E22 		smlad r2, r9, lr, r2
 324              	@ 0 "" 2
 325              	.LVL20:
 251:Middlewares/tensorflow/third_party/cmsis_nn/Include/Internal/arm_nn_compiler.h **** }
 326              		.loc 3 251 5 view .LVU101
 251:Middlewares/tensorflow/third_party/cmsis_nn/Include/Internal/arm_nn_compiler.h **** }
 327              		.loc 3 251 5 is_stmt 0 view .LVU102
 328              		.thumb
 329              		.syntax unified
 330              	.LBE275:
 331              	.LBE274:
 201:Middlewares/tensorflow/third_party/cmsis_nn/Source/NNSupportFunctions/arm_nn_vec_mat_mult_t_svdf_s8.c **** 
 202:Middlewares/tensorflow/third_party/cmsis_nn/Source/NNSupportFunctions/arm_nn_vec_mat_mult_t_svdf_s8.c ****             // 4 x MAC acc_0, acc1
 203:Middlewares/tensorflow/third_party/cmsis_nn/Source/NNSupportFunctions/arm_nn_vec_mat_mult_t_svdf_s8.c ****             vec_0 = arm_nn_read_s8x4_ia(&lhs_vec);
 332              		.loc 1 203 13 is_stmt 1 view .LVU103
 333              		.loc 1 203 13 is_stmt 0 view .LVU104
 334              	.LBE391:
 335              	.LBE402:
 588:Middlewares/tensorflow/third_party/cmsis_nn/Include/arm_nnsupportfunctions.h ****     memcpy(&val, *in_s8, 4);
 336              		.loc 2 588 5 is_stmt 1 view .LVU105
 589:Middlewares/tensorflow/third_party/cmsis_nn/Include/arm_nnsupportfunctions.h ****     *in_s8 += 4;
 337              		.loc 2 589 5 view .LVU106
 338 007c D5F80480 		ldr	r8, [r5, #4]	@ unaligned
 339              	.LVL21:
 590:Middlewares/tensorflow/third_party/cmsis_nn/Include/arm_nnsupportfunctions.h **** 
 340              		.loc 2 590 5 view .LVU107
 341              		.loc 2 592 5 view .LVU108
 342              	.LBB403:
 343              	.LBB392:
ARM GAS  /tmp/ccQr0DhO.s 			page 27


 204:Middlewares/tensorflow/third_party/cmsis_nn/Source/NNSupportFunctions/arm_nn_vec_mat_mult_t_svdf_s8.c ****             vec_1 = SXTAB16_RORn(lhs_offset_s16x2, (uint32_t)vec_0, 8);
 344              		.loc 1 204 13 view .LVU109
 345              	.LBB276:
 346              	.LBI276:
 278:Middlewares/tensorflow/third_party/cmsis_nn/Include/Internal/arm_nn_compiler.h **** {
 347              		.loc 3 278 31 view .LVU110
 348              	.LBB277:
 280:Middlewares/tensorflow/third_party/cmsis_nn/Include/Internal/arm_nn_compiler.h ****     if (__builtin_constant_p(rotate) && ((rotate == 8U) || (rotate == 16U) || (rotate == 24U)))
 349              		.loc 3 280 5 view .LVU111
 281:Middlewares/tensorflow/third_party/cmsis_nn/Include/Internal/arm_nn_compiler.h ****     {
 350              		.loc 3 281 5 view .LVU112
 283:Middlewares/tensorflow/third_party/cmsis_nn/Include/Internal/arm_nn_compiler.h ****     }
 351              		.loc 3 283 9 view .LVU113
 352              		.syntax unified
 353              	@ 283 "Middlewares/tensorflow/third_party/cmsis_nn/Include/Internal/arm_nn_compiler.h" 1
 354 0080 24FA98FE 		sxtab16 lr, r4, r8, ROR #8
 355              	@ 0 "" 2
 356              	.LVL22:
 357              		.loc 3 289 5 view .LVU114
 358              		.loc 3 289 5 is_stmt 0 view .LVU115
 359              		.thumb
 360              		.syntax unified
 361              	.LBE277:
 362              	.LBE276:
 205:Middlewares/tensorflow/third_party/cmsis_nn/Source/NNSupportFunctions/arm_nn_vec_mat_mult_t_svdf_s8.c ****             vec_0 = SXTAB16(lhs_offset_s16x2, vec_0);
 363              		.loc 1 205 13 is_stmt 1 view .LVU116
 364              	.LBB278:
 365              	.LBI278:
 229:Middlewares/tensorflow/third_party/cmsis_nn/Include/Internal/arm_nn_compiler.h **** {
 366              		.loc 3 229 31 view .LVU117
 367              	.LBB279:
 231:Middlewares/tensorflow/third_party/cmsis_nn/Include/Internal/arm_nn_compiler.h **** 
 368              		.loc 3 231 5 view .LVU118
 233:Middlewares/tensorflow/third_party/cmsis_nn/Include/Internal/arm_nn_compiler.h ****     return (result);
 369              		.loc 3 233 5 view .LVU119
 370              		.syntax unified
 371              	@ 233 "Middlewares/tensorflow/third_party/cmsis_nn/Include/Internal/arm_nn_compiler.h" 1
 372 0084 24FA88FB 		sxtab16 fp, r4, r8
 373              	@ 0 "" 2
 374              	.LVL23:
 234:Middlewares/tensorflow/third_party/cmsis_nn/Include/Internal/arm_nn_compiler.h **** }
 375              		.loc 3 234 5 view .LVU120
 234:Middlewares/tensorflow/third_party/cmsis_nn/Include/Internal/arm_nn_compiler.h **** }
 376              		.loc 3 234 5 is_stmt 0 view .LVU121
 377              		.thumb
 378              		.syntax unified
 379              	.LBE279:
 380              	.LBE278:
 206:Middlewares/tensorflow/third_party/cmsis_nn/Source/NNSupportFunctions/arm_nn_vec_mat_mult_t_svdf_s8.c ****             ker_0 = arm_nn_read_s8x4_ia(&rhs_0);
 381              		.loc 1 206 13 is_stmt 1 view .LVU122
 382              		.loc 1 206 13 is_stmt 0 view .LVU123
 383              	.LBE392:
 384              	.LBE403:
 588:Middlewares/tensorflow/third_party/cmsis_nn/Include/arm_nnsupportfunctions.h ****     memcpy(&val, *in_s8, 4);
 385              		.loc 2 588 5 is_stmt 1 view .LVU124
 589:Middlewares/tensorflow/third_party/cmsis_nn/Include/arm_nnsupportfunctions.h ****     *in_s8 += 4;
 386              		.loc 2 589 5 view .LVU125
ARM GAS  /tmp/ccQr0DhO.s 			page 28


 387 0088 D1F80490 		ldr	r9, [r1, #4]	@ unaligned
 388              	.LVL24:
 590:Middlewares/tensorflow/third_party/cmsis_nn/Include/arm_nnsupportfunctions.h **** 
 389              		.loc 2 590 5 view .LVU126
 390              		.loc 2 592 5 view .LVU127
 391              	.LBB404:
 392              	.LBB393:
 207:Middlewares/tensorflow/third_party/cmsis_nn/Source/NNSupportFunctions/arm_nn_vec_mat_mult_t_svdf_s8.c ****             ker_1 = SXTB16_RORn((uint32_t)ker_0, 8);
 393              		.loc 1 207 13 view .LVU128
 394              	.LBB280:
 395              	.LBI280:
 264:Middlewares/tensorflow/third_party/cmsis_nn/Include/Internal/arm_nn_compiler.h **** {
 396              		.loc 3 264 31 view .LVU129
 397              	.LBB281:
 266:Middlewares/tensorflow/third_party/cmsis_nn/Include/Internal/arm_nn_compiler.h ****     if (__builtin_constant_p(rotate) && ((rotate == 8U) || (rotate == 16U) || (rotate == 24U)))
 398              		.loc 3 266 5 view .LVU130
 267:Middlewares/tensorflow/third_party/cmsis_nn/Include/Internal/arm_nn_compiler.h ****     {
 399              		.loc 3 267 5 view .LVU131
 269:Middlewares/tensorflow/third_party/cmsis_nn/Include/Internal/arm_nn_compiler.h ****     }
 400              		.loc 3 269 9 view .LVU132
 401              		.syntax unified
 402              	@ 269 "Middlewares/tensorflow/third_party/cmsis_nn/Include/Internal/arm_nn_compiler.h" 1
 403 008c 2FFA99F7 		sxtb16 r7, r9, ROR #8
 404              	@ 0 "" 2
 405              	.LVL25:
 275:Middlewares/tensorflow/third_party/cmsis_nn/Include/Internal/arm_nn_compiler.h **** }
 406              		.loc 3 275 5 view .LVU133
 275:Middlewares/tensorflow/third_party/cmsis_nn/Include/Internal/arm_nn_compiler.h **** }
 407              		.loc 3 275 5 is_stmt 0 view .LVU134
 408              		.thumb
 409              		.syntax unified
 410              	.LBE281:
 411              	.LBE280:
 208:Middlewares/tensorflow/third_party/cmsis_nn/Source/NNSupportFunctions/arm_nn_vec_mat_mult_t_svdf_s8.c ****             ker_0 = SXTB16(ker_0);
 412              		.loc 1 208 13 is_stmt 1 view .LVU135
 413              	.LBB282:
 414              	.LBI282:
 237:Middlewares/tensorflow/third_party/cmsis_nn/Include/Internal/arm_nn_compiler.h **** {
 415              		.loc 3 237 31 view .LVU136
 416              	.LBB283:
 239:Middlewares/tensorflow/third_party/cmsis_nn/Include/Internal/arm_nn_compiler.h **** 
 417              		.loc 3 239 5 view .LVU137
 241:Middlewares/tensorflow/third_party/cmsis_nn/Include/Internal/arm_nn_compiler.h ****     return (result);
 418              		.loc 3 241 5 view .LVU138
 419              		.syntax unified
 420              	@ 241 "Middlewares/tensorflow/third_party/cmsis_nn/Include/Internal/arm_nn_compiler.h" 1
 421 0090 2FFA89F9 		sxtb16 r9, r9
 422              	@ 0 "" 2
 423              	.LVL26:
 242:Middlewares/tensorflow/third_party/cmsis_nn/Include/Internal/arm_nn_compiler.h **** }
 424              		.loc 3 242 5 view .LVU139
 242:Middlewares/tensorflow/third_party/cmsis_nn/Include/Internal/arm_nn_compiler.h **** }
 425              		.loc 3 242 5 is_stmt 0 view .LVU140
 426              		.thumb
 427              		.syntax unified
 428              	.LBE283:
 429              	.LBE282:
ARM GAS  /tmp/ccQr0DhO.s 			page 29


 209:Middlewares/tensorflow/third_party/cmsis_nn/Source/NNSupportFunctions/arm_nn_vec_mat_mult_t_svdf_s8.c ****             acc_0 = SMLAD(ker_1, vec_1, acc_0);
 430              		.loc 1 209 13 is_stmt 1 view .LVU141
 431              	.LBB284:
 432              	.LBI284:
 246:Middlewares/tensorflow/third_party/cmsis_nn/Include/Internal/arm_nn_compiler.h **** {
 433              		.loc 3 246 31 view .LVU142
 434              	.LBB285:
 248:Middlewares/tensorflow/third_party/cmsis_nn/Include/Internal/arm_nn_compiler.h **** 
 435              		.loc 3 248 5 view .LVU143
 250:Middlewares/tensorflow/third_party/cmsis_nn/Include/Internal/arm_nn_compiler.h ****     return (result);
 436              		.loc 3 250 5 view .LVU144
 437              		.syntax unified
 438              	@ 250 "Middlewares/tensorflow/third_party/cmsis_nn/Include/Internal/arm_nn_compiler.h" 1
 439 0094 27FB0E00 		smlad r0, r7, lr, r0
 440              	@ 0 "" 2
 441              	.LVL27:
 251:Middlewares/tensorflow/third_party/cmsis_nn/Include/Internal/arm_nn_compiler.h **** }
 442              		.loc 3 251 5 view .LVU145
 251:Middlewares/tensorflow/third_party/cmsis_nn/Include/Internal/arm_nn_compiler.h **** }
 443              		.loc 3 251 5 is_stmt 0 view .LVU146
 444              		.thumb
 445              		.syntax unified
 446              	.LBE285:
 447              	.LBE284:
 210:Middlewares/tensorflow/third_party/cmsis_nn/Source/NNSupportFunctions/arm_nn_vec_mat_mult_t_svdf_s8.c ****             acc_0 = SMLAD(ker_0, vec_0, acc_0);
 448              		.loc 1 210 13 is_stmt 1 view .LVU147
 449              	.LBB286:
 450              	.LBI286:
 246:Middlewares/tensorflow/third_party/cmsis_nn/Include/Internal/arm_nn_compiler.h **** {
 451              		.loc 3 246 31 view .LVU148
 452              	.LBB287:
 248:Middlewares/tensorflow/third_party/cmsis_nn/Include/Internal/arm_nn_compiler.h **** 
 453              		.loc 3 248 5 view .LVU149
 250:Middlewares/tensorflow/third_party/cmsis_nn/Include/Internal/arm_nn_compiler.h ****     return (result);
 454              		.loc 3 250 5 view .LVU150
 455              		.syntax unified
 456              	@ 250 "Middlewares/tensorflow/third_party/cmsis_nn/Include/Internal/arm_nn_compiler.h" 1
 457 0098 29FB0B07 		smlad r7, r9, fp, r0
 458              	@ 0 "" 2
 459              	.LVL28:
 251:Middlewares/tensorflow/third_party/cmsis_nn/Include/Internal/arm_nn_compiler.h **** }
 460              		.loc 3 251 5 view .LVU151
 251:Middlewares/tensorflow/third_party/cmsis_nn/Include/Internal/arm_nn_compiler.h **** }
 461              		.loc 3 251 5 is_stmt 0 view .LVU152
 462              		.thumb
 463              		.syntax unified
 464              	.LBE287:
 465              	.LBE286:
 211:Middlewares/tensorflow/third_party/cmsis_nn/Source/NNSupportFunctions/arm_nn_vec_mat_mult_t_svdf_s8.c ****             ker_0 = arm_nn_read_s8x4_ia(&rhs_1);
 466              		.loc 1 211 13 is_stmt 1 view .LVU153
 467              		.loc 1 211 13 is_stmt 0 view .LVU154
 468              	.LBE393:
 469              	.LBE404:
 588:Middlewares/tensorflow/third_party/cmsis_nn/Include/arm_nnsupportfunctions.h ****     memcpy(&val, *in_s8, 4);
 470              		.loc 2 588 5 is_stmt 1 view .LVU155
 589:Middlewares/tensorflow/third_party/cmsis_nn/Include/arm_nnsupportfunctions.h ****     *in_s8 += 4;
 471              		.loc 2 589 5 view .LVU156
ARM GAS  /tmp/ccQr0DhO.s 			page 30


 472 009c 5868     		ldr	r0, [r3, #4]	@ unaligned
 473              	.LVL29:
 590:Middlewares/tensorflow/third_party/cmsis_nn/Include/arm_nnsupportfunctions.h **** 
 474              		.loc 2 590 5 view .LVU157
 475              		.loc 2 592 5 view .LVU158
 476              	.LBB405:
 477              	.LBB394:
 212:Middlewares/tensorflow/third_party/cmsis_nn/Source/NNSupportFunctions/arm_nn_vec_mat_mult_t_svdf_s8.c ****             ker_1 = SXTB16_RORn((uint32_t)ker_0, 8);
 478              		.loc 1 212 13 view .LVU159
 479              	.LBB288:
 480              	.LBI288:
 264:Middlewares/tensorflow/third_party/cmsis_nn/Include/Internal/arm_nn_compiler.h **** {
 481              		.loc 3 264 31 view .LVU160
 482              	.LBB289:
 266:Middlewares/tensorflow/third_party/cmsis_nn/Include/Internal/arm_nn_compiler.h ****     if (__builtin_constant_p(rotate) && ((rotate == 8U) || (rotate == 16U) || (rotate == 24U)))
 483              		.loc 3 266 5 view .LVU161
 267:Middlewares/tensorflow/third_party/cmsis_nn/Include/Internal/arm_nn_compiler.h ****     {
 484              		.loc 3 267 5 view .LVU162
 269:Middlewares/tensorflow/third_party/cmsis_nn/Include/Internal/arm_nn_compiler.h ****     }
 485              		.loc 3 269 9 view .LVU163
 486              		.syntax unified
 487              	@ 269 "Middlewares/tensorflow/third_party/cmsis_nn/Include/Internal/arm_nn_compiler.h" 1
 488 009e 2FFA90F8 		sxtb16 r8, r0, ROR #8
 489              	@ 0 "" 2
 490              	.LVL30:
 275:Middlewares/tensorflow/third_party/cmsis_nn/Include/Internal/arm_nn_compiler.h **** }
 491              		.loc 3 275 5 view .LVU164
 275:Middlewares/tensorflow/third_party/cmsis_nn/Include/Internal/arm_nn_compiler.h **** }
 492              		.loc 3 275 5 is_stmt 0 view .LVU165
 493              		.thumb
 494              		.syntax unified
 495              	.LBE289:
 496              	.LBE288:
 213:Middlewares/tensorflow/third_party/cmsis_nn/Source/NNSupportFunctions/arm_nn_vec_mat_mult_t_svdf_s8.c ****             ker_0 = SXTB16(ker_0);
 497              		.loc 1 213 13 is_stmt 1 view .LVU166
 498              	.LBB290:
 499              	.LBI290:
 237:Middlewares/tensorflow/third_party/cmsis_nn/Include/Internal/arm_nn_compiler.h **** {
 500              		.loc 3 237 31 view .LVU167
 501              	.LBB291:
 239:Middlewares/tensorflow/third_party/cmsis_nn/Include/Internal/arm_nn_compiler.h **** 
 502              		.loc 3 239 5 view .LVU168
 241:Middlewares/tensorflow/third_party/cmsis_nn/Include/Internal/arm_nn_compiler.h ****     return (result);
 503              		.loc 3 241 5 view .LVU169
 504              		.syntax unified
 505              	@ 241 "Middlewares/tensorflow/third_party/cmsis_nn/Include/Internal/arm_nn_compiler.h" 1
 506 00a2 2FFA80F0 		sxtb16 r0, r0
 507              	@ 0 "" 2
 508              	.LVL31:
 242:Middlewares/tensorflow/third_party/cmsis_nn/Include/Internal/arm_nn_compiler.h **** }
 509              		.loc 3 242 5 view .LVU170
 242:Middlewares/tensorflow/third_party/cmsis_nn/Include/Internal/arm_nn_compiler.h **** }
 510              		.loc 3 242 5 is_stmt 0 view .LVU171
 511              		.thumb
 512              		.syntax unified
 513              	.LBE291:
 514              	.LBE290:
ARM GAS  /tmp/ccQr0DhO.s 			page 31


 214:Middlewares/tensorflow/third_party/cmsis_nn/Source/NNSupportFunctions/arm_nn_vec_mat_mult_t_svdf_s8.c ****             acc_1 = SMLAD(ker_1, vec_1, acc_1);
 515              		.loc 1 214 13 is_stmt 1 view .LVU172
 516              	.LBB292:
 517              	.LBI292:
 246:Middlewares/tensorflow/third_party/cmsis_nn/Include/Internal/arm_nn_compiler.h **** {
 518              		.loc 3 246 31 view .LVU173
 519              	.LBB293:
 248:Middlewares/tensorflow/third_party/cmsis_nn/Include/Internal/arm_nn_compiler.h **** 
 520              		.loc 3 248 5 view .LVU174
 250:Middlewares/tensorflow/third_party/cmsis_nn/Include/Internal/arm_nn_compiler.h ****     return (result);
 521              		.loc 3 250 5 view .LVU175
 522              		.syntax unified
 523              	@ 250 "Middlewares/tensorflow/third_party/cmsis_nn/Include/Internal/arm_nn_compiler.h" 1
 524 00a6 28FB0E22 		smlad r2, r8, lr, r2
 525              	@ 0 "" 2
 526              	.LVL32:
 251:Middlewares/tensorflow/third_party/cmsis_nn/Include/Internal/arm_nn_compiler.h **** }
 527              		.loc 3 251 5 view .LVU176
 251:Middlewares/tensorflow/third_party/cmsis_nn/Include/Internal/arm_nn_compiler.h **** }
 528              		.loc 3 251 5 is_stmt 0 view .LVU177
 529              		.thumb
 530              		.syntax unified
 531              	.LBE293:
 532              	.LBE292:
 215:Middlewares/tensorflow/third_party/cmsis_nn/Source/NNSupportFunctions/arm_nn_vec_mat_mult_t_svdf_s8.c ****             acc_1 = SMLAD(ker_0, vec_0, acc_1);
 533              		.loc 1 215 13 is_stmt 1 view .LVU178
 534              	.LBB294:
 535              	.LBI294:
 246:Middlewares/tensorflow/third_party/cmsis_nn/Include/Internal/arm_nn_compiler.h **** {
 536              		.loc 3 246 31 view .LVU179
 537              	.LBB295:
 248:Middlewares/tensorflow/third_party/cmsis_nn/Include/Internal/arm_nn_compiler.h **** 
 538              		.loc 3 248 5 view .LVU180
 250:Middlewares/tensorflow/third_party/cmsis_nn/Include/Internal/arm_nn_compiler.h ****     return (result);
 539              		.loc 3 250 5 view .LVU181
 540              		.syntax unified
 541              	@ 250 "Middlewares/tensorflow/third_party/cmsis_nn/Include/Internal/arm_nn_compiler.h" 1
 542 00aa 20FB0B28 		smlad r8, r0, fp, r2
 543              	@ 0 "" 2
 544              	.LVL33:
 251:Middlewares/tensorflow/third_party/cmsis_nn/Include/Internal/arm_nn_compiler.h **** }
 545              		.loc 3 251 5 view .LVU182
 251:Middlewares/tensorflow/third_party/cmsis_nn/Include/Internal/arm_nn_compiler.h **** }
 546              		.loc 3 251 5 is_stmt 0 view .LVU183
 547              		.thumb
 548              		.syntax unified
 549              	.LBE295:
 550              	.LBE294:
 216:Middlewares/tensorflow/third_party/cmsis_nn/Source/NNSupportFunctions/arm_nn_vec_mat_mult_t_svdf_s8.c **** 
 217:Middlewares/tensorflow/third_party/cmsis_nn/Source/NNSupportFunctions/arm_nn_vec_mat_mult_t_svdf_s8.c ****             // 4 x MAC acc_0, acc1
 218:Middlewares/tensorflow/third_party/cmsis_nn/Source/NNSupportFunctions/arm_nn_vec_mat_mult_t_svdf_s8.c ****             vec_0 = arm_nn_read_s8x4_ia(&lhs_vec);
 551              		.loc 1 218 13 is_stmt 1 view .LVU184
 552              		.loc 1 218 13 is_stmt 0 view .LVU185
 553              	.LBE394:
 554              	.LBE405:
 588:Middlewares/tensorflow/third_party/cmsis_nn/Include/arm_nnsupportfunctions.h ****     memcpy(&val, *in_s8, 4);
 555              		.loc 2 588 5 is_stmt 1 view .LVU186
ARM GAS  /tmp/ccQr0DhO.s 			page 32


 589:Middlewares/tensorflow/third_party/cmsis_nn/Include/arm_nnsupportfunctions.h ****     *in_s8 += 4;
 556              		.loc 2 589 5 view .LVU187
 557 00ae D5F808E0 		ldr	lr, [r5, #8]	@ unaligned
 558              	.LVL34:
 590:Middlewares/tensorflow/third_party/cmsis_nn/Include/arm_nnsupportfunctions.h **** 
 559              		.loc 2 590 5 view .LVU188
 560              		.loc 2 592 5 view .LVU189
 561              	.LBB406:
 562              	.LBB395:
 219:Middlewares/tensorflow/third_party/cmsis_nn/Source/NNSupportFunctions/arm_nn_vec_mat_mult_t_svdf_s8.c ****             vec_1 = SXTAB16_RORn(lhs_offset_s16x2, (uint32_t)vec_0, 8);
 563              		.loc 1 219 13 view .LVU190
 564              	.LBB296:
 565              	.LBI296:
 278:Middlewares/tensorflow/third_party/cmsis_nn/Include/Internal/arm_nn_compiler.h **** {
 566              		.loc 3 278 31 view .LVU191
 567              	.LBB297:
 280:Middlewares/tensorflow/third_party/cmsis_nn/Include/Internal/arm_nn_compiler.h ****     if (__builtin_constant_p(rotate) && ((rotate == 8U) || (rotate == 16U) || (rotate == 24U)))
 568              		.loc 3 280 5 view .LVU192
 281:Middlewares/tensorflow/third_party/cmsis_nn/Include/Internal/arm_nn_compiler.h ****     {
 569              		.loc 3 281 5 view .LVU193
 283:Middlewares/tensorflow/third_party/cmsis_nn/Include/Internal/arm_nn_compiler.h ****     }
 570              		.loc 3 283 9 view .LVU194
 571              		.syntax unified
 572              	@ 283 "Middlewares/tensorflow/third_party/cmsis_nn/Include/Internal/arm_nn_compiler.h" 1
 573 00b2 24FA9EF2 		sxtab16 r2, r4, lr, ROR #8
 574              	@ 0 "" 2
 575              	.LVL35:
 576              		.loc 3 289 5 view .LVU195
 577              		.loc 3 289 5 is_stmt 0 view .LVU196
 578              		.thumb
 579              		.syntax unified
 580              	.LBE297:
 581              	.LBE296:
 220:Middlewares/tensorflow/third_party/cmsis_nn/Source/NNSupportFunctions/arm_nn_vec_mat_mult_t_svdf_s8.c ****             vec_0 = SXTAB16(lhs_offset_s16x2, vec_0);
 582              		.loc 1 220 13 is_stmt 1 view .LVU197
 583              	.LBB298:
 584              	.LBI298:
 229:Middlewares/tensorflow/third_party/cmsis_nn/Include/Internal/arm_nn_compiler.h **** {
 585              		.loc 3 229 31 view .LVU198
 586              	.LBB299:
 231:Middlewares/tensorflow/third_party/cmsis_nn/Include/Internal/arm_nn_compiler.h **** 
 587              		.loc 3 231 5 view .LVU199
 233:Middlewares/tensorflow/third_party/cmsis_nn/Include/Internal/arm_nn_compiler.h ****     return (result);
 588              		.loc 3 233 5 view .LVU200
 589              		.syntax unified
 590              	@ 233 "Middlewares/tensorflow/third_party/cmsis_nn/Include/Internal/arm_nn_compiler.h" 1
 591 00b6 24FA8EFB 		sxtab16 fp, r4, lr
 592              	@ 0 "" 2
 593              	.LVL36:
 234:Middlewares/tensorflow/third_party/cmsis_nn/Include/Internal/arm_nn_compiler.h **** }
 594              		.loc 3 234 5 view .LVU201
 234:Middlewares/tensorflow/third_party/cmsis_nn/Include/Internal/arm_nn_compiler.h **** }
 595              		.loc 3 234 5 is_stmt 0 view .LVU202
 596              		.thumb
 597              		.syntax unified
 598              	.LBE299:
 599              	.LBE298:
ARM GAS  /tmp/ccQr0DhO.s 			page 33


 221:Middlewares/tensorflow/third_party/cmsis_nn/Source/NNSupportFunctions/arm_nn_vec_mat_mult_t_svdf_s8.c ****             ker_0 = arm_nn_read_s8x4_ia(&rhs_0);
 600              		.loc 1 221 13 is_stmt 1 view .LVU203
 601              		.loc 1 221 13 is_stmt 0 view .LVU204
 602              	.LBE395:
 603              	.LBE406:
 588:Middlewares/tensorflow/third_party/cmsis_nn/Include/arm_nnsupportfunctions.h ****     memcpy(&val, *in_s8, 4);
 604              		.loc 2 588 5 is_stmt 1 view .LVU205
 589:Middlewares/tensorflow/third_party/cmsis_nn/Include/arm_nnsupportfunctions.h ****     *in_s8 += 4;
 605              		.loc 2 589 5 view .LVU206
 606 00ba 8868     		ldr	r0, [r1, #8]	@ unaligned
 607              	.LVL37:
 590:Middlewares/tensorflow/third_party/cmsis_nn/Include/arm_nnsupportfunctions.h **** 
 608              		.loc 2 590 5 view .LVU207
 609              		.loc 2 592 5 view .LVU208
 610              	.LBB407:
 611              	.LBB396:
 222:Middlewares/tensorflow/third_party/cmsis_nn/Source/NNSupportFunctions/arm_nn_vec_mat_mult_t_svdf_s8.c ****             ker_1 = SXTB16_RORn((uint32_t)ker_0, 8);
 612              		.loc 1 222 13 view .LVU209
 613              	.LBB300:
 614              	.LBI300:
 264:Middlewares/tensorflow/third_party/cmsis_nn/Include/Internal/arm_nn_compiler.h **** {
 615              		.loc 3 264 31 view .LVU210
 616              	.LBB301:
 266:Middlewares/tensorflow/third_party/cmsis_nn/Include/Internal/arm_nn_compiler.h ****     if (__builtin_constant_p(rotate) && ((rotate == 8U) || (rotate == 16U) || (rotate == 24U)))
 617              		.loc 3 266 5 view .LVU211
 267:Middlewares/tensorflow/third_party/cmsis_nn/Include/Internal/arm_nn_compiler.h ****     {
 618              		.loc 3 267 5 view .LVU212
 269:Middlewares/tensorflow/third_party/cmsis_nn/Include/Internal/arm_nn_compiler.h ****     }
 619              		.loc 3 269 9 view .LVU213
 620              		.syntax unified
 621              	@ 269 "Middlewares/tensorflow/third_party/cmsis_nn/Include/Internal/arm_nn_compiler.h" 1
 622 00bc 2FFA90F9 		sxtb16 r9, r0, ROR #8
 623              	@ 0 "" 2
 624              	.LVL38:
 275:Middlewares/tensorflow/third_party/cmsis_nn/Include/Internal/arm_nn_compiler.h **** }
 625              		.loc 3 275 5 view .LVU214
 275:Middlewares/tensorflow/third_party/cmsis_nn/Include/Internal/arm_nn_compiler.h **** }
 626              		.loc 3 275 5 is_stmt 0 view .LVU215
 627              		.thumb
 628              		.syntax unified
 629              	.LBE301:
 630              	.LBE300:
 223:Middlewares/tensorflow/third_party/cmsis_nn/Source/NNSupportFunctions/arm_nn_vec_mat_mult_t_svdf_s8.c ****             ker_0 = SXTB16(ker_0);
 631              		.loc 1 223 13 is_stmt 1 view .LVU216
 632              	.LBB302:
 633              	.LBI302:
 237:Middlewares/tensorflow/third_party/cmsis_nn/Include/Internal/arm_nn_compiler.h **** {
 634              		.loc 3 237 31 view .LVU217
 635              	.LBB303:
 239:Middlewares/tensorflow/third_party/cmsis_nn/Include/Internal/arm_nn_compiler.h **** 
 636              		.loc 3 239 5 view .LVU218
 241:Middlewares/tensorflow/third_party/cmsis_nn/Include/Internal/arm_nn_compiler.h ****     return (result);
 637              		.loc 3 241 5 view .LVU219
 638              		.syntax unified
 639              	@ 241 "Middlewares/tensorflow/third_party/cmsis_nn/Include/Internal/arm_nn_compiler.h" 1
 640 00c0 2FFA80F0 		sxtb16 r0, r0
 641              	@ 0 "" 2
ARM GAS  /tmp/ccQr0DhO.s 			page 34


 642              	.LVL39:
 242:Middlewares/tensorflow/third_party/cmsis_nn/Include/Internal/arm_nn_compiler.h **** }
 643              		.loc 3 242 5 view .LVU220
 242:Middlewares/tensorflow/third_party/cmsis_nn/Include/Internal/arm_nn_compiler.h **** }
 644              		.loc 3 242 5 is_stmt 0 view .LVU221
 645              		.thumb
 646              		.syntax unified
 647              	.LBE303:
 648              	.LBE302:
 224:Middlewares/tensorflow/third_party/cmsis_nn/Source/NNSupportFunctions/arm_nn_vec_mat_mult_t_svdf_s8.c ****             acc_0 = SMLAD(ker_1, vec_1, acc_0);
 649              		.loc 1 224 13 is_stmt 1 view .LVU222
 650              	.LBB304:
 651              	.LBI304:
 246:Middlewares/tensorflow/third_party/cmsis_nn/Include/Internal/arm_nn_compiler.h **** {
 652              		.loc 3 246 31 view .LVU223
 653              	.LBB305:
 248:Middlewares/tensorflow/third_party/cmsis_nn/Include/Internal/arm_nn_compiler.h **** 
 654              		.loc 3 248 5 view .LVU224
 250:Middlewares/tensorflow/third_party/cmsis_nn/Include/Internal/arm_nn_compiler.h ****     return (result);
 655              		.loc 3 250 5 view .LVU225
 656              		.syntax unified
 657              	@ 250 "Middlewares/tensorflow/third_party/cmsis_nn/Include/Internal/arm_nn_compiler.h" 1
 658 00c4 29FB0279 		smlad r9, r9, r2, r7
 659              	@ 0 "" 2
 660              	.LVL40:
 251:Middlewares/tensorflow/third_party/cmsis_nn/Include/Internal/arm_nn_compiler.h **** }
 661              		.loc 3 251 5 view .LVU226
 251:Middlewares/tensorflow/third_party/cmsis_nn/Include/Internal/arm_nn_compiler.h **** }
 662              		.loc 3 251 5 is_stmt 0 view .LVU227
 663              		.thumb
 664              		.syntax unified
 665              	.LBE305:
 666              	.LBE304:
 225:Middlewares/tensorflow/third_party/cmsis_nn/Source/NNSupportFunctions/arm_nn_vec_mat_mult_t_svdf_s8.c ****             acc_0 = SMLAD(ker_0, vec_0, acc_0);
 667              		.loc 1 225 13 is_stmt 1 view .LVU228
 668              	.LBB306:
 669              	.LBI306:
 246:Middlewares/tensorflow/third_party/cmsis_nn/Include/Internal/arm_nn_compiler.h **** {
 670              		.loc 3 246 31 view .LVU229
 671              	.LBB307:
 248:Middlewares/tensorflow/third_party/cmsis_nn/Include/Internal/arm_nn_compiler.h **** 
 672              		.loc 3 248 5 view .LVU230
 250:Middlewares/tensorflow/third_party/cmsis_nn/Include/Internal/arm_nn_compiler.h ****     return (result);
 673              		.loc 3 250 5 view .LVU231
 674              		.syntax unified
 675              	@ 250 "Middlewares/tensorflow/third_party/cmsis_nn/Include/Internal/arm_nn_compiler.h" 1
 676 00c8 20FB0B99 		smlad r9, r0, fp, r9
 677              	@ 0 "" 2
 678              	.LVL41:
 251:Middlewares/tensorflow/third_party/cmsis_nn/Include/Internal/arm_nn_compiler.h **** }
 679              		.loc 3 251 5 view .LVU232
 251:Middlewares/tensorflow/third_party/cmsis_nn/Include/Internal/arm_nn_compiler.h **** }
 680              		.loc 3 251 5 is_stmt 0 view .LVU233
 681              		.thumb
 682              		.syntax unified
 683              	.LBE307:
 684              	.LBE306:
ARM GAS  /tmp/ccQr0DhO.s 			page 35


 226:Middlewares/tensorflow/third_party/cmsis_nn/Source/NNSupportFunctions/arm_nn_vec_mat_mult_t_svdf_s8.c ****             ker_0 = arm_nn_read_s8x4_ia(&rhs_1);
 685              		.loc 1 226 13 is_stmt 1 view .LVU234
 686              		.loc 1 226 13 is_stmt 0 view .LVU235
 687              	.LBE396:
 688              	.LBE407:
 588:Middlewares/tensorflow/third_party/cmsis_nn/Include/arm_nnsupportfunctions.h ****     memcpy(&val, *in_s8, 4);
 689              		.loc 2 588 5 is_stmt 1 view .LVU236
 589:Middlewares/tensorflow/third_party/cmsis_nn/Include/arm_nnsupportfunctions.h ****     *in_s8 += 4;
 690              		.loc 2 589 5 view .LVU237
 691 00cc 9868     		ldr	r0, [r3, #8]	@ unaligned
 692              	.LVL42:
 590:Middlewares/tensorflow/third_party/cmsis_nn/Include/arm_nnsupportfunctions.h **** 
 693              		.loc 2 590 5 view .LVU238
 694              		.loc 2 592 5 view .LVU239
 695              	.LBB408:
 696              	.LBB397:
 227:Middlewares/tensorflow/third_party/cmsis_nn/Source/NNSupportFunctions/arm_nn_vec_mat_mult_t_svdf_s8.c ****             ker_1 = SXTB16_RORn((uint32_t)ker_0, 8);
 697              		.loc 1 227 13 view .LVU240
 698              	.LBB308:
 699              	.LBI308:
 264:Middlewares/tensorflow/third_party/cmsis_nn/Include/Internal/arm_nn_compiler.h **** {
 700              		.loc 3 264 31 view .LVU241
 701              	.LBB309:
 266:Middlewares/tensorflow/third_party/cmsis_nn/Include/Internal/arm_nn_compiler.h ****     if (__builtin_constant_p(rotate) && ((rotate == 8U) || (rotate == 16U) || (rotate == 24U)))
 702              		.loc 3 266 5 view .LVU242
 267:Middlewares/tensorflow/third_party/cmsis_nn/Include/Internal/arm_nn_compiler.h ****     {
 703              		.loc 3 267 5 view .LVU243
 269:Middlewares/tensorflow/third_party/cmsis_nn/Include/Internal/arm_nn_compiler.h ****     }
 704              		.loc 3 269 9 view .LVU244
 705              		.syntax unified
 706              	@ 269 "Middlewares/tensorflow/third_party/cmsis_nn/Include/Internal/arm_nn_compiler.h" 1
 707 00ce 2FFA90FE 		sxtb16 lr, r0, ROR #8
 708              	@ 0 "" 2
 709              	.LVL43:
 275:Middlewares/tensorflow/third_party/cmsis_nn/Include/Internal/arm_nn_compiler.h **** }
 710              		.loc 3 275 5 view .LVU245
 275:Middlewares/tensorflow/third_party/cmsis_nn/Include/Internal/arm_nn_compiler.h **** }
 711              		.loc 3 275 5 is_stmt 0 view .LVU246
 712              		.thumb
 713              		.syntax unified
 714              	.LBE309:
 715              	.LBE308:
 228:Middlewares/tensorflow/third_party/cmsis_nn/Source/NNSupportFunctions/arm_nn_vec_mat_mult_t_svdf_s8.c ****             ker_0 = SXTB16(ker_0);
 716              		.loc 1 228 13 is_stmt 1 view .LVU247
 717              	.LBB310:
 718              	.LBI310:
 237:Middlewares/tensorflow/third_party/cmsis_nn/Include/Internal/arm_nn_compiler.h **** {
 719              		.loc 3 237 31 view .LVU248
 720              	.LBB311:
 239:Middlewares/tensorflow/third_party/cmsis_nn/Include/Internal/arm_nn_compiler.h **** 
 721              		.loc 3 239 5 view .LVU249
 241:Middlewares/tensorflow/third_party/cmsis_nn/Include/Internal/arm_nn_compiler.h ****     return (result);
 722              		.loc 3 241 5 view .LVU250
 723              		.syntax unified
 724              	@ 241 "Middlewares/tensorflow/third_party/cmsis_nn/Include/Internal/arm_nn_compiler.h" 1
 725 00d2 2FFA80F0 		sxtb16 r0, r0
 726              	@ 0 "" 2
ARM GAS  /tmp/ccQr0DhO.s 			page 36


 727              	.LVL44:
 242:Middlewares/tensorflow/third_party/cmsis_nn/Include/Internal/arm_nn_compiler.h **** }
 728              		.loc 3 242 5 view .LVU251
 242:Middlewares/tensorflow/third_party/cmsis_nn/Include/Internal/arm_nn_compiler.h **** }
 729              		.loc 3 242 5 is_stmt 0 view .LVU252
 730              		.thumb
 731              		.syntax unified
 732              	.LBE311:
 733              	.LBE310:
 229:Middlewares/tensorflow/third_party/cmsis_nn/Source/NNSupportFunctions/arm_nn_vec_mat_mult_t_svdf_s8.c ****             acc_1 = SMLAD(ker_1, vec_1, acc_1);
 734              		.loc 1 229 13 is_stmt 1 view .LVU253
 735              	.LBB312:
 736              	.LBI312:
 246:Middlewares/tensorflow/third_party/cmsis_nn/Include/Internal/arm_nn_compiler.h **** {
 737              		.loc 3 246 31 view .LVU254
 738              	.LBB313:
 248:Middlewares/tensorflow/third_party/cmsis_nn/Include/Internal/arm_nn_compiler.h **** 
 739              		.loc 3 248 5 view .LVU255
 250:Middlewares/tensorflow/third_party/cmsis_nn/Include/Internal/arm_nn_compiler.h ****     return (result);
 740              		.loc 3 250 5 view .LVU256
 741              		.syntax unified
 742              	@ 250 "Middlewares/tensorflow/third_party/cmsis_nn/Include/Internal/arm_nn_compiler.h" 1
 743 00d6 2EFB028E 		smlad lr, lr, r2, r8
 744              	@ 0 "" 2
 745              	.LVL45:
 251:Middlewares/tensorflow/third_party/cmsis_nn/Include/Internal/arm_nn_compiler.h **** }
 746              		.loc 3 251 5 view .LVU257
 251:Middlewares/tensorflow/third_party/cmsis_nn/Include/Internal/arm_nn_compiler.h **** }
 747              		.loc 3 251 5 is_stmt 0 view .LVU258
 748              		.thumb
 749              		.syntax unified
 750              	.LBE313:
 751              	.LBE312:
 230:Middlewares/tensorflow/third_party/cmsis_nn/Source/NNSupportFunctions/arm_nn_vec_mat_mult_t_svdf_s8.c ****             acc_1 = SMLAD(ker_0, vec_0, acc_1);
 752              		.loc 1 230 13 is_stmt 1 view .LVU259
 753              	.LBB314:
 754              	.LBI314:
 246:Middlewares/tensorflow/third_party/cmsis_nn/Include/Internal/arm_nn_compiler.h **** {
 755              		.loc 3 246 31 view .LVU260
 756              	.LBB315:
 248:Middlewares/tensorflow/third_party/cmsis_nn/Include/Internal/arm_nn_compiler.h **** 
 757              		.loc 3 248 5 view .LVU261
 250:Middlewares/tensorflow/third_party/cmsis_nn/Include/Internal/arm_nn_compiler.h ****     return (result);
 758              		.loc 3 250 5 view .LVU262
 759              		.syntax unified
 760              	@ 250 "Middlewares/tensorflow/third_party/cmsis_nn/Include/Internal/arm_nn_compiler.h" 1
 761 00da 20FB0BEE 		smlad lr, r0, fp, lr
 762              	@ 0 "" 2
 763              	.LVL46:
 251:Middlewares/tensorflow/third_party/cmsis_nn/Include/Internal/arm_nn_compiler.h **** }
 764              		.loc 3 251 5 view .LVU263
 251:Middlewares/tensorflow/third_party/cmsis_nn/Include/Internal/arm_nn_compiler.h **** }
 765              		.loc 3 251 5 is_stmt 0 view .LVU264
 766              		.thumb
 767              		.syntax unified
 768              	.LBE315:
 769              	.LBE314:
ARM GAS  /tmp/ccQr0DhO.s 			page 37


 231:Middlewares/tensorflow/third_party/cmsis_nn/Source/NNSupportFunctions/arm_nn_vec_mat_mult_t_svdf_s8.c **** 
 232:Middlewares/tensorflow/third_party/cmsis_nn/Source/NNSupportFunctions/arm_nn_vec_mat_mult_t_svdf_s8.c ****             // 4 x MAC acc_0, acc1
 233:Middlewares/tensorflow/third_party/cmsis_nn/Source/NNSupportFunctions/arm_nn_vec_mat_mult_t_svdf_s8.c ****             vec_0 = arm_nn_read_s8x4_ia(&lhs_vec);
 770              		.loc 1 233 13 is_stmt 1 view .LVU265
 771              	.LBB316:
 772              	.LBI316:
 586:Middlewares/tensorflow/third_party/cmsis_nn/Include/arm_nnsupportfunctions.h **** {
 773              		.loc 2 586 30 view .LVU266
 774              	.LBB317:
 588:Middlewares/tensorflow/third_party/cmsis_nn/Include/arm_nnsupportfunctions.h ****     memcpy(&val, *in_s8, 4);
 775              		.loc 2 588 5 view .LVU267
 589:Middlewares/tensorflow/third_party/cmsis_nn/Include/arm_nnsupportfunctions.h ****     *in_s8 += 4;
 776              		.loc 2 589 5 view .LVU268
 777 00de EA68     		ldr	r2, [r5, #12]	@ unaligned
 778              	.LVL47:
 590:Middlewares/tensorflow/third_party/cmsis_nn/Include/arm_nnsupportfunctions.h **** 
 779              		.loc 2 590 5 view .LVU269
 590:Middlewares/tensorflow/third_party/cmsis_nn/Include/arm_nnsupportfunctions.h **** 
 780              		.loc 2 590 12 is_stmt 0 view .LVU270
 781 00e0 1035     		adds	r5, r5, #16
 782              	.LVL48:
 783              		.loc 2 592 5 is_stmt 1 view .LVU271
 784              		.loc 2 592 5 is_stmt 0 view .LVU272
 785              	.LBE317:
 786              	.LBE316:
 234:Middlewares/tensorflow/third_party/cmsis_nn/Source/NNSupportFunctions/arm_nn_vec_mat_mult_t_svdf_s8.c ****             vec_1 = SXTAB16_RORn(lhs_offset_s16x2, (uint32_t)vec_0, 8);
 787              		.loc 1 234 13 is_stmt 1 view .LVU273
 788              	.LBB318:
 789              	.LBI318:
 278:Middlewares/tensorflow/third_party/cmsis_nn/Include/Internal/arm_nn_compiler.h **** {
 790              		.loc 3 278 31 view .LVU274
 791              	.LBB319:
 280:Middlewares/tensorflow/third_party/cmsis_nn/Include/Internal/arm_nn_compiler.h ****     if (__builtin_constant_p(rotate) && ((rotate == 8U) || (rotate == 16U) || (rotate == 24U)))
 792              		.loc 3 280 5 view .LVU275
 281:Middlewares/tensorflow/third_party/cmsis_nn/Include/Internal/arm_nn_compiler.h ****     {
 793              		.loc 3 281 5 view .LVU276
 283:Middlewares/tensorflow/third_party/cmsis_nn/Include/Internal/arm_nn_compiler.h ****     }
 794              		.loc 3 283 9 view .LVU277
 795              		.syntax unified
 796              	@ 283 "Middlewares/tensorflow/third_party/cmsis_nn/Include/Internal/arm_nn_compiler.h" 1
 797 00e2 24FA92F8 		sxtab16 r8, r4, r2, ROR #8
 798              	@ 0 "" 2
 799              	.LVL49:
 800              		.loc 3 289 5 view .LVU278
 801              		.loc 3 289 5 is_stmt 0 view .LVU279
 802              		.thumb
 803              		.syntax unified
 804              	.LBE319:
 805              	.LBE318:
 235:Middlewares/tensorflow/third_party/cmsis_nn/Source/NNSupportFunctions/arm_nn_vec_mat_mult_t_svdf_s8.c ****             vec_0 = SXTAB16(lhs_offset_s16x2, vec_0);
 806              		.loc 1 235 13 is_stmt 1 view .LVU280
 807              	.LBB320:
 808              	.LBI320:
 229:Middlewares/tensorflow/third_party/cmsis_nn/Include/Internal/arm_nn_compiler.h **** {
 809              		.loc 3 229 31 view .LVU281
 810              	.LBB321:
 231:Middlewares/tensorflow/third_party/cmsis_nn/Include/Internal/arm_nn_compiler.h **** 
ARM GAS  /tmp/ccQr0DhO.s 			page 38


 811              		.loc 3 231 5 view .LVU282
 233:Middlewares/tensorflow/third_party/cmsis_nn/Include/Internal/arm_nn_compiler.h ****     return (result);
 812              		.loc 3 233 5 view .LVU283
 813              		.syntax unified
 814              	@ 233 "Middlewares/tensorflow/third_party/cmsis_nn/Include/Internal/arm_nn_compiler.h" 1
 815 00e6 24FA82F2 		sxtab16 r2, r4, r2
 816              	@ 0 "" 2
 817              	.LVL50:
 234:Middlewares/tensorflow/third_party/cmsis_nn/Include/Internal/arm_nn_compiler.h **** }
 818              		.loc 3 234 5 view .LVU284
 234:Middlewares/tensorflow/third_party/cmsis_nn/Include/Internal/arm_nn_compiler.h **** }
 819              		.loc 3 234 5 is_stmt 0 view .LVU285
 820              		.thumb
 821              		.syntax unified
 822              	.LBE321:
 823              	.LBE320:
 236:Middlewares/tensorflow/third_party/cmsis_nn/Source/NNSupportFunctions/arm_nn_vec_mat_mult_t_svdf_s8.c ****             ker_0 = arm_nn_read_s8x4_ia(&rhs_0);
 824              		.loc 1 236 13 is_stmt 1 view .LVU286
 825              	.LBB322:
 826              	.LBI322:
 586:Middlewares/tensorflow/third_party/cmsis_nn/Include/arm_nnsupportfunctions.h **** {
 827              		.loc 2 586 30 view .LVU287
 828              	.LBB323:
 588:Middlewares/tensorflow/third_party/cmsis_nn/Include/arm_nnsupportfunctions.h ****     memcpy(&val, *in_s8, 4);
 829              		.loc 2 588 5 view .LVU288
 589:Middlewares/tensorflow/third_party/cmsis_nn/Include/arm_nnsupportfunctions.h ****     *in_s8 += 4;
 830              		.loc 2 589 5 view .LVU289
 831 00ea C868     		ldr	r0, [r1, #12]	@ unaligned
 832              	.LVL51:
 590:Middlewares/tensorflow/third_party/cmsis_nn/Include/arm_nnsupportfunctions.h **** 
 833              		.loc 2 590 5 view .LVU290
 590:Middlewares/tensorflow/third_party/cmsis_nn/Include/arm_nnsupportfunctions.h **** 
 834              		.loc 2 590 12 is_stmt 0 view .LVU291
 835 00ec 1031     		adds	r1, r1, #16
 836              	.LVL52:
 837              		.loc 2 592 5 is_stmt 1 view .LVU292
 838              		.loc 2 592 5 is_stmt 0 view .LVU293
 839              	.LBE323:
 840              	.LBE322:
 237:Middlewares/tensorflow/third_party/cmsis_nn/Source/NNSupportFunctions/arm_nn_vec_mat_mult_t_svdf_s8.c ****             ker_1 = SXTB16_RORn((uint32_t)ker_0, 8);
 841              		.loc 1 237 13 is_stmt 1 view .LVU294
 842              	.LBB324:
 843              	.LBI324:
 264:Middlewares/tensorflow/third_party/cmsis_nn/Include/Internal/arm_nn_compiler.h **** {
 844              		.loc 3 264 31 view .LVU295
 845              	.LBB325:
 266:Middlewares/tensorflow/third_party/cmsis_nn/Include/Internal/arm_nn_compiler.h ****     if (__builtin_constant_p(rotate) && ((rotate == 8U) || (rotate == 16U) || (rotate == 24U)))
 846              		.loc 3 266 5 view .LVU296
 267:Middlewares/tensorflow/third_party/cmsis_nn/Include/Internal/arm_nn_compiler.h ****     {
 847              		.loc 3 267 5 view .LVU297
 269:Middlewares/tensorflow/third_party/cmsis_nn/Include/Internal/arm_nn_compiler.h ****     }
 848              		.loc 3 269 9 view .LVU298
 849              		.syntax unified
 850              	@ 269 "Middlewares/tensorflow/third_party/cmsis_nn/Include/Internal/arm_nn_compiler.h" 1
 851 00ee 2FFA90F7 		sxtb16 r7, r0, ROR #8
 852              	@ 0 "" 2
 853              	.LVL53:
ARM GAS  /tmp/ccQr0DhO.s 			page 39


 275:Middlewares/tensorflow/third_party/cmsis_nn/Include/Internal/arm_nn_compiler.h **** }
 854              		.loc 3 275 5 view .LVU299
 275:Middlewares/tensorflow/third_party/cmsis_nn/Include/Internal/arm_nn_compiler.h **** }
 855              		.loc 3 275 5 is_stmt 0 view .LVU300
 856              		.thumb
 857              		.syntax unified
 858              	.LBE325:
 859              	.LBE324:
 238:Middlewares/tensorflow/third_party/cmsis_nn/Source/NNSupportFunctions/arm_nn_vec_mat_mult_t_svdf_s8.c ****             ker_0 = SXTB16(ker_0);
 860              		.loc 1 238 13 is_stmt 1 view .LVU301
 861              	.LBB326:
 862              	.LBI326:
 237:Middlewares/tensorflow/third_party/cmsis_nn/Include/Internal/arm_nn_compiler.h **** {
 863              		.loc 3 237 31 view .LVU302
 864              	.LBB327:
 239:Middlewares/tensorflow/third_party/cmsis_nn/Include/Internal/arm_nn_compiler.h **** 
 865              		.loc 3 239 5 view .LVU303
 241:Middlewares/tensorflow/third_party/cmsis_nn/Include/Internal/arm_nn_compiler.h ****     return (result);
 866              		.loc 3 241 5 view .LVU304
 867              		.syntax unified
 868              	@ 241 "Middlewares/tensorflow/third_party/cmsis_nn/Include/Internal/arm_nn_compiler.h" 1
 869 00f2 2FFA80F0 		sxtb16 r0, r0
 870              	@ 0 "" 2
 871              	.LVL54:
 242:Middlewares/tensorflow/third_party/cmsis_nn/Include/Internal/arm_nn_compiler.h **** }
 872              		.loc 3 242 5 view .LVU305
 242:Middlewares/tensorflow/third_party/cmsis_nn/Include/Internal/arm_nn_compiler.h **** }
 873              		.loc 3 242 5 is_stmt 0 view .LVU306
 874              		.thumb
 875              		.syntax unified
 876              	.LBE327:
 877              	.LBE326:
 239:Middlewares/tensorflow/third_party/cmsis_nn/Source/NNSupportFunctions/arm_nn_vec_mat_mult_t_svdf_s8.c ****             acc_0 = SMLAD(ker_1, vec_1, acc_0);
 878              		.loc 1 239 13 is_stmt 1 view .LVU307
 879              	.LBB328:
 880              	.LBI328:
 246:Middlewares/tensorflow/third_party/cmsis_nn/Include/Internal/arm_nn_compiler.h **** {
 881              		.loc 3 246 31 view .LVU308
 882              	.LBB329:
 248:Middlewares/tensorflow/third_party/cmsis_nn/Include/Internal/arm_nn_compiler.h **** 
 883              		.loc 3 248 5 view .LVU309
 250:Middlewares/tensorflow/third_party/cmsis_nn/Include/Internal/arm_nn_compiler.h ****     return (result);
 884              		.loc 3 250 5 view .LVU310
 885              		.syntax unified
 886              	@ 250 "Middlewares/tensorflow/third_party/cmsis_nn/Include/Internal/arm_nn_compiler.h" 1
 887 00f6 27FB0899 		smlad r9, r7, r8, r9
 888              	@ 0 "" 2
 889              	.LVL55:
 251:Middlewares/tensorflow/third_party/cmsis_nn/Include/Internal/arm_nn_compiler.h **** }
 890              		.loc 3 251 5 view .LVU311
 251:Middlewares/tensorflow/third_party/cmsis_nn/Include/Internal/arm_nn_compiler.h **** }
 891              		.loc 3 251 5 is_stmt 0 view .LVU312
 892              		.thumb
 893              		.syntax unified
 894              	.LBE329:
 895              	.LBE328:
 240:Middlewares/tensorflow/third_party/cmsis_nn/Source/NNSupportFunctions/arm_nn_vec_mat_mult_t_svdf_s8.c ****             acc_0 = SMLAD(ker_0, vec_0, acc_0);
ARM GAS  /tmp/ccQr0DhO.s 			page 40


 896              		.loc 1 240 13 is_stmt 1 view .LVU313
 897              	.LBB330:
 898              	.LBI330:
 246:Middlewares/tensorflow/third_party/cmsis_nn/Include/Internal/arm_nn_compiler.h **** {
 899              		.loc 3 246 31 view .LVU314
 900              	.LBB331:
 248:Middlewares/tensorflow/third_party/cmsis_nn/Include/Internal/arm_nn_compiler.h **** 
 901              		.loc 3 248 5 view .LVU315
 250:Middlewares/tensorflow/third_party/cmsis_nn/Include/Internal/arm_nn_compiler.h ****     return (result);
 902              		.loc 3 250 5 view .LVU316
 903              		.syntax unified
 904              	@ 250 "Middlewares/tensorflow/third_party/cmsis_nn/Include/Internal/arm_nn_compiler.h" 1
 905 00fa 20FB0290 		smlad r0, r0, r2, r9
 906              	@ 0 "" 2
 907              	.LVL56:
 251:Middlewares/tensorflow/third_party/cmsis_nn/Include/Internal/arm_nn_compiler.h **** }
 908              		.loc 3 251 5 view .LVU317
 251:Middlewares/tensorflow/third_party/cmsis_nn/Include/Internal/arm_nn_compiler.h **** }
 909              		.loc 3 251 5 is_stmt 0 view .LVU318
 910              		.thumb
 911              		.syntax unified
 912              	.LBE331:
 913              	.LBE330:
 241:Middlewares/tensorflow/third_party/cmsis_nn/Source/NNSupportFunctions/arm_nn_vec_mat_mult_t_svdf_s8.c ****             ker_0 = arm_nn_read_s8x4_ia(&rhs_1);
 914              		.loc 1 241 13 is_stmt 1 view .LVU319
 915              	.LBB332:
 916              	.LBI332:
 586:Middlewares/tensorflow/third_party/cmsis_nn/Include/arm_nnsupportfunctions.h **** {
 917              		.loc 2 586 30 view .LVU320
 918              	.LBB333:
 588:Middlewares/tensorflow/third_party/cmsis_nn/Include/arm_nnsupportfunctions.h ****     memcpy(&val, *in_s8, 4);
 919              		.loc 2 588 5 view .LVU321
 589:Middlewares/tensorflow/third_party/cmsis_nn/Include/arm_nnsupportfunctions.h ****     *in_s8 += 4;
 920              		.loc 2 589 5 view .LVU322
 921 00fe DF68     		ldr	r7, [r3, #12]	@ unaligned
 922              	.LVL57:
 590:Middlewares/tensorflow/third_party/cmsis_nn/Include/arm_nnsupportfunctions.h **** 
 923              		.loc 2 590 5 view .LVU323
 590:Middlewares/tensorflow/third_party/cmsis_nn/Include/arm_nnsupportfunctions.h **** 
 924              		.loc 2 590 12 is_stmt 0 view .LVU324
 925 0100 1033     		adds	r3, r3, #16
 926              	.LVL58:
 927              		.loc 2 592 5 is_stmt 1 view .LVU325
 928              		.loc 2 592 5 is_stmt 0 view .LVU326
 929              	.LBE333:
 930              	.LBE332:
 242:Middlewares/tensorflow/third_party/cmsis_nn/Source/NNSupportFunctions/arm_nn_vec_mat_mult_t_svdf_s8.c ****             ker_1 = SXTB16_RORn((uint32_t)ker_0, 8);
 931              		.loc 1 242 13 is_stmt 1 view .LVU327
 932              	.LBB334:
 933              	.LBI334:
 264:Middlewares/tensorflow/third_party/cmsis_nn/Include/Internal/arm_nn_compiler.h **** {
 934              		.loc 3 264 31 view .LVU328
 935              	.LBB335:
 266:Middlewares/tensorflow/third_party/cmsis_nn/Include/Internal/arm_nn_compiler.h ****     if (__builtin_constant_p(rotate) && ((rotate == 8U) || (rotate == 16U) || (rotate == 24U)))
 936              		.loc 3 266 5 view .LVU329
 267:Middlewares/tensorflow/third_party/cmsis_nn/Include/Internal/arm_nn_compiler.h ****     {
 937              		.loc 3 267 5 view .LVU330
ARM GAS  /tmp/ccQr0DhO.s 			page 41


 269:Middlewares/tensorflow/third_party/cmsis_nn/Include/Internal/arm_nn_compiler.h ****     }
 938              		.loc 3 269 9 view .LVU331
 939              		.syntax unified
 940              	@ 269 "Middlewares/tensorflow/third_party/cmsis_nn/Include/Internal/arm_nn_compiler.h" 1
 941 0102 2FFA97F9 		sxtb16 r9, r7, ROR #8
 942              	@ 0 "" 2
 943              	.LVL59:
 275:Middlewares/tensorflow/third_party/cmsis_nn/Include/Internal/arm_nn_compiler.h **** }
 944              		.loc 3 275 5 view .LVU332
 275:Middlewares/tensorflow/third_party/cmsis_nn/Include/Internal/arm_nn_compiler.h **** }
 945              		.loc 3 275 5 is_stmt 0 view .LVU333
 946              		.thumb
 947              		.syntax unified
 948              	.LBE335:
 949              	.LBE334:
 243:Middlewares/tensorflow/third_party/cmsis_nn/Source/NNSupportFunctions/arm_nn_vec_mat_mult_t_svdf_s8.c ****             ker_0 = SXTB16(ker_0);
 950              		.loc 1 243 13 is_stmt 1 view .LVU334
 951              	.LBB336:
 952              	.LBI336:
 237:Middlewares/tensorflow/third_party/cmsis_nn/Include/Internal/arm_nn_compiler.h **** {
 953              		.loc 3 237 31 view .LVU335
 954              	.LBB337:
 239:Middlewares/tensorflow/third_party/cmsis_nn/Include/Internal/arm_nn_compiler.h **** 
 955              		.loc 3 239 5 view .LVU336
 241:Middlewares/tensorflow/third_party/cmsis_nn/Include/Internal/arm_nn_compiler.h ****     return (result);
 956              		.loc 3 241 5 view .LVU337
 957              		.syntax unified
 958              	@ 241 "Middlewares/tensorflow/third_party/cmsis_nn/Include/Internal/arm_nn_compiler.h" 1
 959 0106 2FFA87F7 		sxtb16 r7, r7
 960              	@ 0 "" 2
 961              	.LVL60:
 242:Middlewares/tensorflow/third_party/cmsis_nn/Include/Internal/arm_nn_compiler.h **** }
 962              		.loc 3 242 5 view .LVU338
 242:Middlewares/tensorflow/third_party/cmsis_nn/Include/Internal/arm_nn_compiler.h **** }
 963              		.loc 3 242 5 is_stmt 0 view .LVU339
 964              		.thumb
 965              		.syntax unified
 966              	.LBE337:
 967              	.LBE336:
 244:Middlewares/tensorflow/third_party/cmsis_nn/Source/NNSupportFunctions/arm_nn_vec_mat_mult_t_svdf_s8.c ****             acc_1 = SMLAD(ker_1, vec_1, acc_1);
 968              		.loc 1 244 13 is_stmt 1 view .LVU340
 969              	.LBB338:
 970              	.LBI338:
 246:Middlewares/tensorflow/third_party/cmsis_nn/Include/Internal/arm_nn_compiler.h **** {
 971              		.loc 3 246 31 view .LVU341
 972              	.LBB339:
 248:Middlewares/tensorflow/third_party/cmsis_nn/Include/Internal/arm_nn_compiler.h **** 
 973              		.loc 3 248 5 view .LVU342
 250:Middlewares/tensorflow/third_party/cmsis_nn/Include/Internal/arm_nn_compiler.h ****     return (result);
 974              		.loc 3 250 5 view .LVU343
 975              		.syntax unified
 976              	@ 250 "Middlewares/tensorflow/third_party/cmsis_nn/Include/Internal/arm_nn_compiler.h" 1
 977 010a 29FB08EE 		smlad lr, r9, r8, lr
 978              	@ 0 "" 2
 979              	.LVL61:
 251:Middlewares/tensorflow/third_party/cmsis_nn/Include/Internal/arm_nn_compiler.h **** }
 980              		.loc 3 251 5 view .LVU344
ARM GAS  /tmp/ccQr0DhO.s 			page 42


 251:Middlewares/tensorflow/third_party/cmsis_nn/Include/Internal/arm_nn_compiler.h **** }
 981              		.loc 3 251 5 is_stmt 0 view .LVU345
 982              		.thumb
 983              		.syntax unified
 984              	.LBE339:
 985              	.LBE338:
 245:Middlewares/tensorflow/third_party/cmsis_nn/Source/NNSupportFunctions/arm_nn_vec_mat_mult_t_svdf_s8.c ****             acc_1 = SMLAD(ker_0, vec_0, acc_1);
 986              		.loc 1 245 13 is_stmt 1 view .LVU346
 987              	.LBB340:
 988              	.LBI340:
 246:Middlewares/tensorflow/third_party/cmsis_nn/Include/Internal/arm_nn_compiler.h **** {
 989              		.loc 3 246 31 view .LVU347
 990              	.LBB341:
 248:Middlewares/tensorflow/third_party/cmsis_nn/Include/Internal/arm_nn_compiler.h **** 
 991              		.loc 3 248 5 view .LVU348
 250:Middlewares/tensorflow/third_party/cmsis_nn/Include/Internal/arm_nn_compiler.h ****     return (result);
 992              		.loc 3 250 5 view .LVU349
 993              		.syntax unified
 994              	@ 250 "Middlewares/tensorflow/third_party/cmsis_nn/Include/Internal/arm_nn_compiler.h" 1
 995 010e 27FB02E2 		smlad r2, r7, r2, lr
 996              	@ 0 "" 2
 997              	.LVL62:
 251:Middlewares/tensorflow/third_party/cmsis_nn/Include/Internal/arm_nn_compiler.h **** }
 998              		.loc 3 251 5 view .LVU350
 251:Middlewares/tensorflow/third_party/cmsis_nn/Include/Internal/arm_nn_compiler.h **** }
 999              		.loc 3 251 5 is_stmt 0 view .LVU351
 1000              		.thumb
 1001              		.syntax unified
 1002              	.LBE341:
 1003              	.LBE340:
 185:Middlewares/tensorflow/third_party/cmsis_nn/Source/NNSupportFunctions/arm_nn_vec_mat_mult_t_svdf_s8.c ****         {
 1004              		.loc 1 185 49 is_stmt 1 view .LVU352
 185:Middlewares/tensorflow/third_party/cmsis_nn/Source/NNSupportFunctions/arm_nn_vec_mat_mult_t_svdf_s8.c ****         {
 1005              		.loc 1 185 62 is_stmt 0 view .LVU353
 1006 0112 1036     		adds	r6, r6, #16
 1007              	.LVL63:
 1008              	.L4:
 185:Middlewares/tensorflow/third_party/cmsis_nn/Source/NNSupportFunctions/arm_nn_vec_mat_mult_t_svdf_s8.c ****         {
 1009              		.loc 1 185 16 is_stmt 1 discriminator 1 view .LVU354
 185:Middlewares/tensorflow/third_party/cmsis_nn/Source/NNSupportFunctions/arm_nn_vec_mat_mult_t_svdf_s8.c ****         {
 1010              		.loc 1 185 29 is_stmt 0 discriminator 1 view .LVU355
 1011 0114 AAF10F07 		sub	r7, r10, #15
 185:Middlewares/tensorflow/third_party/cmsis_nn/Source/NNSupportFunctions/arm_nn_vec_mat_mult_t_svdf_s8.c ****         {
 1012              		.loc 1 185 9 discriminator 1 view .LVU356
 1013 0118 B742     		cmp	r7, r6
 1014 011a 96DC     		bgt	.L5
 185:Middlewares/tensorflow/third_party/cmsis_nn/Source/NNSupportFunctions/arm_nn_vec_mat_mult_t_svdf_s8.c ****         {
 1015              		.loc 1 185 9 discriminator 1 view .LVU357
 1016 011c 1BE0     		b	.L6
 1017              	.L7:
 246:Middlewares/tensorflow/third_party/cmsis_nn/Source/NNSupportFunctions/arm_nn_vec_mat_mult_t_svdf_s8.c ****         }
 247:Middlewares/tensorflow/third_party/cmsis_nn/Source/NNSupportFunctions/arm_nn_vec_mat_mult_t_svdf_s8.c **** 
 248:Middlewares/tensorflow/third_party/cmsis_nn/Source/NNSupportFunctions/arm_nn_vec_mat_mult_t_svdf_s8.c ****     #if defined(__ARMCC_VERSION) && (__ARMCC_VERSION >= 6010050)
 249:Middlewares/tensorflow/third_party/cmsis_nn/Source/NNSupportFunctions/arm_nn_vec_mat_mult_t_svdf_s8.c ****         #pragma clang loop unroll(disable)
 250:Middlewares/tensorflow/third_party/cmsis_nn/Source/NNSupportFunctions/arm_nn_vec_mat_mult_t_svdf_s8.c ****     #endif
 251:Middlewares/tensorflow/third_party/cmsis_nn/Source/NNSupportFunctions/arm_nn_vec_mat_mult_t_svdf_s8.c ****         for (; rhs_cols_idx <= (rhs_cols - 4); rhs_cols_idx += 4)
 252:Middlewares/tensorflow/third_party/cmsis_nn/Source/NNSupportFunctions/arm_nn_vec_mat_mult_t_svdf_s8.c ****         {
ARM GAS  /tmp/ccQr0DhO.s 			page 43


 253:Middlewares/tensorflow/third_party/cmsis_nn/Source/NNSupportFunctions/arm_nn_vec_mat_mult_t_svdf_s8.c ****             vec_0 = arm_nn_read_s8x4_ia(&lhs_vec);
 1018              		.loc 1 253 13 is_stmt 1 view .LVU358
 1019              	.LVL64:
 1020              	.LBB342:
 1021              	.LBI342:
 586:Middlewares/tensorflow/third_party/cmsis_nn/Include/arm_nnsupportfunctions.h **** {
 1022              		.loc 2 586 30 view .LVU359
 1023              	.LBB343:
 588:Middlewares/tensorflow/third_party/cmsis_nn/Include/arm_nnsupportfunctions.h ****     memcpy(&val, *in_s8, 4);
 1024              		.loc 2 588 5 view .LVU360
 589:Middlewares/tensorflow/third_party/cmsis_nn/Include/arm_nnsupportfunctions.h ****     *in_s8 += 4;
 1025              		.loc 2 589 5 view .LVU361
 1026 011e 55F8047B 		ldr	r7, [r5], #4	@ unaligned
 1027              	.LVL65:
 590:Middlewares/tensorflow/third_party/cmsis_nn/Include/arm_nnsupportfunctions.h **** 
 1028              		.loc 2 590 5 view .LVU362
 1029              		.loc 2 592 5 view .LVU363
 1030              		.loc 2 592 5 is_stmt 0 view .LVU364
 1031              	.LBE343:
 1032              	.LBE342:
 254:Middlewares/tensorflow/third_party/cmsis_nn/Source/NNSupportFunctions/arm_nn_vec_mat_mult_t_svdf_s8.c ****             vec_1 = SXTAB16_RORn(lhs_offset_s16x2, (uint32_t)vec_0, 8);
 1033              		.loc 1 254 13 is_stmt 1 view .LVU365
 1034              	.LBB344:
 1035              	.LBI344:
 278:Middlewares/tensorflow/third_party/cmsis_nn/Include/Internal/arm_nn_compiler.h **** {
 1036              		.loc 3 278 31 view .LVU366
 1037              	.LBB345:
 280:Middlewares/tensorflow/third_party/cmsis_nn/Include/Internal/arm_nn_compiler.h ****     if (__builtin_constant_p(rotate) && ((rotate == 8U) || (rotate == 16U) || (rotate == 24U)))
 1038              		.loc 3 280 5 view .LVU367
 281:Middlewares/tensorflow/third_party/cmsis_nn/Include/Internal/arm_nn_compiler.h ****     {
 1039              		.loc 3 281 5 view .LVU368
 283:Middlewares/tensorflow/third_party/cmsis_nn/Include/Internal/arm_nn_compiler.h ****     }
 1040              		.loc 3 283 9 view .LVU369
 1041              		.syntax unified
 1042              	@ 283 "Middlewares/tensorflow/third_party/cmsis_nn/Include/Internal/arm_nn_compiler.h" 1
 1043 0122 24FA97F9 		sxtab16 r9, r4, r7, ROR #8
 1044              	@ 0 "" 2
 1045              	.LVL66:
 1046              		.loc 3 289 5 view .LVU370
 1047              		.loc 3 289 5 is_stmt 0 view .LVU371
 1048              		.thumb
 1049              		.syntax unified
 1050              	.LBE345:
 1051              	.LBE344:
 255:Middlewares/tensorflow/third_party/cmsis_nn/Source/NNSupportFunctions/arm_nn_vec_mat_mult_t_svdf_s8.c **** 
 256:Middlewares/tensorflow/third_party/cmsis_nn/Source/NNSupportFunctions/arm_nn_vec_mat_mult_t_svdf_s8.c ****             vec_0 = SXTAB16(lhs_offset_s16x2, vec_0);
 1052              		.loc 1 256 13 is_stmt 1 view .LVU372
 1053              	.LBB346:
 1054              	.LBI346:
 229:Middlewares/tensorflow/third_party/cmsis_nn/Include/Internal/arm_nn_compiler.h **** {
 1055              		.loc 3 229 31 view .LVU373
 1056              	.LBB347:
 231:Middlewares/tensorflow/third_party/cmsis_nn/Include/Internal/arm_nn_compiler.h **** 
 1057              		.loc 3 231 5 view .LVU374
 233:Middlewares/tensorflow/third_party/cmsis_nn/Include/Internal/arm_nn_compiler.h ****     return (result);
 1058              		.loc 3 233 5 view .LVU375
 1059              		.syntax unified
ARM GAS  /tmp/ccQr0DhO.s 			page 44


 1060              	@ 233 "Middlewares/tensorflow/third_party/cmsis_nn/Include/Internal/arm_nn_compiler.h" 1
 1061 0126 24FA87F8 		sxtab16 r8, r4, r7
 1062              	@ 0 "" 2
 1063              	.LVL67:
 234:Middlewares/tensorflow/third_party/cmsis_nn/Include/Internal/arm_nn_compiler.h **** }
 1064              		.loc 3 234 5 view .LVU376
 234:Middlewares/tensorflow/third_party/cmsis_nn/Include/Internal/arm_nn_compiler.h **** }
 1065              		.loc 3 234 5 is_stmt 0 view .LVU377
 1066              		.thumb
 1067              		.syntax unified
 1068              	.LBE347:
 1069              	.LBE346:
 257:Middlewares/tensorflow/third_party/cmsis_nn/Source/NNSupportFunctions/arm_nn_vec_mat_mult_t_svdf_s8.c **** 
 258:Middlewares/tensorflow/third_party/cmsis_nn/Source/NNSupportFunctions/arm_nn_vec_mat_mult_t_svdf_s8.c ****             ker_0 = arm_nn_read_s8x4_ia(&rhs_0);
 1070              		.loc 1 258 13 is_stmt 1 view .LVU378
 1071              	.LBB348:
 1072              	.LBI348:
 586:Middlewares/tensorflow/third_party/cmsis_nn/Include/arm_nnsupportfunctions.h **** {
 1073              		.loc 2 586 30 view .LVU379
 1074              	.LBB349:
 588:Middlewares/tensorflow/third_party/cmsis_nn/Include/arm_nnsupportfunctions.h ****     memcpy(&val, *in_s8, 4);
 1075              		.loc 2 588 5 view .LVU380
 589:Middlewares/tensorflow/third_party/cmsis_nn/Include/arm_nnsupportfunctions.h ****     *in_s8 += 4;
 1076              		.loc 2 589 5 view .LVU381
 1077 012a 51F804EB 		ldr	lr, [r1], #4	@ unaligned
 1078              	.LVL68:
 590:Middlewares/tensorflow/third_party/cmsis_nn/Include/arm_nnsupportfunctions.h **** 
 1079              		.loc 2 590 5 view .LVU382
 1080              		.loc 2 592 5 view .LVU383
 1081              		.loc 2 592 5 is_stmt 0 view .LVU384
 1082              	.LBE349:
 1083              	.LBE348:
 259:Middlewares/tensorflow/third_party/cmsis_nn/Source/NNSupportFunctions/arm_nn_vec_mat_mult_t_svdf_s8.c ****             ker_1 = SXTB16_RORn((uint32_t)ker_0, 8);
 1084              		.loc 1 259 13 is_stmt 1 view .LVU385
 1085              	.LBB350:
 1086              	.LBI350:
 264:Middlewares/tensorflow/third_party/cmsis_nn/Include/Internal/arm_nn_compiler.h **** {
 1087              		.loc 3 264 31 view .LVU386
 1088              	.LBB351:
 266:Middlewares/tensorflow/third_party/cmsis_nn/Include/Internal/arm_nn_compiler.h ****     if (__builtin_constant_p(rotate) && ((rotate == 8U) || (rotate == 16U) || (rotate == 24U)))
 1089              		.loc 3 266 5 view .LVU387
 267:Middlewares/tensorflow/third_party/cmsis_nn/Include/Internal/arm_nn_compiler.h ****     {
 1090              		.loc 3 267 5 view .LVU388
 269:Middlewares/tensorflow/third_party/cmsis_nn/Include/Internal/arm_nn_compiler.h ****     }
 1091              		.loc 3 269 9 view .LVU389
 1092              		.syntax unified
 1093              	@ 269 "Middlewares/tensorflow/third_party/cmsis_nn/Include/Internal/arm_nn_compiler.h" 1
 1094 012e 2FFA9EF7 		sxtb16 r7, lr, ROR #8
 1095              	@ 0 "" 2
 1096              	.LVL69:
 275:Middlewares/tensorflow/third_party/cmsis_nn/Include/Internal/arm_nn_compiler.h **** }
 1097              		.loc 3 275 5 view .LVU390
 275:Middlewares/tensorflow/third_party/cmsis_nn/Include/Internal/arm_nn_compiler.h **** }
 1098              		.loc 3 275 5 is_stmt 0 view .LVU391
 1099              		.thumb
 1100              		.syntax unified
 1101              	.LBE351:
ARM GAS  /tmp/ccQr0DhO.s 			page 45


 1102              	.LBE350:
 260:Middlewares/tensorflow/third_party/cmsis_nn/Source/NNSupportFunctions/arm_nn_vec_mat_mult_t_svdf_s8.c ****             ker_0 = SXTB16(ker_0);
 1103              		.loc 1 260 13 is_stmt 1 view .LVU392
 1104              	.LBB352:
 1105              	.LBI352:
 237:Middlewares/tensorflow/third_party/cmsis_nn/Include/Internal/arm_nn_compiler.h **** {
 1106              		.loc 3 237 31 view .LVU393
 1107              	.LBB353:
 239:Middlewares/tensorflow/third_party/cmsis_nn/Include/Internal/arm_nn_compiler.h **** 
 1108              		.loc 3 239 5 view .LVU394
 241:Middlewares/tensorflow/third_party/cmsis_nn/Include/Internal/arm_nn_compiler.h ****     return (result);
 1109              		.loc 3 241 5 view .LVU395
 1110              		.syntax unified
 1111              	@ 241 "Middlewares/tensorflow/third_party/cmsis_nn/Include/Internal/arm_nn_compiler.h" 1
 1112 0132 2FFA8EFE 		sxtb16 lr, lr
 1113              	@ 0 "" 2
 1114              	.LVL70:
 242:Middlewares/tensorflow/third_party/cmsis_nn/Include/Internal/arm_nn_compiler.h **** }
 1115              		.loc 3 242 5 view .LVU396
 242:Middlewares/tensorflow/third_party/cmsis_nn/Include/Internal/arm_nn_compiler.h **** }
 1116              		.loc 3 242 5 is_stmt 0 view .LVU397
 1117              		.thumb
 1118              		.syntax unified
 1119              	.LBE353:
 1120              	.LBE352:
 261:Middlewares/tensorflow/third_party/cmsis_nn/Source/NNSupportFunctions/arm_nn_vec_mat_mult_t_svdf_s8.c **** 
 262:Middlewares/tensorflow/third_party/cmsis_nn/Source/NNSupportFunctions/arm_nn_vec_mat_mult_t_svdf_s8.c ****             acc_0 = SMLAD(ker_1, vec_1, acc_0);
 1121              		.loc 1 262 13 is_stmt 1 view .LVU398
 1122              	.LBB354:
 1123              	.LBI354:
 246:Middlewares/tensorflow/third_party/cmsis_nn/Include/Internal/arm_nn_compiler.h **** {
 1124              		.loc 3 246 31 view .LVU399
 1125              	.LBB355:
 248:Middlewares/tensorflow/third_party/cmsis_nn/Include/Internal/arm_nn_compiler.h **** 
 1126              		.loc 3 248 5 view .LVU400
 250:Middlewares/tensorflow/third_party/cmsis_nn/Include/Internal/arm_nn_compiler.h ****     return (result);
 1127              		.loc 3 250 5 view .LVU401
 1128              		.syntax unified
 1129              	@ 250 "Middlewares/tensorflow/third_party/cmsis_nn/Include/Internal/arm_nn_compiler.h" 1
 1130 0136 27FB0900 		smlad r0, r7, r9, r0
 1131              	@ 0 "" 2
 1132              	.LVL71:
 251:Middlewares/tensorflow/third_party/cmsis_nn/Include/Internal/arm_nn_compiler.h **** }
 1133              		.loc 3 251 5 view .LVU402
 251:Middlewares/tensorflow/third_party/cmsis_nn/Include/Internal/arm_nn_compiler.h **** }
 1134              		.loc 3 251 5 is_stmt 0 view .LVU403
 1135              		.thumb
 1136              		.syntax unified
 1137              	.LBE355:
 1138              	.LBE354:
 263:Middlewares/tensorflow/third_party/cmsis_nn/Source/NNSupportFunctions/arm_nn_vec_mat_mult_t_svdf_s8.c ****             acc_0 = SMLAD(ker_0, vec_0, acc_0);
 1139              		.loc 1 263 13 is_stmt 1 view .LVU404
 1140              	.LBB356:
 1141              	.LBI356:
 246:Middlewares/tensorflow/third_party/cmsis_nn/Include/Internal/arm_nn_compiler.h **** {
 1142              		.loc 3 246 31 view .LVU405
 1143              	.LBB357:
ARM GAS  /tmp/ccQr0DhO.s 			page 46


 248:Middlewares/tensorflow/third_party/cmsis_nn/Include/Internal/arm_nn_compiler.h **** 
 1144              		.loc 3 248 5 view .LVU406
 250:Middlewares/tensorflow/third_party/cmsis_nn/Include/Internal/arm_nn_compiler.h ****     return (result);
 1145              		.loc 3 250 5 view .LVU407
 1146              		.syntax unified
 1147              	@ 250 "Middlewares/tensorflow/third_party/cmsis_nn/Include/Internal/arm_nn_compiler.h" 1
 1148 013a 2EFB0800 		smlad r0, lr, r8, r0
 1149              	@ 0 "" 2
 1150              	.LVL72:
 251:Middlewares/tensorflow/third_party/cmsis_nn/Include/Internal/arm_nn_compiler.h **** }
 1151              		.loc 3 251 5 view .LVU408
 251:Middlewares/tensorflow/third_party/cmsis_nn/Include/Internal/arm_nn_compiler.h **** }
 1152              		.loc 3 251 5 is_stmt 0 view .LVU409
 1153              		.thumb
 1154              		.syntax unified
 1155              	.LBE357:
 1156              	.LBE356:
 264:Middlewares/tensorflow/third_party/cmsis_nn/Source/NNSupportFunctions/arm_nn_vec_mat_mult_t_svdf_s8.c **** 
 265:Middlewares/tensorflow/third_party/cmsis_nn/Source/NNSupportFunctions/arm_nn_vec_mat_mult_t_svdf_s8.c ****             ker_0 = arm_nn_read_s8x4_ia(&rhs_1);
 1157              		.loc 1 265 13 is_stmt 1 view .LVU410
 1158              	.LBB358:
 1159              	.LBI358:
 586:Middlewares/tensorflow/third_party/cmsis_nn/Include/arm_nnsupportfunctions.h **** {
 1160              		.loc 2 586 30 view .LVU411
 1161              	.LBB359:
 588:Middlewares/tensorflow/third_party/cmsis_nn/Include/arm_nnsupportfunctions.h ****     memcpy(&val, *in_s8, 4);
 1162              		.loc 2 588 5 view .LVU412
 589:Middlewares/tensorflow/third_party/cmsis_nn/Include/arm_nnsupportfunctions.h ****     *in_s8 += 4;
 1163              		.loc 2 589 5 view .LVU413
 1164 013e 53F8047B 		ldr	r7, [r3], #4	@ unaligned
 1165              	.LVL73:
 590:Middlewares/tensorflow/third_party/cmsis_nn/Include/arm_nnsupportfunctions.h **** 
 1166              		.loc 2 590 5 view .LVU414
 1167              		.loc 2 592 5 view .LVU415
 1168              		.loc 2 592 5 is_stmt 0 view .LVU416
 1169              	.LBE359:
 1170              	.LBE358:
 266:Middlewares/tensorflow/third_party/cmsis_nn/Source/NNSupportFunctions/arm_nn_vec_mat_mult_t_svdf_s8.c ****             ker_1 = SXTB16_RORn((uint32_t)ker_0, 8);
 1171              		.loc 1 266 13 is_stmt 1 view .LVU417
 1172              	.LBB360:
 1173              	.LBI360:
 264:Middlewares/tensorflow/third_party/cmsis_nn/Include/Internal/arm_nn_compiler.h **** {
 1174              		.loc 3 264 31 view .LVU418
 1175              	.LBB361:
 266:Middlewares/tensorflow/third_party/cmsis_nn/Include/Internal/arm_nn_compiler.h ****     if (__builtin_constant_p(rotate) && ((rotate == 8U) || (rotate == 16U) || (rotate == 24U)))
 1176              		.loc 3 266 5 view .LVU419
 267:Middlewares/tensorflow/third_party/cmsis_nn/Include/Internal/arm_nn_compiler.h ****     {
 1177              		.loc 3 267 5 view .LVU420
 269:Middlewares/tensorflow/third_party/cmsis_nn/Include/Internal/arm_nn_compiler.h ****     }
 1178              		.loc 3 269 9 view .LVU421
 1179              		.syntax unified
 1180              	@ 269 "Middlewares/tensorflow/third_party/cmsis_nn/Include/Internal/arm_nn_compiler.h" 1
 1181 0142 2FFA97FB 		sxtb16 fp, r7, ROR #8
 1182              	@ 0 "" 2
 1183              	.LVL74:
 275:Middlewares/tensorflow/third_party/cmsis_nn/Include/Internal/arm_nn_compiler.h **** }
 1184              		.loc 3 275 5 view .LVU422
ARM GAS  /tmp/ccQr0DhO.s 			page 47


 275:Middlewares/tensorflow/third_party/cmsis_nn/Include/Internal/arm_nn_compiler.h **** }
 1185              		.loc 3 275 5 is_stmt 0 view .LVU423
 1186              		.thumb
 1187              		.syntax unified
 1188              	.LBE361:
 1189              	.LBE360:
 267:Middlewares/tensorflow/third_party/cmsis_nn/Source/NNSupportFunctions/arm_nn_vec_mat_mult_t_svdf_s8.c ****             ker_0 = SXTB16(ker_0);
 1190              		.loc 1 267 13 is_stmt 1 view .LVU424
 1191              	.LBB362:
 1192              	.LBI362:
 237:Middlewares/tensorflow/third_party/cmsis_nn/Include/Internal/arm_nn_compiler.h **** {
 1193              		.loc 3 237 31 view .LVU425
 1194              	.LBB363:
 239:Middlewares/tensorflow/third_party/cmsis_nn/Include/Internal/arm_nn_compiler.h **** 
 1195              		.loc 3 239 5 view .LVU426
 241:Middlewares/tensorflow/third_party/cmsis_nn/Include/Internal/arm_nn_compiler.h ****     return (result);
 1196              		.loc 3 241 5 view .LVU427
 1197              		.syntax unified
 1198              	@ 241 "Middlewares/tensorflow/third_party/cmsis_nn/Include/Internal/arm_nn_compiler.h" 1
 1199 0146 2FFA87FE 		sxtb16 lr, r7
 1200              	@ 0 "" 2
 1201              	.LVL75:
 242:Middlewares/tensorflow/third_party/cmsis_nn/Include/Internal/arm_nn_compiler.h **** }
 1202              		.loc 3 242 5 view .LVU428
 242:Middlewares/tensorflow/third_party/cmsis_nn/Include/Internal/arm_nn_compiler.h **** }
 1203              		.loc 3 242 5 is_stmt 0 view .LVU429
 1204              		.thumb
 1205              		.syntax unified
 1206              	.LBE363:
 1207              	.LBE362:
 268:Middlewares/tensorflow/third_party/cmsis_nn/Source/NNSupportFunctions/arm_nn_vec_mat_mult_t_svdf_s8.c **** 
 269:Middlewares/tensorflow/third_party/cmsis_nn/Source/NNSupportFunctions/arm_nn_vec_mat_mult_t_svdf_s8.c ****             acc_1 = SMLAD(ker_1, vec_1, acc_1);
 1208              		.loc 1 269 13 is_stmt 1 view .LVU430
 1209              	.LBB364:
 1210              	.LBI364:
 246:Middlewares/tensorflow/third_party/cmsis_nn/Include/Internal/arm_nn_compiler.h **** {
 1211              		.loc 3 246 31 view .LVU431
 1212              	.LBB365:
 248:Middlewares/tensorflow/third_party/cmsis_nn/Include/Internal/arm_nn_compiler.h **** 
 1213              		.loc 3 248 5 view .LVU432
 250:Middlewares/tensorflow/third_party/cmsis_nn/Include/Internal/arm_nn_compiler.h ****     return (result);
 1214              		.loc 3 250 5 view .LVU433
 1215              		.syntax unified
 1216              	@ 250 "Middlewares/tensorflow/third_party/cmsis_nn/Include/Internal/arm_nn_compiler.h" 1
 1217 014a 2BFB0927 		smlad r7, fp, r9, r2
 1218              	@ 0 "" 2
 1219              	.LVL76:
 251:Middlewares/tensorflow/third_party/cmsis_nn/Include/Internal/arm_nn_compiler.h **** }
 1220              		.loc 3 251 5 view .LVU434
 251:Middlewares/tensorflow/third_party/cmsis_nn/Include/Internal/arm_nn_compiler.h **** }
 1221              		.loc 3 251 5 is_stmt 0 view .LVU435
 1222              		.thumb
 1223              		.syntax unified
 1224              	.LBE365:
 1225              	.LBE364:
 270:Middlewares/tensorflow/third_party/cmsis_nn/Source/NNSupportFunctions/arm_nn_vec_mat_mult_t_svdf_s8.c ****             acc_1 = SMLAD(ker_0, vec_0, acc_1);
 1226              		.loc 1 270 13 is_stmt 1 view .LVU436
ARM GAS  /tmp/ccQr0DhO.s 			page 48


 1227              	.LBB366:
 1228              	.LBI366:
 246:Middlewares/tensorflow/third_party/cmsis_nn/Include/Internal/arm_nn_compiler.h **** {
 1229              		.loc 3 246 31 view .LVU437
 1230              	.LBB367:
 248:Middlewares/tensorflow/third_party/cmsis_nn/Include/Internal/arm_nn_compiler.h **** 
 1231              		.loc 3 248 5 view .LVU438
 250:Middlewares/tensorflow/third_party/cmsis_nn/Include/Internal/arm_nn_compiler.h ****     return (result);
 1232              		.loc 3 250 5 view .LVU439
 1233              		.syntax unified
 1234              	@ 250 "Middlewares/tensorflow/third_party/cmsis_nn/Include/Internal/arm_nn_compiler.h" 1
 1235 014e 2EFB0877 		smlad r7, lr, r8, r7
 1236              	@ 0 "" 2
 1237              	.LVL77:
 251:Middlewares/tensorflow/third_party/cmsis_nn/Include/Internal/arm_nn_compiler.h **** }
 1238              		.loc 3 251 5 view .LVU440
 251:Middlewares/tensorflow/third_party/cmsis_nn/Include/Internal/arm_nn_compiler.h **** }
 1239              		.loc 3 251 5 is_stmt 0 view .LVU441
 1240              		.thumb
 1241              		.syntax unified
 1242              	.LBE367:
 1243              	.LBE366:
 1244              		.loc 1 270 19 view .LVU442
 1245 0152 3A46     		mov	r2, r7
 1246              	.LVL78:
 251:Middlewares/tensorflow/third_party/cmsis_nn/Source/NNSupportFunctions/arm_nn_vec_mat_mult_t_svdf_s8.c ****         {
 1247              		.loc 1 251 48 is_stmt 1 view .LVU443
 251:Middlewares/tensorflow/third_party/cmsis_nn/Source/NNSupportFunctions/arm_nn_vec_mat_mult_t_svdf_s8.c ****         {
 1248              		.loc 1 251 61 is_stmt 0 view .LVU444
 1249 0154 0436     		adds	r6, r6, #4
 1250              	.LVL79:
 1251              	.L6:
 251:Middlewares/tensorflow/third_party/cmsis_nn/Source/NNSupportFunctions/arm_nn_vec_mat_mult_t_svdf_s8.c ****         {
 1252              		.loc 1 251 16 is_stmt 1 discriminator 1 view .LVU445
 251:Middlewares/tensorflow/third_party/cmsis_nn/Source/NNSupportFunctions/arm_nn_vec_mat_mult_t_svdf_s8.c ****         {
 1253              		.loc 1 251 29 is_stmt 0 discriminator 1 view .LVU446
 1254 0156 AAF10307 		sub	r7, r10, #3
 251:Middlewares/tensorflow/third_party/cmsis_nn/Source/NNSupportFunctions/arm_nn_vec_mat_mult_t_svdf_s8.c ****         {
 1255              		.loc 1 251 9 discriminator 1 view .LVU447
 1256 015a B742     		cmp	r7, r6
 1257 015c DFDC     		bgt	.L7
 251:Middlewares/tensorflow/third_party/cmsis_nn/Source/NNSupportFunctions/arm_nn_vec_mat_mult_t_svdf_s8.c ****         {
 1258              		.loc 1 251 9 discriminator 1 view .LVU448
 1259 015e DDF82480 		ldr	r8, [sp, #36]
 1260 0162 0BE0     		b	.L8
 1261              	.L9:
 1262              	.LBB368:
 271:Middlewares/tensorflow/third_party/cmsis_nn/Source/NNSupportFunctions/arm_nn_vec_mat_mult_t_svdf_s8.c ****         }
 272:Middlewares/tensorflow/third_party/cmsis_nn/Source/NNSupportFunctions/arm_nn_vec_mat_mult_t_svdf_s8.c **** 
 273:Middlewares/tensorflow/third_party/cmsis_nn/Source/NNSupportFunctions/arm_nn_vec_mat_mult_t_svdf_s8.c ****     #if defined(__ARMCC_VERSION) && (__ARMCC_VERSION >= 6010050)
 274:Middlewares/tensorflow/third_party/cmsis_nn/Source/NNSupportFunctions/arm_nn_vec_mat_mult_t_svdf_s8.c ****         #pragma clang loop unroll(disable)
 275:Middlewares/tensorflow/third_party/cmsis_nn/Source/NNSupportFunctions/arm_nn_vec_mat_mult_t_svdf_s8.c ****     #endif
 276:Middlewares/tensorflow/third_party/cmsis_nn/Source/NNSupportFunctions/arm_nn_vec_mat_mult_t_svdf_s8.c ****         for (; rhs_cols_idx < rhs_cols; ++rhs_cols_idx)
 277:Middlewares/tensorflow/third_party/cmsis_nn/Source/NNSupportFunctions/arm_nn_vec_mat_mult_t_svdf_s8.c ****         {
 278:Middlewares/tensorflow/third_party/cmsis_nn/Source/NNSupportFunctions/arm_nn_vec_mat_mult_t_svdf_s8.c ****             const int32_t lhs_temp = (*lhs_vec + lhs_offset);
 1263              		.loc 1 278 13 is_stmt 1 discriminator 2 view .LVU449
 1264              		.loc 1 278 39 is_stmt 0 discriminator 2 view .LVU450
ARM GAS  /tmp/ccQr0DhO.s 			page 49


 1265 0164 15F9017B 		ldrsb	r7, [r5], #1
 1266              	.LVL80:
 1267              		.loc 1 278 27 discriminator 2 view .LVU451
 1268 0168 4744     		add	r7, r7, r8
 1269              	.LVL81:
 279:Middlewares/tensorflow/third_party/cmsis_nn/Source/NNSupportFunctions/arm_nn_vec_mat_mult_t_svdf_s8.c ****             lhs_vec++;
 1270              		.loc 1 279 13 is_stmt 1 discriminator 2 view .LVU452
 280:Middlewares/tensorflow/third_party/cmsis_nn/Source/NNSupportFunctions/arm_nn_vec_mat_mult_t_svdf_s8.c ****             acc_0 += lhs_temp * (*rhs_0);
 1271              		.loc 1 280 13 discriminator 2 view .LVU453
 1272              		.loc 1 280 34 is_stmt 0 discriminator 2 view .LVU454
 1273 016a 11F901EB 		ldrsb	lr, [r1], #1
 1274              	.LVL82:
 1275              		.loc 1 280 19 discriminator 2 view .LVU455
 1276 016e 07FB0E00 		mla	r0, r7, lr, r0
 1277              	.LVL83:
 281:Middlewares/tensorflow/third_party/cmsis_nn/Source/NNSupportFunctions/arm_nn_vec_mat_mult_t_svdf_s8.c ****             rhs_0++;
 1278              		.loc 1 281 13 is_stmt 1 discriminator 2 view .LVU456
 282:Middlewares/tensorflow/third_party/cmsis_nn/Source/NNSupportFunctions/arm_nn_vec_mat_mult_t_svdf_s8.c ****             acc_1 += lhs_temp * (*rhs_1);
 1279              		.loc 1 282 13 discriminator 2 view .LVU457
 1280              		.loc 1 282 34 is_stmt 0 discriminator 2 view .LVU458
 1281 0172 13F901EB 		ldrsb	lr, [r3], #1
 1282              	.LVL84:
 1283              		.loc 1 282 19 discriminator 2 view .LVU459
 1284 0176 07FB0E22 		mla	r2, r7, lr, r2
 1285              	.LVL85:
 283:Middlewares/tensorflow/third_party/cmsis_nn/Source/NNSupportFunctions/arm_nn_vec_mat_mult_t_svdf_s8.c ****             rhs_1++;
 1286              		.loc 1 283 13 is_stmt 1 discriminator 2 view .LVU460
 1287              		.loc 1 283 13 is_stmt 0 discriminator 2 view .LVU461
 1288              	.LBE368:
 276:Middlewares/tensorflow/third_party/cmsis_nn/Source/NNSupportFunctions/arm_nn_vec_mat_mult_t_svdf_s8.c ****         {
 1289              		.loc 1 276 41 is_stmt 1 discriminator 2 view .LVU462
 1290 017a 0136     		adds	r6, r6, #1
 1291              	.LVL86:
 1292              	.L8:
 276:Middlewares/tensorflow/third_party/cmsis_nn/Source/NNSupportFunctions/arm_nn_vec_mat_mult_t_svdf_s8.c ****         {
 1293              		.loc 1 276 16 discriminator 1 view .LVU463
 276:Middlewares/tensorflow/third_party/cmsis_nn/Source/NNSupportFunctions/arm_nn_vec_mat_mult_t_svdf_s8.c ****         {
 1294              		.loc 1 276 9 is_stmt 0 discriminator 1 view .LVU464
 1295 017c 5645     		cmp	r6, r10
 1296 017e F1DB     		blt	.L9
 284:Middlewares/tensorflow/third_party/cmsis_nn/Source/NNSupportFunctions/arm_nn_vec_mat_mult_t_svdf_s8.c ****         }
 285:Middlewares/tensorflow/third_party/cmsis_nn/Source/NNSupportFunctions/arm_nn_vec_mat_mult_t_svdf_s8.c **** 
 286:Middlewares/tensorflow/third_party/cmsis_nn/Source/NNSupportFunctions/arm_nn_vec_mat_mult_t_svdf_s8.c ****         acc_0 = arm_nn_requantize(acc_0, dst_multiplier, dst_shift);
 1297              		.loc 1 286 9 is_stmt 1 view .LVU465
 1298              	.LVL87:
 1299              	.LBB369:
 1300              	.LBI369:
 593:Middlewares/tensorflow/third_party/cmsis_nn/Include/arm_nnsupportfunctions.h **** }
 594:Middlewares/tensorflow/third_party/cmsis_nn/Include/arm_nnsupportfunctions.h **** 
 595:Middlewares/tensorflow/third_party/cmsis_nn/Include/arm_nnsupportfunctions.h **** /**
 596:Middlewares/tensorflow/third_party/cmsis_nn/Include/arm_nnsupportfunctions.h ****   @brief         Read 2 int16 values from int16 pointer.
 597:Middlewares/tensorflow/third_party/cmsis_nn/Include/arm_nnsupportfunctions.h ****   @param[in]     in     pointer to address of input.
 598:Middlewares/tensorflow/third_party/cmsis_nn/Include/arm_nnsupportfunctions.h ****   @return        s32    value
 599:Middlewares/tensorflow/third_party/cmsis_nn/Include/arm_nnsupportfunctions.h ****  */
 600:Middlewares/tensorflow/third_party/cmsis_nn/Include/arm_nnsupportfunctions.h **** __STATIC_FORCEINLINE int32_t arm_nn_read_s16x2(const int16_t *in)
 601:Middlewares/tensorflow/third_party/cmsis_nn/Include/arm_nnsupportfunctions.h **** {
 602:Middlewares/tensorflow/third_party/cmsis_nn/Include/arm_nnsupportfunctions.h ****     int32_t val;
ARM GAS  /tmp/ccQr0DhO.s 			page 50


 603:Middlewares/tensorflow/third_party/cmsis_nn/Include/arm_nnsupportfunctions.h ****     memcpy(&val, in, 4);
 604:Middlewares/tensorflow/third_party/cmsis_nn/Include/arm_nnsupportfunctions.h **** 
 605:Middlewares/tensorflow/third_party/cmsis_nn/Include/arm_nnsupportfunctions.h ****     return (val);
 606:Middlewares/tensorflow/third_party/cmsis_nn/Include/arm_nnsupportfunctions.h **** }
 607:Middlewares/tensorflow/third_party/cmsis_nn/Include/arm_nnsupportfunctions.h **** 
 608:Middlewares/tensorflow/third_party/cmsis_nn/Include/arm_nnsupportfunctions.h **** /**
 609:Middlewares/tensorflow/third_party/cmsis_nn/Include/arm_nnsupportfunctions.h ****   @brief         Read 4 s8 values.
 610:Middlewares/tensorflow/third_party/cmsis_nn/Include/arm_nnsupportfunctions.h ****   @param[in]     in_s8       pointer to address of input.
 611:Middlewares/tensorflow/third_party/cmsis_nn/Include/arm_nnsupportfunctions.h ****   @return        s32 value
 612:Middlewares/tensorflow/third_party/cmsis_nn/Include/arm_nnsupportfunctions.h ****  */
 613:Middlewares/tensorflow/third_party/cmsis_nn/Include/arm_nnsupportfunctions.h **** __STATIC_FORCEINLINE int32_t arm_nn_read_s8x4(const int8_t *in_s8)
 614:Middlewares/tensorflow/third_party/cmsis_nn/Include/arm_nnsupportfunctions.h **** {
 615:Middlewares/tensorflow/third_party/cmsis_nn/Include/arm_nnsupportfunctions.h ****     int32_t val;
