ARM GAS  /tmp/ccapEGHH.s 			page 1


   1              		.cpu cortex-m4
   2              		.eabi_attribute 27, 1
   3              		.eabi_attribute 28, 1
   4              		.eabi_attribute 20, 1
   5              		.eabi_attribute 21, 1
   6              		.eabi_attribute 23, 3
   7              		.eabi_attribute 24, 1
   8              		.eabi_attribute 25, 1
   9              		.eabi_attribute 26, 1
  10              		.eabi_attribute 30, 1
  11              		.eabi_attribute 34, 1
  12              		.eabi_attribute 18, 4
  13              		.file	"arm_depthwise_conv_s16.c"
  14              		.text
  15              	.Ltext0:
  16              		.cfi_sections	.debug_frame
  17              		.section	.text.depthwise_conv_s16_generic_s16,"ax",%progbits
  18              		.align	1
  19              		.arch armv7e-m
  20              		.syntax unified
  21              		.thumb
  22              		.thumb_func
  23              		.fpu fpv4-sp-d16
  25              	depthwise_conv_s16_generic_s16:
  26              	.LVL0:
  27              	.LFB48:
  28              		.file 1 "Middlewares/tensorflow/third_party/cmsis_nn/Source/ConvolutionFunctions/arm_depthwise_con
   1:Middlewares/tensorflow/third_party/cmsis_nn/Source/ConvolutionFunctions/arm_depthwise_conv_s16.c **** /*
   2:Middlewares/tensorflow/third_party/cmsis_nn/Source/ConvolutionFunctions/arm_depthwise_conv_s16.c ****  * SPDX-FileCopyrightText: Copyright 2022 Arm Limited and/or its affiliates <open-source-office@arm
   3:Middlewares/tensorflow/third_party/cmsis_nn/Source/ConvolutionFunctions/arm_depthwise_conv_s16.c ****  *
   4:Middlewares/tensorflow/third_party/cmsis_nn/Source/ConvolutionFunctions/arm_depthwise_conv_s16.c ****  * SPDX-License-Identifier: Apache-2.0
   5:Middlewares/tensorflow/third_party/cmsis_nn/Source/ConvolutionFunctions/arm_depthwise_conv_s16.c ****  *
   6:Middlewares/tensorflow/third_party/cmsis_nn/Source/ConvolutionFunctions/arm_depthwise_conv_s16.c ****  * Licensed under the Apache License, Version 2.0 (the License); you may
   7:Middlewares/tensorflow/third_party/cmsis_nn/Source/ConvolutionFunctions/arm_depthwise_conv_s16.c ****  * not use this file except in compliance with the License.
   8:Middlewares/tensorflow/third_party/cmsis_nn/Source/ConvolutionFunctions/arm_depthwise_conv_s16.c ****  * You may obtain a copy of the License at
   9:Middlewares/tensorflow/third_party/cmsis_nn/Source/ConvolutionFunctions/arm_depthwise_conv_s16.c ****  *
  10:Middlewares/tensorflow/third_party/cmsis_nn/Source/ConvolutionFunctions/arm_depthwise_conv_s16.c ****  * www.apache.org/licenses/LICENSE-2.0
  11:Middlewares/tensorflow/third_party/cmsis_nn/Source/ConvolutionFunctions/arm_depthwise_conv_s16.c ****  *
  12:Middlewares/tensorflow/third_party/cmsis_nn/Source/ConvolutionFunctions/arm_depthwise_conv_s16.c ****  * Unless required by applicable law or agreed to in writing, software
  13:Middlewares/tensorflow/third_party/cmsis_nn/Source/ConvolutionFunctions/arm_depthwise_conv_s16.c ****  * distributed under the License is distributed on an AS IS BASIS, WITHOUT
  14:Middlewares/tensorflow/third_party/cmsis_nn/Source/ConvolutionFunctions/arm_depthwise_conv_s16.c ****  * WARRANTIES OR CONDITIONS OF ANY KIND, either express or implied.
  15:Middlewares/tensorflow/third_party/cmsis_nn/Source/ConvolutionFunctions/arm_depthwise_conv_s16.c ****  * See the License for the specific language governing permissions and
  16:Middlewares/tensorflow/third_party/cmsis_nn/Source/ConvolutionFunctions/arm_depthwise_conv_s16.c ****  * limitations under the License.
  17:Middlewares/tensorflow/third_party/cmsis_nn/Source/ConvolutionFunctions/arm_depthwise_conv_s16.c ****  */
  18:Middlewares/tensorflow/third_party/cmsis_nn/Source/ConvolutionFunctions/arm_depthwise_conv_s16.c **** 
  19:Middlewares/tensorflow/third_party/cmsis_nn/Source/ConvolutionFunctions/arm_depthwise_conv_s16.c **** /* ----------------------------------------------------------------------
  20:Middlewares/tensorflow/third_party/cmsis_nn/Source/ConvolutionFunctions/arm_depthwise_conv_s16.c ****  * Project:      CMSIS NN Library
  21:Middlewares/tensorflow/third_party/cmsis_nn/Source/ConvolutionFunctions/arm_depthwise_conv_s16.c ****  * Title:        arm_depthwise_conv_s16.c
  22:Middlewares/tensorflow/third_party/cmsis_nn/Source/ConvolutionFunctions/arm_depthwise_conv_s16.c ****  * Description:  s16 version of depthwise convolution.
  23:Middlewares/tensorflow/third_party/cmsis_nn/Source/ConvolutionFunctions/arm_depthwise_conv_s16.c ****  *
  24:Middlewares/tensorflow/third_party/cmsis_nn/Source/ConvolutionFunctions/arm_depthwise_conv_s16.c ****  * $Date:        26 October 2022
  25:Middlewares/tensorflow/third_party/cmsis_nn/Source/ConvolutionFunctions/arm_depthwise_conv_s16.c ****  * $Revision:    V.2.0.1
  26:Middlewares/tensorflow/third_party/cmsis_nn/Source/ConvolutionFunctions/arm_depthwise_conv_s16.c ****  *
  27:Middlewares/tensorflow/third_party/cmsis_nn/Source/ConvolutionFunctions/arm_depthwise_conv_s16.c ****  * Target Processor:  Cortex-M CPUs
  28:Middlewares/tensorflow/third_party/cmsis_nn/Source/ConvolutionFunctions/arm_depthwise_conv_s16.c ****  *
  29:Middlewares/tensorflow/third_party/cmsis_nn/Source/ConvolutionFunctions/arm_depthwise_conv_s16.c ****  * -------------------------------------------------------------------- */
  30:Middlewares/tensorflow/third_party/cmsis_nn/Source/ConvolutionFunctions/arm_depthwise_conv_s16.c **** 
ARM GAS  /tmp/ccapEGHH.s 			page 2


  31:Middlewares/tensorflow/third_party/cmsis_nn/Source/ConvolutionFunctions/arm_depthwise_conv_s16.c **** #include "arm_nnfunctions.h"
  32:Middlewares/tensorflow/third_party/cmsis_nn/Source/ConvolutionFunctions/arm_depthwise_conv_s16.c **** #include "arm_nnsupportfunctions.h"
  33:Middlewares/tensorflow/third_party/cmsis_nn/Source/ConvolutionFunctions/arm_depthwise_conv_s16.c **** 
  34:Middlewares/tensorflow/third_party/cmsis_nn/Source/ConvolutionFunctions/arm_depthwise_conv_s16.c **** /**
  35:Middlewares/tensorflow/third_party/cmsis_nn/Source/ConvolutionFunctions/arm_depthwise_conv_s16.c ****  *  @ingroup Public
  36:Middlewares/tensorflow/third_party/cmsis_nn/Source/ConvolutionFunctions/arm_depthwise_conv_s16.c ****  */
  37:Middlewares/tensorflow/third_party/cmsis_nn/Source/ConvolutionFunctions/arm_depthwise_conv_s16.c **** 
  38:Middlewares/tensorflow/third_party/cmsis_nn/Source/ConvolutionFunctions/arm_depthwise_conv_s16.c **** /**
  39:Middlewares/tensorflow/third_party/cmsis_nn/Source/ConvolutionFunctions/arm_depthwise_conv_s16.c ****  * @addtogroup NNConv
  40:Middlewares/tensorflow/third_party/cmsis_nn/Source/ConvolutionFunctions/arm_depthwise_conv_s16.c ****  * @{
  41:Middlewares/tensorflow/third_party/cmsis_nn/Source/ConvolutionFunctions/arm_depthwise_conv_s16.c ****  */
  42:Middlewares/tensorflow/third_party/cmsis_nn/Source/ConvolutionFunctions/arm_depthwise_conv_s16.c **** 
  43:Middlewares/tensorflow/third_party/cmsis_nn/Source/ConvolutionFunctions/arm_depthwise_conv_s16.c **** static void __attribute__((unused)) depthwise_conv_s16_mult_4_s16(const int16_t *input,
  44:Middlewares/tensorflow/third_party/cmsis_nn/Source/ConvolutionFunctions/arm_depthwise_conv_s16.c ****                                                                   const int32_t input_x,
  45:Middlewares/tensorflow/third_party/cmsis_nn/Source/ConvolutionFunctions/arm_depthwise_conv_s16.c ****                                                                   const int32_t input_y,
  46:Middlewares/tensorflow/third_party/cmsis_nn/Source/ConvolutionFunctions/arm_depthwise_conv_s16.c ****                                                                   const int32_t input_ch,
  47:Middlewares/tensorflow/third_party/cmsis_nn/Source/ConvolutionFunctions/arm_depthwise_conv_s16.c ****                                                                   const int8_t *kernel,
  48:Middlewares/tensorflow/third_party/cmsis_nn/Source/ConvolutionFunctions/arm_depthwise_conv_s16.c ****                                                                   const int32_t output_ch,
  49:Middlewares/tensorflow/third_party/cmsis_nn/Source/ConvolutionFunctions/arm_depthwise_conv_s16.c ****                                                                   const int32_t ch_mult,
  50:Middlewares/tensorflow/third_party/cmsis_nn/Source/ConvolutionFunctions/arm_depthwise_conv_s16.c ****                                                                   const int32_t kernel_x,
  51:Middlewares/tensorflow/third_party/cmsis_nn/Source/ConvolutionFunctions/arm_depthwise_conv_s16.c ****                                                                   const int32_t kernel_y,
  52:Middlewares/tensorflow/third_party/cmsis_nn/Source/ConvolutionFunctions/arm_depthwise_conv_s16.c ****                                                                   const int32_t pad_x,
  53:Middlewares/tensorflow/third_party/cmsis_nn/Source/ConvolutionFunctions/arm_depthwise_conv_s16.c ****                                                                   const int32_t pad_y,
  54:Middlewares/tensorflow/third_party/cmsis_nn/Source/ConvolutionFunctions/arm_depthwise_conv_s16.c ****                                                                   const int32_t stride_x,
  55:Middlewares/tensorflow/third_party/cmsis_nn/Source/ConvolutionFunctions/arm_depthwise_conv_s16.c ****                                                                   const int32_t stride_y,
  56:Middlewares/tensorflow/third_party/cmsis_nn/Source/ConvolutionFunctions/arm_depthwise_conv_s16.c ****                                                                   const int64_t *bias,
  57:Middlewares/tensorflow/third_party/cmsis_nn/Source/ConvolutionFunctions/arm_depthwise_conv_s16.c ****                                                                   int16_t *output,
  58:Middlewares/tensorflow/third_party/cmsis_nn/Source/ConvolutionFunctions/arm_depthwise_conv_s16.c ****                                                                   const int32_t *output_shift,
  59:Middlewares/tensorflow/third_party/cmsis_nn/Source/ConvolutionFunctions/arm_depthwise_conv_s16.c ****                                                                   const int32_t *output_mult,
  60:Middlewares/tensorflow/third_party/cmsis_nn/Source/ConvolutionFunctions/arm_depthwise_conv_s16.c ****                                                                   const int32_t output_x,
  61:Middlewares/tensorflow/third_party/cmsis_nn/Source/ConvolutionFunctions/arm_depthwise_conv_s16.c ****                                                                   const int32_t output_y,
  62:Middlewares/tensorflow/third_party/cmsis_nn/Source/ConvolutionFunctions/arm_depthwise_conv_s16.c ****                                                                   const int32_t output_activation_m
  63:Middlewares/tensorflow/third_party/cmsis_nn/Source/ConvolutionFunctions/arm_depthwise_conv_s16.c ****                                                                   const int32_t output_activation_m
  64:Middlewares/tensorflow/third_party/cmsis_nn/Source/ConvolutionFunctions/arm_depthwise_conv_s16.c **** {
  65:Middlewares/tensorflow/third_party/cmsis_nn/Source/ConvolutionFunctions/arm_depthwise_conv_s16.c ****     for (int32_t in_h = -pad_y, out_h = 0, out_idx = 0; out_h < output_y; in_h += stride_y, ++out_h
  66:Middlewares/tensorflow/third_party/cmsis_nn/Source/ConvolutionFunctions/arm_depthwise_conv_s16.c ****     {
  67:Middlewares/tensorflow/third_party/cmsis_nn/Source/ConvolutionFunctions/arm_depthwise_conv_s16.c ****         for (int32_t in_w = -pad_x, out_w = 0, ker_h_start = MAX(0, -in_h); out_w < output_x; in_w 
  68:Middlewares/tensorflow/third_party/cmsis_nn/Source/ConvolutionFunctions/arm_depthwise_conv_s16.c ****         {
  69:Middlewares/tensorflow/third_party/cmsis_nn/Source/ConvolutionFunctions/arm_depthwise_conv_s16.c ****             for (int32_t in_ch = 0, out_ch = 0, ker_w_start = MAX(0, -in_w); out_ch < output_ch;
  70:Middlewares/tensorflow/third_party/cmsis_nn/Source/ConvolutionFunctions/arm_depthwise_conv_s16.c ****                  ++in_ch, out_ch += ch_mult)
  71:Middlewares/tensorflow/third_party/cmsis_nn/Source/ConvolutionFunctions/arm_depthwise_conv_s16.c ****             {
  72:Middlewares/tensorflow/third_party/cmsis_nn/Source/ConvolutionFunctions/arm_depthwise_conv_s16.c ****                 for (int mult_tile = 0; mult_tile < ch_mult; mult_tile += 4)
  73:Middlewares/tensorflow/third_party/cmsis_nn/Source/ConvolutionFunctions/arm_depthwise_conv_s16.c ****                 {
  74:Middlewares/tensorflow/third_party/cmsis_nn/Source/ConvolutionFunctions/arm_depthwise_conv_s16.c ****                     int32_t out_buff32[4] = {REDUCE_MULTIPLIER(output_mult[out_ch + 0 + mult_tile])
  75:Middlewares/tensorflow/third_party/cmsis_nn/Source/ConvolutionFunctions/arm_depthwise_conv_s16.c ****                                              REDUCE_MULTIPLIER(output_mult[out_ch + 1 + mult_tile])
  76:Middlewares/tensorflow/third_party/cmsis_nn/Source/ConvolutionFunctions/arm_depthwise_conv_s16.c ****                                              REDUCE_MULTIPLIER(output_mult[out_ch + 2 + mult_tile])
  77:Middlewares/tensorflow/third_party/cmsis_nn/Source/ConvolutionFunctions/arm_depthwise_conv_s16.c ****                                              REDUCE_MULTIPLIER(output_mult[out_ch + 3 + mult_tile])
  78:Middlewares/tensorflow/third_party/cmsis_nn/Source/ConvolutionFunctions/arm_depthwise_conv_s16.c **** 
  79:Middlewares/tensorflow/third_party/cmsis_nn/Source/ConvolutionFunctions/arm_depthwise_conv_s16.c ****                     int64_t out_buff[4] = {0, 0, 0, 0};
  80:Middlewares/tensorflow/third_party/cmsis_nn/Source/ConvolutionFunctions/arm_depthwise_conv_s16.c **** 
  81:Middlewares/tensorflow/third_party/cmsis_nn/Source/ConvolutionFunctions/arm_depthwise_conv_s16.c ****                     if (bias)
  82:Middlewares/tensorflow/third_party/cmsis_nn/Source/ConvolutionFunctions/arm_depthwise_conv_s16.c ****                     {
  83:Middlewares/tensorflow/third_party/cmsis_nn/Source/ConvolutionFunctions/arm_depthwise_conv_s16.c ****                         out_buff[0] = bias[out_ch + 0 + mult_tile];
  84:Middlewares/tensorflow/third_party/cmsis_nn/Source/ConvolutionFunctions/arm_depthwise_conv_s16.c ****                         out_buff[1] = bias[out_ch + 1 + mult_tile];
  85:Middlewares/tensorflow/third_party/cmsis_nn/Source/ConvolutionFunctions/arm_depthwise_conv_s16.c ****                         out_buff[2] = bias[out_ch + 2 + mult_tile];
  86:Middlewares/tensorflow/third_party/cmsis_nn/Source/ConvolutionFunctions/arm_depthwise_conv_s16.c ****                         out_buff[3] = bias[out_ch + 3 + mult_tile];
  87:Middlewares/tensorflow/third_party/cmsis_nn/Source/ConvolutionFunctions/arm_depthwise_conv_s16.c ****                     }
ARM GAS  /tmp/ccapEGHH.s 			page 3


  88:Middlewares/tensorflow/third_party/cmsis_nn/Source/ConvolutionFunctions/arm_depthwise_conv_s16.c **** 
  89:Middlewares/tensorflow/third_party/cmsis_nn/Source/ConvolutionFunctions/arm_depthwise_conv_s16.c ****                     for (int32_t ker_h = ker_h_start; ker_h < MIN(kernel_y, input_y - in_h); ++ker_
  90:Middlewares/tensorflow/third_party/cmsis_nn/Source/ConvolutionFunctions/arm_depthwise_conv_s16.c ****                     {
  91:Middlewares/tensorflow/third_party/cmsis_nn/Source/ConvolutionFunctions/arm_depthwise_conv_s16.c ****                         int32_t ker_idx = ker_h * (output_ch * kernel_x) + ker_w_start * output_ch 
  92:Middlewares/tensorflow/third_party/cmsis_nn/Source/ConvolutionFunctions/arm_depthwise_conv_s16.c ****                         int32_t in_idx = (in_h + ker_h) * (input_ch * input_x) + in_w * input_ch + 
  93:Middlewares/tensorflow/third_party/cmsis_nn/Source/ConvolutionFunctions/arm_depthwise_conv_s16.c **** #if defined(__ARMCC_VERSION) && (__ARMCC_VERSION >= 6010050)
  94:Middlewares/tensorflow/third_party/cmsis_nn/Source/ConvolutionFunctions/arm_depthwise_conv_s16.c **** #pragma clang loop unroll(disable)
  95:Middlewares/tensorflow/third_party/cmsis_nn/Source/ConvolutionFunctions/arm_depthwise_conv_s16.c **** #endif
  96:Middlewares/tensorflow/third_party/cmsis_nn/Source/ConvolutionFunctions/arm_depthwise_conv_s16.c ****                         for (int32_t ker_w = ker_w_start; ker_w < MIN(kernel_x, input_x - in_w);
  97:Middlewares/tensorflow/third_party/cmsis_nn/Source/ConvolutionFunctions/arm_depthwise_conv_s16.c ****                              ++ker_w, ker_idx += output_ch)
  98:Middlewares/tensorflow/third_party/cmsis_nn/Source/ConvolutionFunctions/arm_depthwise_conv_s16.c ****                         {
  99:Middlewares/tensorflow/third_party/cmsis_nn/Source/ConvolutionFunctions/arm_depthwise_conv_s16.c ****                             // TODO: Unroll of 4 with 64 bit accumulator will probably result in to
 100:Middlewares/tensorflow/third_party/cmsis_nn/Source/ConvolutionFunctions/arm_depthwise_conv_s16.c ****                             // spills. Try with unroll of 2 when enabling this.
 101:Middlewares/tensorflow/third_party/cmsis_nn/Source/ConvolutionFunctions/arm_depthwise_conv_s16.c ****                             int32_t in_val = input[in_idx + ker_w * input_ch];
 102:Middlewares/tensorflow/third_party/cmsis_nn/Source/ConvolutionFunctions/arm_depthwise_conv_s16.c ****                             out_buff[0] += in_val * kernel[ker_idx + 0 + mult_tile];
 103:Middlewares/tensorflow/third_party/cmsis_nn/Source/ConvolutionFunctions/arm_depthwise_conv_s16.c ****                             out_buff[1] += in_val * kernel[ker_idx + 1 + mult_tile];
 104:Middlewares/tensorflow/third_party/cmsis_nn/Source/ConvolutionFunctions/arm_depthwise_conv_s16.c ****                             out_buff[2] += in_val * kernel[ker_idx + 2 + mult_tile];
 105:Middlewares/tensorflow/third_party/cmsis_nn/Source/ConvolutionFunctions/arm_depthwise_conv_s16.c ****                             out_buff[3] += in_val * kernel[ker_idx + 3 + mult_tile];
 106:Middlewares/tensorflow/third_party/cmsis_nn/Source/ConvolutionFunctions/arm_depthwise_conv_s16.c ****                         }
 107:Middlewares/tensorflow/third_party/cmsis_nn/Source/ConvolutionFunctions/arm_depthwise_conv_s16.c ****                     }
 108:Middlewares/tensorflow/third_party/cmsis_nn/Source/ConvolutionFunctions/arm_depthwise_conv_s16.c **** 
 109:Middlewares/tensorflow/third_party/cmsis_nn/Source/ConvolutionFunctions/arm_depthwise_conv_s16.c ****                     out_buff32[0] =
 110:Middlewares/tensorflow/third_party/cmsis_nn/Source/ConvolutionFunctions/arm_depthwise_conv_s16.c ****                         arm_nn_requantize_s64(out_buff[0], out_buff32[0], output_shift[out_ch + 0 +
 111:Middlewares/tensorflow/third_party/cmsis_nn/Source/ConvolutionFunctions/arm_depthwise_conv_s16.c ****                     out_buff32[1] =
 112:Middlewares/tensorflow/third_party/cmsis_nn/Source/ConvolutionFunctions/arm_depthwise_conv_s16.c ****                         arm_nn_requantize_s64(out_buff[1], out_buff32[1], output_shift[out_ch + 1 +
 113:Middlewares/tensorflow/third_party/cmsis_nn/Source/ConvolutionFunctions/arm_depthwise_conv_s16.c ****                     out_buff32[2] =
 114:Middlewares/tensorflow/third_party/cmsis_nn/Source/ConvolutionFunctions/arm_depthwise_conv_s16.c ****                         arm_nn_requantize_s64(out_buff[2], out_buff32[2], output_shift[out_ch + 2 +
 115:Middlewares/tensorflow/third_party/cmsis_nn/Source/ConvolutionFunctions/arm_depthwise_conv_s16.c ****                     out_buff32[3] =
 116:Middlewares/tensorflow/third_party/cmsis_nn/Source/ConvolutionFunctions/arm_depthwise_conv_s16.c ****                         arm_nn_requantize_s64(out_buff[3], out_buff32[3], output_shift[out_ch + 3 +
 117:Middlewares/tensorflow/third_party/cmsis_nn/Source/ConvolutionFunctions/arm_depthwise_conv_s16.c **** 
 118:Middlewares/tensorflow/third_party/cmsis_nn/Source/ConvolutionFunctions/arm_depthwise_conv_s16.c ****                     out_buff32[0] = MIN(MAX(out_buff32[0], output_activation_min), output_activatio
 119:Middlewares/tensorflow/third_party/cmsis_nn/Source/ConvolutionFunctions/arm_depthwise_conv_s16.c ****                     out_buff32[1] = MIN(MAX(out_buff32[1], output_activation_min), output_activatio
 120:Middlewares/tensorflow/third_party/cmsis_nn/Source/ConvolutionFunctions/arm_depthwise_conv_s16.c ****                     out_buff32[2] = MIN(MAX(out_buff32[2], output_activation_min), output_activatio
 121:Middlewares/tensorflow/third_party/cmsis_nn/Source/ConvolutionFunctions/arm_depthwise_conv_s16.c ****                     out_buff32[3] = MIN(MAX(out_buff32[3], output_activation_min), output_activatio
 122:Middlewares/tensorflow/third_party/cmsis_nn/Source/ConvolutionFunctions/arm_depthwise_conv_s16.c **** 
 123:Middlewares/tensorflow/third_party/cmsis_nn/Source/ConvolutionFunctions/arm_depthwise_conv_s16.c ****                     output[out_idx++] = (int16_t)out_buff32[0];
 124:Middlewares/tensorflow/third_party/cmsis_nn/Source/ConvolutionFunctions/arm_depthwise_conv_s16.c ****                     output[out_idx++] = (int16_t)out_buff32[1];
 125:Middlewares/tensorflow/third_party/cmsis_nn/Source/ConvolutionFunctions/arm_depthwise_conv_s16.c ****                     output[out_idx++] = (int16_t)out_buff32[2];
 126:Middlewares/tensorflow/third_party/cmsis_nn/Source/ConvolutionFunctions/arm_depthwise_conv_s16.c ****                     output[out_idx++] = (int16_t)out_buff32[3];
 127:Middlewares/tensorflow/third_party/cmsis_nn/Source/ConvolutionFunctions/arm_depthwise_conv_s16.c ****                 }
 128:Middlewares/tensorflow/third_party/cmsis_nn/Source/ConvolutionFunctions/arm_depthwise_conv_s16.c ****             }
 129:Middlewares/tensorflow/third_party/cmsis_nn/Source/ConvolutionFunctions/arm_depthwise_conv_s16.c ****         }
 130:Middlewares/tensorflow/third_party/cmsis_nn/Source/ConvolutionFunctions/arm_depthwise_conv_s16.c ****     }
 131:Middlewares/tensorflow/third_party/cmsis_nn/Source/ConvolutionFunctions/arm_depthwise_conv_s16.c **** }
 132:Middlewares/tensorflow/third_party/cmsis_nn/Source/ConvolutionFunctions/arm_depthwise_conv_s16.c **** 
 133:Middlewares/tensorflow/third_party/cmsis_nn/Source/ConvolutionFunctions/arm_depthwise_conv_s16.c **** static void depthwise_conv_s16_generic_s16(const int16_t *input,
 134:Middlewares/tensorflow/third_party/cmsis_nn/Source/ConvolutionFunctions/arm_depthwise_conv_s16.c ****                                            const uint16_t input_batches,
 135:Middlewares/tensorflow/third_party/cmsis_nn/Source/ConvolutionFunctions/arm_depthwise_conv_s16.c ****                                            const uint16_t input_x,
 136:Middlewares/tensorflow/third_party/cmsis_nn/Source/ConvolutionFunctions/arm_depthwise_conv_s16.c ****                                            const uint16_t input_y,
 137:Middlewares/tensorflow/third_party/cmsis_nn/Source/ConvolutionFunctions/arm_depthwise_conv_s16.c ****                                            const uint16_t input_ch,
 138:Middlewares/tensorflow/third_party/cmsis_nn/Source/ConvolutionFunctions/arm_depthwise_conv_s16.c ****                                            const int8_t *kernel,
 139:Middlewares/tensorflow/third_party/cmsis_nn/Source/ConvolutionFunctions/arm_depthwise_conv_s16.c ****                                            const uint16_t ch_mult,
 140:Middlewares/tensorflow/third_party/cmsis_nn/Source/ConvolutionFunctions/arm_depthwise_conv_s16.c ****                                            const uint16_t kernel_x,
 141:Middlewares/tensorflow/third_party/cmsis_nn/Source/ConvolutionFunctions/arm_depthwise_conv_s16.c ****                                            const uint16_t kernel_y,
 142:Middlewares/tensorflow/third_party/cmsis_nn/Source/ConvolutionFunctions/arm_depthwise_conv_s16.c ****                                            const uint16_t pad_x,
 143:Middlewares/tensorflow/third_party/cmsis_nn/Source/ConvolutionFunctions/arm_depthwise_conv_s16.c ****                                            const uint16_t pad_y,
 144:Middlewares/tensorflow/third_party/cmsis_nn/Source/ConvolutionFunctions/arm_depthwise_conv_s16.c ****                                            const uint16_t stride_x,
ARM GAS  /tmp/ccapEGHH.s 			page 4


 145:Middlewares/tensorflow/third_party/cmsis_nn/Source/ConvolutionFunctions/arm_depthwise_conv_s16.c ****                                            const uint16_t stride_y,
 146:Middlewares/tensorflow/third_party/cmsis_nn/Source/ConvolutionFunctions/arm_depthwise_conv_s16.c ****                                            const int64_t *bias,
 147:Middlewares/tensorflow/third_party/cmsis_nn/Source/ConvolutionFunctions/arm_depthwise_conv_s16.c ****                                            int16_t *output,
 148:Middlewares/tensorflow/third_party/cmsis_nn/Source/ConvolutionFunctions/arm_depthwise_conv_s16.c ****                                            const int32_t *output_shift,
 149:Middlewares/tensorflow/third_party/cmsis_nn/Source/ConvolutionFunctions/arm_depthwise_conv_s16.c ****                                            const int32_t *output_mult,
 150:Middlewares/tensorflow/third_party/cmsis_nn/Source/ConvolutionFunctions/arm_depthwise_conv_s16.c ****                                            const uint16_t output_x,
 151:Middlewares/tensorflow/third_party/cmsis_nn/Source/ConvolutionFunctions/arm_depthwise_conv_s16.c ****                                            const uint16_t output_y,
 152:Middlewares/tensorflow/third_party/cmsis_nn/Source/ConvolutionFunctions/arm_depthwise_conv_s16.c ****                                            const int32_t output_activation_min,
 153:Middlewares/tensorflow/third_party/cmsis_nn/Source/ConvolutionFunctions/arm_depthwise_conv_s16.c ****                                            const int32_t output_activation_max,
 154:Middlewares/tensorflow/third_party/cmsis_nn/Source/ConvolutionFunctions/arm_depthwise_conv_s16.c ****                                            const uint16_t dilation_x,
 155:Middlewares/tensorflow/third_party/cmsis_nn/Source/ConvolutionFunctions/arm_depthwise_conv_s16.c ****                                            const uint16_t dilation_y)
 156:Middlewares/tensorflow/third_party/cmsis_nn/Source/ConvolutionFunctions/arm_depthwise_conv_s16.c **** 
 157:Middlewares/tensorflow/third_party/cmsis_nn/Source/ConvolutionFunctions/arm_depthwise_conv_s16.c **** {
  29              		.loc 1 157 1 view -0
  30              		.cfi_startproc
  31              		@ args = 76, pretend = 0, frame = 96
  32              		@ frame_needed = 0, uses_anonymous_args = 0
  33              		.loc 1 157 1 is_stmt 0 view .LVU1
  34 0000 2DE9F04F 		push	{r4, r5, r6, r7, r8, r9, r10, fp, lr}
  35              	.LCFI0:
  36              		.cfi_def_cfa_offset 36
  37              		.cfi_offset 4, -36
  38              		.cfi_offset 5, -32
  39              		.cfi_offset 6, -28
  40              		.cfi_offset 7, -24
  41              		.cfi_offset 8, -20
  42              		.cfi_offset 9, -16
  43              		.cfi_offset 10, -12
  44              		.cfi_offset 11, -8
  45              		.cfi_offset 14, -4
  46 0004 99B0     		sub	sp, sp, #100
  47              	.LCFI1:
  48              		.cfi_def_cfa_offset 136
  49 0006 0390     		str	r0, [sp, #12]
  50 0008 1191     		str	r1, [sp, #68]
  51 000a 0192     		str	r2, [sp, #4]
  52 000c 0B93     		str	r3, [sp, #44]
  53 000e BDF88830 		ldrh	r3, [sp, #136]
  54              	.LVL1:
  55              		.loc 1 157 1 view .LVU2
  56 0012 1093     		str	r3, [sp, #64]
  57 0014 BDF89030 		ldrh	r3, [sp, #144]
  58 0018 0993     		str	r3, [sp, #36]
  59 001a BDF89430 		ldrh	r3, [sp, #148]
  60 001e 0293     		str	r3, [sp, #8]
  61 0020 BDF89830 		ldrh	r3, [sp, #152]
  62 0024 0C93     		str	r3, [sp, #48]
  63 0026 BDF89C30 		ldrh	r3, [sp, #156]
  64 002a 1293     		str	r3, [sp, #72]
  65 002c BDF8A030 		ldrh	r3, [sp, #160]
  66 0030 1393     		str	r3, [sp, #76]
  67 0032 BDF8A430 		ldrh	r3, [sp, #164]
  68 0036 1493     		str	r3, [sp, #80]
  69 0038 BDF8A830 		ldrh	r3, [sp, #168]
  70 003c 1593     		str	r3, [sp, #84]
  71 003e BDF8BC30 		ldrh	r3, [sp, #188]
  72 0042 1693     		str	r3, [sp, #88]
ARM GAS  /tmp/ccapEGHH.s 			page 5


  73 0044 BDF8C030 		ldrh	r3, [sp, #192]
  74 0048 1793     		str	r3, [sp, #92]
  75 004a BDF8CCB0 		ldrh	fp, [sp, #204]
  76 004e BDF8D030 		ldrh	r3, [sp, #208]
  77 0052 0693     		str	r3, [sp, #24]
 158:Middlewares/tensorflow/third_party/cmsis_nn/Source/ConvolutionFunctions/arm_depthwise_conv_s16.c ****     for (int i_batch = 0; i_batch < input_batches; i_batch++)
  78              		.loc 1 158 5 is_stmt 1 view .LVU3
  79              	.LBB18:
  80              		.loc 1 158 10 view .LVU4
  81              	.LVL2:
  82              		.loc 1 158 14 is_stmt 0 view .LVU5
  83 0054 0023     		movs	r3, #0
  84 0056 0F93     		str	r3, [sp, #60]
  85              		.loc 1 158 5 view .LVU6
  86 0058 0EE1     		b	.L2
  87              	.LVL3:
  88              	.L23:
  89              	.LBB19:
  90              	.LBB20:
  91              	.LBB21:
  92              	.LBB22:
  93              	.LBB23:
  94              	.LBB24:
  95              	.LBB25:
 159:Middlewares/tensorflow/third_party/cmsis_nn/Source/ConvolutionFunctions/arm_depthwise_conv_s16.c ****     {
 160:Middlewares/tensorflow/third_party/cmsis_nn/Source/ConvolutionFunctions/arm_depthwise_conv_s16.c ****         for (int i_out_y = 0; i_out_y < output_y; i_out_y++)
 161:Middlewares/tensorflow/third_party/cmsis_nn/Source/ConvolutionFunctions/arm_depthwise_conv_s16.c ****         {
 162:Middlewares/tensorflow/third_party/cmsis_nn/Source/ConvolutionFunctions/arm_depthwise_conv_s16.c ****             const int16_t base_idx_y = (i_out_y * stride_y) - pad_y;
 163:Middlewares/tensorflow/third_party/cmsis_nn/Source/ConvolutionFunctions/arm_depthwise_conv_s16.c ****             for (int i_out_x = 0; i_out_x < output_x; i_out_x++)
 164:Middlewares/tensorflow/third_party/cmsis_nn/Source/ConvolutionFunctions/arm_depthwise_conv_s16.c ****             {
 165:Middlewares/tensorflow/third_party/cmsis_nn/Source/ConvolutionFunctions/arm_depthwise_conv_s16.c ****                 const int16_t base_idx_x = (i_out_x * stride_x) - pad_x;
 166:Middlewares/tensorflow/third_party/cmsis_nn/Source/ConvolutionFunctions/arm_depthwise_conv_s16.c ****                 for (int i_input_ch = 0; i_input_ch < input_ch; i_input_ch++)
 167:Middlewares/tensorflow/third_party/cmsis_nn/Source/ConvolutionFunctions/arm_depthwise_conv_s16.c ****                 {
 168:Middlewares/tensorflow/third_party/cmsis_nn/Source/ConvolutionFunctions/arm_depthwise_conv_s16.c ****                     for (int i_ch_mult = 0; i_ch_mult < ch_mult; i_ch_mult++)
 169:Middlewares/tensorflow/third_party/cmsis_nn/Source/ConvolutionFunctions/arm_depthwise_conv_s16.c ****                     {
 170:Middlewares/tensorflow/third_party/cmsis_nn/Source/ConvolutionFunctions/arm_depthwise_conv_s16.c ****                         const int idx_out_ch = i_ch_mult + i_input_ch * ch_mult;
 171:Middlewares/tensorflow/third_party/cmsis_nn/Source/ConvolutionFunctions/arm_depthwise_conv_s16.c **** 
 172:Middlewares/tensorflow/third_party/cmsis_nn/Source/ConvolutionFunctions/arm_depthwise_conv_s16.c ****                         const int32_t reduced_multiplier = REDUCE_MULTIPLIER(output_mult[idx_out_ch
  96              		.loc 1 172 60 view .LVU7
  97 005a 47F6FF73 		movw	r3, #32767
  98 005e 0A93     		str	r3, [sp, #40]
  99 0060 8FE0     		b	.L5
 100              	.LVL4:
 101              	.L6:
 173:Middlewares/tensorflow/third_party/cmsis_nn/Source/ConvolutionFunctions/arm_depthwise_conv_s16.c ****                         int64_t acc_0 = 0;
 174:Middlewares/tensorflow/third_party/cmsis_nn/Source/ConvolutionFunctions/arm_depthwise_conv_s16.c **** 
 175:Middlewares/tensorflow/third_party/cmsis_nn/Source/ConvolutionFunctions/arm_depthwise_conv_s16.c ****                         int ker_y_start;
 176:Middlewares/tensorflow/third_party/cmsis_nn/Source/ConvolutionFunctions/arm_depthwise_conv_s16.c ****                         int ker_x_start;
 177:Middlewares/tensorflow/third_party/cmsis_nn/Source/ConvolutionFunctions/arm_depthwise_conv_s16.c ****                         int ker_y_end;
 178:Middlewares/tensorflow/third_party/cmsis_nn/Source/ConvolutionFunctions/arm_depthwise_conv_s16.c ****                         int ker_x_end;
 179:Middlewares/tensorflow/third_party/cmsis_nn/Source/ConvolutionFunctions/arm_depthwise_conv_s16.c **** 
 180:Middlewares/tensorflow/third_party/cmsis_nn/Source/ConvolutionFunctions/arm_depthwise_conv_s16.c ****                         if (dilation_x > 1)
 181:Middlewares/tensorflow/third_party/cmsis_nn/Source/ConvolutionFunctions/arm_depthwise_conv_s16.c ****                         {
 182:Middlewares/tensorflow/third_party/cmsis_nn/Source/ConvolutionFunctions/arm_depthwise_conv_s16.c ****                             const int32_t start_x_max = (-base_idx_x + dilation_x - 1) / dilation_x
 183:Middlewares/tensorflow/third_party/cmsis_nn/Source/ConvolutionFunctions/arm_depthwise_conv_s16.c ****                             ker_x_start = MAX(0, start_x_max);
 184:Middlewares/tensorflow/third_party/cmsis_nn/Source/ConvolutionFunctions/arm_depthwise_conv_s16.c ****                             const int32_t end_min_x = (input_x - base_idx_x + dilation_x - 1) / dil
 185:Middlewares/tensorflow/third_party/cmsis_nn/Source/ConvolutionFunctions/arm_depthwise_conv_s16.c ****                             ker_x_end = MIN(kernel_x, end_min_x);
ARM GAS  /tmp/ccapEGHH.s 			page 6


 186:Middlewares/tensorflow/third_party/cmsis_nn/Source/ConvolutionFunctions/arm_depthwise_conv_s16.c ****                         }
 187:Middlewares/tensorflow/third_party/cmsis_nn/Source/ConvolutionFunctions/arm_depthwise_conv_s16.c ****                         else
 188:Middlewares/tensorflow/third_party/cmsis_nn/Source/ConvolutionFunctions/arm_depthwise_conv_s16.c ****                         {
 189:Middlewares/tensorflow/third_party/cmsis_nn/Source/ConvolutionFunctions/arm_depthwise_conv_s16.c ****                             ker_x_start = MAX(0, -base_idx_x);
 102              		.loc 1 189 29 is_stmt 1 view .LVU8
 103              		.loc 1 189 43 is_stmt 0 view .LVU9
 104 0062 BAF1000F 		cmp	r10, #0
 105 0066 09DD     		ble	.L30
 106              		.loc 1 189 43 view .LVU10
 107 0068 0023     		movs	r3, #0
 108 006a 0793     		str	r3, [sp, #28]
 109              	.L8:
 110              	.LVL5:
 190:Middlewares/tensorflow/third_party/cmsis_nn/Source/ConvolutionFunctions/arm_depthwise_conv_s16.c ****                             ker_x_end = MIN(kernel_x, input_x - base_idx_x);
 111              		.loc 1 190 29 is_stmt 1 discriminator 4 view .LVU11
 112              		.loc 1 190 41 is_stmt 0 discriminator 4 view .LVU12
 113 006c 019B     		ldr	r3, [sp, #4]
 114 006e A3EB0A07 		sub	r7, r3, r10
 115              		.loc 1 190 39 discriminator 4 view .LVU13
 116 0072 029B     		ldr	r3, [sp, #8]
 117 0074 9F42     		cmp	r7, r3
 118 0076 A8BF     		it	ge
 119 0078 1F46     		movge	r7, r3
 120              	.LVL6:
 121              		.loc 1 190 39 discriminator 4 view .LVU14
 122 007a 99E0     		b	.L7
 123              	.LVL7:
 124              	.L30:
 189:Middlewares/tensorflow/third_party/cmsis_nn/Source/ConvolutionFunctions/arm_depthwise_conv_s16.c ****                             ker_x_end = MIN(kernel_x, input_x - base_idx_x);
 125              		.loc 1 189 43 discriminator 1 view .LVU15
 126 007c CAF10003 		rsb	r3, r10, #0
 127 0080 0793     		str	r3, [sp, #28]
 128 0082 F3E7     		b	.L8
 129              	.LVL8:
 130              	.L9:
 191:Middlewares/tensorflow/third_party/cmsis_nn/Source/ConvolutionFunctions/arm_depthwise_conv_s16.c ****                         }
 192:Middlewares/tensorflow/third_party/cmsis_nn/Source/ConvolutionFunctions/arm_depthwise_conv_s16.c **** 
 193:Middlewares/tensorflow/third_party/cmsis_nn/Source/ConvolutionFunctions/arm_depthwise_conv_s16.c ****                         if (dilation_y > 1)
 194:Middlewares/tensorflow/third_party/cmsis_nn/Source/ConvolutionFunctions/arm_depthwise_conv_s16.c ****                         {
 195:Middlewares/tensorflow/third_party/cmsis_nn/Source/ConvolutionFunctions/arm_depthwise_conv_s16.c ****                             const int32_t start_y_max = (-base_idx_y + dilation_y - 1) / dilation_y
 196:Middlewares/tensorflow/third_party/cmsis_nn/Source/ConvolutionFunctions/arm_depthwise_conv_s16.c ****                             ker_y_start = MAX(0, start_y_max);
 197:Middlewares/tensorflow/third_party/cmsis_nn/Source/ConvolutionFunctions/arm_depthwise_conv_s16.c ****                             const int32_t end_min_y = (input_y - base_idx_y + dilation_y - 1) / dil
 198:Middlewares/tensorflow/third_party/cmsis_nn/Source/ConvolutionFunctions/arm_depthwise_conv_s16.c ****                             ker_y_end = MIN(kernel_y, end_min_y);
 199:Middlewares/tensorflow/third_party/cmsis_nn/Source/ConvolutionFunctions/arm_depthwise_conv_s16.c ****                         }
 200:Middlewares/tensorflow/third_party/cmsis_nn/Source/ConvolutionFunctions/arm_depthwise_conv_s16.c ****                         else
 201:Middlewares/tensorflow/third_party/cmsis_nn/Source/ConvolutionFunctions/arm_depthwise_conv_s16.c ****                         {
 202:Middlewares/tensorflow/third_party/cmsis_nn/Source/ConvolutionFunctions/arm_depthwise_conv_s16.c ****                             ker_y_start = MAX(0, -base_idx_y);
 131              		.loc 1 202 29 is_stmt 1 view .LVU16
 132              		.loc 1 202 43 is_stmt 0 view .LVU17
 133 0084 059B     		ldr	r3, [sp, #20]
 134 0086 002B     		cmp	r3, #0
 135 0088 09DD     		ble	.L31
 136 008a 0026     		movs	r6, #0
 137              	.L11:
 138              	.LVL9:
 203:Middlewares/tensorflow/third_party/cmsis_nn/Source/ConvolutionFunctions/arm_depthwise_conv_s16.c ****                             ker_y_end = MIN(kernel_y, input_y - base_idx_y);
 139              		.loc 1 203 29 is_stmt 1 discriminator 4 view .LVU18
ARM GAS  /tmp/ccapEGHH.s 			page 7


 140              		.loc 1 203 41 is_stmt 0 discriminator 4 view .LVU19
 141 008c 0B9B     		ldr	r3, [sp, #44]
 142 008e 059A     		ldr	r2, [sp, #20]
 143 0090 9B1A     		subs	r3, r3, r2
 144              		.loc 1 203 39 discriminator 4 view .LVU20
 145 0092 0C9A     		ldr	r2, [sp, #48]
 146 0094 9342     		cmp	r3, r2
 147 0096 A8BF     		it	ge
 148 0098 1346     		movge	r3, r2
 149 009a 0493     		str	r3, [sp, #16]
 150              	.LVL10:
 151              		.loc 1 203 39 discriminator 4 view .LVU21
 152 009c 9EE0     		b	.L10
 153              	.LVL11:
 154              	.L31:
 202:Middlewares/tensorflow/third_party/cmsis_nn/Source/ConvolutionFunctions/arm_depthwise_conv_s16.c ****                             ker_y_end = MIN(kernel_y, input_y - base_idx_y);
 155              		.loc 1 202 43 discriminator 1 view .LVU22
 156 009e 5E42     		rsbs	r6, r3, #0
 157 00a0 F4E7     		b	.L11
 158              	.LVL12:
 159              	.L26:
 173:Middlewares/tensorflow/third_party/cmsis_nn/Source/ConvolutionFunctions/arm_depthwise_conv_s16.c **** 
 160              		.loc 1 173 33 view .LVU23
 161 00a2 0024     		movs	r4, #0
 162 00a4 0025     		movs	r5, #0
 163 00a6 4346     		mov	r3, r8
 164 00a8 F046     		mov	r8, lr
 165 00aa 9E46     		mov	lr, r3
 166              	.LVL13:
 173:Middlewares/tensorflow/third_party/cmsis_nn/Source/ConvolutionFunctions/arm_depthwise_conv_s16.c **** 
 167              		.loc 1 173 33 view .LVU24
 168 00ac 1CE0     		b	.L13
 169              	.LVL14:
 170              	.L15:
 171              	.LBB26:
 172              	.LBB27:
 173              	.LBB28:
 174              	.LBB29:
 204:Middlewares/tensorflow/third_party/cmsis_nn/Source/ConvolutionFunctions/arm_depthwise_conv_s16.c ****                         }
 205:Middlewares/tensorflow/third_party/cmsis_nn/Source/ConvolutionFunctions/arm_depthwise_conv_s16.c **** 
 206:Middlewares/tensorflow/third_party/cmsis_nn/Source/ConvolutionFunctions/arm_depthwise_conv_s16.c ****                         if (bias)
 207:Middlewares/tensorflow/third_party/cmsis_nn/Source/ConvolutionFunctions/arm_depthwise_conv_s16.c ****                         {
 208:Middlewares/tensorflow/third_party/cmsis_nn/Source/ConvolutionFunctions/arm_depthwise_conv_s16.c ****                             acc_0 = bias[idx_out_ch];
 209:Middlewares/tensorflow/third_party/cmsis_nn/Source/ConvolutionFunctions/arm_depthwise_conv_s16.c ****                         }
 210:Middlewares/tensorflow/third_party/cmsis_nn/Source/ConvolutionFunctions/arm_depthwise_conv_s16.c **** 
 211:Middlewares/tensorflow/third_party/cmsis_nn/Source/ConvolutionFunctions/arm_depthwise_conv_s16.c ****                         for (int i_ker_y = ker_y_start; i_ker_y < ker_y_end; i_ker_y++)
 212:Middlewares/tensorflow/third_party/cmsis_nn/Source/ConvolutionFunctions/arm_depthwise_conv_s16.c ****                         {
 213:Middlewares/tensorflow/third_party/cmsis_nn/Source/ConvolutionFunctions/arm_depthwise_conv_s16.c ****                             const int32_t idx_y = base_idx_y + dilation_y * i_ker_y;
 214:Middlewares/tensorflow/third_party/cmsis_nn/Source/ConvolutionFunctions/arm_depthwise_conv_s16.c ****                             for (int i_ker_x = ker_x_start; i_ker_x < ker_x_end; i_ker_x++)
 215:Middlewares/tensorflow/third_party/cmsis_nn/Source/ConvolutionFunctions/arm_depthwise_conv_s16.c ****                             {
 216:Middlewares/tensorflow/third_party/cmsis_nn/Source/ConvolutionFunctions/arm_depthwise_conv_s16.c ****                                 const int32_t idx_x = base_idx_x + dilation_x * i_ker_x;
 175              		.loc 1 216 33 is_stmt 1 discriminator 3 view .LVU25
 176              		.loc 1 216 47 is_stmt 0 discriminator 3 view .LVU26
 177 00ae 02FB0EA3 		mla	r3, r2, lr, r10
 178              	.LVL15:
 217:Middlewares/tensorflow/third_party/cmsis_nn/Source/ConvolutionFunctions/arm_depthwise_conv_s16.c ****                                 int32_t idx_0 = (idx_y * input_x + idx_x) * input_ch + i_input_ch;
 179              		.loc 1 217 33 is_stmt 1 discriminator 3 view .LVU27
ARM GAS  /tmp/ccapEGHH.s 			page 8


 180              		.loc 1 217 66 is_stmt 0 discriminator 3 view .LVU28
 181 00b2 0199     		ldr	r1, [sp, #4]
 182 00b4 0CFB0133 		mla	r3, ip, r1, r3
 183              	.LVL16:
 184              		.loc 1 217 41 discriminator 3 view .LVU29
 185 00b8 09FB03B3 		mla	r3, r9, r3, fp
 186              	.LVL17:
 218:Middlewares/tensorflow/third_party/cmsis_nn/Source/ConvolutionFunctions/arm_depthwise_conv_s16.c ****                                 int32_t ker_idx_0 = (i_ker_y * kernel_x + i_ker_x) * (input_ch * ch
 187              		.loc 1 218 33 is_stmt 1 discriminator 3 view .LVU30
 188              		.loc 1 218 73 is_stmt 0 discriminator 3 view .LVU31
 189 00bc 0299     		ldr	r1, [sp, #8]
 190 00be 06FB0121 		mla	r1, r6, r1, r2
 191              		.loc 1 218 96 discriminator 3 view .LVU32
 192 00c2 0098     		ldr	r0, [sp]
 193 00c4 09FB00F0 		mul	r0, r9, r0
 194              		.loc 1 218 41 discriminator 3 view .LVU33
 195 00c8 00FB0181 		mla	r1, r0, r1, r8
 196              	.LVL18:
 219:Middlewares/tensorflow/third_party/cmsis_nn/Source/ConvolutionFunctions/arm_depthwise_conv_s16.c **** 
 220:Middlewares/tensorflow/third_party/cmsis_nn/Source/ConvolutionFunctions/arm_depthwise_conv_s16.c ****                                 acc_0 += input[idx_0] * kernel[ker_idx_0];
 197              		.loc 1 220 33 is_stmt 1 discriminator 3 view .LVU34
 198              		.loc 1 220 47 is_stmt 0 discriminator 3 view .LVU35
 199 00cc 0398     		ldr	r0, [sp, #12]
 200 00ce 30F91330 		ldrsh	r3, [r0, r3, lsl #1]
 201              	.LVL19:
 202              		.loc 1 220 63 discriminator 3 view .LVU36
 203 00d2 2398     		ldr	r0, [sp, #140]
 204 00d4 4156     		ldrsb	r1, [r0, r1]
 205              	.LVL20:
 206              		.loc 1 220 55 discriminator 3 view .LVU37
 207 00d6 01FB03F3 		mul	r3, r1, r3
 208              		.loc 1 220 39 discriminator 3 view .LVU38
 209 00da E418     		adds	r4, r4, r3
 210              	.LVL21:
 211              		.loc 1 220 39 discriminator 3 view .LVU39
 212 00dc 45EBE375 		adc	r5, r5, r3, asr #31
 213              	.LVL22:
 214              		.loc 1 220 39 discriminator 3 view .LVU40
 215              	.LBE29:
 214:Middlewares/tensorflow/third_party/cmsis_nn/Source/ConvolutionFunctions/arm_depthwise_conv_s16.c ****                             {
 216              		.loc 1 214 82 is_stmt 1 discriminator 3 view .LVU41
 214:Middlewares/tensorflow/third_party/cmsis_nn/Source/ConvolutionFunctions/arm_depthwise_conv_s16.c ****                             {
 217              		.loc 1 214 89 is_stmt 0 discriminator 3 view .LVU42
 218 00e0 0132     		adds	r2, r2, #1
 219              	.LVL23:
 220              	.L14:
 214:Middlewares/tensorflow/third_party/cmsis_nn/Source/ConvolutionFunctions/arm_depthwise_conv_s16.c ****                             {
 221              		.loc 1 214 61 is_stmt 1 discriminator 1 view .LVU43
 214:Middlewares/tensorflow/third_party/cmsis_nn/Source/ConvolutionFunctions/arm_depthwise_conv_s16.c ****                             {
 222              		.loc 1 214 29 is_stmt 0 discriminator 1 view .LVU44
 223 00e2 9742     		cmp	r7, r2
 224 00e4 E3DC     		bgt	.L15
 214:Middlewares/tensorflow/third_party/cmsis_nn/Source/ConvolutionFunctions/arm_depthwise_conv_s16.c ****                             {
 225              		.loc 1 214 29 discriminator 1 view .LVU45
 226              	.LBE28:
 227              	.LBE27:
 211:Middlewares/tensorflow/third_party/cmsis_nn/Source/ConvolutionFunctions/arm_depthwise_conv_s16.c ****                         {
ARM GAS  /tmp/ccapEGHH.s 			page 9


 228              		.loc 1 211 78 is_stmt 1 discriminator 2 view .LVU46
 211:Middlewares/tensorflow/third_party/cmsis_nn/Source/ConvolutionFunctions/arm_depthwise_conv_s16.c ****                         {
 229              		.loc 1 211 85 is_stmt 0 discriminator 2 view .LVU47
 230 00e6 0136     		adds	r6, r6, #1
 231              	.LVL24:
 232              	.L13:
 211:Middlewares/tensorflow/third_party/cmsis_nn/Source/ConvolutionFunctions/arm_depthwise_conv_s16.c ****                         {
 233              		.loc 1 211 57 is_stmt 1 discriminator 1 view .LVU48
 211:Middlewares/tensorflow/third_party/cmsis_nn/Source/ConvolutionFunctions/arm_depthwise_conv_s16.c ****                         {
 234              		.loc 1 211 25 is_stmt 0 discriminator 1 view .LVU49
 235 00e8 049B     		ldr	r3, [sp, #16]
 236 00ea B342     		cmp	r3, r6
 237 00ec 05DD     		ble	.L32
 238              	.LBB31:
 213:Middlewares/tensorflow/third_party/cmsis_nn/Source/ConvolutionFunctions/arm_depthwise_conv_s16.c ****                             for (int i_ker_x = ker_x_start; i_ker_x < ker_x_end; i_ker_x++)
 239              		.loc 1 213 29 is_stmt 1 view .LVU50
 213:Middlewares/tensorflow/third_party/cmsis_nn/Source/ConvolutionFunctions/arm_depthwise_conv_s16.c ****                             for (int i_ker_x = ker_x_start; i_ker_x < ker_x_end; i_ker_x++)
 240              		.loc 1 213 43 is_stmt 0 view .LVU51
 241 00ee 069B     		ldr	r3, [sp, #24]
 242 00f0 059A     		ldr	r2, [sp, #20]
 243 00f2 06FB032C 		mla	ip, r6, r3, r2
 244              	.LVL25:
 214:Middlewares/tensorflow/third_party/cmsis_nn/Source/ConvolutionFunctions/arm_depthwise_conv_s16.c ****                             {
 245              		.loc 1 214 29 is_stmt 1 view .LVU52
 246              	.LBB30:
 214:Middlewares/tensorflow/third_party/cmsis_nn/Source/ConvolutionFunctions/arm_depthwise_conv_s16.c ****                             {
 247              		.loc 1 214 34 view .LVU53
 214:Middlewares/tensorflow/third_party/cmsis_nn/Source/ConvolutionFunctions/arm_depthwise_conv_s16.c ****                             {
 248              		.loc 1 214 38 is_stmt 0 view .LVU54
 249 00f6 079A     		ldr	r2, [sp, #28]
 214:Middlewares/tensorflow/third_party/cmsis_nn/Source/ConvolutionFunctions/arm_depthwise_conv_s16.c ****                             {
 250              		.loc 1 214 29 view .LVU55
 251 00f8 F3E7     		b	.L14
 252              	.LVL26:
 253              	.L32:
 214:Middlewares/tensorflow/third_party/cmsis_nn/Source/ConvolutionFunctions/arm_depthwise_conv_s16.c ****                             {
 254              		.loc 1 214 29 view .LVU56
 255 00fa 7346     		mov	r3, lr
 256 00fc C646     		mov	lr, r8
 257 00fe 9846     		mov	r8, r3
 258              	.LVL27:
 214:Middlewares/tensorflow/third_party/cmsis_nn/Source/ConvolutionFunctions/arm_depthwise_conv_s16.c ****                             {
 259              		.loc 1 214 29 view .LVU57
 260              	.LBE30:
 261              	.LBE31:
 262              	.LBE26:
 221:Middlewares/tensorflow/third_party/cmsis_nn/Source/ConvolutionFunctions/arm_depthwise_conv_s16.c ****                             }
 222:Middlewares/tensorflow/third_party/cmsis_nn/Source/ConvolutionFunctions/arm_depthwise_conv_s16.c ****                         }
 223:Middlewares/tensorflow/third_party/cmsis_nn/Source/ConvolutionFunctions/arm_depthwise_conv_s16.c **** 
 224:Middlewares/tensorflow/third_party/cmsis_nn/Source/ConvolutionFunctions/arm_depthwise_conv_s16.c ****                         /* Requantize and clamp output to provided range */
 225:Middlewares/tensorflow/third_party/cmsis_nn/Source/ConvolutionFunctions/arm_depthwise_conv_s16.c ****                         int32_t result = arm_nn_requantize_s64(acc_0, reduced_multiplier, output_sh
 263              		.loc 1 225 25 is_stmt 1 discriminator 2 view .LVU58
 264              		.loc 1 225 42 is_stmt 0 discriminator 2 view .LVU59
 265 0100 2D9B     		ldr	r3, [sp, #180]
 266 0102 53F82E10 		ldr	r1, [r3, lr, lsl #2]
 267              	.LVL28:
 268              	.LBB32:
ARM GAS  /tmp/ccapEGHH.s 			page 10


 269              	.LBI32:
 270              		.file 2 "Middlewares/tensorflow/third_party/cmsis_nn/Include/arm_nnsupportfunctions.h"
   1:Middlewares/tensorflow/third_party/cmsis_nn/Include/arm_nnsupportfunctions.h **** /*
   2:Middlewares/tensorflow/third_party/cmsis_nn/Include/arm_nnsupportfunctions.h ****  * SPDX-FileCopyrightText: Copyright 2010-2023 Arm Limited and/or its affiliates <open-source-offic
   3:Middlewares/tensorflow/third_party/cmsis_nn/Include/arm_nnsupportfunctions.h ****  *
   4:Middlewares/tensorflow/third_party/cmsis_nn/Include/arm_nnsupportfunctions.h ****  * SPDX-License-Identifier: Apache-2.0
   5:Middlewares/tensorflow/third_party/cmsis_nn/Include/arm_nnsupportfunctions.h ****  *
   6:Middlewares/tensorflow/third_party/cmsis_nn/Include/arm_nnsupportfunctions.h ****  * Licensed under the Apache License, Version 2.0 (the License); you may
   7:Middlewares/tensorflow/third_party/cmsis_nn/Include/arm_nnsupportfunctions.h ****  * not use this file except in compliance with the License.
   8:Middlewares/tensorflow/third_party/cmsis_nn/Include/arm_nnsupportfunctions.h ****  * You may obtain a copy of the License at
   9:Middlewares/tensorflow/third_party/cmsis_nn/Include/arm_nnsupportfunctions.h ****  *
  10:Middlewares/tensorflow/third_party/cmsis_nn/Include/arm_nnsupportfunctions.h ****  * www.apache.org/licenses/LICENSE-2.0
  11:Middlewares/tensorflow/third_party/cmsis_nn/Include/arm_nnsupportfunctions.h ****  *
  12:Middlewares/tensorflow/third_party/cmsis_nn/Include/arm_nnsupportfunctions.h ****  * Unless required by applicable law or agreed to in writing, software
  13:Middlewares/tensorflow/third_party/cmsis_nn/Include/arm_nnsupportfunctions.h ****  * distributed under the License is distributed on an AS IS BASIS, WITHOUT
  14:Middlewares/tensorflow/third_party/cmsis_nn/Include/arm_nnsupportfunctions.h ****  * WARRANTIES OR CONDITIONS OF ANY KIND, either express or implied.
  15:Middlewares/tensorflow/third_party/cmsis_nn/Include/arm_nnsupportfunctions.h ****  * See the License for the specific language governing permissions and
  16:Middlewares/tensorflow/third_party/cmsis_nn/Include/arm_nnsupportfunctions.h ****  * limitations under the License.
  17:Middlewares/tensorflow/third_party/cmsis_nn/Include/arm_nnsupportfunctions.h ****  */
  18:Middlewares/tensorflow/third_party/cmsis_nn/Include/arm_nnsupportfunctions.h **** 
  19:Middlewares/tensorflow/third_party/cmsis_nn/Include/arm_nnsupportfunctions.h **** /* ----------------------------------------------------------------------
  20:Middlewares/tensorflow/third_party/cmsis_nn/Include/arm_nnsupportfunctions.h ****  * Project:      CMSIS NN Library
  21:Middlewares/tensorflow/third_party/cmsis_nn/Include/arm_nnsupportfunctions.h ****  * Title:        arm_nnsupportfunctions.h
  22:Middlewares/tensorflow/third_party/cmsis_nn/Include/arm_nnsupportfunctions.h ****  * Description:  Public header file of support functions for CMSIS NN Library
  23:Middlewares/tensorflow/third_party/cmsis_nn/Include/arm_nnsupportfunctions.h ****  *
  24:Middlewares/tensorflow/third_party/cmsis_nn/Include/arm_nnsupportfunctions.h ****  * $Date:        13 Februari 2023
  25:Middlewares/tensorflow/third_party/cmsis_nn/Include/arm_nnsupportfunctions.h ****  * $Revision:    V.15.0.0
  26:Middlewares/tensorflow/third_party/cmsis_nn/Include/arm_nnsupportfunctions.h ****  *
  27:Middlewares/tensorflow/third_party/cmsis_nn/Include/arm_nnsupportfunctions.h ****  * Target :  Arm(R) M-Profile Architecture
  28:Middlewares/tensorflow/third_party/cmsis_nn/Include/arm_nnsupportfunctions.h ****  * -------------------------------------------------------------------- */
  29:Middlewares/tensorflow/third_party/cmsis_nn/Include/arm_nnsupportfunctions.h **** 
  30:Middlewares/tensorflow/third_party/cmsis_nn/Include/arm_nnsupportfunctions.h **** #ifndef _ARM_NNSUPPORTFUNCTIONS_H_
  31:Middlewares/tensorflow/third_party/cmsis_nn/Include/arm_nnsupportfunctions.h **** #define _ARM_NNSUPPORTFUNCTIONS_H_
  32:Middlewares/tensorflow/third_party/cmsis_nn/Include/arm_nnsupportfunctions.h **** 
  33:Middlewares/tensorflow/third_party/cmsis_nn/Include/arm_nnsupportfunctions.h **** #include "Internal/arm_nn_compiler.h"
  34:Middlewares/tensorflow/third_party/cmsis_nn/Include/arm_nnsupportfunctions.h **** #include "arm_nn_math_types.h"
  35:Middlewares/tensorflow/third_party/cmsis_nn/Include/arm_nnsupportfunctions.h **** #include "arm_nn_types.h"
  36:Middlewares/tensorflow/third_party/cmsis_nn/Include/arm_nnsupportfunctions.h **** 
  37:Middlewares/tensorflow/third_party/cmsis_nn/Include/arm_nnsupportfunctions.h **** #include <stdbool.h>
  38:Middlewares/tensorflow/third_party/cmsis_nn/Include/arm_nnsupportfunctions.h **** 
  39:Middlewares/tensorflow/third_party/cmsis_nn/Include/arm_nnsupportfunctions.h **** #ifdef __cplusplus
  40:Middlewares/tensorflow/third_party/cmsis_nn/Include/arm_nnsupportfunctions.h **** extern "C" {
  41:Middlewares/tensorflow/third_party/cmsis_nn/Include/arm_nnsupportfunctions.h **** #endif
  42:Middlewares/tensorflow/third_party/cmsis_nn/Include/arm_nnsupportfunctions.h **** 
  43:Middlewares/tensorflow/third_party/cmsis_nn/Include/arm_nnsupportfunctions.h **** #define USE_FAST_DW_CONV_S16_FUNCTION(dw_conv_params, filter_dims, input_dims)                     
  44:Middlewares/tensorflow/third_party/cmsis_nn/Include/arm_nnsupportfunctions.h ****     (dw_conv_params->ch_mult == 1 && dw_conv_params->dilation.w == 1 && dw_conv_params->dilation.h 
  45:Middlewares/tensorflow/third_party/cmsis_nn/Include/arm_nnsupportfunctions.h ****      filter_dims->w * filter_dims->h < 512)
  46:Middlewares/tensorflow/third_party/cmsis_nn/Include/arm_nnsupportfunctions.h **** 
  47:Middlewares/tensorflow/third_party/cmsis_nn/Include/arm_nnsupportfunctions.h **** #define LEFT_SHIFT(_shift) (_shift > 0 ? _shift : 0)
  48:Middlewares/tensorflow/third_party/cmsis_nn/Include/arm_nnsupportfunctions.h **** #define RIGHT_SHIFT(_shift) (_shift > 0 ? 0 : -_shift)
  49:Middlewares/tensorflow/third_party/cmsis_nn/Include/arm_nnsupportfunctions.h **** #define MASK_IF_ZERO(x) (x) == 0 ? ~0 : 0
  50:Middlewares/tensorflow/third_party/cmsis_nn/Include/arm_nnsupportfunctions.h **** #define MASK_IF_NON_ZERO(x) (x) != 0 ? ~0 : 0
  51:Middlewares/tensorflow/third_party/cmsis_nn/Include/arm_nnsupportfunctions.h **** #define SELECT_USING_MASK(mask, a, b) ((mask) & (a)) ^ (~(mask) & (b))
  52:Middlewares/tensorflow/third_party/cmsis_nn/Include/arm_nnsupportfunctions.h **** 
  53:Middlewares/tensorflow/third_party/cmsis_nn/Include/arm_nnsupportfunctions.h **** #define MAX(A, B) ((A) > (B) ? (A) : (B))
  54:Middlewares/tensorflow/third_party/cmsis_nn/Include/arm_nnsupportfunctions.h **** #define MIN(A, B) ((A) < (B) ? (A) : (B))
  55:Middlewares/tensorflow/third_party/cmsis_nn/Include/arm_nnsupportfunctions.h **** #define CLAMP(x, h, l) MAX(MIN((x), (h)), (l))
ARM GAS  /tmp/ccapEGHH.s 			page 11


  56:Middlewares/tensorflow/third_party/cmsis_nn/Include/arm_nnsupportfunctions.h **** #define REDUCE_MULTIPLIER(_mult) ((_mult < 0x7FFF0000) ? ((_mult + (1 << 15)) >> 16) : 0x7FFF)
  57:Middlewares/tensorflow/third_party/cmsis_nn/Include/arm_nnsupportfunctions.h **** 
  58:Middlewares/tensorflow/third_party/cmsis_nn/Include/arm_nnsupportfunctions.h **** // Number of channels processed in a block for DW Conv(MVE)
  59:Middlewares/tensorflow/third_party/cmsis_nn/Include/arm_nnsupportfunctions.h **** // Requirement: Greater than 0 & less than 128
  60:Middlewares/tensorflow/third_party/cmsis_nn/Include/arm_nnsupportfunctions.h **** // This can be fine tuned to match number of input channels for best performance.
  61:Middlewares/tensorflow/third_party/cmsis_nn/Include/arm_nnsupportfunctions.h **** // A layer with lower number of channels than CH_IN_BLOCK_MVE will result in higher
  62:Middlewares/tensorflow/third_party/cmsis_nn/Include/arm_nnsupportfunctions.h **** // scratch buffer usage and a layer with higher number of channels than CH_IN_BLOCK_MVE
  63:Middlewares/tensorflow/third_party/cmsis_nn/Include/arm_nnsupportfunctions.h **** // will result in lower scratch buffer usage.
  64:Middlewares/tensorflow/third_party/cmsis_nn/Include/arm_nnsupportfunctions.h **** #define CH_IN_BLOCK_MVE (124)
  65:Middlewares/tensorflow/third_party/cmsis_nn/Include/arm_nnsupportfunctions.h **** 
  66:Middlewares/tensorflow/third_party/cmsis_nn/Include/arm_nnsupportfunctions.h **** /**
  67:Middlewares/tensorflow/third_party/cmsis_nn/Include/arm_nnsupportfunctions.h ****  * @brief definition to pack four 8 bit values.
  68:Middlewares/tensorflow/third_party/cmsis_nn/Include/arm_nnsupportfunctions.h ****  */
  69:Middlewares/tensorflow/third_party/cmsis_nn/Include/arm_nnsupportfunctions.h **** #define PACK_S8x4_32x1(v0, v1, v2, v3)                                                             
  70:Middlewares/tensorflow/third_party/cmsis_nn/Include/arm_nnsupportfunctions.h ****     ((((int32_t)(v0) << 0) & (int32_t)0x000000FF) | (((int32_t)(v1) << 8) & (int32_t)0x0000FF00) | 
  71:Middlewares/tensorflow/third_party/cmsis_nn/Include/arm_nnsupportfunctions.h ****      (((int32_t)(v2) << 16) & (int32_t)0x00FF0000) | (((int32_t)(v3) << 24) & (int32_t)0xFF000000))
  72:Middlewares/tensorflow/third_party/cmsis_nn/Include/arm_nnsupportfunctions.h **** 
  73:Middlewares/tensorflow/third_party/cmsis_nn/Include/arm_nnsupportfunctions.h **** /**
  74:Middlewares/tensorflow/third_party/cmsis_nn/Include/arm_nnsupportfunctions.h ****  * @brief definition to pack two 16 bit values.
  75:Middlewares/tensorflow/third_party/cmsis_nn/Include/arm_nnsupportfunctions.h ****  */
  76:Middlewares/tensorflow/third_party/cmsis_nn/Include/arm_nnsupportfunctions.h **** #define PACK_Q15x2_32x1(v0, v1) (((int32_t)v0 & (int32_t)0xFFFF) | ((int32_t)v1 << 16))
  77:Middlewares/tensorflow/third_party/cmsis_nn/Include/arm_nnsupportfunctions.h **** 
  78:Middlewares/tensorflow/third_party/cmsis_nn/Include/arm_nnsupportfunctions.h **** /**
  79:Middlewares/tensorflow/third_party/cmsis_nn/Include/arm_nnsupportfunctions.h ****  * @brief Union for SIMD access of q31/s16/s8 types
  80:Middlewares/tensorflow/third_party/cmsis_nn/Include/arm_nnsupportfunctions.h ****  */
  81:Middlewares/tensorflow/third_party/cmsis_nn/Include/arm_nnsupportfunctions.h **** union arm_nnword
  82:Middlewares/tensorflow/third_party/cmsis_nn/Include/arm_nnsupportfunctions.h **** {
  83:Middlewares/tensorflow/third_party/cmsis_nn/Include/arm_nnsupportfunctions.h ****     int32_t word;
  84:Middlewares/tensorflow/third_party/cmsis_nn/Include/arm_nnsupportfunctions.h ****     /**< q31 type */
  85:Middlewares/tensorflow/third_party/cmsis_nn/Include/arm_nnsupportfunctions.h ****     int16_t half_words[2];
  86:Middlewares/tensorflow/third_party/cmsis_nn/Include/arm_nnsupportfunctions.h ****     /**< s16 type */
  87:Middlewares/tensorflow/third_party/cmsis_nn/Include/arm_nnsupportfunctions.h ****     int8_t bytes[4];
  88:Middlewares/tensorflow/third_party/cmsis_nn/Include/arm_nnsupportfunctions.h ****     /**< s8 type */
  89:Middlewares/tensorflow/third_party/cmsis_nn/Include/arm_nnsupportfunctions.h **** };
  90:Middlewares/tensorflow/third_party/cmsis_nn/Include/arm_nnsupportfunctions.h **** 
  91:Middlewares/tensorflow/third_party/cmsis_nn/Include/arm_nnsupportfunctions.h **** /**
  92:Middlewares/tensorflow/third_party/cmsis_nn/Include/arm_nnsupportfunctions.h ****  * @brief Union for data type long long
  93:Middlewares/tensorflow/third_party/cmsis_nn/Include/arm_nnsupportfunctions.h ****  */
  94:Middlewares/tensorflow/third_party/cmsis_nn/Include/arm_nnsupportfunctions.h **** struct arm_nn_double
  95:Middlewares/tensorflow/third_party/cmsis_nn/Include/arm_nnsupportfunctions.h **** {
  96:Middlewares/tensorflow/third_party/cmsis_nn/Include/arm_nnsupportfunctions.h ****     uint32_t low;
  97:Middlewares/tensorflow/third_party/cmsis_nn/Include/arm_nnsupportfunctions.h ****     int32_t high;
  98:Middlewares/tensorflow/third_party/cmsis_nn/Include/arm_nnsupportfunctions.h **** };
  99:Middlewares/tensorflow/third_party/cmsis_nn/Include/arm_nnsupportfunctions.h **** 
 100:Middlewares/tensorflow/third_party/cmsis_nn/Include/arm_nnsupportfunctions.h **** union arm_nn_long_long
 101:Middlewares/tensorflow/third_party/cmsis_nn/Include/arm_nnsupportfunctions.h **** {
 102:Middlewares/tensorflow/third_party/cmsis_nn/Include/arm_nnsupportfunctions.h ****     int64_t long_long;
 103:Middlewares/tensorflow/third_party/cmsis_nn/Include/arm_nnsupportfunctions.h ****     struct arm_nn_double word;
 104:Middlewares/tensorflow/third_party/cmsis_nn/Include/arm_nnsupportfunctions.h **** };
 105:Middlewares/tensorflow/third_party/cmsis_nn/Include/arm_nnsupportfunctions.h **** 
 106:Middlewares/tensorflow/third_party/cmsis_nn/Include/arm_nnsupportfunctions.h **** /**
 107:Middlewares/tensorflow/third_party/cmsis_nn/Include/arm_nnsupportfunctions.h ****  * @defgroup groupSupport Private
 108:Middlewares/tensorflow/third_party/cmsis_nn/Include/arm_nnsupportfunctions.h ****  *
 109:Middlewares/tensorflow/third_party/cmsis_nn/Include/arm_nnsupportfunctions.h ****  * Internal Support functions. Not intended to be called direclty by a CMSIS-NN user.
 110:Middlewares/tensorflow/third_party/cmsis_nn/Include/arm_nnsupportfunctions.h ****  *
 111:Middlewares/tensorflow/third_party/cmsis_nn/Include/arm_nnsupportfunctions.h ****  */
 112:Middlewares/tensorflow/third_party/cmsis_nn/Include/arm_nnsupportfunctions.h **** 
ARM GAS  /tmp/ccapEGHH.s 			page 12


 113:Middlewares/tensorflow/third_party/cmsis_nn/Include/arm_nnsupportfunctions.h **** /**
 114:Middlewares/tensorflow/third_party/cmsis_nn/Include/arm_nnsupportfunctions.h ****  * @defgroup supportConversion Data Conversion
 115:Middlewares/tensorflow/third_party/cmsis_nn/Include/arm_nnsupportfunctions.h ****  *
 116:Middlewares/tensorflow/third_party/cmsis_nn/Include/arm_nnsupportfunctions.h ****  * Perform data type conversion in-between neural network operations
 117:Middlewares/tensorflow/third_party/cmsis_nn/Include/arm_nnsupportfunctions.h ****  *
 118:Middlewares/tensorflow/third_party/cmsis_nn/Include/arm_nnsupportfunctions.h ****  */
 119:Middlewares/tensorflow/third_party/cmsis_nn/Include/arm_nnsupportfunctions.h **** 
 120:Middlewares/tensorflow/third_party/cmsis_nn/Include/arm_nnsupportfunctions.h **** /**
 121:Middlewares/tensorflow/third_party/cmsis_nn/Include/arm_nnsupportfunctions.h ****  * @brief Converts the elements from a s8 vector to a s16 vector with an added offset
 122:Middlewares/tensorflow/third_party/cmsis_nn/Include/arm_nnsupportfunctions.h ****  * @param[in]    src        pointer to the s8 input vector
 123:Middlewares/tensorflow/third_party/cmsis_nn/Include/arm_nnsupportfunctions.h ****  * @param[out]   dst        pointer to the s16 output vector
 124:Middlewares/tensorflow/third_party/cmsis_nn/Include/arm_nnsupportfunctions.h ****  * @param[in]    block_size length of the input vector
 125:Middlewares/tensorflow/third_party/cmsis_nn/Include/arm_nnsupportfunctions.h ****  * @param[in]    offset     s8 offset to be added to each input vector element.
 126:Middlewares/tensorflow/third_party/cmsis_nn/Include/arm_nnsupportfunctions.h ****  *
 127:Middlewares/tensorflow/third_party/cmsis_nn/Include/arm_nnsupportfunctions.h ****  * \par Description:
 128:Middlewares/tensorflow/third_party/cmsis_nn/Include/arm_nnsupportfunctions.h ****  *
 129:Middlewares/tensorflow/third_party/cmsis_nn/Include/arm_nnsupportfunctions.h ****  * The equation used for the conversion process is:
 130:Middlewares/tensorflow/third_party/cmsis_nn/Include/arm_nnsupportfunctions.h ****  *
 131:Middlewares/tensorflow/third_party/cmsis_nn/Include/arm_nnsupportfunctions.h ****  * <pre>
 132:Middlewares/tensorflow/third_party/cmsis_nn/Include/arm_nnsupportfunctions.h ****  *  dst[n] = (int16_t) src[n] + offset;   0 <= n < block_size.
 133:Middlewares/tensorflow/third_party/cmsis_nn/Include/arm_nnsupportfunctions.h ****  * </pre>
 134:Middlewares/tensorflow/third_party/cmsis_nn/Include/arm_nnsupportfunctions.h ****  *
 135:Middlewares/tensorflow/third_party/cmsis_nn/Include/arm_nnsupportfunctions.h ****  */
 136:Middlewares/tensorflow/third_party/cmsis_nn/Include/arm_nnsupportfunctions.h **** void arm_q7_to_q15_with_offset(const int8_t *src, int16_t *dst, uint32_t block_size, int16_t offset
 137:Middlewares/tensorflow/third_party/cmsis_nn/Include/arm_nnsupportfunctions.h **** 
 138:Middlewares/tensorflow/third_party/cmsis_nn/Include/arm_nnsupportfunctions.h **** /**
 139:Middlewares/tensorflow/third_party/cmsis_nn/Include/arm_nnsupportfunctions.h ****  * @brief Depthwise conv on an im2col buffer where the input channel equals output channel.
 140:Middlewares/tensorflow/third_party/cmsis_nn/Include/arm_nnsupportfunctions.h ****  * @param[in]    row     pointer to row
 141:Middlewares/tensorflow/third_party/cmsis_nn/Include/arm_nnsupportfunctions.h ****  * @param[in]    col     pointer to im2col buffer, always consists of 2 columns.
 142:Middlewares/tensorflow/third_party/cmsis_nn/Include/arm_nnsupportfunctions.h ****  * @param[in]    num_ch   number of channels
 143:Middlewares/tensorflow/third_party/cmsis_nn/Include/arm_nnsupportfunctions.h ****  * @param[in]    out_shift  pointer to per output channel requantization shift parameter.
 144:Middlewares/tensorflow/third_party/cmsis_nn/Include/arm_nnsupportfunctions.h ****  * @param[in]    out_mult   pointer to per output channel requantization multiplier parameter.
 145:Middlewares/tensorflow/third_party/cmsis_nn/Include/arm_nnsupportfunctions.h ****  * @param[in]    out_offset      output tensor offset.
 146:Middlewares/tensorflow/third_party/cmsis_nn/Include/arm_nnsupportfunctions.h ****  * @param[in]    activation_min   minimum value to clamp the output to. Range : int8
 147:Middlewares/tensorflow/third_party/cmsis_nn/Include/arm_nnsupportfunctions.h ****  * @param[in]    activation_max   maximum value to clamp the output to. Range : int8
 148:Middlewares/tensorflow/third_party/cmsis_nn/Include/arm_nnsupportfunctions.h ****  * @param[in]    kernel_size   number of elements in one column.
 149:Middlewares/tensorflow/third_party/cmsis_nn/Include/arm_nnsupportfunctions.h ****  * @param[in]    output_bias per output channel bias. Range : int32
 150:Middlewares/tensorflow/third_party/cmsis_nn/Include/arm_nnsupportfunctions.h ****  * @param[out]   out         pointer to output
 151:Middlewares/tensorflow/third_party/cmsis_nn/Include/arm_nnsupportfunctions.h ****  * @return     The function returns one of the two
 152:Middlewares/tensorflow/third_party/cmsis_nn/Include/arm_nnsupportfunctions.h ****  *              1. The incremented output pointer for a successful operation or
 153:Middlewares/tensorflow/third_party/cmsis_nn/Include/arm_nnsupportfunctions.h ****  *              2. NULL if implementation is not available.
 154:Middlewares/tensorflow/third_party/cmsis_nn/Include/arm_nnsupportfunctions.h ****  *
 155:Middlewares/tensorflow/third_party/cmsis_nn/Include/arm_nnsupportfunctions.h ****  * @details     Supported framework: TensorFlow Lite micro.
 156:Middlewares/tensorflow/third_party/cmsis_nn/Include/arm_nnsupportfunctions.h ****  */
 157:Middlewares/tensorflow/third_party/cmsis_nn/Include/arm_nnsupportfunctions.h **** int8_t *arm_nn_depthwise_conv_s8_core(const int8_t *row,
 158:Middlewares/tensorflow/third_party/cmsis_nn/Include/arm_nnsupportfunctions.h ****                                       const int16_t *col,
 159:Middlewares/tensorflow/third_party/cmsis_nn/Include/arm_nnsupportfunctions.h ****                                       const uint16_t num_ch,
 160:Middlewares/tensorflow/third_party/cmsis_nn/Include/arm_nnsupportfunctions.h ****                                       const int32_t *out_shift,
 161:Middlewares/tensorflow/third_party/cmsis_nn/Include/arm_nnsupportfunctions.h ****                                       const int32_t *out_mult,
 162:Middlewares/tensorflow/third_party/cmsis_nn/Include/arm_nnsupportfunctions.h ****                                       const int32_t out_offset,
 163:Middlewares/tensorflow/third_party/cmsis_nn/Include/arm_nnsupportfunctions.h ****                                       const int32_t activation_min,
 164:Middlewares/tensorflow/third_party/cmsis_nn/Include/arm_nnsupportfunctions.h ****                                       const int32_t activation_max,
 165:Middlewares/tensorflow/third_party/cmsis_nn/Include/arm_nnsupportfunctions.h ****                                       const uint16_t kernel_size,
 166:Middlewares/tensorflow/third_party/cmsis_nn/Include/arm_nnsupportfunctions.h ****                                       const int32_t *const output_bias,
 167:Middlewares/tensorflow/third_party/cmsis_nn/Include/arm_nnsupportfunctions.h ****                                       int8_t *out);
 168:Middlewares/tensorflow/third_party/cmsis_nn/Include/arm_nnsupportfunctions.h **** 
 169:Middlewares/tensorflow/third_party/cmsis_nn/Include/arm_nnsupportfunctions.h **** /**
ARM GAS  /tmp/ccapEGHH.s 			page 13


 170:Middlewares/tensorflow/third_party/cmsis_nn/Include/arm_nnsupportfunctions.h ****  * @brief General Matrix-multiplication function with per-channel requantization.
 171:Middlewares/tensorflow/third_party/cmsis_nn/Include/arm_nnsupportfunctions.h ****  * @param[in]       input_row    pointer to row operand
 172:Middlewares/tensorflow/third_party/cmsis_nn/Include/arm_nnsupportfunctions.h ****  * @param[in]       input_col    pointer to col operand
 173:Middlewares/tensorflow/third_party/cmsis_nn/Include/arm_nnsupportfunctions.h ****  * @param[in]       output_ch    number of rows of input_row
 174:Middlewares/tensorflow/third_party/cmsis_nn/Include/arm_nnsupportfunctions.h ****  * @param[in]       col_batches  number of column batches. Range: 1 to 4
 175:Middlewares/tensorflow/third_party/cmsis_nn/Include/arm_nnsupportfunctions.h ****  * @param[in]       output_shift  pointer to per output channel requantization shift parameter.
 176:Middlewares/tensorflow/third_party/cmsis_nn/Include/arm_nnsupportfunctions.h ****  * @param[in]       output_mult   pointer to per output channel requantization multiplier parameter
 177:Middlewares/tensorflow/third_party/cmsis_nn/Include/arm_nnsupportfunctions.h ****  * @param[in]       out_offset    output tensor offset.
 178:Middlewares/tensorflow/third_party/cmsis_nn/Include/arm_nnsupportfunctions.h ****  * @param[in]       col_offset    input tensor(col) offset.
 179:Middlewares/tensorflow/third_party/cmsis_nn/Include/arm_nnsupportfunctions.h ****  * @param[in]       row_offset    kernel offset(row). Not used.
 180:Middlewares/tensorflow/third_party/cmsis_nn/Include/arm_nnsupportfunctions.h ****  * @param[in]       out_activation_min   minimum value to clamp the output to. Range : int8
 181:Middlewares/tensorflow/third_party/cmsis_nn/Include/arm_nnsupportfunctions.h ****  * @param[in]       out_activation_max   maximum value to clamp the output to. Range : int8
 182:Middlewares/tensorflow/third_party/cmsis_nn/Include/arm_nnsupportfunctions.h ****  * @param[in]       row_len       number of elements in each row
 183:Middlewares/tensorflow/third_party/cmsis_nn/Include/arm_nnsupportfunctions.h ****  * @param[in]       bias          per output channel bias. Range : int32
 184:Middlewares/tensorflow/third_party/cmsis_nn/Include/arm_nnsupportfunctions.h ****  * @param[in,out]   out           pointer to output
 185:Middlewares/tensorflow/third_party/cmsis_nn/Include/arm_nnsupportfunctions.h ****  * @return     The function returns one of the two
 186:Middlewares/tensorflow/third_party/cmsis_nn/Include/arm_nnsupportfunctions.h ****  *              1. The incremented output pointer for a successful operation or
 187:Middlewares/tensorflow/third_party/cmsis_nn/Include/arm_nnsupportfunctions.h ****  *              2. NULL if implementation is not available.
 188:Middlewares/tensorflow/third_party/cmsis_nn/Include/arm_nnsupportfunctions.h ****  *
 189:Middlewares/tensorflow/third_party/cmsis_nn/Include/arm_nnsupportfunctions.h ****  * @details   Supported framework: TensorFlow Lite
 190:Middlewares/tensorflow/third_party/cmsis_nn/Include/arm_nnsupportfunctions.h ****  */
 191:Middlewares/tensorflow/third_party/cmsis_nn/Include/arm_nnsupportfunctions.h **** int8_t *arm_nn_mat_mult_s8(const int8_t *input_row,
 192:Middlewares/tensorflow/third_party/cmsis_nn/Include/arm_nnsupportfunctions.h ****                            const int8_t *input_col,
 193:Middlewares/tensorflow/third_party/cmsis_nn/Include/arm_nnsupportfunctions.h ****                            const uint16_t output_ch,
 194:Middlewares/tensorflow/third_party/cmsis_nn/Include/arm_nnsupportfunctions.h ****                            const uint16_t col_batches,
 195:Middlewares/tensorflow/third_party/cmsis_nn/Include/arm_nnsupportfunctions.h ****                            const int32_t *output_shift,
 196:Middlewares/tensorflow/third_party/cmsis_nn/Include/arm_nnsupportfunctions.h ****                            const int32_t *output_mult,
 197:Middlewares/tensorflow/third_party/cmsis_nn/Include/arm_nnsupportfunctions.h ****                            const int32_t out_offset,
 198:Middlewares/tensorflow/third_party/cmsis_nn/Include/arm_nnsupportfunctions.h ****                            const int32_t col_offset,
 199:Middlewares/tensorflow/third_party/cmsis_nn/Include/arm_nnsupportfunctions.h ****                            const int32_t row_offset,
 200:Middlewares/tensorflow/third_party/cmsis_nn/Include/arm_nnsupportfunctions.h ****                            const int16_t out_activation_min,
 201:Middlewares/tensorflow/third_party/cmsis_nn/Include/arm_nnsupportfunctions.h ****                            const int16_t out_activation_max,
 202:Middlewares/tensorflow/third_party/cmsis_nn/Include/arm_nnsupportfunctions.h ****                            const uint16_t row_len,
 203:Middlewares/tensorflow/third_party/cmsis_nn/Include/arm_nnsupportfunctions.h ****                            const int32_t *const bias,
 204:Middlewares/tensorflow/third_party/cmsis_nn/Include/arm_nnsupportfunctions.h ****                            int8_t *out);
 205:Middlewares/tensorflow/third_party/cmsis_nn/Include/arm_nnsupportfunctions.h **** /**
 206:Middlewares/tensorflow/third_party/cmsis_nn/Include/arm_nnsupportfunctions.h ****  * @brief Matrix-multiplication function for convolution with per-channel requantization for 16 bit
 207:Middlewares/tensorflow/third_party/cmsis_nn/Include/arm_nnsupportfunctions.h ****  * @param[in]       input_a     pointer to operand A
 208:Middlewares/tensorflow/third_party/cmsis_nn/Include/arm_nnsupportfunctions.h ****  * @param[in]       input_b     pointer to operand B, always consists of 2 vectors.
 209:Middlewares/tensorflow/third_party/cmsis_nn/Include/arm_nnsupportfunctions.h ****  * @param[in]       output_ch   number of rows of A
 210:Middlewares/tensorflow/third_party/cmsis_nn/Include/arm_nnsupportfunctions.h ****  * @param[in]       out_shift  pointer to per output channel requantization shift parameter.
 211:Middlewares/tensorflow/third_party/cmsis_nn/Include/arm_nnsupportfunctions.h ****  * @param[in]       out_mult   pointer to per output channel requantization multiplier parameter.
 212:Middlewares/tensorflow/third_party/cmsis_nn/Include/arm_nnsupportfunctions.h ****  * @param[in]       activation_min   minimum value to clamp the output to. Range : int16
 213:Middlewares/tensorflow/third_party/cmsis_nn/Include/arm_nnsupportfunctions.h ****  * @param[in]       activation_max   maximum value to clamp the output to. Range : int16
 214:Middlewares/tensorflow/third_party/cmsis_nn/Include/arm_nnsupportfunctions.h ****  * @param[in]       num_col_a   number of columns of A
 215:Middlewares/tensorflow/third_party/cmsis_nn/Include/arm_nnsupportfunctions.h ****  * @param[in]       output_bias per output channel bias. Range : int64
 216:Middlewares/tensorflow/third_party/cmsis_nn/Include/arm_nnsupportfunctions.h ****  * @param[in,out]   out_0       pointer to output
 217:Middlewares/tensorflow/third_party/cmsis_nn/Include/arm_nnsupportfunctions.h ****  * @return     The function returns one of the two
 218:Middlewares/tensorflow/third_party/cmsis_nn/Include/arm_nnsupportfunctions.h ****  *              1. The incremented output pointer for a successful operation or
 219:Middlewares/tensorflow/third_party/cmsis_nn/Include/arm_nnsupportfunctions.h ****  *              2. NULL if implementation is not available.
 220:Middlewares/tensorflow/third_party/cmsis_nn/Include/arm_nnsupportfunctions.h ****  *
 221:Middlewares/tensorflow/third_party/cmsis_nn/Include/arm_nnsupportfunctions.h ****  * @details   This function does the matrix multiplication of weight matrix for all output channels
 222:Middlewares/tensorflow/third_party/cmsis_nn/Include/arm_nnsupportfunctions.h ****  *            with 2 columns from im2col and produces two elements/output_channel. The outputs are
 223:Middlewares/tensorflow/third_party/cmsis_nn/Include/arm_nnsupportfunctions.h ****  *            clamped in the range provided by activation min and max.
 224:Middlewares/tensorflow/third_party/cmsis_nn/Include/arm_nnsupportfunctions.h ****  *            Supported framework: TensorFlow Lite micro.
 225:Middlewares/tensorflow/third_party/cmsis_nn/Include/arm_nnsupportfunctions.h ****  */
 226:Middlewares/tensorflow/third_party/cmsis_nn/Include/arm_nnsupportfunctions.h **** int16_t *arm_nn_mat_mult_kernel_s16(const int8_t *input_a,
ARM GAS  /tmp/ccapEGHH.s 			page 14


 227:Middlewares/tensorflow/third_party/cmsis_nn/Include/arm_nnsupportfunctions.h ****                                     const int16_t *input_b,
 228:Middlewares/tensorflow/third_party/cmsis_nn/Include/arm_nnsupportfunctions.h ****                                     const int32_t output_ch,
 229:Middlewares/tensorflow/third_party/cmsis_nn/Include/arm_nnsupportfunctions.h ****                                     const int32_t *out_shift,
 230:Middlewares/tensorflow/third_party/cmsis_nn/Include/arm_nnsupportfunctions.h ****                                     const int32_t *out_mult,
 231:Middlewares/tensorflow/third_party/cmsis_nn/Include/arm_nnsupportfunctions.h ****                                     const int16_t activation_min,
 232:Middlewares/tensorflow/third_party/cmsis_nn/Include/arm_nnsupportfunctions.h ****                                     const int16_t activation_max,
 233:Middlewares/tensorflow/third_party/cmsis_nn/Include/arm_nnsupportfunctions.h ****                                     const int32_t num_col_a,
 234:Middlewares/tensorflow/third_party/cmsis_nn/Include/arm_nnsupportfunctions.h ****                                     const int64_t *const output_bias,
 235:Middlewares/tensorflow/third_party/cmsis_nn/Include/arm_nnsupportfunctions.h ****                                     int16_t *out_0);
 236:Middlewares/tensorflow/third_party/cmsis_nn/Include/arm_nnsupportfunctions.h **** 
 237:Middlewares/tensorflow/third_party/cmsis_nn/Include/arm_nnsupportfunctions.h **** /**
 238:Middlewares/tensorflow/third_party/cmsis_nn/Include/arm_nnsupportfunctions.h ****  * @brief General Vector by Matrix multiplication with requantization and storage of result.
 239:Middlewares/tensorflow/third_party/cmsis_nn/Include/arm_nnsupportfunctions.h ****  * @param[in]       row_elements          number of row elements
 240:Middlewares/tensorflow/third_party/cmsis_nn/Include/arm_nnsupportfunctions.h ****  * @param[in]       skipped_row_elements  number of row elements skipped due to padding.
 241:Middlewares/tensorflow/third_party/cmsis_nn/Include/arm_nnsupportfunctions.h ****  *                                        row_elements + skipped_row_elements = (kernel_x * kernel_
 242:Middlewares/tensorflow/third_party/cmsis_nn/Include/arm_nnsupportfunctions.h ****  * @param[in]       row_base_ref          pointer to row operand
 243:Middlewares/tensorflow/third_party/cmsis_nn/Include/arm_nnsupportfunctions.h ****  * @param[in]       col_base_ref          pointer to col operand
 244:Middlewares/tensorflow/third_party/cmsis_nn/Include/arm_nnsupportfunctions.h ****  * @param[out]      out_ch                Number of output channels
 245:Middlewares/tensorflow/third_party/cmsis_nn/Include/arm_nnsupportfunctions.h ****  * @param[in]       conv_params           Pointer to convolution parameters like offsets and activa
 246:Middlewares/tensorflow/third_party/cmsis_nn/Include/arm_nnsupportfunctions.h ****  * @param[in]       quant_params          Pointer to per-channel quantization parameters
 247:Middlewares/tensorflow/third_party/cmsis_nn/Include/arm_nnsupportfunctions.h ****  * @param[in]       bias                  Pointer to optional per-channel bias
 248:Middlewares/tensorflow/third_party/cmsis_nn/Include/arm_nnsupportfunctions.h ****  * @param[out]      output                Pointer to output where int8 results are stored.
 249:Middlewares/tensorflow/third_party/cmsis_nn/Include/arm_nnsupportfunctions.h ****  * @return     The function performs matrix(row_base_ref) multiplication with vector(col_base_ref) 
 250:Middlewares/tensorflow/third_party/cmsis_nn/Include/arm_nnsupportfunctions.h ****  *             scaled result is stored in memory.
 251:Middlewares/tensorflow/third_party/cmsis_nn/Include/arm_nnsupportfunctions.h ****  *
 252:Middlewares/tensorflow/third_party/cmsis_nn/Include/arm_nnsupportfunctions.h ****  * @details Pseudo-code
 253:Middlewares/tensorflow/third_party/cmsis_nn/Include/arm_nnsupportfunctions.h ****  *      *output = 0
 254:Middlewares/tensorflow/third_party/cmsis_nn/Include/arm_nnsupportfunctions.h ****  *      sum_col = 0
 255:Middlewares/tensorflow/third_party/cmsis_nn/Include/arm_nnsupportfunctions.h ****  *      for (j = 0; j < out_ch; j++)
 256:Middlewares/tensorflow/third_party/cmsis_nn/Include/arm_nnsupportfunctions.h ****  *      for (i = 0; i < row_elements; i++)
 257:Middlewares/tensorflow/third_party/cmsis_nn/Include/arm_nnsupportfunctions.h ****  *          *output += row_base_ref[i] * col_base_ref[i]
 258:Middlewares/tensorflow/third_party/cmsis_nn/Include/arm_nnsupportfunctions.h ****  *          sum_col += col_base_ref[i]
 259:Middlewares/tensorflow/third_party/cmsis_nn/Include/arm_nnsupportfunctions.h ****  *      scale sum_col using quant_params and bias
 260:Middlewares/tensorflow/third_party/cmsis_nn/Include/arm_nnsupportfunctions.h ****  *      store result in 'output'
 261:Middlewares/tensorflow/third_party/cmsis_nn/Include/arm_nnsupportfunctions.h ****  *
 262:Middlewares/tensorflow/third_party/cmsis_nn/Include/arm_nnsupportfunctions.h ****  *
 263:Middlewares/tensorflow/third_party/cmsis_nn/Include/arm_nnsupportfunctions.h ****  */
 264:Middlewares/tensorflow/third_party/cmsis_nn/Include/arm_nnsupportfunctions.h **** arm_cmsis_nn_status arm_nn_mat_mul_core_1x_s8(int32_t row_elements,
 265:Middlewares/tensorflow/third_party/cmsis_nn/Include/arm_nnsupportfunctions.h ****                                               const int32_t skipped_row_elements,
 266:Middlewares/tensorflow/third_party/cmsis_nn/Include/arm_nnsupportfunctions.h ****                                               const int8_t *row_base_ref,
 267:Middlewares/tensorflow/third_party/cmsis_nn/Include/arm_nnsupportfunctions.h ****                                               const int8_t *col_base_ref,
 268:Middlewares/tensorflow/third_party/cmsis_nn/Include/arm_nnsupportfunctions.h ****                                               const int32_t out_ch,
 269:Middlewares/tensorflow/third_party/cmsis_nn/Include/arm_nnsupportfunctions.h ****                                               const cmsis_nn_conv_params *conv_params,
 270:Middlewares/tensorflow/third_party/cmsis_nn/Include/arm_nnsupportfunctions.h ****                                               const cmsis_nn_per_channel_quant_params *quant_params
 271:Middlewares/tensorflow/third_party/cmsis_nn/Include/arm_nnsupportfunctions.h ****                                               const int32_t *bias,
 272:Middlewares/tensorflow/third_party/cmsis_nn/Include/arm_nnsupportfunctions.h ****                                               int8_t *output);
 273:Middlewares/tensorflow/third_party/cmsis_nn/Include/arm_nnsupportfunctions.h **** 
 274:Middlewares/tensorflow/third_party/cmsis_nn/Include/arm_nnsupportfunctions.h **** /**
 275:Middlewares/tensorflow/third_party/cmsis_nn/Include/arm_nnsupportfunctions.h ****  * @brief Matrix-multiplication with requantization & activation function for four rows and one col
 276:Middlewares/tensorflow/third_party/cmsis_nn/Include/arm_nnsupportfunctions.h ****  * @param[in]       row_elements  number of row elements
 277:Middlewares/tensorflow/third_party/cmsis_nn/Include/arm_nnsupportfunctions.h ****  * @param[in]       offset        offset between rows. Can be the same as row_elements.
 278:Middlewares/tensorflow/third_party/cmsis_nn/Include/arm_nnsupportfunctions.h ****  *                                For e.g, in a 1x1 conv scenario with stride as 1.
 279:Middlewares/tensorflow/third_party/cmsis_nn/Include/arm_nnsupportfunctions.h ****  * @param[in]       row_base      pointer to row operand
 280:Middlewares/tensorflow/third_party/cmsis_nn/Include/arm_nnsupportfunctions.h ****  * @param[in]       col_base      pointer to col operand
 281:Middlewares/tensorflow/third_party/cmsis_nn/Include/arm_nnsupportfunctions.h ****  * @param[in]       out_ch        Number of output channels
 282:Middlewares/tensorflow/third_party/cmsis_nn/Include/arm_nnsupportfunctions.h ****  * @param[in]       conv_params   Pointer to convolution parameters like offsets and activation val
 283:Middlewares/tensorflow/third_party/cmsis_nn/Include/arm_nnsupportfunctions.h ****  * @param[in]       quant_params  Pointer to per-channel quantization parameters
ARM GAS  /tmp/ccapEGHH.s 			page 15


 284:Middlewares/tensorflow/third_party/cmsis_nn/Include/arm_nnsupportfunctions.h ****  * @param[in]       bias          Pointer to per-channel bias
 285:Middlewares/tensorflow/third_party/cmsis_nn/Include/arm_nnsupportfunctions.h ****  * @param[out]      output        Pointer to output where int8 results are stored.
 286:Middlewares/tensorflow/third_party/cmsis_nn/Include/arm_nnsupportfunctions.h ****  *
 287:Middlewares/tensorflow/third_party/cmsis_nn/Include/arm_nnsupportfunctions.h ****  * @return     The function returns the updated output pointer or NULL if implementation is not ava
 288:Middlewares/tensorflow/third_party/cmsis_nn/Include/arm_nnsupportfunctions.h ****  *
 289:Middlewares/tensorflow/third_party/cmsis_nn/Include/arm_nnsupportfunctions.h ****  * @details Compliant to TFLM int8 specification. MVE implementation only
 290:Middlewares/tensorflow/third_party/cmsis_nn/Include/arm_nnsupportfunctions.h ****  */
 291:Middlewares/tensorflow/third_party/cmsis_nn/Include/arm_nnsupportfunctions.h **** int8_t *arm_nn_mat_mul_core_4x_s8(const int32_t row_elements,
 292:Middlewares/tensorflow/third_party/cmsis_nn/Include/arm_nnsupportfunctions.h ****                                   const int32_t offset,
 293:Middlewares/tensorflow/third_party/cmsis_nn/Include/arm_nnsupportfunctions.h ****                                   const int8_t *row_base,
 294:Middlewares/tensorflow/third_party/cmsis_nn/Include/arm_nnsupportfunctions.h ****                                   const int8_t *col_base,
 295:Middlewares/tensorflow/third_party/cmsis_nn/Include/arm_nnsupportfunctions.h ****                                   const int32_t out_ch,
 296:Middlewares/tensorflow/third_party/cmsis_nn/Include/arm_nnsupportfunctions.h ****                                   const cmsis_nn_conv_params *conv_params,
 297:Middlewares/tensorflow/third_party/cmsis_nn/Include/arm_nnsupportfunctions.h ****                                   const cmsis_nn_per_channel_quant_params *quant_params,
 298:Middlewares/tensorflow/third_party/cmsis_nn/Include/arm_nnsupportfunctions.h ****                                   const int32_t *bias,
 299:Middlewares/tensorflow/third_party/cmsis_nn/Include/arm_nnsupportfunctions.h ****                                   int8_t *output);
 300:Middlewares/tensorflow/third_party/cmsis_nn/Include/arm_nnsupportfunctions.h **** 
 301:Middlewares/tensorflow/third_party/cmsis_nn/Include/arm_nnsupportfunctions.h **** /**
 302:Middlewares/tensorflow/third_party/cmsis_nn/Include/arm_nnsupportfunctions.h ****  * @brief General Matrix-multiplication function with per-channel requantization.
 303:Middlewares/tensorflow/third_party/cmsis_nn/Include/arm_nnsupportfunctions.h ****  *        This function assumes:
 304:Middlewares/tensorflow/third_party/cmsis_nn/Include/arm_nnsupportfunctions.h ****  *        - LHS input matrix NOT transposed (nt)
 305:Middlewares/tensorflow/third_party/cmsis_nn/Include/arm_nnsupportfunctions.h ****  *        - RHS input matrix transposed (t)
 306:Middlewares/tensorflow/third_party/cmsis_nn/Include/arm_nnsupportfunctions.h ****  *
 307:Middlewares/tensorflow/third_party/cmsis_nn/Include/arm_nnsupportfunctions.h ****  *  @note This operation also performs the broadcast bias addition before the requantization
 308:Middlewares/tensorflow/third_party/cmsis_nn/Include/arm_nnsupportfunctions.h ****  *
 309:Middlewares/tensorflow/third_party/cmsis_nn/Include/arm_nnsupportfunctions.h ****  * @param[in]  lhs                Pointer to the LHS input matrix
 310:Middlewares/tensorflow/third_party/cmsis_nn/Include/arm_nnsupportfunctions.h ****  * @param[in]  rhs                Pointer to the RHS input matrix
 311:Middlewares/tensorflow/third_party/cmsis_nn/Include/arm_nnsupportfunctions.h ****  * @param[in]  bias               Pointer to the bias vector. The length of this vector is equal to
 312:Middlewares/tensorflow/third_party/cmsis_nn/Include/arm_nnsupportfunctions.h ****  * output columns (or RHS input rows)
 313:Middlewares/tensorflow/third_party/cmsis_nn/Include/arm_nnsupportfunctions.h ****  * @param[out] dst                Pointer to the output matrix with "m" rows and "n" columns
 314:Middlewares/tensorflow/third_party/cmsis_nn/Include/arm_nnsupportfunctions.h ****  * @param[in]  dst_multipliers    Pointer to the multipliers vector needed for the per-channel requ
 315:Middlewares/tensorflow/third_party/cmsis_nn/Include/arm_nnsupportfunctions.h ****  *                                The length of this vector is equal to the number of output column
 316:Middlewares/tensorflow/third_party/cmsis_nn/Include/arm_nnsupportfunctions.h ****  * rows)
 317:Middlewares/tensorflow/third_party/cmsis_nn/Include/arm_nnsupportfunctions.h ****  * @param[in]  dst_shifts         Pointer to the shifts vector needed for the per-channel requantiz
 318:Middlewares/tensorflow/third_party/cmsis_nn/Include/arm_nnsupportfunctions.h ****  * of this vector is equal to the number of output columns (or RHS input rows)
 319:Middlewares/tensorflow/third_party/cmsis_nn/Include/arm_nnsupportfunctions.h ****  * @param[in]  lhs_rows           Number of LHS input rows
 320:Middlewares/tensorflow/third_party/cmsis_nn/Include/arm_nnsupportfunctions.h ****  * @param[in]  rhs_rows           Number of RHS input rows
 321:Middlewares/tensorflow/third_party/cmsis_nn/Include/arm_nnsupportfunctions.h ****  * @param[in]  rhs_cols           Number of LHS/RHS input columns
 322:Middlewares/tensorflow/third_party/cmsis_nn/Include/arm_nnsupportfunctions.h ****  * @param[in]  lhs_offset         Offset to be applied to the LHS input value
 323:Middlewares/tensorflow/third_party/cmsis_nn/Include/arm_nnsupportfunctions.h ****  * @param[in]  dst_offset         Offset to be applied the output result
 324:Middlewares/tensorflow/third_party/cmsis_nn/Include/arm_nnsupportfunctions.h ****  * @param[in]  activation_min     Minimum value to clamp down the output. Range : int8
 325:Middlewares/tensorflow/third_party/cmsis_nn/Include/arm_nnsupportfunctions.h ****  * @param[in]  activation_max     Maximum value to clamp up the output. Range : int8
 326:Middlewares/tensorflow/third_party/cmsis_nn/Include/arm_nnsupportfunctions.h ****  * @param[in]  rhs_cols_offset    Offset between input columns. Used to handle non-unity strides
 327:Middlewares/tensorflow/third_party/cmsis_nn/Include/arm_nnsupportfunctions.h ****  *                                Expected value : x * rhs_cols, where x >= 1
 328:Middlewares/tensorflow/third_party/cmsis_nn/Include/arm_nnsupportfunctions.h ****  *
 329:Middlewares/tensorflow/third_party/cmsis_nn/Include/arm_nnsupportfunctions.h ****  * @return     The function returns <code>ARM_CMSIS_NN_SUCCESS</code>
 330:Middlewares/tensorflow/third_party/cmsis_nn/Include/arm_nnsupportfunctions.h ****  *
 331:Middlewares/tensorflow/third_party/cmsis_nn/Include/arm_nnsupportfunctions.h ****  */
 332:Middlewares/tensorflow/third_party/cmsis_nn/Include/arm_nnsupportfunctions.h **** arm_cmsis_nn_status arm_nn_mat_mult_nt_t_s8(const int8_t *lhs,
 333:Middlewares/tensorflow/third_party/cmsis_nn/Include/arm_nnsupportfunctions.h ****                                             const int8_t *rhs,
 334:Middlewares/tensorflow/third_party/cmsis_nn/Include/arm_nnsupportfunctions.h ****                                             const int32_t *bias,
 335:Middlewares/tensorflow/third_party/cmsis_nn/Include/arm_nnsupportfunctions.h ****                                             int8_t *dst,
 336:Middlewares/tensorflow/third_party/cmsis_nn/Include/arm_nnsupportfunctions.h ****                                             const int32_t *dst_multipliers,
 337:Middlewares/tensorflow/third_party/cmsis_nn/Include/arm_nnsupportfunctions.h ****                                             const int32_t *dst_shifts,
 338:Middlewares/tensorflow/third_party/cmsis_nn/Include/arm_nnsupportfunctions.h ****                                             const int32_t lhs_rows,
 339:Middlewares/tensorflow/third_party/cmsis_nn/Include/arm_nnsupportfunctions.h ****                                             const int32_t rhs_rows,
 340:Middlewares/tensorflow/third_party/cmsis_nn/Include/arm_nnsupportfunctions.h ****                                             const int32_t rhs_cols,
ARM GAS  /tmp/ccapEGHH.s 			page 16


 341:Middlewares/tensorflow/third_party/cmsis_nn/Include/arm_nnsupportfunctions.h ****                                             const int32_t lhs_offset,
 342:Middlewares/tensorflow/third_party/cmsis_nn/Include/arm_nnsupportfunctions.h ****                                             const int32_t dst_offset,
 343:Middlewares/tensorflow/third_party/cmsis_nn/Include/arm_nnsupportfunctions.h ****                                             const int32_t activation_min,
 344:Middlewares/tensorflow/third_party/cmsis_nn/Include/arm_nnsupportfunctions.h ****                                             const int32_t activation_max,
 345:Middlewares/tensorflow/third_party/cmsis_nn/Include/arm_nnsupportfunctions.h ****                                             const int32_t rhs_cols_offset);
 346:Middlewares/tensorflow/third_party/cmsis_nn/Include/arm_nnsupportfunctions.h **** 
 347:Middlewares/tensorflow/third_party/cmsis_nn/Include/arm_nnsupportfunctions.h **** /**
 348:Middlewares/tensorflow/third_party/cmsis_nn/Include/arm_nnsupportfunctions.h ****  * @brief s8 Vector by Matrix (transposed) multiplication
 349:Middlewares/tensorflow/third_party/cmsis_nn/Include/arm_nnsupportfunctions.h ****  *
 350:Middlewares/tensorflow/third_party/cmsis_nn/Include/arm_nnsupportfunctions.h ****  * @param[in]      lhs             Input left-hand side vector
 351:Middlewares/tensorflow/third_party/cmsis_nn/Include/arm_nnsupportfunctions.h ****  * @param[in]      rhs             Input right-hand side matrix (transposed)
 352:Middlewares/tensorflow/third_party/cmsis_nn/Include/arm_nnsupportfunctions.h ****  * @param[in]      bias            Input bias
 353:Middlewares/tensorflow/third_party/cmsis_nn/Include/arm_nnsupportfunctions.h ****  * @param[out]     dst             Output vector
 354:Middlewares/tensorflow/third_party/cmsis_nn/Include/arm_nnsupportfunctions.h ****  * @param[in]      lhs_offset      Offset to be added to the input values of the left-hand side vec
 355:Middlewares/tensorflow/third_party/cmsis_nn/Include/arm_nnsupportfunctions.h ****  *                                 Range: -127 to 128
 356:Middlewares/tensorflow/third_party/cmsis_nn/Include/arm_nnsupportfunctions.h ****  * @param[in]      dst_offset      Offset to be added to the output values. Range: -127 to 128
 357:Middlewares/tensorflow/third_party/cmsis_nn/Include/arm_nnsupportfunctions.h ****  * @param[in]      dst_multiplier  Output multiplier
 358:Middlewares/tensorflow/third_party/cmsis_nn/Include/arm_nnsupportfunctions.h ****  * @param[in]      dst_shift       Output shift
 359:Middlewares/tensorflow/third_party/cmsis_nn/Include/arm_nnsupportfunctions.h ****  * @param[in]      rhs_cols        Number of columns in the right-hand side input matrix
 360:Middlewares/tensorflow/third_party/cmsis_nn/Include/arm_nnsupportfunctions.h ****  * @param[in]      rhs_rows        Number of rows in the right-hand side input matrix
 361:Middlewares/tensorflow/third_party/cmsis_nn/Include/arm_nnsupportfunctions.h ****  * @param[in]      activation_min  Minimum value to clamp the output to. Range: int8
 362:Middlewares/tensorflow/third_party/cmsis_nn/Include/arm_nnsupportfunctions.h ****  * @param[in]      activation_max  Maximum value to clamp the output to. Range: int8
 363:Middlewares/tensorflow/third_party/cmsis_nn/Include/arm_nnsupportfunctions.h ****  * @param[in]      address_offset  Memory position offset for dst. First output is stored at 'dst',
 364:Middlewares/tensorflow/third_party/cmsis_nn/Include/arm_nnsupportfunctions.h ****  *                                 second at 'dst + address_offset' and so on. Default value is typ
 365:Middlewares/tensorflow/third_party/cmsis_nn/Include/arm_nnsupportfunctions.h ****  *
 366:Middlewares/tensorflow/third_party/cmsis_nn/Include/arm_nnsupportfunctions.h ****  * @return         The function returns <code>ARM_CMSIS_NN_SUCCESS</code>
 367:Middlewares/tensorflow/third_party/cmsis_nn/Include/arm_nnsupportfunctions.h ****  *
 368:Middlewares/tensorflow/third_party/cmsis_nn/Include/arm_nnsupportfunctions.h ****  */
 369:Middlewares/tensorflow/third_party/cmsis_nn/Include/arm_nnsupportfunctions.h **** arm_cmsis_nn_status arm_nn_vec_mat_mult_t_s8(const int8_t *lhs,
 370:Middlewares/tensorflow/third_party/cmsis_nn/Include/arm_nnsupportfunctions.h ****                                              const int8_t *rhs,
 371:Middlewares/tensorflow/third_party/cmsis_nn/Include/arm_nnsupportfunctions.h ****                                              const int32_t *bias,
 372:Middlewares/tensorflow/third_party/cmsis_nn/Include/arm_nnsupportfunctions.h ****                                              int8_t *dst,
 373:Middlewares/tensorflow/third_party/cmsis_nn/Include/arm_nnsupportfunctions.h ****                                              const int32_t lhs_offset,
 374:Middlewares/tensorflow/third_party/cmsis_nn/Include/arm_nnsupportfunctions.h ****                                              const int32_t dst_offset,
 375:Middlewares/tensorflow/third_party/cmsis_nn/Include/arm_nnsupportfunctions.h ****                                              const int32_t dst_multiplier,
 376:Middlewares/tensorflow/third_party/cmsis_nn/Include/arm_nnsupportfunctions.h ****                                              const int32_t dst_shift,
 377:Middlewares/tensorflow/third_party/cmsis_nn/Include/arm_nnsupportfunctions.h ****                                              const int32_t rhs_cols,
 378:Middlewares/tensorflow/third_party/cmsis_nn/Include/arm_nnsupportfunctions.h ****                                              const int32_t rhs_rows,
 379:Middlewares/tensorflow/third_party/cmsis_nn/Include/arm_nnsupportfunctions.h ****                                              const int32_t activation_min,
 380:Middlewares/tensorflow/third_party/cmsis_nn/Include/arm_nnsupportfunctions.h ****                                              const int32_t activation_max,
 381:Middlewares/tensorflow/third_party/cmsis_nn/Include/arm_nnsupportfunctions.h ****                                              const int32_t address_offset);
 382:Middlewares/tensorflow/third_party/cmsis_nn/Include/arm_nnsupportfunctions.h **** 
 383:Middlewares/tensorflow/third_party/cmsis_nn/Include/arm_nnsupportfunctions.h **** /**
 384:Middlewares/tensorflow/third_party/cmsis_nn/Include/arm_nnsupportfunctions.h ****  * @brief s16 Vector by Matrix (transposed) multiplication
 385:Middlewares/tensorflow/third_party/cmsis_nn/Include/arm_nnsupportfunctions.h ****  *
 386:Middlewares/tensorflow/third_party/cmsis_nn/Include/arm_nnsupportfunctions.h ****  * @param[in]      lhs             Input left-hand side vector
 387:Middlewares/tensorflow/third_party/cmsis_nn/Include/arm_nnsupportfunctions.h ****  * @param[in]      rhs             Input right-hand side matrix (transposed)
 388:Middlewares/tensorflow/third_party/cmsis_nn/Include/arm_nnsupportfunctions.h ****  * @param[in]      bias            Input bias
 389:Middlewares/tensorflow/third_party/cmsis_nn/Include/arm_nnsupportfunctions.h ****  * @param[out]     dst             Output vector
 390:Middlewares/tensorflow/third_party/cmsis_nn/Include/arm_nnsupportfunctions.h ****  * @param[in]      dst_multiplier  Output multiplier
 391:Middlewares/tensorflow/third_party/cmsis_nn/Include/arm_nnsupportfunctions.h ****  * @param[in]      dst_shift       Output shift
 392:Middlewares/tensorflow/third_party/cmsis_nn/Include/arm_nnsupportfunctions.h ****  * @param[in]      rhs_cols        Number of columns in the right-hand side input matrix
 393:Middlewares/tensorflow/third_party/cmsis_nn/Include/arm_nnsupportfunctions.h ****  * @param[in]      rhs_rows        Number of rows in the right-hand side input matrix
 394:Middlewares/tensorflow/third_party/cmsis_nn/Include/arm_nnsupportfunctions.h ****  * @param[in]      activation_min  Minimum value to clamp the output to. Range: int16
 395:Middlewares/tensorflow/third_party/cmsis_nn/Include/arm_nnsupportfunctions.h ****  * @param[in]      activation_max  Maximum value to clamp the output to. Range: int16
 396:Middlewares/tensorflow/third_party/cmsis_nn/Include/arm_nnsupportfunctions.h ****  *
 397:Middlewares/tensorflow/third_party/cmsis_nn/Include/arm_nnsupportfunctions.h ****  * @return         The function returns <code>ARM_CMSIS_NN_SUCCESS</code>
ARM GAS  /tmp/ccapEGHH.s 			page 17


 398:Middlewares/tensorflow/third_party/cmsis_nn/Include/arm_nnsupportfunctions.h ****  *
 399:Middlewares/tensorflow/third_party/cmsis_nn/Include/arm_nnsupportfunctions.h ****  */
 400:Middlewares/tensorflow/third_party/cmsis_nn/Include/arm_nnsupportfunctions.h **** arm_cmsis_nn_status arm_nn_vec_mat_mult_t_s16(const int16_t *lhs,
 401:Middlewares/tensorflow/third_party/cmsis_nn/Include/arm_nnsupportfunctions.h ****                                               const int8_t *rhs,
 402:Middlewares/tensorflow/third_party/cmsis_nn/Include/arm_nnsupportfunctions.h ****                                               const int64_t *bias,
 403:Middlewares/tensorflow/third_party/cmsis_nn/Include/arm_nnsupportfunctions.h ****                                               int16_t *dst,
 404:Middlewares/tensorflow/third_party/cmsis_nn/Include/arm_nnsupportfunctions.h ****                                               const int32_t dst_multiplier,
 405:Middlewares/tensorflow/third_party/cmsis_nn/Include/arm_nnsupportfunctions.h ****                                               const int32_t dst_shift,
 406:Middlewares/tensorflow/third_party/cmsis_nn/Include/arm_nnsupportfunctions.h ****                                               const int32_t rhs_cols,
 407:Middlewares/tensorflow/third_party/cmsis_nn/Include/arm_nnsupportfunctions.h ****                                               const int32_t rhs_rows,
 408:Middlewares/tensorflow/third_party/cmsis_nn/Include/arm_nnsupportfunctions.h ****                                               const int32_t activation_min,
 409:Middlewares/tensorflow/third_party/cmsis_nn/Include/arm_nnsupportfunctions.h ****                                               const int32_t activation_max);
 410:Middlewares/tensorflow/third_party/cmsis_nn/Include/arm_nnsupportfunctions.h **** 
 411:Middlewares/tensorflow/third_party/cmsis_nn/Include/arm_nnsupportfunctions.h **** /**
 412:Middlewares/tensorflow/third_party/cmsis_nn/Include/arm_nnsupportfunctions.h ****  * @brief s8 Vector by Matrix (transposed) multiplication with s16 output
 413:Middlewares/tensorflow/third_party/cmsis_nn/Include/arm_nnsupportfunctions.h ****  *
 414:Middlewares/tensorflow/third_party/cmsis_nn/Include/arm_nnsupportfunctions.h ****  * @param[in]      lhs             Input left-hand side vector
 415:Middlewares/tensorflow/third_party/cmsis_nn/Include/arm_nnsupportfunctions.h ****  * @param[in]      rhs             Input right-hand side matrix (transposed)
 416:Middlewares/tensorflow/third_party/cmsis_nn/Include/arm_nnsupportfunctions.h ****  * @param[out]     dst             Output vector
 417:Middlewares/tensorflow/third_party/cmsis_nn/Include/arm_nnsupportfunctions.h ****  * @param[in]      lhs_offset      Offset to be added to the input values of the left-hand side
 418:Middlewares/tensorflow/third_party/cmsis_nn/Include/arm_nnsupportfunctions.h ****  *                                 vector. Range: -127 to 128
 419:Middlewares/tensorflow/third_party/cmsis_nn/Include/arm_nnsupportfunctions.h ****  * @param[in]      scatter_offset  Address offset for dst. First output is stored at 'dst', the
 420:Middlewares/tensorflow/third_party/cmsis_nn/Include/arm_nnsupportfunctions.h ****  *                                 second at 'dst + scatter_offset' and so on.
 421:Middlewares/tensorflow/third_party/cmsis_nn/Include/arm_nnsupportfunctions.h ****  * @param[in]      dst_multiplier  Output multiplier
 422:Middlewares/tensorflow/third_party/cmsis_nn/Include/arm_nnsupportfunctions.h ****  * @param[in]      dst_shift       Output shift
 423:Middlewares/tensorflow/third_party/cmsis_nn/Include/arm_nnsupportfunctions.h ****  * @param[in]      rhs_cols        Number of columns in the right-hand side input matrix
 424:Middlewares/tensorflow/third_party/cmsis_nn/Include/arm_nnsupportfunctions.h ****  * @param[in]      rhs_rows        Number of rows in the right-hand side input matrix
 425:Middlewares/tensorflow/third_party/cmsis_nn/Include/arm_nnsupportfunctions.h ****  * @param[in]      activation_min  Minimum value to clamp the output to. Range: int16
 426:Middlewares/tensorflow/third_party/cmsis_nn/Include/arm_nnsupportfunctions.h ****  * @param[in]      activation_max  Maximum value to clamp the output to. Range: int16
 427:Middlewares/tensorflow/third_party/cmsis_nn/Include/arm_nnsupportfunctions.h ****  *
 428:Middlewares/tensorflow/third_party/cmsis_nn/Include/arm_nnsupportfunctions.h ****  * @return         The function returns <code>ARM_CMSIS_NN_SUCCESS</code>
 429:Middlewares/tensorflow/third_party/cmsis_nn/Include/arm_nnsupportfunctions.h ****  *
 430:Middlewares/tensorflow/third_party/cmsis_nn/Include/arm_nnsupportfunctions.h ****  */
 431:Middlewares/tensorflow/third_party/cmsis_nn/Include/arm_nnsupportfunctions.h **** arm_cmsis_nn_status arm_nn_vec_mat_mult_t_svdf_s8(const int8_t *lhs,
 432:Middlewares/tensorflow/third_party/cmsis_nn/Include/arm_nnsupportfunctions.h ****                                                   const int8_t *rhs,
 433:Middlewares/tensorflow/third_party/cmsis_nn/Include/arm_nnsupportfunctions.h ****                                                   int16_t *dst,
 434:Middlewares/tensorflow/third_party/cmsis_nn/Include/arm_nnsupportfunctions.h ****                                                   const int32_t lhs_offset,
 435:Middlewares/tensorflow/third_party/cmsis_nn/Include/arm_nnsupportfunctions.h ****                                                   const int32_t scatter_offset,
 436:Middlewares/tensorflow/third_party/cmsis_nn/Include/arm_nnsupportfunctions.h ****                                                   const int32_t dst_multiplier,
 437:Middlewares/tensorflow/third_party/cmsis_nn/Include/arm_nnsupportfunctions.h ****                                                   const int32_t dst_shift,
 438:Middlewares/tensorflow/third_party/cmsis_nn/Include/arm_nnsupportfunctions.h ****                                                   const int32_t rhs_cols,
 439:Middlewares/tensorflow/third_party/cmsis_nn/Include/arm_nnsupportfunctions.h ****                                                   const int32_t rhs_rows,
 440:Middlewares/tensorflow/third_party/cmsis_nn/Include/arm_nnsupportfunctions.h ****                                                   const int32_t activation_min,
 441:Middlewares/tensorflow/third_party/cmsis_nn/Include/arm_nnsupportfunctions.h ****                                                   const int32_t activation_max);
 442:Middlewares/tensorflow/third_party/cmsis_nn/Include/arm_nnsupportfunctions.h **** 
 443:Middlewares/tensorflow/third_party/cmsis_nn/Include/arm_nnsupportfunctions.h **** /**
 444:Middlewares/tensorflow/third_party/cmsis_nn/Include/arm_nnsupportfunctions.h ****  * @brief Depthwise convolution of transposed rhs matrix with 4 lhs matrices. To be used in padded 
 445:Middlewares/tensorflow/third_party/cmsis_nn/Include/arm_nnsupportfunctions.h ****  *        the padding is -lhs_offset(Range: int8). Dimensions are the same for lhs and rhs.
 446:Middlewares/tensorflow/third_party/cmsis_nn/Include/arm_nnsupportfunctions.h ****  *
 447:Middlewares/tensorflow/third_party/cmsis_nn/Include/arm_nnsupportfunctions.h ****  * @param[in]      lhs             Input left-hand side matrix
 448:Middlewares/tensorflow/third_party/cmsis_nn/Include/arm_nnsupportfunctions.h ****  * @param[in]      rhs             Input right-hand side matrix (transposed)
 449:Middlewares/tensorflow/third_party/cmsis_nn/Include/arm_nnsupportfunctions.h ****  * @param[in]      lhs_offset      LHS matrix offset(input offset). Range: -127 to 128
 450:Middlewares/tensorflow/third_party/cmsis_nn/Include/arm_nnsupportfunctions.h ****  * @param[in]      active_ch       Subset of total_ch processed
 451:Middlewares/tensorflow/third_party/cmsis_nn/Include/arm_nnsupportfunctions.h ****  * @param[in]      total_ch        Number of channels in LHS/RHS
 452:Middlewares/tensorflow/third_party/cmsis_nn/Include/arm_nnsupportfunctions.h ****  * @param[in]      out_shift       Per channel output shift. Length of vector is equal to number of
 453:Middlewares/tensorflow/third_party/cmsis_nn/Include/arm_nnsupportfunctions.h ****  * @param[in]      out_mult        Per channel output multiplier. Length of vector is equal to numb
 454:Middlewares/tensorflow/third_party/cmsis_nn/Include/arm_nnsupportfunctions.h ****  * @param[in]      out_offset      Offset to be added to the output values. Range: -127 to 128
ARM GAS  /tmp/ccapEGHH.s 			page 18


 455:Middlewares/tensorflow/third_party/cmsis_nn/Include/arm_nnsupportfunctions.h ****  * @param[in]      activation_min  Minimum value to clamp the output to. Range: int8
 456:Middlewares/tensorflow/third_party/cmsis_nn/Include/arm_nnsupportfunctions.h ****  * @param[in]      activation_max  Maximum value to clamp the output to. Range: int8
 457:Middlewares/tensorflow/third_party/cmsis_nn/Include/arm_nnsupportfunctions.h ****  * @param[in]       row_x_col       (row_dimension * col_dimension) of LHS/RHS matrix
 458:Middlewares/tensorflow/third_party/cmsis_nn/Include/arm_nnsupportfunctions.h ****  * @param[in]      output_bias     Per channel output bias. Length of vector is equal to number of 
 459:Middlewares/tensorflow/third_party/cmsis_nn/Include/arm_nnsupportfunctions.h ****  * @param[in]      out             Output pointer
 460:Middlewares/tensorflow/third_party/cmsis_nn/Include/arm_nnsupportfunctions.h ****  *
 461:Middlewares/tensorflow/third_party/cmsis_nn/Include/arm_nnsupportfunctions.h ****  * @return         The function returns one of the two
 462:Middlewares/tensorflow/third_party/cmsis_nn/Include/arm_nnsupportfunctions.h ****  *                  - Updated output pointer if an implementation is available
 463:Middlewares/tensorflow/third_party/cmsis_nn/Include/arm_nnsupportfunctions.h ****  *                  - NULL if no implementation is available.
 464:Middlewares/tensorflow/third_party/cmsis_nn/Include/arm_nnsupportfunctions.h ****  *
 465:Middlewares/tensorflow/third_party/cmsis_nn/Include/arm_nnsupportfunctions.h ****  * @note           If number of channels is not a multiple of 4, upto 3 elements outside the bounda
 466:Middlewares/tensorflow/third_party/cmsis_nn/Include/arm_nnsupportfunctions.h ****  * out for the following.
 467:Middlewares/tensorflow/third_party/cmsis_nn/Include/arm_nnsupportfunctions.h ****  *                  - Output shift
 468:Middlewares/tensorflow/third_party/cmsis_nn/Include/arm_nnsupportfunctions.h ****  *                  - Output multiplier
 469:Middlewares/tensorflow/third_party/cmsis_nn/Include/arm_nnsupportfunctions.h ****  *                  - Output bias
 470:Middlewares/tensorflow/third_party/cmsis_nn/Include/arm_nnsupportfunctions.h ****  *                  - rhs
 471:Middlewares/tensorflow/third_party/cmsis_nn/Include/arm_nnsupportfunctions.h ****  */
 472:Middlewares/tensorflow/third_party/cmsis_nn/Include/arm_nnsupportfunctions.h **** arm_cmsis_nn_status arm_nn_depthwise_conv_nt_t_padded_s8(const int8_t *lhs,
 473:Middlewares/tensorflow/third_party/cmsis_nn/Include/arm_nnsupportfunctions.h ****                                                          const int8_t *rhs,
 474:Middlewares/tensorflow/third_party/cmsis_nn/Include/arm_nnsupportfunctions.h ****                                                          const int32_t lhs_offset,
 475:Middlewares/tensorflow/third_party/cmsis_nn/Include/arm_nnsupportfunctions.h ****                                                          const int32_t active_ch,
 476:Middlewares/tensorflow/third_party/cmsis_nn/Include/arm_nnsupportfunctions.h ****                                                          const int32_t total_ch,
 477:Middlewares/tensorflow/third_party/cmsis_nn/Include/arm_nnsupportfunctions.h ****                                                          const int32_t *out_shift,
 478:Middlewares/tensorflow/third_party/cmsis_nn/Include/arm_nnsupportfunctions.h ****                                                          const int32_t *out_mult,
 479:Middlewares/tensorflow/third_party/cmsis_nn/Include/arm_nnsupportfunctions.h ****                                                          const int32_t out_offset,
 480:Middlewares/tensorflow/third_party/cmsis_nn/Include/arm_nnsupportfunctions.h ****                                                          const int32_t activation_min,
 481:Middlewares/tensorflow/third_party/cmsis_nn/Include/arm_nnsupportfunctions.h ****                                                          const int32_t activation_max,
 482:Middlewares/tensorflow/third_party/cmsis_nn/Include/arm_nnsupportfunctions.h ****                                                          const uint16_t row_x_col,
 483:Middlewares/tensorflow/third_party/cmsis_nn/Include/arm_nnsupportfunctions.h ****                                                          const int32_t *const output_bias,
 484:Middlewares/tensorflow/third_party/cmsis_nn/Include/arm_nnsupportfunctions.h ****                                                          int8_t *out);
 485:Middlewares/tensorflow/third_party/cmsis_nn/Include/arm_nnsupportfunctions.h **** 
 486:Middlewares/tensorflow/third_party/cmsis_nn/Include/arm_nnsupportfunctions.h **** /**
 487:Middlewares/tensorflow/third_party/cmsis_nn/Include/arm_nnsupportfunctions.h ****  * @brief Depthwise convolution of transposed rhs matrix with 4 lhs matrices. To be used in non-pad
 488:Middlewares/tensorflow/third_party/cmsis_nn/Include/arm_nnsupportfunctions.h ****  *        Dimensions are the same for lhs and rhs.
 489:Middlewares/tensorflow/third_party/cmsis_nn/Include/arm_nnsupportfunctions.h ****  *
 490:Middlewares/tensorflow/third_party/cmsis_nn/Include/arm_nnsupportfunctions.h ****  * @param[in]      lhs             Input left-hand side matrix
 491:Middlewares/tensorflow/third_party/cmsis_nn/Include/arm_nnsupportfunctions.h ****  * @param[in]      rhs             Input right-hand side matrix (transposed)
 492:Middlewares/tensorflow/third_party/cmsis_nn/Include/arm_nnsupportfunctions.h ****  * @param[in]      lhs_offset      LHS matrix offset(input offset). Range: -127 to 128
 493:Middlewares/tensorflow/third_party/cmsis_nn/Include/arm_nnsupportfunctions.h ****  * @param[in]      active_ch       Subset of total_ch processed
 494:Middlewares/tensorflow/third_party/cmsis_nn/Include/arm_nnsupportfunctions.h ****  * @param[in]      total_ch        Number of channels in LHS/RHS
 495:Middlewares/tensorflow/third_party/cmsis_nn/Include/arm_nnsupportfunctions.h ****  * @param[in]      out_shift       Per channel output shift. Length of vector is equal to number of
 496:Middlewares/tensorflow/third_party/cmsis_nn/Include/arm_nnsupportfunctions.h ****  * @param[in]      out_mult        Per channel output multiplier. Length of vector is equal to numb
 497:Middlewares/tensorflow/third_party/cmsis_nn/Include/arm_nnsupportfunctions.h ****  * @param[in]      out_offset      Offset to be added to the output values. Range: -127 to 128
 498:Middlewares/tensorflow/third_party/cmsis_nn/Include/arm_nnsupportfunctions.h ****  * @param[in]      activation_min  Minimum value to clamp the output to. Range: int8
 499:Middlewares/tensorflow/third_party/cmsis_nn/Include/arm_nnsupportfunctions.h ****  * @param[in]      activation_max  Maximum value to clamp the output to. Range: int8
 500:Middlewares/tensorflow/third_party/cmsis_nn/Include/arm_nnsupportfunctions.h ****  * @param[in]       row_x_col       (row_dimension * col_dimension) of LHS/RHS matrix
 501:Middlewares/tensorflow/third_party/cmsis_nn/Include/arm_nnsupportfunctions.h ****  * @param[in]      output_bias     Per channel output bias. Length of vector is equal to number of 
 502:Middlewares/tensorflow/third_party/cmsis_nn/Include/arm_nnsupportfunctions.h ****  * @param[in]      out             Output pointer
 503:Middlewares/tensorflow/third_party/cmsis_nn/Include/arm_nnsupportfunctions.h ****  *
 504:Middlewares/tensorflow/third_party/cmsis_nn/Include/arm_nnsupportfunctions.h ****  * @return         The function returns one of the two
 505:Middlewares/tensorflow/third_party/cmsis_nn/Include/arm_nnsupportfunctions.h ****  *                  - Updated output pointer if an implementation is available
 506:Middlewares/tensorflow/third_party/cmsis_nn/Include/arm_nnsupportfunctions.h ****  *                  - NULL if no implementation is available.
 507:Middlewares/tensorflow/third_party/cmsis_nn/Include/arm_nnsupportfunctions.h ****  *
 508:Middlewares/tensorflow/third_party/cmsis_nn/Include/arm_nnsupportfunctions.h ****  * @note           If number of channels is not a multiple of 4, upto 3 elements outside the bounda
 509:Middlewares/tensorflow/third_party/cmsis_nn/Include/arm_nnsupportfunctions.h ****  * out for the following.
 510:Middlewares/tensorflow/third_party/cmsis_nn/Include/arm_nnsupportfunctions.h ****  *                  - Output shift
 511:Middlewares/tensorflow/third_party/cmsis_nn/Include/arm_nnsupportfunctions.h ****  *                  - Output multiplier
ARM GAS  /tmp/ccapEGHH.s 			page 19


 512:Middlewares/tensorflow/third_party/cmsis_nn/Include/arm_nnsupportfunctions.h ****  *                  - Output bias
 513:Middlewares/tensorflow/third_party/cmsis_nn/Include/arm_nnsupportfunctions.h ****  *                  - rhs
 514:Middlewares/tensorflow/third_party/cmsis_nn/Include/arm_nnsupportfunctions.h ****  */
 515:Middlewares/tensorflow/third_party/cmsis_nn/Include/arm_nnsupportfunctions.h **** arm_cmsis_nn_status arm_nn_depthwise_conv_nt_t_s8(const int8_t *lhs,
 516:Middlewares/tensorflow/third_party/cmsis_nn/Include/arm_nnsupportfunctions.h ****                                                   const int8_t *rhs,
 517:Middlewares/tensorflow/third_party/cmsis_nn/Include/arm_nnsupportfunctions.h ****                                                   const int32_t lhs_offset,
 518:Middlewares/tensorflow/third_party/cmsis_nn/Include/arm_nnsupportfunctions.h ****                                                   const int32_t active_ch,
 519:Middlewares/tensorflow/third_party/cmsis_nn/Include/arm_nnsupportfunctions.h ****                                                   const int32_t total_ch,
 520:Middlewares/tensorflow/third_party/cmsis_nn/Include/arm_nnsupportfunctions.h ****                                                   const int32_t *out_shift,
 521:Middlewares/tensorflow/third_party/cmsis_nn/Include/arm_nnsupportfunctions.h ****                                                   const int32_t *out_mult,
 522:Middlewares/tensorflow/third_party/cmsis_nn/Include/arm_nnsupportfunctions.h ****                                                   const int32_t out_offset,
 523:Middlewares/tensorflow/third_party/cmsis_nn/Include/arm_nnsupportfunctions.h ****                                                   const int32_t activation_min,
 524:Middlewares/tensorflow/third_party/cmsis_nn/Include/arm_nnsupportfunctions.h ****                                                   const int32_t activation_max,
 525:Middlewares/tensorflow/third_party/cmsis_nn/Include/arm_nnsupportfunctions.h ****                                                   const uint16_t row_x_col,
 526:Middlewares/tensorflow/third_party/cmsis_nn/Include/arm_nnsupportfunctions.h ****                                                   const int32_t *const output_bias,
 527:Middlewares/tensorflow/third_party/cmsis_nn/Include/arm_nnsupportfunctions.h ****                                                   int8_t *out);
 528:Middlewares/tensorflow/third_party/cmsis_nn/Include/arm_nnsupportfunctions.h **** 
 529:Middlewares/tensorflow/third_party/cmsis_nn/Include/arm_nnsupportfunctions.h **** /**
 530:Middlewares/tensorflow/third_party/cmsis_nn/Include/arm_nnsupportfunctions.h ****  * @brief Depthwise convolution of transposed rhs matrix with 4 lhs matrices. To be used in non-pad
 531:Middlewares/tensorflow/third_party/cmsis_nn/Include/arm_nnsupportfunctions.h ****  *        Dimensions are the same for lhs and rhs.
 532:Middlewares/tensorflow/third_party/cmsis_nn/Include/arm_nnsupportfunctions.h ****  *
 533:Middlewares/tensorflow/third_party/cmsis_nn/Include/arm_nnsupportfunctions.h ****  * @param[in]      lhs             Input left-hand side matrix
 534:Middlewares/tensorflow/third_party/cmsis_nn/Include/arm_nnsupportfunctions.h ****  * @param[in]      rhs             Input right-hand side matrix (transposed)
 535:Middlewares/tensorflow/third_party/cmsis_nn/Include/arm_nnsupportfunctions.h ****  * @param[in]      num_ch          Number of channels in LHS/RHS
 536:Middlewares/tensorflow/third_party/cmsis_nn/Include/arm_nnsupportfunctions.h ****  * @param[in]      out_shift       Per channel output shift. Length of vector is equal to number of
 537:Middlewares/tensorflow/third_party/cmsis_nn/Include/arm_nnsupportfunctions.h ****  * @param[in]      out_mult        Per channel output multiplier. Length of vector is equal to numb
 538:Middlewares/tensorflow/third_party/cmsis_nn/Include/arm_nnsupportfunctions.h ****  * @param[in]      activation_min  Minimum value to clamp the output to. Range: int8
 539:Middlewares/tensorflow/third_party/cmsis_nn/Include/arm_nnsupportfunctions.h ****  * @param[in]      activation_max  Maximum value to clamp the output to. Range: int8
 540:Middlewares/tensorflow/third_party/cmsis_nn/Include/arm_nnsupportfunctions.h ****  * @param[in]       row_x_col       (row_dimension * col_dimension) of LHS/RHS matrix
 541:Middlewares/tensorflow/third_party/cmsis_nn/Include/arm_nnsupportfunctions.h ****  * @param[in]      output_bias     Per channel output bias. Length of vector is equal to number of 
 542:Middlewares/tensorflow/third_party/cmsis_nn/Include/arm_nnsupportfunctions.h ****  * @param[in]      out             Output pointer
 543:Middlewares/tensorflow/third_party/cmsis_nn/Include/arm_nnsupportfunctions.h ****  *
 544:Middlewares/tensorflow/third_party/cmsis_nn/Include/arm_nnsupportfunctions.h ****  * @return         The function returns one of the two
 545:Middlewares/tensorflow/third_party/cmsis_nn/Include/arm_nnsupportfunctions.h ****  *                  - Updated output pointer if an implementation is available
 546:Middlewares/tensorflow/third_party/cmsis_nn/Include/arm_nnsupportfunctions.h ****  *                  - NULL if no implementation is available.
 547:Middlewares/tensorflow/third_party/cmsis_nn/Include/arm_nnsupportfunctions.h ****  *
 548:Middlewares/tensorflow/third_party/cmsis_nn/Include/arm_nnsupportfunctions.h ****  * @note           If number of channels is not a multiple of 4, upto 3 elements outside the bounda
 549:Middlewares/tensorflow/third_party/cmsis_nn/Include/arm_nnsupportfunctions.h ****  * out for the following.
 550:Middlewares/tensorflow/third_party/cmsis_nn/Include/arm_nnsupportfunctions.h ****  *                  - Output shift
 551:Middlewares/tensorflow/third_party/cmsis_nn/Include/arm_nnsupportfunctions.h ****  *                  - Output multiplier
 552:Middlewares/tensorflow/third_party/cmsis_nn/Include/arm_nnsupportfunctions.h ****  *                  - Output bias
 553:Middlewares/tensorflow/third_party/cmsis_nn/Include/arm_nnsupportfunctions.h ****  *                  - rhs
 554:Middlewares/tensorflow/third_party/cmsis_nn/Include/arm_nnsupportfunctions.h ****  */
 555:Middlewares/tensorflow/third_party/cmsis_nn/Include/arm_nnsupportfunctions.h **** int16_t *arm_nn_depthwise_conv_nt_t_s16(const int16_t *lhs,
 556:Middlewares/tensorflow/third_party/cmsis_nn/Include/arm_nnsupportfunctions.h ****                                         const int8_t *rhs,
 557:Middlewares/tensorflow/third_party/cmsis_nn/Include/arm_nnsupportfunctions.h ****                                         const uint16_t num_ch,
 558:Middlewares/tensorflow/third_party/cmsis_nn/Include/arm_nnsupportfunctions.h ****                                         const int32_t *out_shift,
 559:Middlewares/tensorflow/third_party/cmsis_nn/Include/arm_nnsupportfunctions.h ****                                         const int32_t *out_mult,
 560:Middlewares/tensorflow/third_party/cmsis_nn/Include/arm_nnsupportfunctions.h ****                                         const int32_t activation_min,
 561:Middlewares/tensorflow/third_party/cmsis_nn/Include/arm_nnsupportfunctions.h ****                                         const int32_t activation_max,
 562:Middlewares/tensorflow/third_party/cmsis_nn/Include/arm_nnsupportfunctions.h ****                                         const uint16_t row_x_col,
 563:Middlewares/tensorflow/third_party/cmsis_nn/Include/arm_nnsupportfunctions.h ****                                         const int64_t *const output_bias,
 564:Middlewares/tensorflow/third_party/cmsis_nn/Include/arm_nnsupportfunctions.h ****                                         int16_t *out);
 565:Middlewares/tensorflow/third_party/cmsis_nn/Include/arm_nnsupportfunctions.h **** 
 566:Middlewares/tensorflow/third_party/cmsis_nn/Include/arm_nnsupportfunctions.h **** /**
 567:Middlewares/tensorflow/third_party/cmsis_nn/Include/arm_nnsupportfunctions.h ****   @brief         Read 2 s16 elements and post increment pointer.
 568:Middlewares/tensorflow/third_party/cmsis_nn/Include/arm_nnsupportfunctions.h ****   @param[in]     in_q15   Pointer to pointer that holds address of input.
ARM GAS  /tmp/ccapEGHH.s 			page 20


 569:Middlewares/tensorflow/third_party/cmsis_nn/Include/arm_nnsupportfunctions.h ****   @return        q31 value
 570:Middlewares/tensorflow/third_party/cmsis_nn/Include/arm_nnsupportfunctions.h ****  */
 571:Middlewares/tensorflow/third_party/cmsis_nn/Include/arm_nnsupportfunctions.h **** __STATIC_FORCEINLINE int32_t arm_nn_read_q15x2_ia(const int16_t **in_q15)
 572:Middlewares/tensorflow/third_party/cmsis_nn/Include/arm_nnsupportfunctions.h **** {
 573:Middlewares/tensorflow/third_party/cmsis_nn/Include/arm_nnsupportfunctions.h ****     int32_t val;
 574:Middlewares/tensorflow/third_party/cmsis_nn/Include/arm_nnsupportfunctions.h **** 
 575:Middlewares/tensorflow/third_party/cmsis_nn/Include/arm_nnsupportfunctions.h ****     memcpy(&val, *in_q15, 4);
 576:Middlewares/tensorflow/third_party/cmsis_nn/Include/arm_nnsupportfunctions.h ****     *in_q15 += 2;
 577:Middlewares/tensorflow/third_party/cmsis_nn/Include/arm_nnsupportfunctions.h **** 
 578:Middlewares/tensorflow/third_party/cmsis_nn/Include/arm_nnsupportfunctions.h ****     return (val);
 579:Middlewares/tensorflow/third_party/cmsis_nn/Include/arm_nnsupportfunctions.h **** }
 580:Middlewares/tensorflow/third_party/cmsis_nn/Include/arm_nnsupportfunctions.h **** 
 581:Middlewares/tensorflow/third_party/cmsis_nn/Include/arm_nnsupportfunctions.h **** /**
 582:Middlewares/tensorflow/third_party/cmsis_nn/Include/arm_nnsupportfunctions.h ****   @brief         Read 4 s8 from s8 pointer and post increment pointer.
 583:Middlewares/tensorflow/third_party/cmsis_nn/Include/arm_nnsupportfunctions.h ****   @param[in]     in_s8       Pointer to pointer that holds address of input.
 584:Middlewares/tensorflow/third_party/cmsis_nn/Include/arm_nnsupportfunctions.h ****   @return        q31 value
 585:Middlewares/tensorflow/third_party/cmsis_nn/Include/arm_nnsupportfunctions.h ****  */
 586:Middlewares/tensorflow/third_party/cmsis_nn/Include/arm_nnsupportfunctions.h **** __STATIC_FORCEINLINE int32_t arm_nn_read_s8x4_ia(const int8_t **in_s8)
 587:Middlewares/tensorflow/third_party/cmsis_nn/Include/arm_nnsupportfunctions.h **** {
 588:Middlewares/tensorflow/third_party/cmsis_nn/Include/arm_nnsupportfunctions.h ****     int32_t val;
 589:Middlewares/tensorflow/third_party/cmsis_nn/Include/arm_nnsupportfunctions.h ****     memcpy(&val, *in_s8, 4);
 590:Middlewares/tensorflow/third_party/cmsis_nn/Include/arm_nnsupportfunctions.h ****     *in_s8 += 4;
 591:Middlewares/tensorflow/third_party/cmsis_nn/Include/arm_nnsupportfunctions.h **** 
 592:Middlewares/tensorflow/third_party/cmsis_nn/Include/arm_nnsupportfunctions.h ****     return (val);
 593:Middlewares/tensorflow/third_party/cmsis_nn/Include/arm_nnsupportfunctions.h **** }
 594:Middlewares/tensorflow/third_party/cmsis_nn/Include/arm_nnsupportfunctions.h **** 
 595:Middlewares/tensorflow/third_party/cmsis_nn/Include/arm_nnsupportfunctions.h **** /**
 596:Middlewares/tensorflow/third_party/cmsis_nn/Include/arm_nnsupportfunctions.h ****   @brief         Read 2 int16 values from int16 pointer.
 597:Middlewares/tensorflow/third_party/cmsis_nn/Include/arm_nnsupportfunctions.h ****   @param[in]     in     pointer to address of input.
 598:Middlewares/tensorflow/third_party/cmsis_nn/Include/arm_nnsupportfunctions.h ****   @return        s32    value
 599:Middlewares/tensorflow/third_party/cmsis_nn/Include/arm_nnsupportfunctions.h ****  */
 600:Middlewares/tensorflow/third_party/cmsis_nn/Include/arm_nnsupportfunctions.h **** __STATIC_FORCEINLINE int32_t arm_nn_read_s16x2(const int16_t *in)
 601:Middlewares/tensorflow/third_party/cmsis_nn/Include/arm_nnsupportfunctions.h **** {
 602:Middlewares/tensorflow/third_party/cmsis_nn/Include/arm_nnsupportfunctions.h ****     int32_t val;
 603:Middlewares/tensorflow/third_party/cmsis_nn/Include/arm_nnsupportfunctions.h ****     memcpy(&val, in, 4);
 604:Middlewares/tensorflow/third_party/cmsis_nn/Include/arm_nnsupportfunctions.h **** 
 605:Middlewares/tensorflow/third_party/cmsis_nn/Include/arm_nnsupportfunctions.h ****     return (val);
 606:Middlewares/tensorflow/third_party/cmsis_nn/Include/arm_nnsupportfunctions.h **** }
 607:Middlewares/tensorflow/third_party/cmsis_nn/Include/arm_nnsupportfunctions.h **** 
 608:Middlewares/tensorflow/third_party/cmsis_nn/Include/arm_nnsupportfunctions.h **** /**
 609:Middlewares/tensorflow/third_party/cmsis_nn/Include/arm_nnsupportfunctions.h ****   @brief         Read 4 s8 values.
 610:Middlewares/tensorflow/third_party/cmsis_nn/Include/arm_nnsupportfunctions.h ****   @param[in]     in_s8       pointer to address of input.
 611:Middlewares/tensorflow/third_party/cmsis_nn/Include/arm_nnsupportfunctions.h ****   @return        s32 value
 612:Middlewares/tensorflow/third_party/cmsis_nn/Include/arm_nnsupportfunctions.h ****  */
 613:Middlewares/tensorflow/third_party/cmsis_nn/Include/arm_nnsupportfunctions.h **** __STATIC_FORCEINLINE int32_t arm_nn_read_s8x4(const int8_t *in_s8)
 614:Middlewares/tensorflow/third_party/cmsis_nn/Include/arm_nnsupportfunctions.h **** {
 615:Middlewares/tensorflow/third_party/cmsis_nn/Include/arm_nnsupportfunctions.h ****     int32_t val;
 616:Middlewares/tensorflow/third_party/cmsis_nn/Include/arm_nnsupportfunctions.h ****     memcpy(&val, in_s8, 4);
 617:Middlewares/tensorflow/third_party/cmsis_nn/Include/arm_nnsupportfunctions.h **** 
 618:Middlewares/tensorflow/third_party/cmsis_nn/Include/arm_nnsupportfunctions.h ****     return (val);
 619:Middlewares/tensorflow/third_party/cmsis_nn/Include/arm_nnsupportfunctions.h **** }
 620:Middlewares/tensorflow/third_party/cmsis_nn/Include/arm_nnsupportfunctions.h **** 
 621:Middlewares/tensorflow/third_party/cmsis_nn/Include/arm_nnsupportfunctions.h **** /**
 622:Middlewares/tensorflow/third_party/cmsis_nn/Include/arm_nnsupportfunctions.h ****   @brief         Write four s8 to s8 pointer and increment pointer afterwards.
 623:Middlewares/tensorflow/third_party/cmsis_nn/Include/arm_nnsupportfunctions.h ****   @param[in]     in       Double pointer to input value
 624:Middlewares/tensorflow/third_party/cmsis_nn/Include/arm_nnsupportfunctions.h ****   @param[in]     value    Four bytes to copy
 625:Middlewares/tensorflow/third_party/cmsis_nn/Include/arm_nnsupportfunctions.h ****  */
ARM GAS  /tmp/ccapEGHH.s 			page 21


 626:Middlewares/tensorflow/third_party/cmsis_nn/Include/arm_nnsupportfunctions.h **** __STATIC_FORCEINLINE void arm_nn_write_s8x4_ia(int8_t **in, int32_t value)
 627:Middlewares/tensorflow/third_party/cmsis_nn/Include/arm_nnsupportfunctions.h **** {
 628:Middlewares/tensorflow/third_party/cmsis_nn/Include/arm_nnsupportfunctions.h ****     memcpy(*in, &value, 4);
 629:Middlewares/tensorflow/third_party/cmsis_nn/Include/arm_nnsupportfunctions.h ****     *in += 4;
 630:Middlewares/tensorflow/third_party/cmsis_nn/Include/arm_nnsupportfunctions.h **** }
 631:Middlewares/tensorflow/third_party/cmsis_nn/Include/arm_nnsupportfunctions.h **** 
 632:Middlewares/tensorflow/third_party/cmsis_nn/Include/arm_nnsupportfunctions.h **** /**
 633:Middlewares/tensorflow/third_party/cmsis_nn/Include/arm_nnsupportfunctions.h ****  * @brief           memset optimized for MVE
 634:Middlewares/tensorflow/third_party/cmsis_nn/Include/arm_nnsupportfunctions.h ****  * @param[in, out]  dst         Destination pointer
 635:Middlewares/tensorflow/third_party/cmsis_nn/Include/arm_nnsupportfunctions.h ****  * @param[in]       val         Value to set
 636:Middlewares/tensorflow/third_party/cmsis_nn/Include/arm_nnsupportfunctions.h ****  * @param[in]       block_size  Number of bytes to copy.
 637:Middlewares/tensorflow/third_party/cmsis_nn/Include/arm_nnsupportfunctions.h ****  *
 638:Middlewares/tensorflow/third_party/cmsis_nn/Include/arm_nnsupportfunctions.h ****  */
 639:Middlewares/tensorflow/third_party/cmsis_nn/Include/arm_nnsupportfunctions.h **** __STATIC_FORCEINLINE void arm_memset_s8(int8_t *dst, const int8_t val, uint32_t block_size)
 640:Middlewares/tensorflow/third_party/cmsis_nn/Include/arm_nnsupportfunctions.h **** {
 641:Middlewares/tensorflow/third_party/cmsis_nn/Include/arm_nnsupportfunctions.h **** #if defined(ARM_MATH_MVEI)
 642:Middlewares/tensorflow/third_party/cmsis_nn/Include/arm_nnsupportfunctions.h ****     __asm volatile("   vdup.8                  q0, %[set_val]             \n"
 643:Middlewares/tensorflow/third_party/cmsis_nn/Include/arm_nnsupportfunctions.h ****                    "   wlstp.8                 lr, %[cnt], 1f             \n"
 644:Middlewares/tensorflow/third_party/cmsis_nn/Include/arm_nnsupportfunctions.h ****                    "2:                                                    \n"
 645:Middlewares/tensorflow/third_party/cmsis_nn/Include/arm_nnsupportfunctions.h ****                    "   vstrb.8                 q0, [%[in]], #16            \n"
 646:Middlewares/tensorflow/third_party/cmsis_nn/Include/arm_nnsupportfunctions.h ****                    "   letp                    lr, 2b                     \n"
 647:Middlewares/tensorflow/third_party/cmsis_nn/Include/arm_nnsupportfunctions.h ****                    "1:                                                    \n"
 648:Middlewares/tensorflow/third_party/cmsis_nn/Include/arm_nnsupportfunctions.h ****                    : [in] "+r"(dst)
 649:Middlewares/tensorflow/third_party/cmsis_nn/Include/arm_nnsupportfunctions.h ****                    : [cnt] "r"(block_size), [set_val] "r"(val)
 650:Middlewares/tensorflow/third_party/cmsis_nn/Include/arm_nnsupportfunctions.h ****                    : "q0", "memory", "r14");
 651:Middlewares/tensorflow/third_party/cmsis_nn/Include/arm_nnsupportfunctions.h **** #else
 652:Middlewares/tensorflow/third_party/cmsis_nn/Include/arm_nnsupportfunctions.h ****     memset(dst, val, block_size);
 653:Middlewares/tensorflow/third_party/cmsis_nn/Include/arm_nnsupportfunctions.h **** #endif
 654:Middlewares/tensorflow/third_party/cmsis_nn/Include/arm_nnsupportfunctions.h **** }
 655:Middlewares/tensorflow/third_party/cmsis_nn/Include/arm_nnsupportfunctions.h **** 
 656:Middlewares/tensorflow/third_party/cmsis_nn/Include/arm_nnsupportfunctions.h **** #if defined(ARM_MATH_DSP)
 657:Middlewares/tensorflow/third_party/cmsis_nn/Include/arm_nnsupportfunctions.h **** 
 658:Middlewares/tensorflow/third_party/cmsis_nn/Include/arm_nnsupportfunctions.h **** /**
 659:Middlewares/tensorflow/third_party/cmsis_nn/Include/arm_nnsupportfunctions.h ****  * @brief read and expand one s8 word into two s16 words
 660:Middlewares/tensorflow/third_party/cmsis_nn/Include/arm_nnsupportfunctions.h ****  */
 661:Middlewares/tensorflow/third_party/cmsis_nn/Include/arm_nnsupportfunctions.h **** 
 662:Middlewares/tensorflow/third_party/cmsis_nn/Include/arm_nnsupportfunctions.h **** __STATIC_FORCEINLINE const int8_t *read_and_pad(const int8_t *source, int32_t *out1, int32_t *out2)
 663:Middlewares/tensorflow/third_party/cmsis_nn/Include/arm_nnsupportfunctions.h **** {
 664:Middlewares/tensorflow/third_party/cmsis_nn/Include/arm_nnsupportfunctions.h ****     int32_t inA = arm_nn_read_s8x4_ia(&source);
 665:Middlewares/tensorflow/third_party/cmsis_nn/Include/arm_nnsupportfunctions.h ****     int32_t inAbuf1 = SXTB16_RORn((uint32_t)inA, 8);
 666:Middlewares/tensorflow/third_party/cmsis_nn/Include/arm_nnsupportfunctions.h ****     int32_t inAbuf2 = SXTB16(inA);
 667:Middlewares/tensorflow/third_party/cmsis_nn/Include/arm_nnsupportfunctions.h **** 
 668:Middlewares/tensorflow/third_party/cmsis_nn/Include/arm_nnsupportfunctions.h ****     #ifndef ARM_MATH_BIG_ENDIAN
 669:Middlewares/tensorflow/third_party/cmsis_nn/Include/arm_nnsupportfunctions.h ****     *out2 = (int32_t)(PKHTB(inAbuf1, inAbuf2, 16));
 670:Middlewares/tensorflow/third_party/cmsis_nn/Include/arm_nnsupportfunctions.h ****     *out1 = (int32_t)(PKHBT(inAbuf2, inAbuf1, 16));
 671:Middlewares/tensorflow/third_party/cmsis_nn/Include/arm_nnsupportfunctions.h ****     #else
 672:Middlewares/tensorflow/third_party/cmsis_nn/Include/arm_nnsupportfunctions.h ****     *out1 = (int32_t)(PKHTB(inAbuf1, inAbuf2, 16));
 673:Middlewares/tensorflow/third_party/cmsis_nn/Include/arm_nnsupportfunctions.h ****     *out2 = (int32_t)(PKHBT(inAbuf2, inAbuf1, 16));
 674:Middlewares/tensorflow/third_party/cmsis_nn/Include/arm_nnsupportfunctions.h ****     #endif
 675:Middlewares/tensorflow/third_party/cmsis_nn/Include/arm_nnsupportfunctions.h **** 
 676:Middlewares/tensorflow/third_party/cmsis_nn/Include/arm_nnsupportfunctions.h ****     return source;
 677:Middlewares/tensorflow/third_party/cmsis_nn/Include/arm_nnsupportfunctions.h **** }
 678:Middlewares/tensorflow/third_party/cmsis_nn/Include/arm_nnsupportfunctions.h **** 
 679:Middlewares/tensorflow/third_party/cmsis_nn/Include/arm_nnsupportfunctions.h **** /**
 680:Middlewares/tensorflow/third_party/cmsis_nn/Include/arm_nnsupportfunctions.h ****  * @brief read and expand one s8 word into two s16 words with reordering
 681:Middlewares/tensorflow/third_party/cmsis_nn/Include/arm_nnsupportfunctions.h ****  */
 682:Middlewares/tensorflow/third_party/cmsis_nn/Include/arm_nnsupportfunctions.h **** 
ARM GAS  /tmp/ccapEGHH.s 			page 22


 683:Middlewares/tensorflow/third_party/cmsis_nn/Include/arm_nnsupportfunctions.h **** __STATIC_FORCEINLINE const int8_t *read_and_pad_reordered(const int8_t *source, int32_t *out1, int3
 684:Middlewares/tensorflow/third_party/cmsis_nn/Include/arm_nnsupportfunctions.h **** {
 685:Middlewares/tensorflow/third_party/cmsis_nn/Include/arm_nnsupportfunctions.h ****     int32_t inA = arm_nn_read_s8x4_ia(&source);
 686:Middlewares/tensorflow/third_party/cmsis_nn/Include/arm_nnsupportfunctions.h ****     #ifndef ARM_MATH_BIG_ENDIAN
 687:Middlewares/tensorflow/third_party/cmsis_nn/Include/arm_nnsupportfunctions.h ****     *out2 = SXTB16(ROR((uint32_t)inA, 8));
 688:Middlewares/tensorflow/third_party/cmsis_nn/Include/arm_nnsupportfunctions.h ****     *out1 = SXTB16(inA);
 689:Middlewares/tensorflow/third_party/cmsis_nn/Include/arm_nnsupportfunctions.h ****     #else
 690:Middlewares/tensorflow/third_party/cmsis_nn/Include/arm_nnsupportfunctions.h ****     *out1 = SXTB16(ROR((uint32_t)inA, 8));
 691:Middlewares/tensorflow/third_party/cmsis_nn/Include/arm_nnsupportfunctions.h ****     *out2 = SXTB16(inA);
 692:Middlewares/tensorflow/third_party/cmsis_nn/Include/arm_nnsupportfunctions.h ****     #endif
 693:Middlewares/tensorflow/third_party/cmsis_nn/Include/arm_nnsupportfunctions.h **** 
 694:Middlewares/tensorflow/third_party/cmsis_nn/Include/arm_nnsupportfunctions.h ****     return source;
 695:Middlewares/tensorflow/third_party/cmsis_nn/Include/arm_nnsupportfunctions.h **** }
 696:Middlewares/tensorflow/third_party/cmsis_nn/Include/arm_nnsupportfunctions.h **** 
 697:Middlewares/tensorflow/third_party/cmsis_nn/Include/arm_nnsupportfunctions.h **** #endif
 698:Middlewares/tensorflow/third_party/cmsis_nn/Include/arm_nnsupportfunctions.h **** 
 699:Middlewares/tensorflow/third_party/cmsis_nn/Include/arm_nnsupportfunctions.h **** /**
 700:Middlewares/tensorflow/third_party/cmsis_nn/Include/arm_nnsupportfunctions.h ****  * @brief Matrix-multiplication function for convolution with per-channel requantization.
 701:Middlewares/tensorflow/third_party/cmsis_nn/Include/arm_nnsupportfunctions.h ****  * @param[in]       input_a     pointer to operand A
 702:Middlewares/tensorflow/third_party/cmsis_nn/Include/arm_nnsupportfunctions.h ****  * @param[in]       input_b     pointer to operand B, always consists of 2 vectors.
 703:Middlewares/tensorflow/third_party/cmsis_nn/Include/arm_nnsupportfunctions.h ****  * @param[in]       output_ch   number of rows of A
 704:Middlewares/tensorflow/third_party/cmsis_nn/Include/arm_nnsupportfunctions.h ****  * @param[in]       out_shift  pointer to per output channel requantization shift parameter.
 705:Middlewares/tensorflow/third_party/cmsis_nn/Include/arm_nnsupportfunctions.h ****  * @param[in]       out_mult   pointer to per output channel requantization multiplier parameter.
 706:Middlewares/tensorflow/third_party/cmsis_nn/Include/arm_nnsupportfunctions.h ****  * @param[in]       out_offset      output tensor offset.
 707:Middlewares/tensorflow/third_party/cmsis_nn/Include/arm_nnsupportfunctions.h ****  * @param[in]       activation_min   minimum value to clamp the output to. Range : int8
 708:Middlewares/tensorflow/third_party/cmsis_nn/Include/arm_nnsupportfunctions.h ****  * @param[in]       activation_max   maximum value to clamp the output to. Range : int8
 709:Middlewares/tensorflow/third_party/cmsis_nn/Include/arm_nnsupportfunctions.h ****  * @param[in]       num_col_a   number of columns of A
 710:Middlewares/tensorflow/third_party/cmsis_nn/Include/arm_nnsupportfunctions.h ****  * @param[in]       output_bias per output channel bias. Range : int32
 711:Middlewares/tensorflow/third_party/cmsis_nn/Include/arm_nnsupportfunctions.h ****  * @param[in,out]   out_0       pointer to output
 712:Middlewares/tensorflow/third_party/cmsis_nn/Include/arm_nnsupportfunctions.h ****  * @return     The function returns one of the two
 713:Middlewares/tensorflow/third_party/cmsis_nn/Include/arm_nnsupportfunctions.h ****  *              1. The incremented output pointer for a successful operation or
 714:Middlewares/tensorflow/third_party/cmsis_nn/Include/arm_nnsupportfunctions.h ****  *              2. NULL if implementation is not available.
 715:Middlewares/tensorflow/third_party/cmsis_nn/Include/arm_nnsupportfunctions.h ****  *
 716:Middlewares/tensorflow/third_party/cmsis_nn/Include/arm_nnsupportfunctions.h ****  * @details   This function does the matrix multiplication of weight matrix for all output channels
 717:Middlewares/tensorflow/third_party/cmsis_nn/Include/arm_nnsupportfunctions.h ****  *            with 2 columns from im2col and produces two elements/output_channel. The outputs are
 718:Middlewares/tensorflow/third_party/cmsis_nn/Include/arm_nnsupportfunctions.h ****  *            clamped in the range provided by activation min and max.
 719:Middlewares/tensorflow/third_party/cmsis_nn/Include/arm_nnsupportfunctions.h ****  *            Supported framework: TensorFlow Lite micro.
 720:Middlewares/tensorflow/third_party/cmsis_nn/Include/arm_nnsupportfunctions.h ****  */
 721:Middlewares/tensorflow/third_party/cmsis_nn/Include/arm_nnsupportfunctions.h **** int8_t *arm_nn_mat_mult_kernel_s8_s16(const int8_t *input_a,
 722:Middlewares/tensorflow/third_party/cmsis_nn/Include/arm_nnsupportfunctions.h ****                                       const int16_t *input_b,
 723:Middlewares/tensorflow/third_party/cmsis_nn/Include/arm_nnsupportfunctions.h ****                                       const uint16_t output_ch,
 724:Middlewares/tensorflow/third_party/cmsis_nn/Include/arm_nnsupportfunctions.h ****                                       const int32_t *out_shift,
 725:Middlewares/tensorflow/third_party/cmsis_nn/Include/arm_nnsupportfunctions.h ****                                       const int32_t *out_mult,
 726:Middlewares/tensorflow/third_party/cmsis_nn/Include/arm_nnsupportfunctions.h ****                                       const int32_t out_offset,
 727:Middlewares/tensorflow/third_party/cmsis_nn/Include/arm_nnsupportfunctions.h ****                                       const int16_t activation_min,
 728:Middlewares/tensorflow/third_party/cmsis_nn/Include/arm_nnsupportfunctions.h ****                                       const int16_t activation_max,
 729:Middlewares/tensorflow/third_party/cmsis_nn/Include/arm_nnsupportfunctions.h ****                                       const uint16_t num_col_a,
 730:Middlewares/tensorflow/third_party/cmsis_nn/Include/arm_nnsupportfunctions.h ****                                       const int32_t *const output_bias,
 731:Middlewares/tensorflow/third_party/cmsis_nn/Include/arm_nnsupportfunctions.h ****                                       int8_t *out_0);
 732:Middlewares/tensorflow/third_party/cmsis_nn/Include/arm_nnsupportfunctions.h **** 
 733:Middlewares/tensorflow/third_party/cmsis_nn/Include/arm_nnsupportfunctions.h **** /**
 734:Middlewares/tensorflow/third_party/cmsis_nn/Include/arm_nnsupportfunctions.h ****  * @brief Common softmax function for s8 input and s8 or s16 output
 735:Middlewares/tensorflow/third_party/cmsis_nn/Include/arm_nnsupportfunctions.h ****  * @param[in]  input          Pointer to the input tensor
 736:Middlewares/tensorflow/third_party/cmsis_nn/Include/arm_nnsupportfunctions.h ****  * @param[in]  num_rows       Number of rows in the input tensor
 737:Middlewares/tensorflow/third_party/cmsis_nn/Include/arm_nnsupportfunctions.h ****  * @param[in]  row_size       Number of elements in each input row
 738:Middlewares/tensorflow/third_party/cmsis_nn/Include/arm_nnsupportfunctions.h ****  * @param[in]  mult           Input quantization multiplier
 739:Middlewares/tensorflow/third_party/cmsis_nn/Include/arm_nnsupportfunctions.h ****  * @param[in]  shift          Input quantization shift within the range [0, 31]
ARM GAS  /tmp/ccapEGHH.s 			page 23


 740:Middlewares/tensorflow/third_party/cmsis_nn/Include/arm_nnsupportfunctions.h ****  * @param[in]  diff_min       Minimum difference with max in row. Used to check if
 741:Middlewares/tensorflow/third_party/cmsis_nn/Include/arm_nnsupportfunctions.h ****  *                            the quantized exponential operation can be performed
 742:Middlewares/tensorflow/third_party/cmsis_nn/Include/arm_nnsupportfunctions.h ****  * @param[in]  int16_output   Indicating s8 output if 0 else s16 output
 743:Middlewares/tensorflow/third_party/cmsis_nn/Include/arm_nnsupportfunctions.h ****  * @param[out] output         Pointer to the output tensor
 744:Middlewares/tensorflow/third_party/cmsis_nn/Include/arm_nnsupportfunctions.h ****  *
 745:Middlewares/tensorflow/third_party/cmsis_nn/Include/arm_nnsupportfunctions.h ****  * @note Supported framework: TensorFlow Lite micro (bit-accurate)
 746:Middlewares/tensorflow/third_party/cmsis_nn/Include/arm_nnsupportfunctions.h ****  *
 747:Middlewares/tensorflow/third_party/cmsis_nn/Include/arm_nnsupportfunctions.h ****  */
 748:Middlewares/tensorflow/third_party/cmsis_nn/Include/arm_nnsupportfunctions.h **** void arm_nn_softmax_common_s8(const int8_t *input,
 749:Middlewares/tensorflow/third_party/cmsis_nn/Include/arm_nnsupportfunctions.h ****                               const int32_t num_rows,
 750:Middlewares/tensorflow/third_party/cmsis_nn/Include/arm_nnsupportfunctions.h ****                               const int32_t row_size,
 751:Middlewares/tensorflow/third_party/cmsis_nn/Include/arm_nnsupportfunctions.h ****                               const int32_t mult,
 752:Middlewares/tensorflow/third_party/cmsis_nn/Include/arm_nnsupportfunctions.h ****                               const int32_t shift,
 753:Middlewares/tensorflow/third_party/cmsis_nn/Include/arm_nnsupportfunctions.h ****                               const int32_t diff_min,
 754:Middlewares/tensorflow/third_party/cmsis_nn/Include/arm_nnsupportfunctions.h ****                               const bool int16_output,
 755:Middlewares/tensorflow/third_party/cmsis_nn/Include/arm_nnsupportfunctions.h ****                               void *output);
 756:Middlewares/tensorflow/third_party/cmsis_nn/Include/arm_nnsupportfunctions.h **** 
 757:Middlewares/tensorflow/third_party/cmsis_nn/Include/arm_nnsupportfunctions.h **** /**
 758:Middlewares/tensorflow/third_party/cmsis_nn/Include/arm_nnsupportfunctions.h ****  * @brief macro for adding rounding offset
 759:Middlewares/tensorflow/third_party/cmsis_nn/Include/arm_nnsupportfunctions.h ****  */
 760:Middlewares/tensorflow/third_party/cmsis_nn/Include/arm_nnsupportfunctions.h **** #ifndef ARM_NN_TRUNCATE
 761:Middlewares/tensorflow/third_party/cmsis_nn/Include/arm_nnsupportfunctions.h ****     #define NN_ROUND(out_shift) ((0x1 << out_shift) >> 1)
 762:Middlewares/tensorflow/third_party/cmsis_nn/Include/arm_nnsupportfunctions.h **** #else
 763:Middlewares/tensorflow/third_party/cmsis_nn/Include/arm_nnsupportfunctions.h ****     #define NN_ROUND(out_shift) 0
 764:Middlewares/tensorflow/third_party/cmsis_nn/Include/arm_nnsupportfunctions.h **** #endif
 765:Middlewares/tensorflow/third_party/cmsis_nn/Include/arm_nnsupportfunctions.h **** 
 766:Middlewares/tensorflow/third_party/cmsis_nn/Include/arm_nnsupportfunctions.h **** // Macros for shortening quantization functions' names and avoid long lines
 767:Middlewares/tensorflow/third_party/cmsis_nn/Include/arm_nnsupportfunctions.h **** #define MUL_SAT(a, b) arm_nn_doubling_high_mult((a), (b))
 768:Middlewares/tensorflow/third_party/cmsis_nn/Include/arm_nnsupportfunctions.h **** #define MUL_SAT_MVE(a, b) arm_doubling_high_mult_mve_32x4((a), (b))
 769:Middlewares/tensorflow/third_party/cmsis_nn/Include/arm_nnsupportfunctions.h **** #define MUL_POW2(a, b) arm_nn_mult_by_power_of_two((a), (b))
 770:Middlewares/tensorflow/third_party/cmsis_nn/Include/arm_nnsupportfunctions.h **** 
 771:Middlewares/tensorflow/third_party/cmsis_nn/Include/arm_nnsupportfunctions.h **** #define DIV_POW2(a, b) arm_nn_divide_by_power_of_two((a), (b))
 772:Middlewares/tensorflow/third_party/cmsis_nn/Include/arm_nnsupportfunctions.h **** #define DIV_POW2_MVE(a, b) arm_divide_by_power_of_two_mve((a), (b))
 773:Middlewares/tensorflow/third_party/cmsis_nn/Include/arm_nnsupportfunctions.h **** 
 774:Middlewares/tensorflow/third_party/cmsis_nn/Include/arm_nnsupportfunctions.h **** #define EXP_ON_NEG(x) arm_nn_exp_on_negative_values((x))
 775:Middlewares/tensorflow/third_party/cmsis_nn/Include/arm_nnsupportfunctions.h **** #define ONE_OVER1(x) arm_nn_one_over_one_plus_x_for_x_in_0_1((x))
 776:Middlewares/tensorflow/third_party/cmsis_nn/Include/arm_nnsupportfunctions.h **** 
 777:Middlewares/tensorflow/third_party/cmsis_nn/Include/arm_nnsupportfunctions.h **** /**
 778:Middlewares/tensorflow/third_party/cmsis_nn/Include/arm_nnsupportfunctions.h ****  * @brief           Saturating doubling high multiply. Result matches
 779:Middlewares/tensorflow/third_party/cmsis_nn/Include/arm_nnsupportfunctions.h ****  *                  NEON instruction VQRDMULH.
 780:Middlewares/tensorflow/third_party/cmsis_nn/Include/arm_nnsupportfunctions.h ****  * @param[in]       m1        Multiplicand. Range: {NN_Q31_MIN, NN_Q31_MAX}
 781:Middlewares/tensorflow/third_party/cmsis_nn/Include/arm_nnsupportfunctions.h ****  * @param[in]       m2        Multiplier. Range: {NN_Q31_MIN, NN_Q31_MAX}
 782:Middlewares/tensorflow/third_party/cmsis_nn/Include/arm_nnsupportfunctions.h ****  * @return          Result of multiplication.
 783:Middlewares/tensorflow/third_party/cmsis_nn/Include/arm_nnsupportfunctions.h ****  *
 784:Middlewares/tensorflow/third_party/cmsis_nn/Include/arm_nnsupportfunctions.h ****  */
 785:Middlewares/tensorflow/third_party/cmsis_nn/Include/arm_nnsupportfunctions.h **** __STATIC_FORCEINLINE int32_t arm_nn_doubling_high_mult(const int32_t m1, const int32_t m2)
 786:Middlewares/tensorflow/third_party/cmsis_nn/Include/arm_nnsupportfunctions.h **** {
 787:Middlewares/tensorflow/third_party/cmsis_nn/Include/arm_nnsupportfunctions.h ****     int32_t result = 0;
 788:Middlewares/tensorflow/third_party/cmsis_nn/Include/arm_nnsupportfunctions.h ****     // Rounding offset to add for a right shift of 31
 789:Middlewares/tensorflow/third_party/cmsis_nn/Include/arm_nnsupportfunctions.h ****     int64_t mult = 1 << 30;
 790:Middlewares/tensorflow/third_party/cmsis_nn/Include/arm_nnsupportfunctions.h **** 
 791:Middlewares/tensorflow/third_party/cmsis_nn/Include/arm_nnsupportfunctions.h ****     if ((m1 < 0) ^ (m2 < 0))
 792:Middlewares/tensorflow/third_party/cmsis_nn/Include/arm_nnsupportfunctions.h ****     {
 793:Middlewares/tensorflow/third_party/cmsis_nn/Include/arm_nnsupportfunctions.h ****         mult = 1 - mult;
 794:Middlewares/tensorflow/third_party/cmsis_nn/Include/arm_nnsupportfunctions.h ****     }
 795:Middlewares/tensorflow/third_party/cmsis_nn/Include/arm_nnsupportfunctions.h ****     // Gets resolved as a SMLAL instruction
 796:Middlewares/tensorflow/third_party/cmsis_nn/Include/arm_nnsupportfunctions.h ****     mult = mult + (int64_t)m1 * m2;
ARM GAS  /tmp/ccapEGHH.s 			page 24


 797:Middlewares/tensorflow/third_party/cmsis_nn/Include/arm_nnsupportfunctions.h **** 
 798:Middlewares/tensorflow/third_party/cmsis_nn/Include/arm_nnsupportfunctions.h ****     // Utilize all of the upper 32 bits. This is the doubling step
 799:Middlewares/tensorflow/third_party/cmsis_nn/Include/arm_nnsupportfunctions.h ****     // as well.
 800:Middlewares/tensorflow/third_party/cmsis_nn/Include/arm_nnsupportfunctions.h ****     result = (int32_t)(mult / (1ll << 31));
 801:Middlewares/tensorflow/third_party/cmsis_nn/Include/arm_nnsupportfunctions.h **** 
 802:Middlewares/tensorflow/third_party/cmsis_nn/Include/arm_nnsupportfunctions.h ****     if ((m1 == m2) && (m1 == (int32_t)NN_Q31_MIN))
 803:Middlewares/tensorflow/third_party/cmsis_nn/Include/arm_nnsupportfunctions.h ****     {
 804:Middlewares/tensorflow/third_party/cmsis_nn/Include/arm_nnsupportfunctions.h ****         result = NN_Q31_MAX;
 805:Middlewares/tensorflow/third_party/cmsis_nn/Include/arm_nnsupportfunctions.h ****     }
 806:Middlewares/tensorflow/third_party/cmsis_nn/Include/arm_nnsupportfunctions.h ****     return result;
 807:Middlewares/tensorflow/third_party/cmsis_nn/Include/arm_nnsupportfunctions.h **** }
 808:Middlewares/tensorflow/third_party/cmsis_nn/Include/arm_nnsupportfunctions.h **** 
 809:Middlewares/tensorflow/third_party/cmsis_nn/Include/arm_nnsupportfunctions.h **** /**
 810:Middlewares/tensorflow/third_party/cmsis_nn/Include/arm_nnsupportfunctions.h ****  * @brief           Doubling high multiply without saturation. This is intended
 811:Middlewares/tensorflow/third_party/cmsis_nn/Include/arm_nnsupportfunctions.h ****  *                  for requantization where the scale is a positive integer
 812:Middlewares/tensorflow/third_party/cmsis_nn/Include/arm_nnsupportfunctions.h ****  *
 813:Middlewares/tensorflow/third_party/cmsis_nn/Include/arm_nnsupportfunctions.h ****  * @param[in]       m1        Multiplicand. Range: {NN_Q31_MIN, NN_Q31_MAX}
 814:Middlewares/tensorflow/third_party/cmsis_nn/Include/arm_nnsupportfunctions.h ****  * @param[in]       m2        Multiplier Range: {NN_Q31_MIN, NN_Q31_MAX}
 815:Middlewares/tensorflow/third_party/cmsis_nn/Include/arm_nnsupportfunctions.h ****  * @return          Result of multiplication.
 816:Middlewares/tensorflow/third_party/cmsis_nn/Include/arm_nnsupportfunctions.h ****  * @note            The result of this matches that of neon instruction
 817:Middlewares/tensorflow/third_party/cmsis_nn/Include/arm_nnsupportfunctions.h ****  *                  VQRDMULH for m1 in range {NN_Q31_MIN, NN_Q31_MAX} and m2 in
 818:Middlewares/tensorflow/third_party/cmsis_nn/Include/arm_nnsupportfunctions.h ****  *                  range {NN_Q31_MIN + 1, NN_Q31_MAX}. Saturation occurs when
 819:Middlewares/tensorflow/third_party/cmsis_nn/Include/arm_nnsupportfunctions.h ****  *                  m1 equals m2 equals NN_Q31_MIN and that is not handled by
 820:Middlewares/tensorflow/third_party/cmsis_nn/Include/arm_nnsupportfunctions.h ****  *                  this function.
 821:Middlewares/tensorflow/third_party/cmsis_nn/Include/arm_nnsupportfunctions.h ****  *
 822:Middlewares/tensorflow/third_party/cmsis_nn/Include/arm_nnsupportfunctions.h ****  */
 823:Middlewares/tensorflow/third_party/cmsis_nn/Include/arm_nnsupportfunctions.h **** __STATIC_FORCEINLINE int32_t arm_nn_doubling_high_mult_no_sat(const int32_t m1, const int32_t m2)
 824:Middlewares/tensorflow/third_party/cmsis_nn/Include/arm_nnsupportfunctions.h **** {
 825:Middlewares/tensorflow/third_party/cmsis_nn/Include/arm_nnsupportfunctions.h ****     int32_t result = 0;
 826:Middlewares/tensorflow/third_party/cmsis_nn/Include/arm_nnsupportfunctions.h ****     union arm_nn_long_long mult;
 827:Middlewares/tensorflow/third_party/cmsis_nn/Include/arm_nnsupportfunctions.h **** 
 828:Middlewares/tensorflow/third_party/cmsis_nn/Include/arm_nnsupportfunctions.h ****     // Rounding offset to add for a right shift of 31
 829:Middlewares/tensorflow/third_party/cmsis_nn/Include/arm_nnsupportfunctions.h ****     mult.word.low = 1 << 30;
 830:Middlewares/tensorflow/third_party/cmsis_nn/Include/arm_nnsupportfunctions.h ****     mult.word.high = 0;
 831:Middlewares/tensorflow/third_party/cmsis_nn/Include/arm_nnsupportfunctions.h **** 
 832:Middlewares/tensorflow/third_party/cmsis_nn/Include/arm_nnsupportfunctions.h ****     // Gets resolved as a SMLAL instruction
 833:Middlewares/tensorflow/third_party/cmsis_nn/Include/arm_nnsupportfunctions.h ****     mult.long_long = mult.long_long + (int64_t)m1 * m2;
 834:Middlewares/tensorflow/third_party/cmsis_nn/Include/arm_nnsupportfunctions.h **** 
 835:Middlewares/tensorflow/third_party/cmsis_nn/Include/arm_nnsupportfunctions.h ****     // Utilize all of the upper 32 bits. This is the doubling step
 836:Middlewares/tensorflow/third_party/cmsis_nn/Include/arm_nnsupportfunctions.h ****     // as well.
 837:Middlewares/tensorflow/third_party/cmsis_nn/Include/arm_nnsupportfunctions.h ****     result = (int32_t)(mult.long_long >> 31);
 838:Middlewares/tensorflow/third_party/cmsis_nn/Include/arm_nnsupportfunctions.h **** 
 839:Middlewares/tensorflow/third_party/cmsis_nn/Include/arm_nnsupportfunctions.h ****     return result;
 840:Middlewares/tensorflow/third_party/cmsis_nn/Include/arm_nnsupportfunctions.h **** }
 841:Middlewares/tensorflow/third_party/cmsis_nn/Include/arm_nnsupportfunctions.h **** 
 842:Middlewares/tensorflow/third_party/cmsis_nn/Include/arm_nnsupportfunctions.h **** /**
 843:Middlewares/tensorflow/third_party/cmsis_nn/Include/arm_nnsupportfunctions.h ****  * @brief           Rounding divide by power of two.
 844:Middlewares/tensorflow/third_party/cmsis_nn/Include/arm_nnsupportfunctions.h ****  * @param[in]       dividend - Dividend
 845:Middlewares/tensorflow/third_party/cmsis_nn/Include/arm_nnsupportfunctions.h ****  * @param[in]       exponent - Divisor = power(2, exponent)
 846:Middlewares/tensorflow/third_party/cmsis_nn/Include/arm_nnsupportfunctions.h ****  *                             Range: [0, 31]
 847:Middlewares/tensorflow/third_party/cmsis_nn/Include/arm_nnsupportfunctions.h ****  * @return          Rounded result of division. Midpoint is rounded away from zero.
 848:Middlewares/tensorflow/third_party/cmsis_nn/Include/arm_nnsupportfunctions.h ****  *
 849:Middlewares/tensorflow/third_party/cmsis_nn/Include/arm_nnsupportfunctions.h ****  */
 850:Middlewares/tensorflow/third_party/cmsis_nn/Include/arm_nnsupportfunctions.h **** __STATIC_FORCEINLINE int32_t arm_nn_divide_by_power_of_two(const int32_t dividend, const int32_t ex
 851:Middlewares/tensorflow/third_party/cmsis_nn/Include/arm_nnsupportfunctions.h **** {
 852:Middlewares/tensorflow/third_party/cmsis_nn/Include/arm_nnsupportfunctions.h ****     int32_t result = 0;
 853:Middlewares/tensorflow/third_party/cmsis_nn/Include/arm_nnsupportfunctions.h ****     const int32_t remainder_mask = (1 << exponent) - 1;
ARM GAS  /tmp/ccapEGHH.s 			page 25


 854:Middlewares/tensorflow/third_party/cmsis_nn/Include/arm_nnsupportfunctions.h ****     int32_t remainder = remainder_mask & dividend;
 855:Middlewares/tensorflow/third_party/cmsis_nn/Include/arm_nnsupportfunctions.h **** 
 856:Middlewares/tensorflow/third_party/cmsis_nn/Include/arm_nnsupportfunctions.h ****     // Basic division
 857:Middlewares/tensorflow/third_party/cmsis_nn/Include/arm_nnsupportfunctions.h ****     result = dividend >> exponent;
 858:Middlewares/tensorflow/third_party/cmsis_nn/Include/arm_nnsupportfunctions.h **** 
 859:Middlewares/tensorflow/third_party/cmsis_nn/Include/arm_nnsupportfunctions.h ****     // Adjust 'result' for rounding (mid point away from zero)
 860:Middlewares/tensorflow/third_party/cmsis_nn/Include/arm_nnsupportfunctions.h ****     int32_t threshold = remainder_mask >> 1;
 861:Middlewares/tensorflow/third_party/cmsis_nn/Include/arm_nnsupportfunctions.h ****     if (result < 0)
 862:Middlewares/tensorflow/third_party/cmsis_nn/Include/arm_nnsupportfunctions.h ****     {
 863:Middlewares/tensorflow/third_party/cmsis_nn/Include/arm_nnsupportfunctions.h ****         threshold++;
 864:Middlewares/tensorflow/third_party/cmsis_nn/Include/arm_nnsupportfunctions.h ****     }
 865:Middlewares/tensorflow/third_party/cmsis_nn/Include/arm_nnsupportfunctions.h ****     if (remainder > threshold)
 866:Middlewares/tensorflow/third_party/cmsis_nn/Include/arm_nnsupportfunctions.h ****     {
 867:Middlewares/tensorflow/third_party/cmsis_nn/Include/arm_nnsupportfunctions.h ****         result++;
 868:Middlewares/tensorflow/third_party/cmsis_nn/Include/arm_nnsupportfunctions.h ****     }
 869:Middlewares/tensorflow/third_party/cmsis_nn/Include/arm_nnsupportfunctions.h **** 
 870:Middlewares/tensorflow/third_party/cmsis_nn/Include/arm_nnsupportfunctions.h ****     return result;
 871:Middlewares/tensorflow/third_party/cmsis_nn/Include/arm_nnsupportfunctions.h **** }
 872:Middlewares/tensorflow/third_party/cmsis_nn/Include/arm_nnsupportfunctions.h **** 
 873:Middlewares/tensorflow/third_party/cmsis_nn/Include/arm_nnsupportfunctions.h **** /**
 874:Middlewares/tensorflow/third_party/cmsis_nn/Include/arm_nnsupportfunctions.h ****  * @brief           Requantize a given value.
 875:Middlewares/tensorflow/third_party/cmsis_nn/Include/arm_nnsupportfunctions.h ****  * @param[in]       val         Value to be requantized
 876:Middlewares/tensorflow/third_party/cmsis_nn/Include/arm_nnsupportfunctions.h ****  * @param[in]       multiplier  multiplier. Range {NN_Q31_MIN + 1, Q32_MAX}
 877:Middlewares/tensorflow/third_party/cmsis_nn/Include/arm_nnsupportfunctions.h ****  * @param[in]       shift       left or right shift for 'val * multiplier'
 878:Middlewares/tensorflow/third_party/cmsis_nn/Include/arm_nnsupportfunctions.h ****  *
 879:Middlewares/tensorflow/third_party/cmsis_nn/Include/arm_nnsupportfunctions.h ****  * @return          Returns (val * multiplier)/(2 ^ shift)
 880:Middlewares/tensorflow/third_party/cmsis_nn/Include/arm_nnsupportfunctions.h ****  *
 881:Middlewares/tensorflow/third_party/cmsis_nn/Include/arm_nnsupportfunctions.h ****  */
 882:Middlewares/tensorflow/third_party/cmsis_nn/Include/arm_nnsupportfunctions.h **** __STATIC_FORCEINLINE int32_t arm_nn_requantize(const int32_t val, const int32_t multiplier, const i
 883:Middlewares/tensorflow/third_party/cmsis_nn/Include/arm_nnsupportfunctions.h **** {
 884:Middlewares/tensorflow/third_party/cmsis_nn/Include/arm_nnsupportfunctions.h **** #ifdef CMSIS_NN_USE_SINGLE_ROUNDING
 885:Middlewares/tensorflow/third_party/cmsis_nn/Include/arm_nnsupportfunctions.h ****     const int64_t total_shift = 31 - shift;
 886:Middlewares/tensorflow/third_party/cmsis_nn/Include/arm_nnsupportfunctions.h ****     const int64_t new_val = val * (int64_t)multiplier;
 887:Middlewares/tensorflow/third_party/cmsis_nn/Include/arm_nnsupportfunctions.h **** 
 888:Middlewares/tensorflow/third_party/cmsis_nn/Include/arm_nnsupportfunctions.h ****     int32_t result = new_val >> (total_shift - 1);
 889:Middlewares/tensorflow/third_party/cmsis_nn/Include/arm_nnsupportfunctions.h ****     result = (result + 1) >> 1;
 890:Middlewares/tensorflow/third_party/cmsis_nn/Include/arm_nnsupportfunctions.h **** 
 891:Middlewares/tensorflow/third_party/cmsis_nn/Include/arm_nnsupportfunctions.h ****     return result;
 892:Middlewares/tensorflow/third_party/cmsis_nn/Include/arm_nnsupportfunctions.h **** #else
 893:Middlewares/tensorflow/third_party/cmsis_nn/Include/arm_nnsupportfunctions.h ****     return arm_nn_divide_by_power_of_two(arm_nn_doubling_high_mult_no_sat(val * (1 << LEFT_SHIFT(sh
 894:Middlewares/tensorflow/third_party/cmsis_nn/Include/arm_nnsupportfunctions.h ****                                          RIGHT_SHIFT(shift));
 895:Middlewares/tensorflow/third_party/cmsis_nn/Include/arm_nnsupportfunctions.h **** #endif
 896:Middlewares/tensorflow/third_party/cmsis_nn/Include/arm_nnsupportfunctions.h **** }
 897:Middlewares/tensorflow/third_party/cmsis_nn/Include/arm_nnsupportfunctions.h **** 
 898:Middlewares/tensorflow/third_party/cmsis_nn/Include/arm_nnsupportfunctions.h **** /**
 899:Middlewares/tensorflow/third_party/cmsis_nn/Include/arm_nnsupportfunctions.h ****  * @brief           Requantize a given 64 bit value.
 900:Middlewares/tensorflow/third_party/cmsis_nn/Include/arm_nnsupportfunctions.h ****  * @param[in]       val                 Value to be requantized in the range {-(1<<47)} to {(1<<47)
 901:Middlewares/tensorflow/third_party/cmsis_nn/Include/arm_nnsupportfunctions.h ****  * @param[in]       reduced_multiplier  Reduced multiplier in the range {NN_Q31_MIN + 1, Q32_MAX} t
 902:Middlewares/tensorflow/third_party/cmsis_nn/Include/arm_nnsupportfunctions.h ****  * Q16_MAX}
 903:Middlewares/tensorflow/third_party/cmsis_nn/Include/arm_nnsupportfunctions.h ****  * @param[in]       shift               Left or right shift for 'val * multiplier' in the range {-3
 904:Middlewares/tensorflow/third_party/cmsis_nn/Include/arm_nnsupportfunctions.h ****  *
 905:Middlewares/tensorflow/third_party/cmsis_nn/Include/arm_nnsupportfunctions.h ****  * @return          Returns (val * multiplier)/(2 ^ shift)
 906:Middlewares/tensorflow/third_party/cmsis_nn/Include/arm_nnsupportfunctions.h ****  *
 907:Middlewares/tensorflow/third_party/cmsis_nn/Include/arm_nnsupportfunctions.h ****  */
 908:Middlewares/tensorflow/third_party/cmsis_nn/Include/arm_nnsupportfunctions.h **** __STATIC_FORCEINLINE int32_t arm_nn_requantize_s64(const int64_t val,
 271              		.loc 2 908 30 is_stmt 1 discriminator 2 view .LVU60
 272              	.LBB33:
ARM GAS  /tmp/ccapEGHH.s 			page 26


 909:Middlewares/tensorflow/third_party/cmsis_nn/Include/arm_nnsupportfunctions.h ****                                                    const int32_t reduced_multiplier,
 910:Middlewares/tensorflow/third_party/cmsis_nn/Include/arm_nnsupportfunctions.h ****                                                    const int32_t shift)
 911:Middlewares/tensorflow/third_party/cmsis_nn/Include/arm_nnsupportfunctions.h **** {
 912:Middlewares/tensorflow/third_party/cmsis_nn/Include/arm_nnsupportfunctions.h ****     const int64_t new_val = val * reduced_multiplier;
 273              		.loc 2 912 5 discriminator 2 view .LVU61
 274              		.loc 2 912 33 is_stmt 0 discriminator 2 view .LVU62
 275 0106 0A98     		ldr	r0, [sp, #40]
 276 0108 C717     		asrs	r7, r0, #31
 277              	.LVL29:
 278              		.loc 2 912 33 discriminator 2 view .LVU63
 279 010a 3B46     		mov	r3, r7
 280              		.loc 2 912 19 discriminator 2 view .LVU64
 281 010c 04FB03F3 		mul	r3, r4, r3
 282 0110 00FB0533 		mla	r3, r0, r5, r3
 283 0114 A4FB0045 		umull	r4, r5, r4, r0
 284              	.LVL30:
 285              		.loc 2 912 19 discriminator 2 view .LVU65
 286 0118 1D44     		add	r5, r5, r3
 287              	.LVL31:
 913:Middlewares/tensorflow/third_party/cmsis_nn/Include/arm_nnsupportfunctions.h **** 
 914:Middlewares/tensorflow/third_party/cmsis_nn/Include/arm_nnsupportfunctions.h ****     int32_t result = new_val >> (14 - shift); // 64->32 bit reduction
 288              		.loc 2 914 5 is_stmt 1 discriminator 2 view .LVU66
 289              		.loc 2 914 37 is_stmt 0 discriminator 2 view .LVU67
 290 011a C1F10E03 		rsb	r3, r1, #14
 291              		.loc 2 914 30 discriminator 2 view .LVU68
 292 011e 1231     		adds	r1, r1, #18
 293              	.LVL32:
 294              		.loc 2 914 30 discriminator 2 view .LVU69
 295 0120 B3F12002 		subs	r2, r3, #32
 296 0124 24FA03F3 		lsr	r3, r4, r3
 297 0128 05FA01F1 		lsl	r1, r5, r1
 298 012c 43EA0103 		orr	r3, r3, r1
 299 0130 02D4     		bmi	.L17
 300 0132 45FA02F2 		asr	r2, r5, r2
 301 0136 1343     		orrs	r3, r3, r2
 302              	.L17:
 303              	.LVL33:
 915:Middlewares/tensorflow/third_party/cmsis_nn/Include/arm_nnsupportfunctions.h ****     result = (result + 1) >> 1;               // Last shift position and insert round
 304              		.loc 2 915 5 is_stmt 1 discriminator 2 view .LVU70
 305              		.loc 2 915 22 is_stmt 0 discriminator 2 view .LVU71
 306 0138 0133     		adds	r3, r3, #1
 307              	.LVL34:
 308              		.loc 2 915 12 discriminator 2 view .LVU72
 309 013a 5B10     		asrs	r3, r3, #1
 310              	.LVL35:
 916:Middlewares/tensorflow/third_party/cmsis_nn/Include/arm_nnsupportfunctions.h **** 
 917:Middlewares/tensorflow/third_party/cmsis_nn/Include/arm_nnsupportfunctions.h ****     return result;
 311              		.loc 2 917 5 is_stmt 1 discriminator 2 view .LVU73
 312              		.loc 2 917 5 is_stmt 0 discriminator 2 view .LVU74
 313              	.LBE33:
 314              	.LBE32:
 226:Middlewares/tensorflow/third_party/cmsis_nn/Source/ConvolutionFunctions/arm_depthwise_conv_s16.c ****                         result = MAX(result, output_activation_min);
 315              		.loc 1 226 25 is_stmt 1 discriminator 2 view .LVU75
 316              		.loc 1 226 32 is_stmt 0 discriminator 2 view .LVU76
 317 013c 319A     		ldr	r2, [sp, #196]
 318 013e 9342     		cmp	r3, r2
 319 0140 B8BF     		it	lt
ARM GAS  /tmp/ccapEGHH.s 			page 27


 320 0142 1346     		movlt	r3, r2
 321              	.LVL36:
 227:Middlewares/tensorflow/third_party/cmsis_nn/Source/ConvolutionFunctions/arm_depthwise_conv_s16.c ****                         result = MIN(result, output_activation_max);
 322              		.loc 1 227 25 is_stmt 1 discriminator 2 view .LVU77
 323              		.loc 1 227 32 is_stmt 0 discriminator 2 view .LVU78
 324 0144 329A     		ldr	r2, [sp, #200]
 325 0146 9342     		cmp	r3, r2
 326 0148 A8BF     		it	ge
 327 014a 1346     		movge	r3, r2
 328              	.LVL37:
 228:Middlewares/tensorflow/third_party/cmsis_nn/Source/ConvolutionFunctions/arm_depthwise_conv_s16.c ****                         *output++ = (int16_t)result;
 329              		.loc 1 228 25 is_stmt 1 discriminator 2 view .LVU79
 330              		.loc 1 228 32 is_stmt 0 discriminator 2 view .LVU80
 331 014c 2C9A     		ldr	r2, [sp, #176]
 332              	.LVL38:
 333              		.loc 1 228 35 discriminator 2 view .LVU81
 334 014e 22F8023B 		strh	r3, [r2], #2	@ movhi
 335              	.LVL39:
 336              		.loc 1 228 35 discriminator 2 view .LVU82
 337              	.LBE25:
 168:Middlewares/tensorflow/third_party/cmsis_nn/Source/ConvolutionFunctions/arm_depthwise_conv_s16.c ****                     {
 338              		.loc 1 168 66 is_stmt 1 discriminator 2 view .LVU83
 168:Middlewares/tensorflow/third_party/cmsis_nn/Source/ConvolutionFunctions/arm_depthwise_conv_s16.c ****                     {
 339              		.loc 1 168 75 is_stmt 0 discriminator 2 view .LVU84
 340 0152 089B     		ldr	r3, [sp, #32]
 341              	.LVL40:
 168:Middlewares/tensorflow/third_party/cmsis_nn/Source/ConvolutionFunctions/arm_depthwise_conv_s16.c ****                     {
 342              		.loc 1 168 75 discriminator 2 view .LVU85
 343 0154 0133     		adds	r3, r3, #1
 344 0156 0893     		str	r3, [sp, #32]
 345              	.LVL41:
 346              	.LBB36:
 347              		.loc 1 228 32 discriminator 2 view .LVU86
 348 0158 2C92     		str	r2, [sp, #176]
 349              	.LVL42:
 350              	.L19:
 351              		.loc 1 228 32 discriminator 2 view .LVU87
 352              	.LBE36:
 168:Middlewares/tensorflow/third_party/cmsis_nn/Source/ConvolutionFunctions/arm_depthwise_conv_s16.c ****                     {
 353              		.loc 1 168 45 is_stmt 1 discriminator 1 view .LVU88
 168:Middlewares/tensorflow/third_party/cmsis_nn/Source/ConvolutionFunctions/arm_depthwise_conv_s16.c ****                     {
 354              		.loc 1 168 55 is_stmt 0 discriminator 1 view .LVU89
 355 015a 099B     		ldr	r3, [sp, #36]
 356 015c 0093     		str	r3, [sp]
 168:Middlewares/tensorflow/third_party/cmsis_nn/Source/ConvolutionFunctions/arm_depthwise_conv_s16.c ****                     {
 357              		.loc 1 168 21 discriminator 1 view .LVU90
 358 015e 089A     		ldr	r2, [sp, #32]
 359 0160 9342     		cmp	r3, r2
 360 0162 47DD     		ble	.L33
 361              	.LBB37:
 170:Middlewares/tensorflow/third_party/cmsis_nn/Source/ConvolutionFunctions/arm_depthwise_conv_s16.c **** 
 362              		.loc 1 170 25 is_stmt 1 view .LVU91
 170:Middlewares/tensorflow/third_party/cmsis_nn/Source/ConvolutionFunctions/arm_depthwise_conv_s16.c **** 
 363              		.loc 1 170 35 is_stmt 0 view .LVU92
 364 0164 099B     		ldr	r3, [sp, #36]
 365 0166 089A     		ldr	r2, [sp, #32]
 366 0168 0BFB032E 		mla	lr, fp, r3, r2
ARM GAS  /tmp/ccapEGHH.s 			page 28


 367              	.LVL43:
 172:Middlewares/tensorflow/third_party/cmsis_nn/Source/ConvolutionFunctions/arm_depthwise_conv_s16.c ****                         int64_t acc_0 = 0;
 368              		.loc 1 172 25 is_stmt 1 view .LVU93
 172:Middlewares/tensorflow/third_party/cmsis_nn/Source/ConvolutionFunctions/arm_depthwise_conv_s16.c ****                         int64_t acc_0 = 0;
 369              		.loc 1 172 60 is_stmt 0 view .LVU94
 370 016c 2E9B     		ldr	r3, [sp, #184]
 371 016e 53F82E30 		ldr	r3, [r3, lr, lsl #2]
 372 0172 464A     		ldr	r2, .L38
 373 0174 9342     		cmp	r3, r2
 374 0176 3FF770AF 		bgt	.L23
 172:Middlewares/tensorflow/third_party/cmsis_nn/Source/ConvolutionFunctions/arm_depthwise_conv_s16.c ****                         int64_t acc_0 = 0;
 375              		.loc 1 172 60 discriminator 1 view .LVU95
 376 017a 03F50043 		add	r3, r3, #32768
 377 017e 1B14     		asrs	r3, r3, #16
 378 0180 0A93     		str	r3, [sp, #40]
 379              	.L5:
 380              	.LVL44:
 173:Middlewares/tensorflow/third_party/cmsis_nn/Source/ConvolutionFunctions/arm_depthwise_conv_s16.c **** 
 381              		.loc 1 173 25 is_stmt 1 discriminator 4 view .LVU96
 175:Middlewares/tensorflow/third_party/cmsis_nn/Source/ConvolutionFunctions/arm_depthwise_conv_s16.c ****                         int ker_x_start;
 382              		.loc 1 175 25 discriminator 4 view .LVU97
 176:Middlewares/tensorflow/third_party/cmsis_nn/Source/ConvolutionFunctions/arm_depthwise_conv_s16.c ****                         int ker_y_end;
 383              		.loc 1 176 25 discriminator 4 view .LVU98
 177:Middlewares/tensorflow/third_party/cmsis_nn/Source/ConvolutionFunctions/arm_depthwise_conv_s16.c ****                         int ker_x_end;
 384              		.loc 1 177 25 discriminator 4 view .LVU99
 178:Middlewares/tensorflow/third_party/cmsis_nn/Source/ConvolutionFunctions/arm_depthwise_conv_s16.c **** 
 385              		.loc 1 178 25 discriminator 4 view .LVU100
 180:Middlewares/tensorflow/third_party/cmsis_nn/Source/ConvolutionFunctions/arm_depthwise_conv_s16.c ****                         {
 386              		.loc 1 180 25 discriminator 4 view .LVU101
 180:Middlewares/tensorflow/third_party/cmsis_nn/Source/ConvolutionFunctions/arm_depthwise_conv_s16.c ****                         {
 387              		.loc 1 180 28 is_stmt 0 discriminator 4 view .LVU102
 388 0182 B8F1010F 		cmp	r8, #1
 389 0186 7FF66CAF 		bls	.L6
 390              	.LBB34:
 182:Middlewares/tensorflow/third_party/cmsis_nn/Source/ConvolutionFunctions/arm_depthwise_conv_s16.c ****                             ker_x_start = MAX(0, start_x_max);
 391              		.loc 1 182 29 is_stmt 1 view .LVU103
 182:Middlewares/tensorflow/third_party/cmsis_nn/Source/ConvolutionFunctions/arm_depthwise_conv_s16.c ****                             ker_x_start = MAX(0, start_x_max);
 392              		.loc 1 182 70 is_stmt 0 view .LVU104
 393 018a A8EB0A03 		sub	r3, r8, r10
 182:Middlewares/tensorflow/third_party/cmsis_nn/Source/ConvolutionFunctions/arm_depthwise_conv_s16.c ****                             ker_x_start = MAX(0, start_x_max);
 394              		.loc 1 182 83 view .LVU105
 395 018e 013B     		subs	r3, r3, #1
 182:Middlewares/tensorflow/third_party/cmsis_nn/Source/ConvolutionFunctions/arm_depthwise_conv_s16.c ****                             ker_x_start = MAX(0, start_x_max);
 396              		.loc 1 182 43 view .LVU106
 397 0190 93FBF8F3 		sdiv	r3, r3, r8
 398              	.LVL45:
 183:Middlewares/tensorflow/third_party/cmsis_nn/Source/ConvolutionFunctions/arm_depthwise_conv_s16.c ****                             const int32_t end_min_x = (input_x - base_idx_x + dilation_x - 1) / dil
 399              		.loc 1 183 29 is_stmt 1 view .LVU107
 183:Middlewares/tensorflow/third_party/cmsis_nn/Source/ConvolutionFunctions/arm_depthwise_conv_s16.c ****                             const int32_t end_min_x = (input_x - base_idx_x + dilation_x - 1) / dil
 400              		.loc 1 183 41 is_stmt 0 view .LVU108
 401 0194 23EAE373 		bic	r3, r3, r3, asr #31
 402              	.LVL46:
 183:Middlewares/tensorflow/third_party/cmsis_nn/Source/ConvolutionFunctions/arm_depthwise_conv_s16.c ****                             const int32_t end_min_x = (input_x - base_idx_x + dilation_x - 1) / dil
 403              		.loc 1 183 41 view .LVU109
 404 0198 0793     		str	r3, [sp, #28]
 405              	.LVL47:
 184:Middlewares/tensorflow/third_party/cmsis_nn/Source/ConvolutionFunctions/arm_depthwise_conv_s16.c ****                             ker_x_end = MIN(kernel_x, end_min_x);
ARM GAS  /tmp/ccapEGHH.s 			page 29


 406              		.loc 1 184 29 is_stmt 1 view .LVU110
 184:Middlewares/tensorflow/third_party/cmsis_nn/Source/ConvolutionFunctions/arm_depthwise_conv_s16.c ****                             ker_x_end = MIN(kernel_x, end_min_x);
 407              		.loc 1 184 64 is_stmt 0 view .LVU111
 408 019a 019B     		ldr	r3, [sp, #4]
 409              	.LVL48:
 184:Middlewares/tensorflow/third_party/cmsis_nn/Source/ConvolutionFunctions/arm_depthwise_conv_s16.c ****                             ker_x_end = MIN(kernel_x, end_min_x);
 410              		.loc 1 184 64 view .LVU112
 411 019c A3EB0A07 		sub	r7, r3, r10
 184:Middlewares/tensorflow/third_party/cmsis_nn/Source/ConvolutionFunctions/arm_depthwise_conv_s16.c ****                             ker_x_end = MIN(kernel_x, end_min_x);
 412              		.loc 1 184 77 view .LVU113
 413 01a0 4744     		add	r7, r7, r8
 184:Middlewares/tensorflow/third_party/cmsis_nn/Source/ConvolutionFunctions/arm_depthwise_conv_s16.c ****                             ker_x_end = MIN(kernel_x, end_min_x);
 414              		.loc 1 184 90 view .LVU114
 415 01a2 013F     		subs	r7, r7, #1
 184:Middlewares/tensorflow/third_party/cmsis_nn/Source/ConvolutionFunctions/arm_depthwise_conv_s16.c ****                             ker_x_end = MIN(kernel_x, end_min_x);
 416              		.loc 1 184 43 view .LVU115
 417 01a4 97FBF8F7 		sdiv	r7, r7, r8
 418              	.LVL49:
 185:Middlewares/tensorflow/third_party/cmsis_nn/Source/ConvolutionFunctions/arm_depthwise_conv_s16.c ****                         }
 419              		.loc 1 185 29 is_stmt 1 view .LVU116
 185:Middlewares/tensorflow/third_party/cmsis_nn/Source/ConvolutionFunctions/arm_depthwise_conv_s16.c ****                         }
 420              		.loc 1 185 39 is_stmt 0 view .LVU117
 421 01a8 029B     		ldr	r3, [sp, #8]
 422 01aa 9F42     		cmp	r7, r3
 423 01ac A8BF     		it	ge
 424 01ae 1F46     		movge	r7, r3
 425              	.LVL50:
 426              	.L7:
 185:Middlewares/tensorflow/third_party/cmsis_nn/Source/ConvolutionFunctions/arm_depthwise_conv_s16.c ****                         }
 427              		.loc 1 185 39 view .LVU118
 428              	.LBE34:
 193:Middlewares/tensorflow/third_party/cmsis_nn/Source/ConvolutionFunctions/arm_depthwise_conv_s16.c ****                         {
 429              		.loc 1 193 25 is_stmt 1 view .LVU119
 193:Middlewares/tensorflow/third_party/cmsis_nn/Source/ConvolutionFunctions/arm_depthwise_conv_s16.c ****                         {
 430              		.loc 1 193 28 is_stmt 0 view .LVU120
 431 01b0 069A     		ldr	r2, [sp, #24]
 432 01b2 012A     		cmp	r2, #1
 433 01b4 7FF666AF 		bls	.L9
 434              	.LBB35:
 195:Middlewares/tensorflow/third_party/cmsis_nn/Source/ConvolutionFunctions/arm_depthwise_conv_s16.c ****                             ker_y_start = MAX(0, start_y_max);
 435              		.loc 1 195 29 is_stmt 1 view .LVU121
 195:Middlewares/tensorflow/third_party/cmsis_nn/Source/ConvolutionFunctions/arm_depthwise_conv_s16.c ****                             ker_y_start = MAX(0, start_y_max);
 436              		.loc 1 195 70 is_stmt 0 view .LVU122
 437 01b8 0599     		ldr	r1, [sp, #20]
 438 01ba 561A     		subs	r6, r2, r1
 195:Middlewares/tensorflow/third_party/cmsis_nn/Source/ConvolutionFunctions/arm_depthwise_conv_s16.c ****                             ker_y_start = MAX(0, start_y_max);
 439              		.loc 1 195 83 view .LVU123
 440 01bc 013E     		subs	r6, r6, #1
 195:Middlewares/tensorflow/third_party/cmsis_nn/Source/ConvolutionFunctions/arm_depthwise_conv_s16.c ****                             ker_y_start = MAX(0, start_y_max);
 441              		.loc 1 195 43 view .LVU124
 442 01be 96FBF2F6 		sdiv	r6, r6, r2
 443              	.LVL51:
 196:Middlewares/tensorflow/third_party/cmsis_nn/Source/ConvolutionFunctions/arm_depthwise_conv_s16.c ****                             const int32_t end_min_y = (input_y - base_idx_y + dilation_y - 1) / dil
 444              		.loc 1 196 29 is_stmt 1 view .LVU125
 196:Middlewares/tensorflow/third_party/cmsis_nn/Source/ConvolutionFunctions/arm_depthwise_conv_s16.c ****                             const int32_t end_min_y = (input_y - base_idx_y + dilation_y - 1) / dil
 445              		.loc 1 196 41 is_stmt 0 view .LVU126
 446 01c2 26EAE676 		bic	r6, r6, r6, asr #31
ARM GAS  /tmp/ccapEGHH.s 			page 30


 447              	.LVL52:
 197:Middlewares/tensorflow/third_party/cmsis_nn/Source/ConvolutionFunctions/arm_depthwise_conv_s16.c ****                             ker_y_end = MIN(kernel_y, end_min_y);
 448              		.loc 1 197 29 is_stmt 1 view .LVU127
 197:Middlewares/tensorflow/third_party/cmsis_nn/Source/ConvolutionFunctions/arm_depthwise_conv_s16.c ****                             ker_y_end = MIN(kernel_y, end_min_y);
 449              		.loc 1 197 64 is_stmt 0 view .LVU128
 450 01c6 0B9B     		ldr	r3, [sp, #44]
 451 01c8 5B1A     		subs	r3, r3, r1
 197:Middlewares/tensorflow/third_party/cmsis_nn/Source/ConvolutionFunctions/arm_depthwise_conv_s16.c ****                             ker_y_end = MIN(kernel_y, end_min_y);
 452              		.loc 1 197 77 view .LVU129
 453 01ca 1344     		add	r3, r3, r2
 197:Middlewares/tensorflow/third_party/cmsis_nn/Source/ConvolutionFunctions/arm_depthwise_conv_s16.c ****                             ker_y_end = MIN(kernel_y, end_min_y);
 454              		.loc 1 197 90 view .LVU130
 455 01cc 013B     		subs	r3, r3, #1
 197:Middlewares/tensorflow/third_party/cmsis_nn/Source/ConvolutionFunctions/arm_depthwise_conv_s16.c ****                             ker_y_end = MIN(kernel_y, end_min_y);
 456              		.loc 1 197 43 view .LVU131
 457 01ce 93FBF2F3 		sdiv	r3, r3, r2
 458              	.LVL53:
 198:Middlewares/tensorflow/third_party/cmsis_nn/Source/ConvolutionFunctions/arm_depthwise_conv_s16.c ****                         }
 459              		.loc 1 198 29 is_stmt 1 view .LVU132
 198:Middlewares/tensorflow/third_party/cmsis_nn/Source/ConvolutionFunctions/arm_depthwise_conv_s16.c ****                         }
 460              		.loc 1 198 39 is_stmt 0 view .LVU133
 461 01d2 0C9A     		ldr	r2, [sp, #48]
 462              	.LVL54:
 198:Middlewares/tensorflow/third_party/cmsis_nn/Source/ConvolutionFunctions/arm_depthwise_conv_s16.c ****                         }
 463              		.loc 1 198 39 view .LVU134
 464 01d4 9342     		cmp	r3, r2
 465 01d6 A8BF     		it	ge
 466 01d8 1346     		movge	r3, r2
 467              	.LVL55:
 198:Middlewares/tensorflow/third_party/cmsis_nn/Source/ConvolutionFunctions/arm_depthwise_conv_s16.c ****                         }
 468              		.loc 1 198 39 view .LVU135
 469 01da 0493     		str	r3, [sp, #16]
 470              	.LVL56:
 471              	.L10:
 198:Middlewares/tensorflow/third_party/cmsis_nn/Source/ConvolutionFunctions/arm_depthwise_conv_s16.c ****                         }
 472              		.loc 1 198 39 view .LVU136
 473              	.LBE35:
 206:Middlewares/tensorflow/third_party/cmsis_nn/Source/ConvolutionFunctions/arm_depthwise_conv_s16.c ****                         {
 474              		.loc 1 206 25 is_stmt 1 view .LVU137
 206:Middlewares/tensorflow/third_party/cmsis_nn/Source/ConvolutionFunctions/arm_depthwise_conv_s16.c ****                         {
 475              		.loc 1 206 28 is_stmt 0 view .LVU138
 476 01dc 2B9B     		ldr	r3, [sp, #172]
 477 01de 002B     		cmp	r3, #0
 478 01e0 3FF45FAF 		beq	.L26
 208:Middlewares/tensorflow/third_party/cmsis_nn/Source/ConvolutionFunctions/arm_depthwise_conv_s16.c ****                         }
 479              		.loc 1 208 29 is_stmt 1 view .LVU139
 208:Middlewares/tensorflow/third_party/cmsis_nn/Source/ConvolutionFunctions/arm_depthwise_conv_s16.c ****                         }
 480              		.loc 1 208 41 is_stmt 0 view .LVU140
 481 01e4 03EBCE03 		add	r3, r3, lr, lsl #3
 208:Middlewares/tensorflow/third_party/cmsis_nn/Source/ConvolutionFunctions/arm_depthwise_conv_s16.c ****                         }
 482              		.loc 1 208 35 view .LVU141
 483 01e8 D3E90045 		ldrd	r4, [r3]
 484              	.LVL57:
 208:Middlewares/tensorflow/third_party/cmsis_nn/Source/ConvolutionFunctions/arm_depthwise_conv_s16.c ****                         }
 485              		.loc 1 208 35 view .LVU142
 486 01ec 4346     		mov	r3, r8
 487 01ee F046     		mov	r8, lr
ARM GAS  /tmp/ccapEGHH.s 			page 31


 488 01f0 9E46     		mov	lr, r3
 489              	.LVL58:
 208:Middlewares/tensorflow/third_party/cmsis_nn/Source/ConvolutionFunctions/arm_depthwise_conv_s16.c ****                         }
 490              		.loc 1 208 35 view .LVU143
 491 01f2 79E7     		b	.L13
 492              	.LVL59:
 493              	.L33:
 208:Middlewares/tensorflow/third_party/cmsis_nn/Source/ConvolutionFunctions/arm_depthwise_conv_s16.c ****                         }
 494              		.loc 1 208 35 view .LVU144
 495              	.LBE37:
 496              	.LBE24:
 166:Middlewares/tensorflow/third_party/cmsis_nn/Source/ConvolutionFunctions/arm_depthwise_conv_s16.c ****                 {
 497              		.loc 1 166 65 is_stmt 1 discriminator 2 view .LVU145
 166:Middlewares/tensorflow/third_party/cmsis_nn/Source/ConvolutionFunctions/arm_depthwise_conv_s16.c ****                 {
 498              		.loc 1 166 75 is_stmt 0 discriminator 2 view .LVU146
 499 01f4 0BF1010B 		add	fp, fp, #1
 500              	.LVL60:
 501              	.L4:
 166:Middlewares/tensorflow/third_party/cmsis_nn/Source/ConvolutionFunctions/arm_depthwise_conv_s16.c ****                 {
 502              		.loc 1 166 42 is_stmt 1 discriminator 1 view .LVU147
 166:Middlewares/tensorflow/third_party/cmsis_nn/Source/ConvolutionFunctions/arm_depthwise_conv_s16.c ****                 {
 503              		.loc 1 166 53 is_stmt 0 discriminator 1 view .LVU148
 504 01f8 109B     		ldr	r3, [sp, #64]
 505 01fa 9946     		mov	r9, r3
 166:Middlewares/tensorflow/third_party/cmsis_nn/Source/ConvolutionFunctions/arm_depthwise_conv_s16.c ****                 {
 506              		.loc 1 166 17 discriminator 1 view .LVU149
 507 01fc 5B45     		cmp	r3, fp
 508 01fe 02DD     		ble	.L34
 509              	.LBB38:
 168:Middlewares/tensorflow/third_party/cmsis_nn/Source/ConvolutionFunctions/arm_depthwise_conv_s16.c ****                     {
 510              		.loc 1 168 30 view .LVU150
 511 0200 0023     		movs	r3, #0
 512 0202 0893     		str	r3, [sp, #32]
 513 0204 A9E7     		b	.L19
 514              	.L34:
 515 0206 C146     		mov	r9, r8
 516              	.LBE38:
 517              	.LBE23:
 518              	.LBE22:
 163:Middlewares/tensorflow/third_party/cmsis_nn/Source/ConvolutionFunctions/arm_depthwise_conv_s16.c ****             {
 519              		.loc 1 163 55 is_stmt 1 discriminator 2 view .LVU151
 163:Middlewares/tensorflow/third_party/cmsis_nn/Source/ConvolutionFunctions/arm_depthwise_conv_s16.c ****             {
 520              		.loc 1 163 62 is_stmt 0 discriminator 2 view .LVU152
 521 0208 0E9B     		ldr	r3, [sp, #56]
 522 020a 0133     		adds	r3, r3, #1
 523 020c 0E93     		str	r3, [sp, #56]
 524              	.LVL61:
 525              	.L3:
 163:Middlewares/tensorflow/third_party/cmsis_nn/Source/ConvolutionFunctions/arm_depthwise_conv_s16.c ****             {
 526              		.loc 1 163 35 is_stmt 1 discriminator 1 view .LVU153
 163:Middlewares/tensorflow/third_party/cmsis_nn/Source/ConvolutionFunctions/arm_depthwise_conv_s16.c ****             {
 527              		.loc 1 163 13 is_stmt 0 discriminator 1 view .LVU154
 528 020e 169B     		ldr	r3, [sp, #88]
 529 0210 0E9A     		ldr	r2, [sp, #56]
 530 0212 9342     		cmp	r3, r2
 531 0214 0EDD     		ble	.L35
 532              	.LBB40:
ARM GAS  /tmp/ccapEGHH.s 			page 32


 165:Middlewares/tensorflow/third_party/cmsis_nn/Source/ConvolutionFunctions/arm_depthwise_conv_s16.c ****                 for (int i_input_ch = 0; i_input_ch < input_ch; i_input_ch++)
 533              		.loc 1 165 17 is_stmt 1 view .LVU155
 165:Middlewares/tensorflow/third_party/cmsis_nn/Source/ConvolutionFunctions/arm_depthwise_conv_s16.c ****                 for (int i_input_ch = 0; i_input_ch < input_ch; i_input_ch++)
 534              		.loc 1 165 65 is_stmt 0 view .LVU156
 535 0216 0E9B     		ldr	r3, [sp, #56]
 536 0218 149A     		ldr	r2, [sp, #80]
 537 021a 13FB02F3 		smulbb	r3, r3, r2
 538 021e 129A     		ldr	r2, [sp, #72]
 539 0220 9B1A     		subs	r3, r3, r2
 165:Middlewares/tensorflow/third_party/cmsis_nn/Source/ConvolutionFunctions/arm_depthwise_conv_s16.c ****                 for (int i_input_ch = 0; i_input_ch < input_ch; i_input_ch++)
 540              		.loc 1 165 31 view .LVU157
 541 0222 0FFA83FB 		sxth	fp, r3
 542              	.LVL62:
 166:Middlewares/tensorflow/third_party/cmsis_nn/Source/ConvolutionFunctions/arm_depthwise_conv_s16.c ****                 {
 543              		.loc 1 166 17 is_stmt 1 view .LVU158
 544              	.LBB39:
 166:Middlewares/tensorflow/third_party/cmsis_nn/Source/ConvolutionFunctions/arm_depthwise_conv_s16.c ****                 {
 545              		.loc 1 166 22 view .LVU159
 166:Middlewares/tensorflow/third_party/cmsis_nn/Source/ConvolutionFunctions/arm_depthwise_conv_s16.c ****                 {
 546              		.loc 1 166 26 is_stmt 0 view .LVU160
 547 0226 4FF0000A 		mov	r10, #0
 548 022a 5B46     		mov	r3, fp
 549 022c D346     		mov	fp, r10
 550              	.LVL63:
 166:Middlewares/tensorflow/third_party/cmsis_nn/Source/ConvolutionFunctions/arm_depthwise_conv_s16.c ****                 {
 551              		.loc 1 166 26 view .LVU161
 552 022e C846     		mov	r8, r9
 553 0230 9A46     		mov	r10, r3
 166:Middlewares/tensorflow/third_party/cmsis_nn/Source/ConvolutionFunctions/arm_depthwise_conv_s16.c ****                 {
 554              		.loc 1 166 17 view .LVU162
 555 0232 E1E7     		b	.L4
 556              	.LVL64:
 557              	.L35:
 166:Middlewares/tensorflow/third_party/cmsis_nn/Source/ConvolutionFunctions/arm_depthwise_conv_s16.c ****                 {
 558              		.loc 1 166 17 view .LVU163
 559 0234 CB46     		mov	fp, r9
 560              	.LBE39:
 561              	.LBE40:
 562              	.LBE21:
 563              	.LBE20:
 160:Middlewares/tensorflow/third_party/cmsis_nn/Source/ConvolutionFunctions/arm_depthwise_conv_s16.c ****         {
 564              		.loc 1 160 51 is_stmt 1 discriminator 2 view .LVU164
 160:Middlewares/tensorflow/third_party/cmsis_nn/Source/ConvolutionFunctions/arm_depthwise_conv_s16.c ****         {
 565              		.loc 1 160 58 is_stmt 0 discriminator 2 view .LVU165
 566 0236 0D9B     		ldr	r3, [sp, #52]
 567 0238 0133     		adds	r3, r3, #1
 568 023a 0D93     		str	r3, [sp, #52]
 569              	.LVL65:
 570              	.L22:
 160:Middlewares/tensorflow/third_party/cmsis_nn/Source/ConvolutionFunctions/arm_depthwise_conv_s16.c ****         {
 571              		.loc 1 160 31 is_stmt 1 discriminator 1 view .LVU166
 160:Middlewares/tensorflow/third_party/cmsis_nn/Source/ConvolutionFunctions/arm_depthwise_conv_s16.c ****         {
 572              		.loc 1 160 9 is_stmt 0 discriminator 1 view .LVU167
 573 023c 179B     		ldr	r3, [sp, #92]
 574 023e 0D9A     		ldr	r2, [sp, #52]
 575 0240 9342     		cmp	r3, r2
 576 0242 0BDD     		ble	.L36
ARM GAS  /tmp/ccapEGHH.s 			page 33


 577              	.LBB42:
 162:Middlewares/tensorflow/third_party/cmsis_nn/Source/ConvolutionFunctions/arm_depthwise_conv_s16.c ****             for (int i_out_x = 0; i_out_x < output_x; i_out_x++)
 578              		.loc 1 162 13 is_stmt 1 view .LVU168
 162:Middlewares/tensorflow/third_party/cmsis_nn/Source/ConvolutionFunctions/arm_depthwise_conv_s16.c ****             for (int i_out_x = 0; i_out_x < output_x; i_out_x++)
 579              		.loc 1 162 61 is_stmt 0 view .LVU169
 580 0244 0D9B     		ldr	r3, [sp, #52]
 581 0246 159A     		ldr	r2, [sp, #84]
 582 0248 13FB02F3 		smulbb	r3, r3, r2
 583 024c 139A     		ldr	r2, [sp, #76]
 584 024e 9B1A     		subs	r3, r3, r2
 162:Middlewares/tensorflow/third_party/cmsis_nn/Source/ConvolutionFunctions/arm_depthwise_conv_s16.c ****             for (int i_out_x = 0; i_out_x < output_x; i_out_x++)
 585              		.loc 1 162 27 view .LVU170
 586 0250 1BB2     		sxth	r3, r3
 587 0252 0593     		str	r3, [sp, #20]
 588              	.LVL66:
 163:Middlewares/tensorflow/third_party/cmsis_nn/Source/ConvolutionFunctions/arm_depthwise_conv_s16.c ****             {
 589              		.loc 1 163 13 is_stmt 1 view .LVU171
 590              	.LBB41:
 163:Middlewares/tensorflow/third_party/cmsis_nn/Source/ConvolutionFunctions/arm_depthwise_conv_s16.c ****             {
 591              		.loc 1 163 18 view .LVU172
 163:Middlewares/tensorflow/third_party/cmsis_nn/Source/ConvolutionFunctions/arm_depthwise_conv_s16.c ****             {
 592              		.loc 1 163 22 is_stmt 0 view .LVU173
 593 0254 0023     		movs	r3, #0
 594 0256 0E93     		str	r3, [sp, #56]
 595 0258 D946     		mov	r9, fp
 163:Middlewares/tensorflow/third_party/cmsis_nn/Source/ConvolutionFunctions/arm_depthwise_conv_s16.c ****             {
 596              		.loc 1 163 13 view .LVU174
 597 025a D8E7     		b	.L3
 598              	.LVL67:
 599              	.L36:
 163:Middlewares/tensorflow/third_party/cmsis_nn/Source/ConvolutionFunctions/arm_depthwise_conv_s16.c ****             {
 600              		.loc 1 163 13 view .LVU175
 601              	.LBE41:
 602              	.LBE42:
 603              	.LBE19:
 229:Middlewares/tensorflow/third_party/cmsis_nn/Source/ConvolutionFunctions/arm_depthwise_conv_s16.c ****                     }
 230:Middlewares/tensorflow/third_party/cmsis_nn/Source/ConvolutionFunctions/arm_depthwise_conv_s16.c ****                 }
 231:Middlewares/tensorflow/third_party/cmsis_nn/Source/ConvolutionFunctions/arm_depthwise_conv_s16.c ****             }
 232:Middlewares/tensorflow/third_party/cmsis_nn/Source/ConvolutionFunctions/arm_depthwise_conv_s16.c ****         }
 233:Middlewares/tensorflow/third_party/cmsis_nn/Source/ConvolutionFunctions/arm_depthwise_conv_s16.c ****         /* Advance to the next batch */
 234:Middlewares/tensorflow/third_party/cmsis_nn/Source/ConvolutionFunctions/arm_depthwise_conv_s16.c ****         input += (input_x * input_y * input_ch);
 604              		.loc 1 234 9 is_stmt 1 discriminator 2 view .LVU176
 605              		.loc 1 234 27 is_stmt 0 discriminator 2 view .LVU177
 606 025c 0B9B     		ldr	r3, [sp, #44]
 607 025e 019A     		ldr	r2, [sp, #4]
 608              	.LVL68:
 609              		.loc 1 234 27 discriminator 2 view .LVU178
 610 0260 03FB02F3 		mul	r3, r3, r2
 611              		.loc 1 234 37 discriminator 2 view .LVU179
 612 0264 109A     		ldr	r2, [sp, #64]
 613 0266 03FB02F3 		mul	r3, r3, r2
 614              		.loc 1 234 15 discriminator 2 view .LVU180
 615 026a 039A     		ldr	r2, [sp, #12]
 616 026c 02EB4303 		add	r3, r2, r3, lsl #1
 617 0270 0393     		str	r3, [sp, #12]
 618              	.LVL69:
 158:Middlewares/tensorflow/third_party/cmsis_nn/Source/ConvolutionFunctions/arm_depthwise_conv_s16.c ****     {
ARM GAS  /tmp/ccapEGHH.s 			page 34


 619              		.loc 1 158 52 is_stmt 1 discriminator 2 view .LVU181
 158:Middlewares/tensorflow/third_party/cmsis_nn/Source/ConvolutionFunctions/arm_depthwise_conv_s16.c ****     {
 620              		.loc 1 158 59 is_stmt 0 discriminator 2 view .LVU182
 621 0272 0F9B     		ldr	r3, [sp, #60]
 622              	.LVL70:
 158:Middlewares/tensorflow/third_party/cmsis_nn/Source/ConvolutionFunctions/arm_depthwise_conv_s16.c ****     {
 623              		.loc 1 158 59 discriminator 2 view .LVU183
 624 0274 0133     		adds	r3, r3, #1
 625 0276 0F93     		str	r3, [sp, #60]
 626              	.LVL71:
 627              	.L2:
 158:Middlewares/tensorflow/third_party/cmsis_nn/Source/ConvolutionFunctions/arm_depthwise_conv_s16.c ****     {
 628              		.loc 1 158 27 is_stmt 1 discriminator 1 view .LVU184
 158:Middlewares/tensorflow/third_party/cmsis_nn/Source/ConvolutionFunctions/arm_depthwise_conv_s16.c ****     {
 629              		.loc 1 158 5 is_stmt 0 discriminator 1 view .LVU185
 630 0278 119B     		ldr	r3, [sp, #68]
 631 027a 0F9A     		ldr	r2, [sp, #60]
 632 027c 9342     		cmp	r3, r2
 633 027e 02DD     		ble	.L37
 634              	.LBB43:
 160:Middlewares/tensorflow/third_party/cmsis_nn/Source/ConvolutionFunctions/arm_depthwise_conv_s16.c ****         {
 635              		.loc 1 160 18 view .LVU186
 636 0280 0023     		movs	r3, #0
 637 0282 0D93     		str	r3, [sp, #52]
 638 0284 DAE7     		b	.L22
 639              	.L37:
 640              	.LBE43:
 641              	.LBE18:
 235:Middlewares/tensorflow/third_party/cmsis_nn/Source/ConvolutionFunctions/arm_depthwise_conv_s16.c ****     }
 236:Middlewares/tensorflow/third_party/cmsis_nn/Source/ConvolutionFunctions/arm_depthwise_conv_s16.c **** }
 642              		.loc 1 236 1 view .LVU187
 643 0286 19B0     		add	sp, sp, #100
 644              	.LCFI2:
 645              		.cfi_def_cfa_offset 36
 646              		@ sp needed
 647 0288 BDE8F08F 		pop	{r4, r5, r6, r7, r8, r9, r10, fp, pc}
 648              	.LVL72:
 649              	.L39:
 650              		.loc 1 236 1 view .LVU188
 651              		.align	2
 652              	.L38:
 653 028c FFFFFE7F 		.word	2147418111
 654              		.cfi_endproc
 655              	.LFE48:
 657              		.section	.text.arm_depthwise_conv_s16,"ax",%progbits
 658              		.align	1
 659              		.global	arm_depthwise_conv_s16
 660              		.syntax unified
 661              		.thumb
 662              		.thumb_func
 663              		.fpu fpv4-sp-d16
 665              	arm_depthwise_conv_s16:
 666              	.LVL73:
 667              	.LFB49:
 237:Middlewares/tensorflow/third_party/cmsis_nn/Source/ConvolutionFunctions/arm_depthwise_conv_s16.c **** 
 238:Middlewares/tensorflow/third_party/cmsis_nn/Source/ConvolutionFunctions/arm_depthwise_conv_s16.c **** /*
 239:Middlewares/tensorflow/third_party/cmsis_nn/Source/ConvolutionFunctions/arm_depthwise_conv_s16.c ****  *  Basic s16 depthwise convolution function.
ARM GAS  /tmp/ccapEGHH.s 			page 35


 240:Middlewares/tensorflow/third_party/cmsis_nn/Source/ConvolutionFunctions/arm_depthwise_conv_s16.c ****  *
 241:Middlewares/tensorflow/third_party/cmsis_nn/Source/ConvolutionFunctions/arm_depthwise_conv_s16.c ****  *  Refer header file for details.
 242:Middlewares/tensorflow/third_party/cmsis_nn/Source/ConvolutionFunctions/arm_depthwise_conv_s16.c ****  *
 243:Middlewares/tensorflow/third_party/cmsis_nn/Source/ConvolutionFunctions/arm_depthwise_conv_s16.c ****  */
 244:Middlewares/tensorflow/third_party/cmsis_nn/Source/ConvolutionFunctions/arm_depthwise_conv_s16.c **** arm_cmsis_nn_status arm_depthwise_conv_s16(const cmsis_nn_context *ctx,
 245:Middlewares/tensorflow/third_party/cmsis_nn/Source/ConvolutionFunctions/arm_depthwise_conv_s16.c ****                                            const cmsis_nn_dw_conv_params *dw_conv_params,
 246:Middlewares/tensorflow/third_party/cmsis_nn/Source/ConvolutionFunctions/arm_depthwise_conv_s16.c ****                                            const cmsis_nn_per_channel_quant_params *quant_params,
 247:Middlewares/tensorflow/third_party/cmsis_nn/Source/ConvolutionFunctions/arm_depthwise_conv_s16.c ****                                            const cmsis_nn_dims *input_dims,
 248:Middlewares/tensorflow/third_party/cmsis_nn/Source/ConvolutionFunctions/arm_depthwise_conv_s16.c ****                                            const int16_t *input,
 249:Middlewares/tensorflow/third_party/cmsis_nn/Source/ConvolutionFunctions/arm_depthwise_conv_s16.c ****                                            const cmsis_nn_dims *filter_dims,
 250:Middlewares/tensorflow/third_party/cmsis_nn/Source/ConvolutionFunctions/arm_depthwise_conv_s16.c ****                                            const int8_t *kernel,
 251:Middlewares/tensorflow/third_party/cmsis_nn/Source/ConvolutionFunctions/arm_depthwise_conv_s16.c ****                                            const cmsis_nn_dims *bias_dims,
 252:Middlewares/tensorflow/third_party/cmsis_nn/Source/ConvolutionFunctions/arm_depthwise_conv_s16.c ****                                            const int64_t *bias,
 253:Middlewares/tensorflow/third_party/cmsis_nn/Source/ConvolutionFunctions/arm_depthwise_conv_s16.c ****                                            const cmsis_nn_dims *output_dims,
 254:Middlewares/tensorflow/third_party/cmsis_nn/Source/ConvolutionFunctions/arm_depthwise_conv_s16.c ****                                            int16_t *output)
 255:Middlewares/tensorflow/third_party/cmsis_nn/Source/ConvolutionFunctions/arm_depthwise_conv_s16.c **** {
 668              		.loc 1 255 1 is_stmt 1 view -0
 669              		.cfi_startproc
 670              		@ args = 28, pretend = 0, frame = 0
 671              		@ frame_needed = 0, uses_anonymous_args = 0
 672              		.loc 1 255 1 is_stmt 0 view .LVU190
 673 0000 F0B5     		push	{r4, r5, r6, r7, lr}
 674              	.LCFI3:
 675              		.cfi_def_cfa_offset 20
 676              		.cfi_offset 4, -20
 677              		.cfi_offset 5, -16
 678              		.cfi_offset 6, -12
 679              		.cfi_offset 7, -8
 680              		.cfi_offset 14, -4
 681 0002 95B0     		sub	sp, sp, #84
 682              	.LCFI4:
 683              		.cfi_def_cfa_offset 104
 684 0004 1846     		mov	r0, r3
 685              	.LVL74:
 686              		.loc 1 255 1 view .LVU191
 687 0006 1B9B     		ldr	r3, [sp, #108]
 688              	.LVL75:
 689              		.loc 1 255 1 view .LVU192
 690 0008 1F9C     		ldr	r4, [sp, #124]
 256:Middlewares/tensorflow/third_party/cmsis_nn/Source/ConvolutionFunctions/arm_depthwise_conv_s16.c ****     const uint16_t dilation_x = dw_conv_params->dilation.w;
 691              		.loc 1 256 5 is_stmt 1 view .LVU193
 692              		.loc 1 256 20 is_stmt 0 view .LVU194
 693 000a 8E8B     		ldrh	r6, [r1, #28]
 694              	.LVL76:
 257:Middlewares/tensorflow/third_party/cmsis_nn/Source/ConvolutionFunctions/arm_depthwise_conv_s16.c ****     const uint16_t dilation_y = dw_conv_params->dilation.h;
 695              		.loc 1 257 5 is_stmt 1 view .LVU195
 696              		.loc 1 257 20 is_stmt 0 view .LVU196
 697 000c 0F8C     		ldrh	r7, [r1, #32]
 698              	.LVL77:
 258:Middlewares/tensorflow/third_party/cmsis_nn/Source/ConvolutionFunctions/arm_depthwise_conv_s16.c **** 
 259:Middlewares/tensorflow/third_party/cmsis_nn/Source/ConvolutionFunctions/arm_depthwise_conv_s16.c ****     (void)bias_dims;
 699              		.loc 1 259 5 is_stmt 1 view .LVU197
 260:Middlewares/tensorflow/third_party/cmsis_nn/Source/ConvolutionFunctions/arm_depthwise_conv_s16.c ****     (void)ctx;
 700              		.loc 1 260 5 view .LVU198
 261:Middlewares/tensorflow/third_party/cmsis_nn/Source/ConvolutionFunctions/arm_depthwise_conv_s16.c **** 
 262:Middlewares/tensorflow/third_party/cmsis_nn/Source/ConvolutionFunctions/arm_depthwise_conv_s16.c ****     depthwise_conv_s16_generic_s16(input,
 701              		.loc 1 262 5 view .LVU199
ARM GAS  /tmp/ccapEGHH.s 			page 36


 263:Middlewares/tensorflow/third_party/cmsis_nn/Source/ConvolutionFunctions/arm_depthwise_conv_s16.c ****                                    input_dims->n,
 264:Middlewares/tensorflow/third_party/cmsis_nn/Source/ConvolutionFunctions/arm_depthwise_conv_s16.c ****                                    input_dims->w,
 265:Middlewares/tensorflow/third_party/cmsis_nn/Source/ConvolutionFunctions/arm_depthwise_conv_s16.c ****                                    input_dims->h,
 266:Middlewares/tensorflow/third_party/cmsis_nn/Source/ConvolutionFunctions/arm_depthwise_conv_s16.c ****                                    input_dims->c,
 267:Middlewares/tensorflow/third_party/cmsis_nn/Source/ConvolutionFunctions/arm_depthwise_conv_s16.c ****                                    kernel,
 268:Middlewares/tensorflow/third_party/cmsis_nn/Source/ConvolutionFunctions/arm_depthwise_conv_s16.c ****                                    dw_conv_params->ch_mult,
 269:Middlewares/tensorflow/third_party/cmsis_nn/Source/ConvolutionFunctions/arm_depthwise_conv_s16.c ****                                    filter_dims->w,
 270:Middlewares/tensorflow/third_party/cmsis_nn/Source/ConvolutionFunctions/arm_depthwise_conv_s16.c ****                                    filter_dims->h,
 271:Middlewares/tensorflow/third_party/cmsis_nn/Source/ConvolutionFunctions/arm_depthwise_conv_s16.c ****                                    dw_conv_params->padding.w,
 272:Middlewares/tensorflow/third_party/cmsis_nn/Source/ConvolutionFunctions/arm_depthwise_conv_s16.c ****                                    dw_conv_params->padding.h,
 273:Middlewares/tensorflow/third_party/cmsis_nn/Source/ConvolutionFunctions/arm_depthwise_conv_s16.c ****                                    dw_conv_params->stride.w,
 274:Middlewares/tensorflow/third_party/cmsis_nn/Source/ConvolutionFunctions/arm_depthwise_conv_s16.c ****                                    dw_conv_params->stride.h,
 275:Middlewares/tensorflow/third_party/cmsis_nn/Source/ConvolutionFunctions/arm_depthwise_conv_s16.c ****                                    bias,
 276:Middlewares/tensorflow/third_party/cmsis_nn/Source/ConvolutionFunctions/arm_depthwise_conv_s16.c ****                                    output,
 277:Middlewares/tensorflow/third_party/cmsis_nn/Source/ConvolutionFunctions/arm_depthwise_conv_s16.c ****                                    quant_params->shift,
 702              		.loc 1 277 48 is_stmt 0 view .LVU200
 703 000e 5568     		ldr	r5, [r2, #4]
 278:Middlewares/tensorflow/third_party/cmsis_nn/Source/ConvolutionFunctions/arm_depthwise_conv_s16.c ****                                    quant_params->multiplier,
 704              		.loc 1 278 48 view .LVU201
 705 0010 1268     		ldr	r2, [r2]
 706              	.LVL78:
 262:Middlewares/tensorflow/third_party/cmsis_nn/Source/ConvolutionFunctions/arm_depthwise_conv_s16.c ****                                    input_dims->n,
 707              		.loc 1 262 5 view .LVU202
 708 0012 1297     		str	r7, [sp, #72]
 709 0014 1196     		str	r6, [sp, #68]
 710 0016 8E6A     		ldr	r6, [r1, #40]
 711              	.LVL79:
 262:Middlewares/tensorflow/third_party/cmsis_nn/Source/ConvolutionFunctions/arm_depthwise_conv_s16.c ****                                    input_dims->n,
 712              		.loc 1 262 5 view .LVU203
 713 0018 1096     		str	r6, [sp, #64]
 714 001a 4E6A     		ldr	r6, [r1, #36]
 715 001c 0F96     		str	r6, [sp, #60]
 716 001e A688     		ldrh	r6, [r4, #4]
 717 0020 0E96     		str	r6, [sp, #56]
 718 0022 2489     		ldrh	r4, [r4, #8]
 719 0024 0D94     		str	r4, [sp, #52]
 720 0026 0C92     		str	r2, [sp, #48]
 721 0028 0B95     		str	r5, [sp, #44]
 722 002a 209A     		ldr	r2, [sp, #128]
 723 002c 0A92     		str	r2, [sp, #40]
 724 002e 1E9A     		ldr	r2, [sp, #120]
 725 0030 0992     		str	r2, [sp, #36]
 726 0032 0A8A     		ldrh	r2, [r1, #16]
 727 0034 0892     		str	r2, [sp, #32]
 728 0036 8A89     		ldrh	r2, [r1, #12]
 729 0038 0792     		str	r2, [sp, #28]
 730 003a 0A8B     		ldrh	r2, [r1, #24]
 731 003c 0692     		str	r2, [sp, #24]
 732 003e 8A8A     		ldrh	r2, [r1, #20]
 733 0040 0592     		str	r2, [sp, #20]
 734 0042 9A88     		ldrh	r2, [r3, #4]
 735 0044 0492     		str	r2, [sp, #16]
 736 0046 1B89     		ldrh	r3, [r3, #8]
 737 0048 0393     		str	r3, [sp, #12]
 738 004a 0B89     		ldrh	r3, [r1, #8]
 739 004c 0293     		str	r3, [sp, #8]
 740 004e 1C9B     		ldr	r3, [sp, #112]
ARM GAS  /tmp/ccapEGHH.s 			page 37


 741 0050 0193     		str	r3, [sp, #4]
 742 0052 8389     		ldrh	r3, [r0, #12]
 743 0054 0093     		str	r3, [sp]
 744 0056 8388     		ldrh	r3, [r0, #4]
 745 0058 0289     		ldrh	r2, [r0, #8]
 746 005a 0188     		ldrh	r1, [r0]
 747              	.LVL80:
 262:Middlewares/tensorflow/third_party/cmsis_nn/Source/ConvolutionFunctions/arm_depthwise_conv_s16.c ****                                    input_dims->n,
 748              		.loc 1 262 5 view .LVU204
 749 005c 1A98     		ldr	r0, [sp, #104]
 750              	.LVL81:
 262:Middlewares/tensorflow/third_party/cmsis_nn/Source/ConvolutionFunctions/arm_depthwise_conv_s16.c ****                                    input_dims->n,
 751              		.loc 1 262 5 view .LVU205
 752 005e FFF7FEFF 		bl	depthwise_conv_s16_generic_s16
 753              	.LVL82:
 279:Middlewares/tensorflow/third_party/cmsis_nn/Source/ConvolutionFunctions/arm_depthwise_conv_s16.c ****                                    output_dims->w,
 280:Middlewares/tensorflow/third_party/cmsis_nn/Source/ConvolutionFunctions/arm_depthwise_conv_s16.c ****                                    output_dims->h,
 281:Middlewares/tensorflow/third_party/cmsis_nn/Source/ConvolutionFunctions/arm_depthwise_conv_s16.c ****                                    dw_conv_params->activation.min,
 282:Middlewares/tensorflow/third_party/cmsis_nn/Source/ConvolutionFunctions/arm_depthwise_conv_s16.c ****                                    dw_conv_params->activation.max,
 283:Middlewares/tensorflow/third_party/cmsis_nn/Source/ConvolutionFunctions/arm_depthwise_conv_s16.c ****                                    dilation_x,
 284:Middlewares/tensorflow/third_party/cmsis_nn/Source/ConvolutionFunctions/arm_depthwise_conv_s16.c ****                                    dilation_y);
 285:Middlewares/tensorflow/third_party/cmsis_nn/Source/ConvolutionFunctions/arm_depthwise_conv_s16.c **** 
 286:Middlewares/tensorflow/third_party/cmsis_nn/Source/ConvolutionFunctions/arm_depthwise_conv_s16.c ****     /* Return to application */
 287:Middlewares/tensorflow/third_party/cmsis_nn/Source/ConvolutionFunctions/arm_depthwise_conv_s16.c ****     return ARM_CMSIS_NN_SUCCESS;
 754              		.loc 1 287 5 is_stmt 1 view .LVU206
 288:Middlewares/tensorflow/third_party/cmsis_nn/Source/ConvolutionFunctions/arm_depthwise_conv_s16.c **** }
 755              		.loc 1 288 1 is_stmt 0 view .LVU207
 756 0062 0020     		movs	r0, #0
 757 0064 15B0     		add	sp, sp, #84
 758              	.LCFI5:
 759              		.cfi_def_cfa_offset 20
 760              		@ sp needed
 761 0066 F0BD     		pop	{r4, r5, r6, r7, pc}
 762              		.loc 1 288 1 view .LVU208
 763              		.cfi_endproc
 764              	.LFE49:
 766              		.text
 767              	.Letext0:
 768              		.file 3 "/usr/lib/gcc/arm-none-eabi/9.2.1/include/stdint.h"
 769              		.file 4 "/usr/lib/gcc/arm-none-eabi/9.2.1/include/stddef.h"
 770              		.file 5 "/usr/include/newlib/sys/_types.h"
 771              		.file 6 "/usr/include/newlib/sys/reent.h"
 772              		.file 7 "/usr/include/newlib/sys/lock.h"
 773              		.file 8 "Middlewares/tensorflow/third_party/cmsis_nn/Include/arm_nn_types.h"
ARM GAS  /tmp/ccapEGHH.s 			page 38

