ARM GAS  /tmp/cc6Z6mIk.s 			page 1


   1              		.cpu cortex-m4
   2              		.eabi_attribute 27, 1
   3              		.eabi_attribute 28, 1
   4              		.eabi_attribute 20, 1
   5              		.eabi_attribute 21, 1
   6              		.eabi_attribute 23, 3
   7              		.eabi_attribute 24, 1
   8              		.eabi_attribute 25, 1
   9              		.eabi_attribute 26, 1
  10              		.eabi_attribute 30, 1
  11              		.eabi_attribute 34, 1
  12              		.eabi_attribute 18, 4
  13              		.file	"arm_nn_mat_mult_nt_t_s8.c"
  14              		.text
  15              	.Ltext0:
  16              		.cfi_sections	.debug_frame
  17              		.section	.text.arm_nn_mat_mult_nt_t_s8,"ax",%progbits
  18              		.align	1
  19              		.global	arm_nn_mat_mult_nt_t_s8
  20              		.arch armv7e-m
  21              		.syntax unified
  22              		.thumb
  23              		.thumb_func
  24              		.fpu fpv4-sp-d16
  26              	arm_nn_mat_mult_nt_t_s8:
  27              	.LVL0:
  28              	.LFB47:
  29              		.file 1 "Middlewares/tensorflow/third_party/cmsis_nn/Source/NNSupportFunctions/arm_nn_mat_mult_nt_
   1:Middlewares/tensorflow/third_party/cmsis_nn/Source/NNSupportFunctions/arm_nn_mat_mult_nt_t_s8.c **** /*
   2:Middlewares/tensorflow/third_party/cmsis_nn/Source/NNSupportFunctions/arm_nn_mat_mult_nt_t_s8.c ****  * SPDX-FileCopyrightText: Copyright 2020-2023 Arm Limited and/or its affiliates <open-source-offic
   3:Middlewares/tensorflow/third_party/cmsis_nn/Source/NNSupportFunctions/arm_nn_mat_mult_nt_t_s8.c ****  *
   4:Middlewares/tensorflow/third_party/cmsis_nn/Source/NNSupportFunctions/arm_nn_mat_mult_nt_t_s8.c ****  * SPDX-License-Identifier: Apache-2.0
   5:Middlewares/tensorflow/third_party/cmsis_nn/Source/NNSupportFunctions/arm_nn_mat_mult_nt_t_s8.c ****  *
   6:Middlewares/tensorflow/third_party/cmsis_nn/Source/NNSupportFunctions/arm_nn_mat_mult_nt_t_s8.c ****  * Licensed under the Apache License, Version 2.0 (the License); you may
   7:Middlewares/tensorflow/third_party/cmsis_nn/Source/NNSupportFunctions/arm_nn_mat_mult_nt_t_s8.c ****  * not use this file except in compliance with the License.
   8:Middlewares/tensorflow/third_party/cmsis_nn/Source/NNSupportFunctions/arm_nn_mat_mult_nt_t_s8.c ****  * You may obtain a copy of the License at
   9:Middlewares/tensorflow/third_party/cmsis_nn/Source/NNSupportFunctions/arm_nn_mat_mult_nt_t_s8.c ****  *
  10:Middlewares/tensorflow/third_party/cmsis_nn/Source/NNSupportFunctions/arm_nn_mat_mult_nt_t_s8.c ****  * www.apache.org/licenses/LICENSE-2.0
  11:Middlewares/tensorflow/third_party/cmsis_nn/Source/NNSupportFunctions/arm_nn_mat_mult_nt_t_s8.c ****  *
  12:Middlewares/tensorflow/third_party/cmsis_nn/Source/NNSupportFunctions/arm_nn_mat_mult_nt_t_s8.c ****  * Unless required by applicable law or agreed to in writing, software
  13:Middlewares/tensorflow/third_party/cmsis_nn/Source/NNSupportFunctions/arm_nn_mat_mult_nt_t_s8.c ****  * distributed under the License is distributed on an AS IS BASIS, WITHOUT
  14:Middlewares/tensorflow/third_party/cmsis_nn/Source/NNSupportFunctions/arm_nn_mat_mult_nt_t_s8.c ****  * WARRANTIES OR CONDITIONS OF ANY KIND, either express or implied.
  15:Middlewares/tensorflow/third_party/cmsis_nn/Source/NNSupportFunctions/arm_nn_mat_mult_nt_t_s8.c ****  * See the License for the specific language governing permissions and
  16:Middlewares/tensorflow/third_party/cmsis_nn/Source/NNSupportFunctions/arm_nn_mat_mult_nt_t_s8.c ****  * limitations under the License.
  17:Middlewares/tensorflow/third_party/cmsis_nn/Source/NNSupportFunctions/arm_nn_mat_mult_nt_t_s8.c ****  */
  18:Middlewares/tensorflow/third_party/cmsis_nn/Source/NNSupportFunctions/arm_nn_mat_mult_nt_t_s8.c **** 
  19:Middlewares/tensorflow/third_party/cmsis_nn/Source/NNSupportFunctions/arm_nn_mat_mult_nt_t_s8.c **** /* ----------------------------------------------------------------------
  20:Middlewares/tensorflow/third_party/cmsis_nn/Source/NNSupportFunctions/arm_nn_mat_mult_nt_t_s8.c ****  * Project:      CMSIS NN Library
  21:Middlewares/tensorflow/third_party/cmsis_nn/Source/NNSupportFunctions/arm_nn_mat_mult_nt_t_s8.c ****  * Title:        arm_nn_mat_mult_s8_nt_t_s8
  22:Middlewares/tensorflow/third_party/cmsis_nn/Source/NNSupportFunctions/arm_nn_mat_mult_nt_t_s8.c ****  * Description:  Matrix multiplication support function with the right-hand-side (rhs) matrix trans
  23:Middlewares/tensorflow/third_party/cmsis_nn/Source/NNSupportFunctions/arm_nn_mat_mult_nt_t_s8.c ****  *
  24:Middlewares/tensorflow/third_party/cmsis_nn/Source/NNSupportFunctions/arm_nn_mat_mult_nt_t_s8.c ****  * $Date:        5 January 2023
  25:Middlewares/tensorflow/third_party/cmsis_nn/Source/NNSupportFunctions/arm_nn_mat_mult_nt_t_s8.c ****  * $Revision:    V.2.1.0
  26:Middlewares/tensorflow/third_party/cmsis_nn/Source/NNSupportFunctions/arm_nn_mat_mult_nt_t_s8.c ****  *
  27:Middlewares/tensorflow/third_party/cmsis_nn/Source/NNSupportFunctions/arm_nn_mat_mult_nt_t_s8.c ****  * Target :  Arm(R) M-Profile Architecture
  28:Middlewares/tensorflow/third_party/cmsis_nn/Source/NNSupportFunctions/arm_nn_mat_mult_nt_t_s8.c ****  *
  29:Middlewares/tensorflow/third_party/cmsis_nn/Source/NNSupportFunctions/arm_nn_mat_mult_nt_t_s8.c ****  * -------------------------------------------------------------------- */
ARM GAS  /tmp/cc6Z6mIk.s 			page 2


  30:Middlewares/tensorflow/third_party/cmsis_nn/Source/NNSupportFunctions/arm_nn_mat_mult_nt_t_s8.c **** 
  31:Middlewares/tensorflow/third_party/cmsis_nn/Source/NNSupportFunctions/arm_nn_mat_mult_nt_t_s8.c **** #include "arm_nnsupportfunctions.h"
  32:Middlewares/tensorflow/third_party/cmsis_nn/Source/NNSupportFunctions/arm_nn_mat_mult_nt_t_s8.c **** 
  33:Middlewares/tensorflow/third_party/cmsis_nn/Source/NNSupportFunctions/arm_nn_mat_mult_nt_t_s8.c **** /**
  34:Middlewares/tensorflow/third_party/cmsis_nn/Source/NNSupportFunctions/arm_nn_mat_mult_nt_t_s8.c ****  * @ingroup groupSupport
  35:Middlewares/tensorflow/third_party/cmsis_nn/Source/NNSupportFunctions/arm_nn_mat_mult_nt_t_s8.c ****  */
  36:Middlewares/tensorflow/third_party/cmsis_nn/Source/NNSupportFunctions/arm_nn_mat_mult_nt_t_s8.c **** 
  37:Middlewares/tensorflow/third_party/cmsis_nn/Source/NNSupportFunctions/arm_nn_mat_mult_nt_t_s8.c **** /**
  38:Middlewares/tensorflow/third_party/cmsis_nn/Source/NNSupportFunctions/arm_nn_mat_mult_nt_t_s8.c ****  * @addtogroup supportConvolution
  39:Middlewares/tensorflow/third_party/cmsis_nn/Source/NNSupportFunctions/arm_nn_mat_mult_nt_t_s8.c ****  * @{
  40:Middlewares/tensorflow/third_party/cmsis_nn/Source/NNSupportFunctions/arm_nn_mat_mult_nt_t_s8.c ****  */
  41:Middlewares/tensorflow/third_party/cmsis_nn/Source/NNSupportFunctions/arm_nn_mat_mult_nt_t_s8.c **** 
  42:Middlewares/tensorflow/third_party/cmsis_nn/Source/NNSupportFunctions/arm_nn_mat_mult_nt_t_s8.c **** /*
  43:Middlewares/tensorflow/third_party/cmsis_nn/Source/NNSupportFunctions/arm_nn_mat_mult_nt_t_s8.c ****  * s8 matrix multiplication with the right-hand-side matrix transposed
  44:Middlewares/tensorflow/third_party/cmsis_nn/Source/NNSupportFunctions/arm_nn_mat_mult_nt_t_s8.c ****  *
  45:Middlewares/tensorflow/third_party/cmsis_nn/Source/NNSupportFunctions/arm_nn_mat_mult_nt_t_s8.c ****  * Refer header file for details.
  46:Middlewares/tensorflow/third_party/cmsis_nn/Source/NNSupportFunctions/arm_nn_mat_mult_nt_t_s8.c ****  *
  47:Middlewares/tensorflow/third_party/cmsis_nn/Source/NNSupportFunctions/arm_nn_mat_mult_nt_t_s8.c ****  */
  48:Middlewares/tensorflow/third_party/cmsis_nn/Source/NNSupportFunctions/arm_nn_mat_mult_nt_t_s8.c **** arm_cmsis_nn_status arm_nn_mat_mult_nt_t_s8(const int8_t *lhs,
  49:Middlewares/tensorflow/third_party/cmsis_nn/Source/NNSupportFunctions/arm_nn_mat_mult_nt_t_s8.c ****                                             const int8_t *rhs,
  50:Middlewares/tensorflow/third_party/cmsis_nn/Source/NNSupportFunctions/arm_nn_mat_mult_nt_t_s8.c ****                                             const int32_t *bias,
  51:Middlewares/tensorflow/third_party/cmsis_nn/Source/NNSupportFunctions/arm_nn_mat_mult_nt_t_s8.c ****                                             int8_t *dst,
  52:Middlewares/tensorflow/third_party/cmsis_nn/Source/NNSupportFunctions/arm_nn_mat_mult_nt_t_s8.c ****                                             const int32_t *dst_multipliers,
  53:Middlewares/tensorflow/third_party/cmsis_nn/Source/NNSupportFunctions/arm_nn_mat_mult_nt_t_s8.c ****                                             const int32_t *dst_shifts,
  54:Middlewares/tensorflow/third_party/cmsis_nn/Source/NNSupportFunctions/arm_nn_mat_mult_nt_t_s8.c ****                                             const int32_t lhs_rows,
  55:Middlewares/tensorflow/third_party/cmsis_nn/Source/NNSupportFunctions/arm_nn_mat_mult_nt_t_s8.c ****                                             const int32_t rhs_rows,
  56:Middlewares/tensorflow/third_party/cmsis_nn/Source/NNSupportFunctions/arm_nn_mat_mult_nt_t_s8.c ****                                             const int32_t rhs_cols,
  57:Middlewares/tensorflow/third_party/cmsis_nn/Source/NNSupportFunctions/arm_nn_mat_mult_nt_t_s8.c ****                                             const int32_t lhs_offset,
  58:Middlewares/tensorflow/third_party/cmsis_nn/Source/NNSupportFunctions/arm_nn_mat_mult_nt_t_s8.c ****                                             const int32_t dst_offset,
  59:Middlewares/tensorflow/third_party/cmsis_nn/Source/NNSupportFunctions/arm_nn_mat_mult_nt_t_s8.c ****                                             const int32_t activation_min,
  60:Middlewares/tensorflow/third_party/cmsis_nn/Source/NNSupportFunctions/arm_nn_mat_mult_nt_t_s8.c ****                                             const int32_t activation_max,
  61:Middlewares/tensorflow/third_party/cmsis_nn/Source/NNSupportFunctions/arm_nn_mat_mult_nt_t_s8.c ****                                             const int32_t rhs_cols_offset)
  62:Middlewares/tensorflow/third_party/cmsis_nn/Source/NNSupportFunctions/arm_nn_mat_mult_nt_t_s8.c **** {
  30              		.loc 1 62 1 view -0
  31              		.cfi_startproc
  32              		@ args = 40, pretend = 0, frame = 104
  33              		@ frame_needed = 0, uses_anonymous_args = 0
  34              		.loc 1 62 1 is_stmt 0 view .LVU1
  35 0000 2DE9F04F 		push	{r4, r5, r6, r7, r8, r9, r10, fp, lr}
  36              	.LCFI0:
  37              		.cfi_def_cfa_offset 36
  38              		.cfi_offset 4, -36
  39              		.cfi_offset 5, -32
  40              		.cfi_offset 6, -28
  41              		.cfi_offset 7, -24
  42              		.cfi_offset 8, -20
  43              		.cfi_offset 9, -16
  44              		.cfi_offset 10, -12
  45              		.cfi_offset 11, -8
  46              		.cfi_offset 14, -4
  47 0004 9BB0     		sub	sp, sp, #108
  48              	.LCFI1:
  49              		.cfi_def_cfa_offset 144
  50 0006 1990     		str	r0, [sp, #100]
  51 0008 1491     		str	r1, [sp, #80]
  52 000a 1892     		str	r2, [sp, #96]
  53 000c 1793     		str	r3, [sp, #92]
ARM GAS  /tmp/cc6Z6mIk.s 			page 3


  63:Middlewares/tensorflow/third_party/cmsis_nn/Source/NNSupportFunctions/arm_nn_mat_mult_nt_t_s8.c ****     if (rhs_cols_offset < rhs_cols)
  54              		.loc 1 63 5 is_stmt 1 view .LVU2
  55              		.loc 1 63 8 is_stmt 0 view .LVU3
  56 000e 2D9B     		ldr	r3, [sp, #180]
  57              	.LVL1:
  58              		.loc 1 63 8 view .LVU4
  59 0010 289A     		ldr	r2, [sp, #160]
  60              	.LVL2:
  61              		.loc 1 63 8 view .LVU5
  62 0012 9342     		cmp	r3, r2
  63 0014 C0F21584 		blt	.L45
  64:Middlewares/tensorflow/third_party/cmsis_nn/Source/NNSupportFunctions/arm_nn_mat_mult_nt_t_s8.c ****     {
  65:Middlewares/tensorflow/third_party/cmsis_nn/Source/NNSupportFunctions/arm_nn_mat_mult_nt_t_s8.c ****         return ARM_CMSIS_NN_ARG_ERROR;
  66:Middlewares/tensorflow/third_party/cmsis_nn/Source/NNSupportFunctions/arm_nn_mat_mult_nt_t_s8.c ****     }
  67:Middlewares/tensorflow/third_party/cmsis_nn/Source/NNSupportFunctions/arm_nn_mat_mult_nt_t_s8.c **** #if defined(ARM_MATH_MVEI)
  68:Middlewares/tensorflow/third_party/cmsis_nn/Source/NNSupportFunctions/arm_nn_mat_mult_nt_t_s8.c **** 
  69:Middlewares/tensorflow/third_party/cmsis_nn/Source/NNSupportFunctions/arm_nn_mat_mult_nt_t_s8.c ****     int8_t *out_ref = dst;
  70:Middlewares/tensorflow/third_party/cmsis_nn/Source/NNSupportFunctions/arm_nn_mat_mult_nt_t_s8.c ****     const int8_t *in_ref = lhs;
  71:Middlewares/tensorflow/third_party/cmsis_nn/Source/NNSupportFunctions/arm_nn_mat_mult_nt_t_s8.c ****     (void)out_ref;
  72:Middlewares/tensorflow/third_party/cmsis_nn/Source/NNSupportFunctions/arm_nn_mat_mult_nt_t_s8.c ****     (void)in_ref;
  73:Middlewares/tensorflow/third_party/cmsis_nn/Source/NNSupportFunctions/arm_nn_mat_mult_nt_t_s8.c ****     int32_t offset = rhs_cols_offset;
  74:Middlewares/tensorflow/third_party/cmsis_nn/Source/NNSupportFunctions/arm_nn_mat_mult_nt_t_s8.c ****     int i_items = 0;
  75:Middlewares/tensorflow/third_party/cmsis_nn/Source/NNSupportFunctions/arm_nn_mat_mult_nt_t_s8.c ****     for (; i_items <= (lhs_rows - 4); i_items += 4)
  76:Middlewares/tensorflow/third_party/cmsis_nn/Source/NNSupportFunctions/arm_nn_mat_mult_nt_t_s8.c ****     {
  77:Middlewares/tensorflow/third_party/cmsis_nn/Source/NNSupportFunctions/arm_nn_mat_mult_nt_t_s8.c ****         for (int i = 0; i < rhs_rows; i++)
  78:Middlewares/tensorflow/third_party/cmsis_nn/Source/NNSupportFunctions/arm_nn_mat_mult_nt_t_s8.c ****         {
  79:Middlewares/tensorflow/third_party/cmsis_nn/Source/NNSupportFunctions/arm_nn_mat_mult_nt_t_s8.c ****             int32_t acc_n0 = 0;
  80:Middlewares/tensorflow/third_party/cmsis_nn/Source/NNSupportFunctions/arm_nn_mat_mult_nt_t_s8.c ****             int32_t acc_n1 = 0;
  81:Middlewares/tensorflow/third_party/cmsis_nn/Source/NNSupportFunctions/arm_nn_mat_mult_nt_t_s8.c ****             int32_t acc_n2 = 0;
  82:Middlewares/tensorflow/third_party/cmsis_nn/Source/NNSupportFunctions/arm_nn_mat_mult_nt_t_s8.c ****             int32_t acc_n3 = 0;
  83:Middlewares/tensorflow/third_party/cmsis_nn/Source/NNSupportFunctions/arm_nn_mat_mult_nt_t_s8.c **** 
  84:Middlewares/tensorflow/third_party/cmsis_nn/Source/NNSupportFunctions/arm_nn_mat_mult_nt_t_s8.c ****             const int8_t *lhs_vec = lhs;
  85:Middlewares/tensorflow/third_party/cmsis_nn/Source/NNSupportFunctions/arm_nn_mat_mult_nt_t_s8.c ****             const int8_t *ip_row_1 = lhs + offset;
  86:Middlewares/tensorflow/third_party/cmsis_nn/Source/NNSupportFunctions/arm_nn_mat_mult_nt_t_s8.c ****             const int8_t *ip_row_2 = lhs + (2 * offset);
  87:Middlewares/tensorflow/third_party/cmsis_nn/Source/NNSupportFunctions/arm_nn_mat_mult_nt_t_s8.c ****             const int8_t *ip_row_3 = lhs + (3 * offset);
  88:Middlewares/tensorflow/third_party/cmsis_nn/Source/NNSupportFunctions/arm_nn_mat_mult_nt_t_s8.c ****             const int8_t *col_base = rhs + i * rhs_cols;
  89:Middlewares/tensorflow/third_party/cmsis_nn/Source/NNSupportFunctions/arm_nn_mat_mult_nt_t_s8.c ****             int32_t sum_tmp = 0;
  90:Middlewares/tensorflow/third_party/cmsis_nn/Source/NNSupportFunctions/arm_nn_mat_mult_nt_t_s8.c **** 
  91:Middlewares/tensorflow/third_party/cmsis_nn/Source/NNSupportFunctions/arm_nn_mat_mult_nt_t_s8.c ****     #if defined(ARM_MATH_AUTOVECTORIZE)
  92:Middlewares/tensorflow/third_party/cmsis_nn/Source/NNSupportFunctions/arm_nn_mat_mult_nt_t_s8.c ****             for (int j = 0; j < rhs_cols; j++)
  93:Middlewares/tensorflow/third_party/cmsis_nn/Source/NNSupportFunctions/arm_nn_mat_mult_nt_t_s8.c ****             {
  94:Middlewares/tensorflow/third_party/cmsis_nn/Source/NNSupportFunctions/arm_nn_mat_mult_nt_t_s8.c ****                 int32_t col = col_base[j];
  95:Middlewares/tensorflow/third_party/cmsis_nn/Source/NNSupportFunctions/arm_nn_mat_mult_nt_t_s8.c ****                 sum_tmp += col;
  96:Middlewares/tensorflow/third_party/cmsis_nn/Source/NNSupportFunctions/arm_nn_mat_mult_nt_t_s8.c ****                 acc_n0 += lhs_vec[j] * col;
  97:Middlewares/tensorflow/third_party/cmsis_nn/Source/NNSupportFunctions/arm_nn_mat_mult_nt_t_s8.c ****                 acc_n1 += ip_row_1[j] * col;
  98:Middlewares/tensorflow/third_party/cmsis_nn/Source/NNSupportFunctions/arm_nn_mat_mult_nt_t_s8.c ****                 acc_n2 += ip_row_2[j] * col;
  99:Middlewares/tensorflow/third_party/cmsis_nn/Source/NNSupportFunctions/arm_nn_mat_mult_nt_t_s8.c ****                 acc_n3 += ip_row_3[j] * col;
 100:Middlewares/tensorflow/third_party/cmsis_nn/Source/NNSupportFunctions/arm_nn_mat_mult_nt_t_s8.c ****             }
 101:Middlewares/tensorflow/third_party/cmsis_nn/Source/NNSupportFunctions/arm_nn_mat_mult_nt_t_s8.c ****     #else
 102:Middlewares/tensorflow/third_party/cmsis_nn/Source/NNSupportFunctions/arm_nn_mat_mult_nt_t_s8.c ****             __ASM volatile(" .p2align 2                             \n"
 103:Middlewares/tensorflow/third_party/cmsis_nn/Source/NNSupportFunctions/arm_nn_mat_mult_nt_t_s8.c ****                            "   vldrb.8         q0, [%[col]], #16    \n"
 104:Middlewares/tensorflow/third_party/cmsis_nn/Source/NNSupportFunctions/arm_nn_mat_mult_nt_t_s8.c ****                            "   wlstp.8         lr, %[cnt], 1f       \n"
 105:Middlewares/tensorflow/third_party/cmsis_nn/Source/NNSupportFunctions/arm_nn_mat_mult_nt_t_s8.c ****                            "2:                                      \n"
 106:Middlewares/tensorflow/third_party/cmsis_nn/Source/NNSupportFunctions/arm_nn_mat_mult_nt_t_s8.c ****                            "   vaddva.s8      %[sum], q0            \n"
 107:Middlewares/tensorflow/third_party/cmsis_nn/Source/NNSupportFunctions/arm_nn_mat_mult_nt_t_s8.c ****                            "   vldrb.8         q1, [%[row0]], #16   \n"
 108:Middlewares/tensorflow/third_party/cmsis_nn/Source/NNSupportFunctions/arm_nn_mat_mult_nt_t_s8.c ****                            "   vmladava.s8    %[out0], q0, q1       \n"
 109:Middlewares/tensorflow/third_party/cmsis_nn/Source/NNSupportFunctions/arm_nn_mat_mult_nt_t_s8.c ****                            "   vldrb.8         q2, [%[row1]], #16   \n"
ARM GAS  /tmp/cc6Z6mIk.s 			page 4


 110:Middlewares/tensorflow/third_party/cmsis_nn/Source/NNSupportFunctions/arm_nn_mat_mult_nt_t_s8.c ****                            "   vmladava.s8     %[out1], q0, q2      \n"
 111:Middlewares/tensorflow/third_party/cmsis_nn/Source/NNSupportFunctions/arm_nn_mat_mult_nt_t_s8.c ****                            "   vldrb.8         q3, [%[row2]], #16   \n"
 112:Middlewares/tensorflow/third_party/cmsis_nn/Source/NNSupportFunctions/arm_nn_mat_mult_nt_t_s8.c ****                            "   vmladava.s8     %[out2], q0, q3      \n"
 113:Middlewares/tensorflow/third_party/cmsis_nn/Source/NNSupportFunctions/arm_nn_mat_mult_nt_t_s8.c ****                            "   vldrb.8         q4, [%[row3]], #16   \n"
 114:Middlewares/tensorflow/third_party/cmsis_nn/Source/NNSupportFunctions/arm_nn_mat_mult_nt_t_s8.c ****                            "   vmladava.s8     %[out3], q0, q4      \n"
 115:Middlewares/tensorflow/third_party/cmsis_nn/Source/NNSupportFunctions/arm_nn_mat_mult_nt_t_s8.c ****                            "   vldrb.8         q0, [%[col]], #16    \n"
 116:Middlewares/tensorflow/third_party/cmsis_nn/Source/NNSupportFunctions/arm_nn_mat_mult_nt_t_s8.c ****                            "   letp            lr, 2b               \n"
 117:Middlewares/tensorflow/third_party/cmsis_nn/Source/NNSupportFunctions/arm_nn_mat_mult_nt_t_s8.c ****                            "1:                                      \n"
 118:Middlewares/tensorflow/third_party/cmsis_nn/Source/NNSupportFunctions/arm_nn_mat_mult_nt_t_s8.c ****                            : [col] "+r"(col_base),
 119:Middlewares/tensorflow/third_party/cmsis_nn/Source/NNSupportFunctions/arm_nn_mat_mult_nt_t_s8.c ****                              [sum] "+Te"(sum_tmp),
 120:Middlewares/tensorflow/third_party/cmsis_nn/Source/NNSupportFunctions/arm_nn_mat_mult_nt_t_s8.c ****                              [row0] "+r"(lhs_vec),
 121:Middlewares/tensorflow/third_party/cmsis_nn/Source/NNSupportFunctions/arm_nn_mat_mult_nt_t_s8.c ****                              [row1] "+r"(ip_row_1),
 122:Middlewares/tensorflow/third_party/cmsis_nn/Source/NNSupportFunctions/arm_nn_mat_mult_nt_t_s8.c ****                              [row2] "+r"(ip_row_2),
 123:Middlewares/tensorflow/third_party/cmsis_nn/Source/NNSupportFunctions/arm_nn_mat_mult_nt_t_s8.c ****                              [row3] "+r"(ip_row_3),
 124:Middlewares/tensorflow/third_party/cmsis_nn/Source/NNSupportFunctions/arm_nn_mat_mult_nt_t_s8.c ****                              [out0] "+Te"(acc_n0),
 125:Middlewares/tensorflow/third_party/cmsis_nn/Source/NNSupportFunctions/arm_nn_mat_mult_nt_t_s8.c ****                              [out1] "+Te"(acc_n1),
 126:Middlewares/tensorflow/third_party/cmsis_nn/Source/NNSupportFunctions/arm_nn_mat_mult_nt_t_s8.c ****                              [out2] "+Te"(acc_n2),
 127:Middlewares/tensorflow/third_party/cmsis_nn/Source/NNSupportFunctions/arm_nn_mat_mult_nt_t_s8.c ****                              [out3] "+Te"(acc_n3)
 128:Middlewares/tensorflow/third_party/cmsis_nn/Source/NNSupportFunctions/arm_nn_mat_mult_nt_t_s8.c ****                            : [cnt] "r"(rhs_cols)
 129:Middlewares/tensorflow/third_party/cmsis_nn/Source/NNSupportFunctions/arm_nn_mat_mult_nt_t_s8.c ****                            : "q0", "q1", "q2", "q3", "q4", "memory", "r14");
 130:Middlewares/tensorflow/third_party/cmsis_nn/Source/NNSupportFunctions/arm_nn_mat_mult_nt_t_s8.c ****     #endif
 131:Middlewares/tensorflow/third_party/cmsis_nn/Source/NNSupportFunctions/arm_nn_mat_mult_nt_t_s8.c ****             int32x4_t res = {acc_n0, acc_n1, acc_n2, acc_n3};
 132:Middlewares/tensorflow/third_party/cmsis_nn/Source/NNSupportFunctions/arm_nn_mat_mult_nt_t_s8.c ****             sum_tmp *= lhs_offset;
 133:Middlewares/tensorflow/third_party/cmsis_nn/Source/NNSupportFunctions/arm_nn_mat_mult_nt_t_s8.c ****             if (bias)
 134:Middlewares/tensorflow/third_party/cmsis_nn/Source/NNSupportFunctions/arm_nn_mat_mult_nt_t_s8.c ****             {
 135:Middlewares/tensorflow/third_party/cmsis_nn/Source/NNSupportFunctions/arm_nn_mat_mult_nt_t_s8.c ****                 sum_tmp += bias[i];
 136:Middlewares/tensorflow/third_party/cmsis_nn/Source/NNSupportFunctions/arm_nn_mat_mult_nt_t_s8.c ****             }
 137:Middlewares/tensorflow/third_party/cmsis_nn/Source/NNSupportFunctions/arm_nn_mat_mult_nt_t_s8.c ****             res = vaddq_n_s32(res, sum_tmp);
 138:Middlewares/tensorflow/third_party/cmsis_nn/Source/NNSupportFunctions/arm_nn_mat_mult_nt_t_s8.c **** 
 139:Middlewares/tensorflow/third_party/cmsis_nn/Source/NNSupportFunctions/arm_nn_mat_mult_nt_t_s8.c ****             res = arm_requantize_mve(res, dst_multipliers[i], dst_shifts[i]);
 140:Middlewares/tensorflow/third_party/cmsis_nn/Source/NNSupportFunctions/arm_nn_mat_mult_nt_t_s8.c ****             res = vaddq_n_s32(res, dst_offset);
 141:Middlewares/tensorflow/third_party/cmsis_nn/Source/NNSupportFunctions/arm_nn_mat_mult_nt_t_s8.c **** 
 142:Middlewares/tensorflow/third_party/cmsis_nn/Source/NNSupportFunctions/arm_nn_mat_mult_nt_t_s8.c ****             res = vmaxq_s32(res, vdupq_n_s32(activation_min));
 143:Middlewares/tensorflow/third_party/cmsis_nn/Source/NNSupportFunctions/arm_nn_mat_mult_nt_t_s8.c ****             res = vminq_s32(res, vdupq_n_s32(activation_max));
 144:Middlewares/tensorflow/third_party/cmsis_nn/Source/NNSupportFunctions/arm_nn_mat_mult_nt_t_s8.c **** 
 145:Middlewares/tensorflow/third_party/cmsis_nn/Source/NNSupportFunctions/arm_nn_mat_mult_nt_t_s8.c ****             const uint32x4_t scatter_offset = {0, (uint32_t)rhs_rows, (uint32_t)rhs_rows * 2, (uint
 146:Middlewares/tensorflow/third_party/cmsis_nn/Source/NNSupportFunctions/arm_nn_mat_mult_nt_t_s8.c ****             vstrbq_scatter_offset_s32(dst, scatter_offset, res);
 147:Middlewares/tensorflow/third_party/cmsis_nn/Source/NNSupportFunctions/arm_nn_mat_mult_nt_t_s8.c ****             dst++;
 148:Middlewares/tensorflow/third_party/cmsis_nn/Source/NNSupportFunctions/arm_nn_mat_mult_nt_t_s8.c ****         }
 149:Middlewares/tensorflow/third_party/cmsis_nn/Source/NNSupportFunctions/arm_nn_mat_mult_nt_t_s8.c ****         lhs += 4 * offset;
 150:Middlewares/tensorflow/third_party/cmsis_nn/Source/NNSupportFunctions/arm_nn_mat_mult_nt_t_s8.c ****         dst += (3 * rhs_rows);
 151:Middlewares/tensorflow/third_party/cmsis_nn/Source/NNSupportFunctions/arm_nn_mat_mult_nt_t_s8.c ****     }
 152:Middlewares/tensorflow/third_party/cmsis_nn/Source/NNSupportFunctions/arm_nn_mat_mult_nt_t_s8.c **** 
 153:Middlewares/tensorflow/third_party/cmsis_nn/Source/NNSupportFunctions/arm_nn_mat_mult_nt_t_s8.c ****     for (; i_items < lhs_rows; i_items++)
 154:Middlewares/tensorflow/third_party/cmsis_nn/Source/NNSupportFunctions/arm_nn_mat_mult_nt_t_s8.c ****     {
 155:Middlewares/tensorflow/third_party/cmsis_nn/Source/NNSupportFunctions/arm_nn_mat_mult_nt_t_s8.c ****         int32_t acc[4];
 156:Middlewares/tensorflow/third_party/cmsis_nn/Source/NNSupportFunctions/arm_nn_mat_mult_nt_t_s8.c ****         const int32_t *multipliers = dst_multipliers;
 157:Middlewares/tensorflow/third_party/cmsis_nn/Source/NNSupportFunctions/arm_nn_mat_mult_nt_t_s8.c ****         const int32_t *shifts = dst_shifts;
 158:Middlewares/tensorflow/third_party/cmsis_nn/Source/NNSupportFunctions/arm_nn_mat_mult_nt_t_s8.c ****         for (int i = 0; i < rhs_rows; i++)
 159:Middlewares/tensorflow/third_party/cmsis_nn/Source/NNSupportFunctions/arm_nn_mat_mult_nt_t_s8.c ****         {
 160:Middlewares/tensorflow/third_party/cmsis_nn/Source/NNSupportFunctions/arm_nn_mat_mult_nt_t_s8.c ****             int32_t acc_n0 = 0;
 161:Middlewares/tensorflow/third_party/cmsis_nn/Source/NNSupportFunctions/arm_nn_mat_mult_nt_t_s8.c ****             const int8_t *lhs_vec = lhs;
 162:Middlewares/tensorflow/third_party/cmsis_nn/Source/NNSupportFunctions/arm_nn_mat_mult_nt_t_s8.c ****             const int8_t *col_base = rhs + i * rhs_cols;
 163:Middlewares/tensorflow/third_party/cmsis_nn/Source/NNSupportFunctions/arm_nn_mat_mult_nt_t_s8.c ****             int32_t sum_tmp = 0;
 164:Middlewares/tensorflow/third_party/cmsis_nn/Source/NNSupportFunctions/arm_nn_mat_mult_nt_t_s8.c **** 
 165:Middlewares/tensorflow/third_party/cmsis_nn/Source/NNSupportFunctions/arm_nn_mat_mult_nt_t_s8.c ****     #if defined(ARM_MATH_AUTOVECTORIZE)
 166:Middlewares/tensorflow/third_party/cmsis_nn/Source/NNSupportFunctions/arm_nn_mat_mult_nt_t_s8.c ****             for (int j = 0; j < rhs_cols; j++)
ARM GAS  /tmp/cc6Z6mIk.s 			page 5


 167:Middlewares/tensorflow/third_party/cmsis_nn/Source/NNSupportFunctions/arm_nn_mat_mult_nt_t_s8.c ****             {
 168:Middlewares/tensorflow/third_party/cmsis_nn/Source/NNSupportFunctions/arm_nn_mat_mult_nt_t_s8.c ****                 int32_t col = col_base[j];
 169:Middlewares/tensorflow/third_party/cmsis_nn/Source/NNSupportFunctions/arm_nn_mat_mult_nt_t_s8.c ****                 sum_tmp += col;
 170:Middlewares/tensorflow/third_party/cmsis_nn/Source/NNSupportFunctions/arm_nn_mat_mult_nt_t_s8.c ****                 acc_n0 += lhs_vec[j] * col;
 171:Middlewares/tensorflow/third_party/cmsis_nn/Source/NNSupportFunctions/arm_nn_mat_mult_nt_t_s8.c ****             }
 172:Middlewares/tensorflow/third_party/cmsis_nn/Source/NNSupportFunctions/arm_nn_mat_mult_nt_t_s8.c ****     #else
 173:Middlewares/tensorflow/third_party/cmsis_nn/Source/NNSupportFunctions/arm_nn_mat_mult_nt_t_s8.c ****             __ASM volatile(" .p2align 2                             \n"
 174:Middlewares/tensorflow/third_party/cmsis_nn/Source/NNSupportFunctions/arm_nn_mat_mult_nt_t_s8.c ****                            "   vldrb.8         q0, [%[col]], #16    \n"
 175:Middlewares/tensorflow/third_party/cmsis_nn/Source/NNSupportFunctions/arm_nn_mat_mult_nt_t_s8.c ****                            "   wlstp.8         lr, %[cnt], 1f       \n"
 176:Middlewares/tensorflow/third_party/cmsis_nn/Source/NNSupportFunctions/arm_nn_mat_mult_nt_t_s8.c ****                            "2:                                      \n"
 177:Middlewares/tensorflow/third_party/cmsis_nn/Source/NNSupportFunctions/arm_nn_mat_mult_nt_t_s8.c ****                            "   vaddva.s8      %[sum], q0            \n"
 178:Middlewares/tensorflow/third_party/cmsis_nn/Source/NNSupportFunctions/arm_nn_mat_mult_nt_t_s8.c ****                            "   vldrb.8         q1, [%[row0]], #16   \n"
 179:Middlewares/tensorflow/third_party/cmsis_nn/Source/NNSupportFunctions/arm_nn_mat_mult_nt_t_s8.c ****                            "   vmladava.s8    %[out0], q0, q1       \n"
 180:Middlewares/tensorflow/third_party/cmsis_nn/Source/NNSupportFunctions/arm_nn_mat_mult_nt_t_s8.c ****                            "   vldrb.8         q0, [%[col]], #16    \n"
 181:Middlewares/tensorflow/third_party/cmsis_nn/Source/NNSupportFunctions/arm_nn_mat_mult_nt_t_s8.c ****                            "   letp            lr, 2b               \n"
 182:Middlewares/tensorflow/third_party/cmsis_nn/Source/NNSupportFunctions/arm_nn_mat_mult_nt_t_s8.c ****                            "1:                                      \n"
 183:Middlewares/tensorflow/third_party/cmsis_nn/Source/NNSupportFunctions/arm_nn_mat_mult_nt_t_s8.c ****                            : [col] "+r"(col_base), [sum] "+Te"(sum_tmp), [row0] "+r"(lhs_vec), [out
 184:Middlewares/tensorflow/third_party/cmsis_nn/Source/NNSupportFunctions/arm_nn_mat_mult_nt_t_s8.c ****                            : [cnt] "r"(rhs_cols)
 185:Middlewares/tensorflow/third_party/cmsis_nn/Source/NNSupportFunctions/arm_nn_mat_mult_nt_t_s8.c ****                            : "q0", "q1", "memory", "r14");
 186:Middlewares/tensorflow/third_party/cmsis_nn/Source/NNSupportFunctions/arm_nn_mat_mult_nt_t_s8.c ****     #endif
 187:Middlewares/tensorflow/third_party/cmsis_nn/Source/NNSupportFunctions/arm_nn_mat_mult_nt_t_s8.c ****             sum_tmp *= lhs_offset;
 188:Middlewares/tensorflow/third_party/cmsis_nn/Source/NNSupportFunctions/arm_nn_mat_mult_nt_t_s8.c ****             sum_tmp += acc_n0;
 189:Middlewares/tensorflow/third_party/cmsis_nn/Source/NNSupportFunctions/arm_nn_mat_mult_nt_t_s8.c ****             if (bias)
 190:Middlewares/tensorflow/third_party/cmsis_nn/Source/NNSupportFunctions/arm_nn_mat_mult_nt_t_s8.c ****             {
 191:Middlewares/tensorflow/third_party/cmsis_nn/Source/NNSupportFunctions/arm_nn_mat_mult_nt_t_s8.c ****                 sum_tmp += bias[i];
 192:Middlewares/tensorflow/third_party/cmsis_nn/Source/NNSupportFunctions/arm_nn_mat_mult_nt_t_s8.c ****             }
 193:Middlewares/tensorflow/third_party/cmsis_nn/Source/NNSupportFunctions/arm_nn_mat_mult_nt_t_s8.c ****             const int32_t index = i & 0x3;
 194:Middlewares/tensorflow/third_party/cmsis_nn/Source/NNSupportFunctions/arm_nn_mat_mult_nt_t_s8.c ****             acc[index] = sum_tmp;
 195:Middlewares/tensorflow/third_party/cmsis_nn/Source/NNSupportFunctions/arm_nn_mat_mult_nt_t_s8.c **** 
 196:Middlewares/tensorflow/third_party/cmsis_nn/Source/NNSupportFunctions/arm_nn_mat_mult_nt_t_s8.c ****             if (index == 3)
 197:Middlewares/tensorflow/third_party/cmsis_nn/Source/NNSupportFunctions/arm_nn_mat_mult_nt_t_s8.c ****             {
 198:Middlewares/tensorflow/third_party/cmsis_nn/Source/NNSupportFunctions/arm_nn_mat_mult_nt_t_s8.c ****                 int32x4_t res = vldrwq_s32(acc);
 199:Middlewares/tensorflow/third_party/cmsis_nn/Source/NNSupportFunctions/arm_nn_mat_mult_nt_t_s8.c ****                 res = arm_requantize_mve_32x4(res, vldrwq_s32(multipliers), vldrwq_s32(shifts));
 200:Middlewares/tensorflow/third_party/cmsis_nn/Source/NNSupportFunctions/arm_nn_mat_mult_nt_t_s8.c ****                 multipliers += 4;
 201:Middlewares/tensorflow/third_party/cmsis_nn/Source/NNSupportFunctions/arm_nn_mat_mult_nt_t_s8.c ****                 shifts += 4;
 202:Middlewares/tensorflow/third_party/cmsis_nn/Source/NNSupportFunctions/arm_nn_mat_mult_nt_t_s8.c ****                 res = vaddq_n_s32(res, dst_offset);
 203:Middlewares/tensorflow/third_party/cmsis_nn/Source/NNSupportFunctions/arm_nn_mat_mult_nt_t_s8.c ****                 res = vmaxq_s32(res, vdupq_n_s32(activation_min));
 204:Middlewares/tensorflow/third_party/cmsis_nn/Source/NNSupportFunctions/arm_nn_mat_mult_nt_t_s8.c ****                 res = vminq_s32(res, vdupq_n_s32(activation_max));
 205:Middlewares/tensorflow/third_party/cmsis_nn/Source/NNSupportFunctions/arm_nn_mat_mult_nt_t_s8.c ****                 vstrbq_s32(dst, res);
 206:Middlewares/tensorflow/third_party/cmsis_nn/Source/NNSupportFunctions/arm_nn_mat_mult_nt_t_s8.c ****                 dst += 4;
 207:Middlewares/tensorflow/third_party/cmsis_nn/Source/NNSupportFunctions/arm_nn_mat_mult_nt_t_s8.c ****             }
 208:Middlewares/tensorflow/third_party/cmsis_nn/Source/NNSupportFunctions/arm_nn_mat_mult_nt_t_s8.c ****         }
 209:Middlewares/tensorflow/third_party/cmsis_nn/Source/NNSupportFunctions/arm_nn_mat_mult_nt_t_s8.c ****         lhs += offset;
 210:Middlewares/tensorflow/third_party/cmsis_nn/Source/NNSupportFunctions/arm_nn_mat_mult_nt_t_s8.c **** 
 211:Middlewares/tensorflow/third_party/cmsis_nn/Source/NNSupportFunctions/arm_nn_mat_mult_nt_t_s8.c ****         for (int i = 0; i < (rhs_rows & 0x3); i++)
 212:Middlewares/tensorflow/third_party/cmsis_nn/Source/NNSupportFunctions/arm_nn_mat_mult_nt_t_s8.c ****         {
 213:Middlewares/tensorflow/third_party/cmsis_nn/Source/NNSupportFunctions/arm_nn_mat_mult_nt_t_s8.c ****             int32_t acc_n0 = acc[i];
 214:Middlewares/tensorflow/third_party/cmsis_nn/Source/NNSupportFunctions/arm_nn_mat_mult_nt_t_s8.c ****             acc_n0 = arm_nn_requantize(acc_n0, multipliers[i], shifts[i]);
 215:Middlewares/tensorflow/third_party/cmsis_nn/Source/NNSupportFunctions/arm_nn_mat_mult_nt_t_s8.c ****             acc_n0 += dst_offset;
 216:Middlewares/tensorflow/third_party/cmsis_nn/Source/NNSupportFunctions/arm_nn_mat_mult_nt_t_s8.c ****             acc_n0 = MAX(acc_n0, activation_min);
 217:Middlewares/tensorflow/third_party/cmsis_nn/Source/NNSupportFunctions/arm_nn_mat_mult_nt_t_s8.c ****             acc_n0 = MIN(acc_n0, activation_max);
 218:Middlewares/tensorflow/third_party/cmsis_nn/Source/NNSupportFunctions/arm_nn_mat_mult_nt_t_s8.c ****             *dst++ = (int8_t)acc_n0;
 219:Middlewares/tensorflow/third_party/cmsis_nn/Source/NNSupportFunctions/arm_nn_mat_mult_nt_t_s8.c ****         }
 220:Middlewares/tensorflow/third_party/cmsis_nn/Source/NNSupportFunctions/arm_nn_mat_mult_nt_t_s8.c ****     }
 221:Middlewares/tensorflow/third_party/cmsis_nn/Source/NNSupportFunctions/arm_nn_mat_mult_nt_t_s8.c **** 
 222:Middlewares/tensorflow/third_party/cmsis_nn/Source/NNSupportFunctions/arm_nn_mat_mult_nt_t_s8.c **** #elif defined(ARM_MATH_DSP)
 223:Middlewares/tensorflow/third_party/cmsis_nn/Source/NNSupportFunctions/arm_nn_mat_mult_nt_t_s8.c ****     const int32_t off0 = rhs_cols - 4;
ARM GAS  /tmp/cc6Z6mIk.s 			page 6


  64              		.loc 1 223 5 is_stmt 1 view .LVU6
  65              		.loc 1 223 19 is_stmt 0 view .LVU7
  66 0018 131F     		subs	r3, r2, #4
  67 001a 0093     		str	r3, [sp]
  68              	.LVL3:
 224:Middlewares/tensorflow/third_party/cmsis_nn/Source/NNSupportFunctions/arm_nn_mat_mult_nt_t_s8.c ****     const int32_t lhs_off0 = rhs_cols_offset - 4;
  69              		.loc 1 224 5 is_stmt 1 view .LVU8
  70              		.loc 1 224 19 is_stmt 0 view .LVU9
  71 001c 2D9B     		ldr	r3, [sp, #180]
  72              	.LVL4:
  73              		.loc 1 224 19 view .LVU10
  74 001e 043B     		subs	r3, r3, #4
  75 0020 0293     		str	r3, [sp, #8]
  76              	.LVL5:
 225:Middlewares/tensorflow/third_party/cmsis_nn/Source/NNSupportFunctions/arm_nn_mat_mult_nt_t_s8.c **** 
 226:Middlewares/tensorflow/third_party/cmsis_nn/Source/NNSupportFunctions/arm_nn_mat_mult_nt_t_s8.c ****     for (int32_t rhs_rows_idx = 0; rhs_rows_idx <= (rhs_rows - 2); rhs_rows_idx += 2)
  77              		.loc 1 226 5 is_stmt 1 view .LVU11
  78              	.LBB534:
  79              		.loc 1 226 10 view .LVU12
  80              		.loc 1 226 18 is_stmt 0 view .LVU13
  81 0022 0023     		movs	r3, #0
  82              	.LVL6:
  83              		.loc 1 226 18 view .LVU14
  84 0024 1393     		str	r3, [sp, #76]
  85              		.loc 1 226 5 view .LVU15
  86 0026 59E2     		b	.L3
  87              	.LVL7:
  88              	.L4:
  89              	.LBB535:
  90              	.LBB536:
 227:Middlewares/tensorflow/third_party/cmsis_nn/Source/NNSupportFunctions/arm_nn_mat_mult_nt_t_s8.c ****     {
 228:Middlewares/tensorflow/third_party/cmsis_nn/Source/NNSupportFunctions/arm_nn_mat_mult_nt_t_s8.c ****         const int8_t *lhs_ptr = &lhs[0];
 229:Middlewares/tensorflow/third_party/cmsis_nn/Source/NNSupportFunctions/arm_nn_mat_mult_nt_t_s8.c ****         int8_t *dst_ptr = &dst[0];
 230:Middlewares/tensorflow/third_party/cmsis_nn/Source/NNSupportFunctions/arm_nn_mat_mult_nt_t_s8.c **** 
 231:Middlewares/tensorflow/third_party/cmsis_nn/Source/NNSupportFunctions/arm_nn_mat_mult_nt_t_s8.c ****         int32_t lhs_offset_contribution0 = 0;
 232:Middlewares/tensorflow/third_party/cmsis_nn/Source/NNSupportFunctions/arm_nn_mat_mult_nt_t_s8.c ****         int32_t lhs_offset_contribution1 = 0;
 233:Middlewares/tensorflow/third_party/cmsis_nn/Source/NNSupportFunctions/arm_nn_mat_mult_nt_t_s8.c **** 
 234:Middlewares/tensorflow/third_party/cmsis_nn/Source/NNSupportFunctions/arm_nn_mat_mult_nt_t_s8.c ****         for (int32_t x = 0; x < rhs_cols; ++x)
 235:Middlewares/tensorflow/third_party/cmsis_nn/Source/NNSupportFunctions/arm_nn_mat_mult_nt_t_s8.c ****         {
 236:Middlewares/tensorflow/third_party/cmsis_nn/Source/NNSupportFunctions/arm_nn_mat_mult_nt_t_s8.c ****             lhs_offset_contribution0 += rhs[x];
  91              		.loc 1 236 13 is_stmt 1 discriminator 3 view .LVU16
  92              		.loc 1 236 44 is_stmt 0 discriminator 3 view .LVU17
  93 0028 E556     		ldrsb	r5, [r4, r3]
  94              		.loc 1 236 38 discriminator 3 view .LVU18
  95 002a 2944     		add	r1, r1, r5
  96              	.LVL8:
 237:Middlewares/tensorflow/third_party/cmsis_nn/Source/NNSupportFunctions/arm_nn_mat_mult_nt_t_s8.c ****             lhs_offset_contribution1 += rhs[x + rhs_cols];
  97              		.loc 1 237 13 is_stmt 1 discriminator 3 view .LVU19
  98              		.loc 1 237 47 is_stmt 0 discriminator 3 view .LVU20
  99 002c 1D18     		adds	r5, r3, r0
 100              		.loc 1 237 44 discriminator 3 view .LVU21
 101 002e 6557     		ldrsb	r5, [r4, r5]
 102              		.loc 1 237 38 discriminator 3 view .LVU22
 103 0030 2A44     		add	r2, r2, r5
 104              	.LVL9:
 234:Middlewares/tensorflow/third_party/cmsis_nn/Source/NNSupportFunctions/arm_nn_mat_mult_nt_t_s8.c ****         {
 105              		.loc 1 234 43 is_stmt 1 discriminator 3 view .LVU23
ARM GAS  /tmp/cc6Z6mIk.s 			page 7


 106 0032 0133     		adds	r3, r3, #1
 107              	.LVL10:
 108              	.L36:
 234:Middlewares/tensorflow/third_party/cmsis_nn/Source/NNSupportFunctions/arm_nn_mat_mult_nt_t_s8.c ****         {
 109              		.loc 1 234 29 discriminator 1 view .LVU24
 234:Middlewares/tensorflow/third_party/cmsis_nn/Source/NNSupportFunctions/arm_nn_mat_mult_nt_t_s8.c ****         {
 110              		.loc 1 234 9 is_stmt 0 discriminator 1 view .LVU25
 111 0034 8342     		cmp	r3, r0
 112 0036 F7DB     		blt	.L4
 113              	.LBE536:
 238:Middlewares/tensorflow/third_party/cmsis_nn/Source/NNSupportFunctions/arm_nn_mat_mult_nt_t_s8.c ****         }
 239:Middlewares/tensorflow/third_party/cmsis_nn/Source/NNSupportFunctions/arm_nn_mat_mult_nt_t_s8.c **** 
 240:Middlewares/tensorflow/third_party/cmsis_nn/Source/NNSupportFunctions/arm_nn_mat_mult_nt_t_s8.c ****         lhs_offset_contribution0 *= lhs_offset;
 114              		.loc 1 240 9 is_stmt 1 view .LVU26
 115              		.loc 1 240 34 is_stmt 0 view .LVU27
 116 0038 299B     		ldr	r3, [sp, #164]
 117              	.LVL11:
 118              		.loc 1 240 34 view .LVU28
 119 003a 03FB01F1 		mul	r1, r3, r1
 120              	.LVL12:
 121              		.loc 1 240 34 view .LVU29
 122 003e 1691     		str	r1, [sp, #88]
 123              	.LVL13:
 241:Middlewares/tensorflow/third_party/cmsis_nn/Source/NNSupportFunctions/arm_nn_mat_mult_nt_t_s8.c ****         lhs_offset_contribution1 *= lhs_offset;
 124              		.loc 1 241 9 is_stmt 1 view .LVU30
 125              		.loc 1 241 34 is_stmt 0 view .LVU31
 126 0040 03FB02F0 		mul	r0, r3, r2
 127 0044 1590     		str	r0, [sp, #84]
 128              	.LVL14:
 242:Middlewares/tensorflow/third_party/cmsis_nn/Source/NNSupportFunctions/arm_nn_mat_mult_nt_t_s8.c ****         if (bias)
 129              		.loc 1 242 9 is_stmt 1 view .LVU32
 130              		.loc 1 242 12 is_stmt 0 view .LVU33
 131 0046 189A     		ldr	r2, [sp, #96]
 132 0048 4AB1     		cbz	r2, .L5
 243:Middlewares/tensorflow/third_party/cmsis_nn/Source/NNSupportFunctions/arm_nn_mat_mult_nt_t_s8.c ****         {
 244:Middlewares/tensorflow/third_party/cmsis_nn/Source/NNSupportFunctions/arm_nn_mat_mult_nt_t_s8.c ****             lhs_offset_contribution0 += bias[rhs_rows_idx];
 133              		.loc 1 244 13 is_stmt 1 view .LVU34
 134              		.loc 1 244 45 is_stmt 0 view .LVU35
 135 004a 139C     		ldr	r4, [sp, #76]
 136              	.LVL15:
 137              		.loc 1 244 45 view .LVU36
 138 004c 52F82430 		ldr	r3, [r2, r4, lsl #2]
 139              		.loc 1 244 38 view .LVU37
 140 0050 1944     		add	r1, r1, r3
 141              	.LVL16:
 142              		.loc 1 244 38 view .LVU38
 143 0052 1691     		str	r1, [sp, #88]
 144              	.LVL17:
 245:Middlewares/tensorflow/third_party/cmsis_nn/Source/NNSupportFunctions/arm_nn_mat_mult_nt_t_s8.c ****             lhs_offset_contribution1 += bias[rhs_rows_idx + 1];
 145              		.loc 1 245 13 is_stmt 1 view .LVU39
 146              		.loc 1 245 45 is_stmt 0 view .LVU40
 147 0054 631C     		adds	r3, r4, #1
 148 0056 52F82330 		ldr	r3, [r2, r3, lsl #2]
 149              		.loc 1 245 38 view .LVU41
 150 005a 1844     		add	r0, r0, r3
 151              	.LVL18:
 152              		.loc 1 245 38 view .LVU42
ARM GAS  /tmp/cc6Z6mIk.s 			page 8


 153 005c 1590     		str	r0, [sp, #84]
 154              	.LVL19:
 155              	.L5:
 246:Middlewares/tensorflow/third_party/cmsis_nn/Source/NNSupportFunctions/arm_nn_mat_mult_nt_t_s8.c ****         }
 247:Middlewares/tensorflow/third_party/cmsis_nn/Source/NNSupportFunctions/arm_nn_mat_mult_nt_t_s8.c **** 
 248:Middlewares/tensorflow/third_party/cmsis_nn/Source/NNSupportFunctions/arm_nn_mat_mult_nt_t_s8.c ****         int32_t lhs_rows_idx = lhs_rows >> 1;
 156              		.loc 1 248 9 is_stmt 1 view .LVU43
 157              		.loc 1 248 17 is_stmt 0 view .LVU44
 158 005e 269B     		ldr	r3, [sp, #152]
 159 0060 5B10     		asrs	r3, r3, #1
 160 0062 0893     		str	r3, [sp, #32]
 161              	.LVL20:
 249:Middlewares/tensorflow/third_party/cmsis_nn/Source/NNSupportFunctions/arm_nn_mat_mult_nt_t_s8.c **** 
 250:Middlewares/tensorflow/third_party/cmsis_nn/Source/NNSupportFunctions/arm_nn_mat_mult_nt_t_s8.c ****         while (lhs_rows_idx)
 162              		.loc 1 250 9 is_stmt 1 view .LVU45
 228:Middlewares/tensorflow/third_party/cmsis_nn/Source/NNSupportFunctions/arm_nn_mat_mult_nt_t_s8.c ****         int8_t *dst_ptr = &dst[0];
 163              		.loc 1 228 23 is_stmt 0 view .LVU46
 164 0064 199D     		ldr	r5, [sp, #100]
 229:Middlewares/tensorflow/third_party/cmsis_nn/Source/NNSupportFunctions/arm_nn_mat_mult_nt_t_s8.c **** 
 165              		.loc 1 229 17 view .LVU47
 166 0066 179B     		ldr	r3, [sp, #92]
 167              	.LVL21:
 229:Middlewares/tensorflow/third_party/cmsis_nn/Source/NNSupportFunctions/arm_nn_mat_mult_nt_t_s8.c **** 
 168              		.loc 1 229 17 view .LVU48
 169 0068 0B93     		str	r3, [sp, #44]
 170              		.loc 1 250 15 view .LVU49
 171 006a 56E1     		b	.L6
 172              	.LVL22:
 173              	.L65:
 174              		.loc 1 250 15 view .LVU50
 175 006c 3946     		mov	r1, r7
 176 006e 0493     		str	r3, [sp, #16]
 177 0070 DDF8A0B0 		ldr	fp, [sp, #160]
 178              	.LBB537:
 179 0074 2CE0     		b	.L8
 180              	.LVL23:
 181              	.L9:
 251:Middlewares/tensorflow/third_party/cmsis_nn/Source/NNSupportFunctions/arm_nn_mat_mult_nt_t_s8.c ****         {
 252:Middlewares/tensorflow/third_party/cmsis_nn/Source/NNSupportFunctions/arm_nn_mat_mult_nt_t_s8.c ****             const int8_t *rhs_ptr = &rhs[0];
 253:Middlewares/tensorflow/third_party/cmsis_nn/Source/NNSupportFunctions/arm_nn_mat_mult_nt_t_s8.c **** 
 254:Middlewares/tensorflow/third_party/cmsis_nn/Source/NNSupportFunctions/arm_nn_mat_mult_nt_t_s8.c ****             int32_t res00 = lhs_offset_contribution0;
 255:Middlewares/tensorflow/third_party/cmsis_nn/Source/NNSupportFunctions/arm_nn_mat_mult_nt_t_s8.c ****             int32_t res01 = lhs_offset_contribution1;
 256:Middlewares/tensorflow/third_party/cmsis_nn/Source/NNSupportFunctions/arm_nn_mat_mult_nt_t_s8.c ****             int32_t res10 = lhs_offset_contribution0;
 257:Middlewares/tensorflow/third_party/cmsis_nn/Source/NNSupportFunctions/arm_nn_mat_mult_nt_t_s8.c ****             int32_t res11 = lhs_offset_contribution1;
 258:Middlewares/tensorflow/third_party/cmsis_nn/Source/NNSupportFunctions/arm_nn_mat_mult_nt_t_s8.c **** 
 259:Middlewares/tensorflow/third_party/cmsis_nn/Source/NNSupportFunctions/arm_nn_mat_mult_nt_t_s8.c ****             int32_t rhs_cols_idx = 0;
 260:Middlewares/tensorflow/third_party/cmsis_nn/Source/NNSupportFunctions/arm_nn_mat_mult_nt_t_s8.c **** 
 261:Middlewares/tensorflow/third_party/cmsis_nn/Source/NNSupportFunctions/arm_nn_mat_mult_nt_t_s8.c ****             int32_t val0, val1, val2, val3, val4, val5;
 262:Middlewares/tensorflow/third_party/cmsis_nn/Source/NNSupportFunctions/arm_nn_mat_mult_nt_t_s8.c **** 
 263:Middlewares/tensorflow/third_party/cmsis_nn/Source/NNSupportFunctions/arm_nn_mat_mult_nt_t_s8.c ****             for (; rhs_cols_idx <= (rhs_cols - 16); rhs_cols_idx += 16)
 264:Middlewares/tensorflow/third_party/cmsis_nn/Source/NNSupportFunctions/arm_nn_mat_mult_nt_t_s8.c ****             {
 265:Middlewares/tensorflow/third_party/cmsis_nn/Source/NNSupportFunctions/arm_nn_mat_mult_nt_t_s8.c ****                 val1 = arm_nn_read_s8x4_ia((const int8_t **)&rhs_ptr);
 266:Middlewares/tensorflow/third_party/cmsis_nn/Source/NNSupportFunctions/arm_nn_mat_mult_nt_t_s8.c ****                 val2 = SXTB16(val1);
 267:Middlewares/tensorflow/third_party/cmsis_nn/Source/NNSupportFunctions/arm_nn_mat_mult_nt_t_s8.c ****                 val0 = arm_nn_read_s8x4_ia((const int8_t **)&lhs_ptr);
 268:Middlewares/tensorflow/third_party/cmsis_nn/Source/NNSupportFunctions/arm_nn_mat_mult_nt_t_s8.c ****                 val3 = SXTB16(val0);
 269:Middlewares/tensorflow/third_party/cmsis_nn/Source/NNSupportFunctions/arm_nn_mat_mult_nt_t_s8.c ****                 val4 = arm_nn_read_s8x4((const int8_t *)&rhs_ptr[off0]);
 270:Middlewares/tensorflow/third_party/cmsis_nn/Source/NNSupportFunctions/arm_nn_mat_mult_nt_t_s8.c ****                 val1 = SXTB16_RORn(val1, 8);
ARM GAS  /tmp/cc6Z6mIk.s 			page 9


 271:Middlewares/tensorflow/third_party/cmsis_nn/Source/NNSupportFunctions/arm_nn_mat_mult_nt_t_s8.c ****                 val0 = SXTB16_RORn(val0, 8);
 272:Middlewares/tensorflow/third_party/cmsis_nn/Source/NNSupportFunctions/arm_nn_mat_mult_nt_t_s8.c **** 
 273:Middlewares/tensorflow/third_party/cmsis_nn/Source/NNSupportFunctions/arm_nn_mat_mult_nt_t_s8.c ****                 // 4 x MAC res00, res01
 274:Middlewares/tensorflow/third_party/cmsis_nn/Source/NNSupportFunctions/arm_nn_mat_mult_nt_t_s8.c ****                 res00 = SMLAD(val3, val2, res00);
 275:Middlewares/tensorflow/third_party/cmsis_nn/Source/NNSupportFunctions/arm_nn_mat_mult_nt_t_s8.c ****                 val5 = SXTB16(val4);
 276:Middlewares/tensorflow/third_party/cmsis_nn/Source/NNSupportFunctions/arm_nn_mat_mult_nt_t_s8.c ****                 res00 = SMLAD(val0, val1, res00);
 277:Middlewares/tensorflow/third_party/cmsis_nn/Source/NNSupportFunctions/arm_nn_mat_mult_nt_t_s8.c ****                 val4 = SXTB16_RORn(val4, 8);
 278:Middlewares/tensorflow/third_party/cmsis_nn/Source/NNSupportFunctions/arm_nn_mat_mult_nt_t_s8.c ****                 res01 = SMLAD(val3, val5, res01);
 279:Middlewares/tensorflow/third_party/cmsis_nn/Source/NNSupportFunctions/arm_nn_mat_mult_nt_t_s8.c ****                 res01 = SMLAD(val0, val4, res01);
 280:Middlewares/tensorflow/third_party/cmsis_nn/Source/NNSupportFunctions/arm_nn_mat_mult_nt_t_s8.c **** 
 281:Middlewares/tensorflow/third_party/cmsis_nn/Source/NNSupportFunctions/arm_nn_mat_mult_nt_t_s8.c ****                 // 4 x MAC res10, res11
 282:Middlewares/tensorflow/third_party/cmsis_nn/Source/NNSupportFunctions/arm_nn_mat_mult_nt_t_s8.c ****                 val0 = arm_nn_read_s8x4((const int8_t *)&lhs_ptr[lhs_off0]);
 283:Middlewares/tensorflow/third_party/cmsis_nn/Source/NNSupportFunctions/arm_nn_mat_mult_nt_t_s8.c ****                 val3 = SXTB16(val0);
 284:Middlewares/tensorflow/third_party/cmsis_nn/Source/NNSupportFunctions/arm_nn_mat_mult_nt_t_s8.c ****                 val0 = SXTB16_RORn(val0, 8);
 285:Middlewares/tensorflow/third_party/cmsis_nn/Source/NNSupportFunctions/arm_nn_mat_mult_nt_t_s8.c ****                 res10 = SMLAD(val3, val2, res10);
 286:Middlewares/tensorflow/third_party/cmsis_nn/Source/NNSupportFunctions/arm_nn_mat_mult_nt_t_s8.c ****                 res11 = SMLAD(val3, val5, res11);
 287:Middlewares/tensorflow/third_party/cmsis_nn/Source/NNSupportFunctions/arm_nn_mat_mult_nt_t_s8.c ****                 res10 = SMLAD(val0, val1, res10);
 288:Middlewares/tensorflow/third_party/cmsis_nn/Source/NNSupportFunctions/arm_nn_mat_mult_nt_t_s8.c ****                 val1 = arm_nn_read_s8x4_ia((const int8_t **)&rhs_ptr);
 289:Middlewares/tensorflow/third_party/cmsis_nn/Source/NNSupportFunctions/arm_nn_mat_mult_nt_t_s8.c ****                 res11 = SMLAD(val0, val4, res11);
 290:Middlewares/tensorflow/third_party/cmsis_nn/Source/NNSupportFunctions/arm_nn_mat_mult_nt_t_s8.c **** 
 291:Middlewares/tensorflow/third_party/cmsis_nn/Source/NNSupportFunctions/arm_nn_mat_mult_nt_t_s8.c ****                 val4 = arm_nn_read_s8x4((const int8_t *)&rhs_ptr[off0]);
 292:Middlewares/tensorflow/third_party/cmsis_nn/Source/NNSupportFunctions/arm_nn_mat_mult_nt_t_s8.c ****                 val2 = SXTB16(val1);
 293:Middlewares/tensorflow/third_party/cmsis_nn/Source/NNSupportFunctions/arm_nn_mat_mult_nt_t_s8.c ****                 val0 = arm_nn_read_s8x4_ia((const int8_t **)&lhs_ptr);
 294:Middlewares/tensorflow/third_party/cmsis_nn/Source/NNSupportFunctions/arm_nn_mat_mult_nt_t_s8.c ****                 val3 = SXTB16(val0);
 295:Middlewares/tensorflow/third_party/cmsis_nn/Source/NNSupportFunctions/arm_nn_mat_mult_nt_t_s8.c ****                 val1 = SXTB16_RORn(val1, 8);
 296:Middlewares/tensorflow/third_party/cmsis_nn/Source/NNSupportFunctions/arm_nn_mat_mult_nt_t_s8.c ****                 val0 = SXTB16_RORn(val0, 8);
 297:Middlewares/tensorflow/third_party/cmsis_nn/Source/NNSupportFunctions/arm_nn_mat_mult_nt_t_s8.c **** 
 298:Middlewares/tensorflow/third_party/cmsis_nn/Source/NNSupportFunctions/arm_nn_mat_mult_nt_t_s8.c ****                 // 4 x MAC res00, res01
 299:Middlewares/tensorflow/third_party/cmsis_nn/Source/NNSupportFunctions/arm_nn_mat_mult_nt_t_s8.c ****                 res00 = SMLAD(val3, val2, res00);
 300:Middlewares/tensorflow/third_party/cmsis_nn/Source/NNSupportFunctions/arm_nn_mat_mult_nt_t_s8.c ****                 val5 = SXTB16(val4);
 301:Middlewares/tensorflow/third_party/cmsis_nn/Source/NNSupportFunctions/arm_nn_mat_mult_nt_t_s8.c ****                 res00 = SMLAD(val0, val1, res00);
 302:Middlewares/tensorflow/third_party/cmsis_nn/Source/NNSupportFunctions/arm_nn_mat_mult_nt_t_s8.c ****                 val4 = SXTB16_RORn(val4, 8);
 303:Middlewares/tensorflow/third_party/cmsis_nn/Source/NNSupportFunctions/arm_nn_mat_mult_nt_t_s8.c ****                 res01 = SMLAD(val3, val5, res01);
 304:Middlewares/tensorflow/third_party/cmsis_nn/Source/NNSupportFunctions/arm_nn_mat_mult_nt_t_s8.c ****                 res01 = SMLAD(val0, val4, res01);
 305:Middlewares/tensorflow/third_party/cmsis_nn/Source/NNSupportFunctions/arm_nn_mat_mult_nt_t_s8.c **** 
 306:Middlewares/tensorflow/third_party/cmsis_nn/Source/NNSupportFunctions/arm_nn_mat_mult_nt_t_s8.c ****                 // 4 x MAC res10, res11
 307:Middlewares/tensorflow/third_party/cmsis_nn/Source/NNSupportFunctions/arm_nn_mat_mult_nt_t_s8.c ****                 val0 = arm_nn_read_s8x4((const int8_t *)&lhs_ptr[lhs_off0]);
 308:Middlewares/tensorflow/third_party/cmsis_nn/Source/NNSupportFunctions/arm_nn_mat_mult_nt_t_s8.c ****                 val3 = SXTB16(val0);
 309:Middlewares/tensorflow/third_party/cmsis_nn/Source/NNSupportFunctions/arm_nn_mat_mult_nt_t_s8.c ****                 val0 = SXTB16_RORn(val0, 8);
 310:Middlewares/tensorflow/third_party/cmsis_nn/Source/NNSupportFunctions/arm_nn_mat_mult_nt_t_s8.c ****                 res10 = SMLAD(val3, val2, res10);
 311:Middlewares/tensorflow/third_party/cmsis_nn/Source/NNSupportFunctions/arm_nn_mat_mult_nt_t_s8.c ****                 res11 = SMLAD(val3, val5, res11);
 312:Middlewares/tensorflow/third_party/cmsis_nn/Source/NNSupportFunctions/arm_nn_mat_mult_nt_t_s8.c ****                 res10 = SMLAD(val0, val1, res10);
 313:Middlewares/tensorflow/third_party/cmsis_nn/Source/NNSupportFunctions/arm_nn_mat_mult_nt_t_s8.c ****                 val1 = arm_nn_read_s8x4_ia((const int8_t **)&rhs_ptr);
 314:Middlewares/tensorflow/third_party/cmsis_nn/Source/NNSupportFunctions/arm_nn_mat_mult_nt_t_s8.c ****                 res11 = SMLAD(val0, val4, res11);
 315:Middlewares/tensorflow/third_party/cmsis_nn/Source/NNSupportFunctions/arm_nn_mat_mult_nt_t_s8.c **** 
 316:Middlewares/tensorflow/third_party/cmsis_nn/Source/NNSupportFunctions/arm_nn_mat_mult_nt_t_s8.c ****                 val4 = arm_nn_read_s8x4((const int8_t *)&rhs_ptr[off0]);
 317:Middlewares/tensorflow/third_party/cmsis_nn/Source/NNSupportFunctions/arm_nn_mat_mult_nt_t_s8.c ****                 val2 = SXTB16(val1);
 318:Middlewares/tensorflow/third_party/cmsis_nn/Source/NNSupportFunctions/arm_nn_mat_mult_nt_t_s8.c ****                 val0 = arm_nn_read_s8x4_ia((const int8_t **)&lhs_ptr);
 319:Middlewares/tensorflow/third_party/cmsis_nn/Source/NNSupportFunctions/arm_nn_mat_mult_nt_t_s8.c ****                 val3 = SXTB16(val0);
 320:Middlewares/tensorflow/third_party/cmsis_nn/Source/NNSupportFunctions/arm_nn_mat_mult_nt_t_s8.c ****                 val1 = SXTB16_RORn(val1, 8);
 321:Middlewares/tensorflow/third_party/cmsis_nn/Source/NNSupportFunctions/arm_nn_mat_mult_nt_t_s8.c ****                 val0 = SXTB16_RORn(val0, 8);
 322:Middlewares/tensorflow/third_party/cmsis_nn/Source/NNSupportFunctions/arm_nn_mat_mult_nt_t_s8.c **** 
 323:Middlewares/tensorflow/third_party/cmsis_nn/Source/NNSupportFunctions/arm_nn_mat_mult_nt_t_s8.c ****                 // 4 x MAC res00, res01
 324:Middlewares/tensorflow/third_party/cmsis_nn/Source/NNSupportFunctions/arm_nn_mat_mult_nt_t_s8.c ****                 res00 = SMLAD(val3, val2, res00);
 325:Middlewares/tensorflow/third_party/cmsis_nn/Source/NNSupportFunctions/arm_nn_mat_mult_nt_t_s8.c ****                 val5 = SXTB16(val4);
 326:Middlewares/tensorflow/third_party/cmsis_nn/Source/NNSupportFunctions/arm_nn_mat_mult_nt_t_s8.c ****                 res00 = SMLAD(val0, val1, res00);
 327:Middlewares/tensorflow/third_party/cmsis_nn/Source/NNSupportFunctions/arm_nn_mat_mult_nt_t_s8.c ****                 val4 = SXTB16_RORn(val4, 8);
ARM GAS  /tmp/cc6Z6mIk.s 			page 10


 328:Middlewares/tensorflow/third_party/cmsis_nn/Source/NNSupportFunctions/arm_nn_mat_mult_nt_t_s8.c ****                 res01 = SMLAD(val3, val5, res01);
 329:Middlewares/tensorflow/third_party/cmsis_nn/Source/NNSupportFunctions/arm_nn_mat_mult_nt_t_s8.c ****                 res01 = SMLAD(val0, val4, res01);
 330:Middlewares/tensorflow/third_party/cmsis_nn/Source/NNSupportFunctions/arm_nn_mat_mult_nt_t_s8.c **** 
 331:Middlewares/tensorflow/third_party/cmsis_nn/Source/NNSupportFunctions/arm_nn_mat_mult_nt_t_s8.c ****                 // 4 x MAC res10, res11
 332:Middlewares/tensorflow/third_party/cmsis_nn/Source/NNSupportFunctions/arm_nn_mat_mult_nt_t_s8.c ****                 val0 = arm_nn_read_s8x4((const int8_t *)&lhs_ptr[lhs_off0]);
 333:Middlewares/tensorflow/third_party/cmsis_nn/Source/NNSupportFunctions/arm_nn_mat_mult_nt_t_s8.c ****                 val3 = SXTB16(val0);
 334:Middlewares/tensorflow/third_party/cmsis_nn/Source/NNSupportFunctions/arm_nn_mat_mult_nt_t_s8.c ****                 val0 = SXTB16_RORn(val0, 8);
 335:Middlewares/tensorflow/third_party/cmsis_nn/Source/NNSupportFunctions/arm_nn_mat_mult_nt_t_s8.c ****                 res10 = SMLAD(val3, val2, res10);
 336:Middlewares/tensorflow/third_party/cmsis_nn/Source/NNSupportFunctions/arm_nn_mat_mult_nt_t_s8.c ****                 res11 = SMLAD(val3, val5, res11);
 337:Middlewares/tensorflow/third_party/cmsis_nn/Source/NNSupportFunctions/arm_nn_mat_mult_nt_t_s8.c ****                 res10 = SMLAD(val0, val1, res10);
 338:Middlewares/tensorflow/third_party/cmsis_nn/Source/NNSupportFunctions/arm_nn_mat_mult_nt_t_s8.c ****                 val1 = arm_nn_read_s8x4_ia((const int8_t **)&rhs_ptr);
 339:Middlewares/tensorflow/third_party/cmsis_nn/Source/NNSupportFunctions/arm_nn_mat_mult_nt_t_s8.c ****                 res11 = SMLAD(val0, val4, res11);
 340:Middlewares/tensorflow/third_party/cmsis_nn/Source/NNSupportFunctions/arm_nn_mat_mult_nt_t_s8.c **** 
 341:Middlewares/tensorflow/third_party/cmsis_nn/Source/NNSupportFunctions/arm_nn_mat_mult_nt_t_s8.c ****                 val4 = arm_nn_read_s8x4((const int8_t *)&rhs_ptr[off0]);
 342:Middlewares/tensorflow/third_party/cmsis_nn/Source/NNSupportFunctions/arm_nn_mat_mult_nt_t_s8.c ****                 val2 = SXTB16(val1);
 343:Middlewares/tensorflow/third_party/cmsis_nn/Source/NNSupportFunctions/arm_nn_mat_mult_nt_t_s8.c ****                 val0 = arm_nn_read_s8x4_ia((const int8_t **)&lhs_ptr);
 344:Middlewares/tensorflow/third_party/cmsis_nn/Source/NNSupportFunctions/arm_nn_mat_mult_nt_t_s8.c ****                 val3 = SXTB16(val0);
 345:Middlewares/tensorflow/third_party/cmsis_nn/Source/NNSupportFunctions/arm_nn_mat_mult_nt_t_s8.c ****                 val1 = SXTB16_RORn(val1, 8);
 346:Middlewares/tensorflow/third_party/cmsis_nn/Source/NNSupportFunctions/arm_nn_mat_mult_nt_t_s8.c ****                 val0 = SXTB16_RORn(val0, 8);
 347:Middlewares/tensorflow/third_party/cmsis_nn/Source/NNSupportFunctions/arm_nn_mat_mult_nt_t_s8.c **** 
 348:Middlewares/tensorflow/third_party/cmsis_nn/Source/NNSupportFunctions/arm_nn_mat_mult_nt_t_s8.c ****                 // 4 x MAC res00, res01
 349:Middlewares/tensorflow/third_party/cmsis_nn/Source/NNSupportFunctions/arm_nn_mat_mult_nt_t_s8.c ****                 res00 = SMLAD(val3, val2, res00);
 350:Middlewares/tensorflow/third_party/cmsis_nn/Source/NNSupportFunctions/arm_nn_mat_mult_nt_t_s8.c ****                 val5 = SXTB16(val4);
 351:Middlewares/tensorflow/third_party/cmsis_nn/Source/NNSupportFunctions/arm_nn_mat_mult_nt_t_s8.c ****                 res00 = SMLAD(val0, val1, res00);
 352:Middlewares/tensorflow/third_party/cmsis_nn/Source/NNSupportFunctions/arm_nn_mat_mult_nt_t_s8.c ****                 val4 = SXTB16_RORn(val4, 8);
 353:Middlewares/tensorflow/third_party/cmsis_nn/Source/NNSupportFunctions/arm_nn_mat_mult_nt_t_s8.c ****                 res01 = SMLAD(val3, val5, res01);
 354:Middlewares/tensorflow/third_party/cmsis_nn/Source/NNSupportFunctions/arm_nn_mat_mult_nt_t_s8.c ****                 res01 = SMLAD(val0, val4, res01);
 355:Middlewares/tensorflow/third_party/cmsis_nn/Source/NNSupportFunctions/arm_nn_mat_mult_nt_t_s8.c **** 
 356:Middlewares/tensorflow/third_party/cmsis_nn/Source/NNSupportFunctions/arm_nn_mat_mult_nt_t_s8.c ****                 // 4 x MAC res10, res11
 357:Middlewares/tensorflow/third_party/cmsis_nn/Source/NNSupportFunctions/arm_nn_mat_mult_nt_t_s8.c ****                 val0 = arm_nn_read_s8x4((const int8_t *)&lhs_ptr[lhs_off0]);
 358:Middlewares/tensorflow/third_party/cmsis_nn/Source/NNSupportFunctions/arm_nn_mat_mult_nt_t_s8.c ****                 val3 = SXTB16(val0);
 359:Middlewares/tensorflow/third_party/cmsis_nn/Source/NNSupportFunctions/arm_nn_mat_mult_nt_t_s8.c ****                 val0 = SXTB16_RORn(val0, 8);
 360:Middlewares/tensorflow/third_party/cmsis_nn/Source/NNSupportFunctions/arm_nn_mat_mult_nt_t_s8.c ****                 res10 = SMLAD(val3, val2, res10);
 361:Middlewares/tensorflow/third_party/cmsis_nn/Source/NNSupportFunctions/arm_nn_mat_mult_nt_t_s8.c ****                 res11 = SMLAD(val3, val5, res11);
 362:Middlewares/tensorflow/third_party/cmsis_nn/Source/NNSupportFunctions/arm_nn_mat_mult_nt_t_s8.c ****                 res10 = SMLAD(val0, val1, res10);
 363:Middlewares/tensorflow/third_party/cmsis_nn/Source/NNSupportFunctions/arm_nn_mat_mult_nt_t_s8.c ****                 res11 = SMLAD(val0, val4, res11);
 364:Middlewares/tensorflow/third_party/cmsis_nn/Source/NNSupportFunctions/arm_nn_mat_mult_nt_t_s8.c ****             }
 365:Middlewares/tensorflow/third_party/cmsis_nn/Source/NNSupportFunctions/arm_nn_mat_mult_nt_t_s8.c **** 
 366:Middlewares/tensorflow/third_party/cmsis_nn/Source/NNSupportFunctions/arm_nn_mat_mult_nt_t_s8.c ****             for (; rhs_cols_idx <= (rhs_cols - 4); rhs_cols_idx += 4)
 367:Middlewares/tensorflow/third_party/cmsis_nn/Source/NNSupportFunctions/arm_nn_mat_mult_nt_t_s8.c ****             {
 368:Middlewares/tensorflow/third_party/cmsis_nn/Source/NNSupportFunctions/arm_nn_mat_mult_nt_t_s8.c ****                 val1 = arm_nn_read_s8x4_ia((const int8_t **)&rhs_ptr);
 182              		.loc 1 368 17 is_stmt 1 view .LVU51
 183              	.LBB538:
 184              	.LBI538:
 185              		.file 2 "Middlewares/tensorflow/third_party/cmsis_nn/Include/arm_nnsupportfunctions.h"
   1:Middlewares/tensorflow/third_party/cmsis_nn/Include/arm_nnsupportfunctions.h **** /*
   2:Middlewares/tensorflow/third_party/cmsis_nn/Include/arm_nnsupportfunctions.h ****  * SPDX-FileCopyrightText: Copyright 2010-2023 Arm Limited and/or its affiliates <open-source-offic
   3:Middlewares/tensorflow/third_party/cmsis_nn/Include/arm_nnsupportfunctions.h ****  *
   4:Middlewares/tensorflow/third_party/cmsis_nn/Include/arm_nnsupportfunctions.h ****  * SPDX-License-Identifier: Apache-2.0
   5:Middlewares/tensorflow/third_party/cmsis_nn/Include/arm_nnsupportfunctions.h ****  *
   6:Middlewares/tensorflow/third_party/cmsis_nn/Include/arm_nnsupportfunctions.h ****  * Licensed under the Apache License, Version 2.0 (the License); you may
   7:Middlewares/tensorflow/third_party/cmsis_nn/Include/arm_nnsupportfunctions.h ****  * not use this file except in compliance with the License.
   8:Middlewares/tensorflow/third_party/cmsis_nn/Include/arm_nnsupportfunctions.h ****  * You may obtain a copy of the License at
   9:Middlewares/tensorflow/third_party/cmsis_nn/Include/arm_nnsupportfunctions.h ****  *
  10:Middlewares/tensorflow/third_party/cmsis_nn/Include/arm_nnsupportfunctions.h ****  * www.apache.org/licenses/LICENSE-2.0
  11:Middlewares/tensorflow/third_party/cmsis_nn/Include/arm_nnsupportfunctions.h ****  *
  12:Middlewares/tensorflow/third_party/cmsis_nn/Include/arm_nnsupportfunctions.h ****  * Unless required by applicable law or agreed to in writing, software
ARM GAS  /tmp/cc6Z6mIk.s 			page 11


  13:Middlewares/tensorflow/third_party/cmsis_nn/Include/arm_nnsupportfunctions.h ****  * distributed under the License is distributed on an AS IS BASIS, WITHOUT
  14:Middlewares/tensorflow/third_party/cmsis_nn/Include/arm_nnsupportfunctions.h ****  * WARRANTIES OR CONDITIONS OF ANY KIND, either express or implied.
  15:Middlewares/tensorflow/third_party/cmsis_nn/Include/arm_nnsupportfunctions.h ****  * See the License for the specific language governing permissions and
  16:Middlewares/tensorflow/third_party/cmsis_nn/Include/arm_nnsupportfunctions.h ****  * limitations under the License.
  17:Middlewares/tensorflow/third_party/cmsis_nn/Include/arm_nnsupportfunctions.h ****  */
  18:Middlewares/tensorflow/third_party/cmsis_nn/Include/arm_nnsupportfunctions.h **** 
  19:Middlewares/tensorflow/third_party/cmsis_nn/Include/arm_nnsupportfunctions.h **** /* ----------------------------------------------------------------------
  20:Middlewares/tensorflow/third_party/cmsis_nn/Include/arm_nnsupportfunctions.h ****  * Project:      CMSIS NN Library
  21:Middlewares/tensorflow/third_party/cmsis_nn/Include/arm_nnsupportfunctions.h ****  * Title:        arm_nnsupportfunctions.h
  22:Middlewares/tensorflow/third_party/cmsis_nn/Include/arm_nnsupportfunctions.h ****  * Description:  Public header file of support functions for CMSIS NN Library
  23:Middlewares/tensorflow/third_party/cmsis_nn/Include/arm_nnsupportfunctions.h ****  *
  24:Middlewares/tensorflow/third_party/cmsis_nn/Include/arm_nnsupportfunctions.h ****  * $Date:        13 Februari 2023
  25:Middlewares/tensorflow/third_party/cmsis_nn/Include/arm_nnsupportfunctions.h ****  * $Revision:    V.15.0.0
  26:Middlewares/tensorflow/third_party/cmsis_nn/Include/arm_nnsupportfunctions.h ****  *
  27:Middlewares/tensorflow/third_party/cmsis_nn/Include/arm_nnsupportfunctions.h ****  * Target :  Arm(R) M-Profile Architecture
  28:Middlewares/tensorflow/third_party/cmsis_nn/Include/arm_nnsupportfunctions.h ****  * -------------------------------------------------------------------- */
  29:Middlewares/tensorflow/third_party/cmsis_nn/Include/arm_nnsupportfunctions.h **** 
  30:Middlewares/tensorflow/third_party/cmsis_nn/Include/arm_nnsupportfunctions.h **** #ifndef _ARM_NNSUPPORTFUNCTIONS_H_
  31:Middlewares/tensorflow/third_party/cmsis_nn/Include/arm_nnsupportfunctions.h **** #define _ARM_NNSUPPORTFUNCTIONS_H_
  32:Middlewares/tensorflow/third_party/cmsis_nn/Include/arm_nnsupportfunctions.h **** 
  33:Middlewares/tensorflow/third_party/cmsis_nn/Include/arm_nnsupportfunctions.h **** #include "Internal/arm_nn_compiler.h"
  34:Middlewares/tensorflow/third_party/cmsis_nn/Include/arm_nnsupportfunctions.h **** #include "arm_nn_math_types.h"
  35:Middlewares/tensorflow/third_party/cmsis_nn/Include/arm_nnsupportfunctions.h **** #include "arm_nn_types.h"
  36:Middlewares/tensorflow/third_party/cmsis_nn/Include/arm_nnsupportfunctions.h **** 
  37:Middlewares/tensorflow/third_party/cmsis_nn/Include/arm_nnsupportfunctions.h **** #include <stdbool.h>
  38:Middlewares/tensorflow/third_party/cmsis_nn/Include/arm_nnsupportfunctions.h **** 
  39:Middlewares/tensorflow/third_party/cmsis_nn/Include/arm_nnsupportfunctions.h **** #ifdef __cplusplus
  40:Middlewares/tensorflow/third_party/cmsis_nn/Include/arm_nnsupportfunctions.h **** extern "C" {
  41:Middlewares/tensorflow/third_party/cmsis_nn/Include/arm_nnsupportfunctions.h **** #endif
  42:Middlewares/tensorflow/third_party/cmsis_nn/Include/arm_nnsupportfunctions.h **** 
  43:Middlewares/tensorflow/third_party/cmsis_nn/Include/arm_nnsupportfunctions.h **** #define USE_FAST_DW_CONV_S16_FUNCTION(dw_conv_params, filter_dims, input_dims)                     
  44:Middlewares/tensorflow/third_party/cmsis_nn/Include/arm_nnsupportfunctions.h ****     (dw_conv_params->ch_mult == 1 && dw_conv_params->dilation.w == 1 && dw_conv_params->dilation.h 
  45:Middlewares/tensorflow/third_party/cmsis_nn/Include/arm_nnsupportfunctions.h ****      filter_dims->w * filter_dims->h < 512)
  46:Middlewares/tensorflow/third_party/cmsis_nn/Include/arm_nnsupportfunctions.h **** 
  47:Middlewares/tensorflow/third_party/cmsis_nn/Include/arm_nnsupportfunctions.h **** #define LEFT_SHIFT(_shift) (_shift > 0 ? _shift : 0)
  48:Middlewares/tensorflow/third_party/cmsis_nn/Include/arm_nnsupportfunctions.h **** #define RIGHT_SHIFT(_shift) (_shift > 0 ? 0 : -_shift)
  49:Middlewares/tensorflow/third_party/cmsis_nn/Include/arm_nnsupportfunctions.h **** #define MASK_IF_ZERO(x) (x) == 0 ? ~0 : 0
  50:Middlewares/tensorflow/third_party/cmsis_nn/Include/arm_nnsupportfunctions.h **** #define MASK_IF_NON_ZERO(x) (x) != 0 ? ~0 : 0
  51:Middlewares/tensorflow/third_party/cmsis_nn/Include/arm_nnsupportfunctions.h **** #define SELECT_USING_MASK(mask, a, b) ((mask) & (a)) ^ (~(mask) & (b))
  52:Middlewares/tensorflow/third_party/cmsis_nn/Include/arm_nnsupportfunctions.h **** 
  53:Middlewares/tensorflow/third_party/cmsis_nn/Include/arm_nnsupportfunctions.h **** #define MAX(A, B) ((A) > (B) ? (A) : (B))
  54:Middlewares/tensorflow/third_party/cmsis_nn/Include/arm_nnsupportfunctions.h **** #define MIN(A, B) ((A) < (B) ? (A) : (B))
  55:Middlewares/tensorflow/third_party/cmsis_nn/Include/arm_nnsupportfunctions.h **** #define CLAMP(x, h, l) MAX(MIN((x), (h)), (l))
  56:Middlewares/tensorflow/third_party/cmsis_nn/Include/arm_nnsupportfunctions.h **** #define REDUCE_MULTIPLIER(_mult) ((_mult < 0x7FFF0000) ? ((_mult + (1 << 15)) >> 16) : 0x7FFF)
  57:Middlewares/tensorflow/third_party/cmsis_nn/Include/arm_nnsupportfunctions.h **** 
  58:Middlewares/tensorflow/third_party/cmsis_nn/Include/arm_nnsupportfunctions.h **** // Number of channels processed in a block for DW Conv(MVE)
  59:Middlewares/tensorflow/third_party/cmsis_nn/Include/arm_nnsupportfunctions.h **** // Requirement: Greater than 0 & less than 128
  60:Middlewares/tensorflow/third_party/cmsis_nn/Include/arm_nnsupportfunctions.h **** // This can be fine tuned to match number of input channels for best performance.
  61:Middlewares/tensorflow/third_party/cmsis_nn/Include/arm_nnsupportfunctions.h **** // A layer with lower number of channels than CH_IN_BLOCK_MVE will result in higher
  62:Middlewares/tensorflow/third_party/cmsis_nn/Include/arm_nnsupportfunctions.h **** // scratch buffer usage and a layer with higher number of channels than CH_IN_BLOCK_MVE
  63:Middlewares/tensorflow/third_party/cmsis_nn/Include/arm_nnsupportfunctions.h **** // will result in lower scratch buffer usage.
  64:Middlewares/tensorflow/third_party/cmsis_nn/Include/arm_nnsupportfunctions.h **** #define CH_IN_BLOCK_MVE (124)
  65:Middlewares/tensorflow/third_party/cmsis_nn/Include/arm_nnsupportfunctions.h **** 
  66:Middlewares/tensorflow/third_party/cmsis_nn/Include/arm_nnsupportfunctions.h **** /**
  67:Middlewares/tensorflow/third_party/cmsis_nn/Include/arm_nnsupportfunctions.h ****  * @brief definition to pack four 8 bit values.
  68:Middlewares/tensorflow/third_party/cmsis_nn/Include/arm_nnsupportfunctions.h ****  */
  69:Middlewares/tensorflow/third_party/cmsis_nn/Include/arm_nnsupportfunctions.h **** #define PACK_S8x4_32x1(v0, v1, v2, v3)                                                             
ARM GAS  /tmp/cc6Z6mIk.s 			page 12


  70:Middlewares/tensorflow/third_party/cmsis_nn/Include/arm_nnsupportfunctions.h ****     ((((int32_t)(v0) << 0) & (int32_t)0x000000FF) | (((int32_t)(v1) << 8) & (int32_t)0x0000FF00) | 
  71:Middlewares/tensorflow/third_party/cmsis_nn/Include/arm_nnsupportfunctions.h ****      (((int32_t)(v2) << 16) & (int32_t)0x00FF0000) | (((int32_t)(v3) << 24) & (int32_t)0xFF000000))
  72:Middlewares/tensorflow/third_party/cmsis_nn/Include/arm_nnsupportfunctions.h **** 
  73:Middlewares/tensorflow/third_party/cmsis_nn/Include/arm_nnsupportfunctions.h **** /**
  74:Middlewares/tensorflow/third_party/cmsis_nn/Include/arm_nnsupportfunctions.h ****  * @brief definition to pack two 16 bit values.
  75:Middlewares/tensorflow/third_party/cmsis_nn/Include/arm_nnsupportfunctions.h ****  */
  76:Middlewares/tensorflow/third_party/cmsis_nn/Include/arm_nnsupportfunctions.h **** #define PACK_Q15x2_32x1(v0, v1) (((int32_t)v0 & (int32_t)0xFFFF) | ((int32_t)v1 << 16))
  77:Middlewares/tensorflow/third_party/cmsis_nn/Include/arm_nnsupportfunctions.h **** 
  78:Middlewares/tensorflow/third_party/cmsis_nn/Include/arm_nnsupportfunctions.h **** /**
  79:Middlewares/tensorflow/third_party/cmsis_nn/Include/arm_nnsupportfunctions.h ****  * @brief Union for SIMD access of q31/s16/s8 types
  80:Middlewares/tensorflow/third_party/cmsis_nn/Include/arm_nnsupportfunctions.h ****  */
  81:Middlewares/tensorflow/third_party/cmsis_nn/Include/arm_nnsupportfunctions.h **** union arm_nnword
  82:Middlewares/tensorflow/third_party/cmsis_nn/Include/arm_nnsupportfunctions.h **** {
  83:Middlewares/tensorflow/third_party/cmsis_nn/Include/arm_nnsupportfunctions.h ****     int32_t word;
  84:Middlewares/tensorflow/third_party/cmsis_nn/Include/arm_nnsupportfunctions.h ****     /**< q31 type */
  85:Middlewares/tensorflow/third_party/cmsis_nn/Include/arm_nnsupportfunctions.h ****     int16_t half_words[2];
  86:Middlewares/tensorflow/third_party/cmsis_nn/Include/arm_nnsupportfunctions.h ****     /**< s16 type */
  87:Middlewares/tensorflow/third_party/cmsis_nn/Include/arm_nnsupportfunctions.h ****     int8_t bytes[4];
  88:Middlewares/tensorflow/third_party/cmsis_nn/Include/arm_nnsupportfunctions.h ****     /**< s8 type */
  89:Middlewares/tensorflow/third_party/cmsis_nn/Include/arm_nnsupportfunctions.h **** };
  90:Middlewares/tensorflow/third_party/cmsis_nn/Include/arm_nnsupportfunctions.h **** 
  91:Middlewares/tensorflow/third_party/cmsis_nn/Include/arm_nnsupportfunctions.h **** /**
  92:Middlewares/tensorflow/third_party/cmsis_nn/Include/arm_nnsupportfunctions.h ****  * @brief Union for data type long long
  93:Middlewares/tensorflow/third_party/cmsis_nn/Include/arm_nnsupportfunctions.h ****  */
  94:Middlewares/tensorflow/third_party/cmsis_nn/Include/arm_nnsupportfunctions.h **** struct arm_nn_double
  95:Middlewares/tensorflow/third_party/cmsis_nn/Include/arm_nnsupportfunctions.h **** {
  96:Middlewares/tensorflow/third_party/cmsis_nn/Include/arm_nnsupportfunctions.h ****     uint32_t low;
  97:Middlewares/tensorflow/third_party/cmsis_nn/Include/arm_nnsupportfunctions.h ****     int32_t high;
  98:Middlewares/tensorflow/third_party/cmsis_nn/Include/arm_nnsupportfunctions.h **** };
  99:Middlewares/tensorflow/third_party/cmsis_nn/Include/arm_nnsupportfunctions.h **** 
 100:Middlewares/tensorflow/third_party/cmsis_nn/Include/arm_nnsupportfunctions.h **** union arm_nn_long_long
 101:Middlewares/tensorflow/third_party/cmsis_nn/Include/arm_nnsupportfunctions.h **** {
 102:Middlewares/tensorflow/third_party/cmsis_nn/Include/arm_nnsupportfunctions.h ****     int64_t long_long;
 103:Middlewares/tensorflow/third_party/cmsis_nn/Include/arm_nnsupportfunctions.h ****     struct arm_nn_double word;
 104:Middlewares/tensorflow/third_party/cmsis_nn/Include/arm_nnsupportfunctions.h **** };
 105:Middlewares/tensorflow/third_party/cmsis_nn/Include/arm_nnsupportfunctions.h **** 
 106:Middlewares/tensorflow/third_party/cmsis_nn/Include/arm_nnsupportfunctions.h **** /**
 107:Middlewares/tensorflow/third_party/cmsis_nn/Include/arm_nnsupportfunctions.h ****  * @defgroup groupSupport Private
 108:Middlewares/tensorflow/third_party/cmsis_nn/Include/arm_nnsupportfunctions.h ****  *
 109:Middlewares/tensorflow/third_party/cmsis_nn/Include/arm_nnsupportfunctions.h ****  * Internal Support functions. Not intended to be called direclty by a CMSIS-NN user.
 110:Middlewares/tensorflow/third_party/cmsis_nn/Include/arm_nnsupportfunctions.h ****  *
 111:Middlewares/tensorflow/third_party/cmsis_nn/Include/arm_nnsupportfunctions.h ****  */
 112:Middlewares/tensorflow/third_party/cmsis_nn/Include/arm_nnsupportfunctions.h **** 
 113:Middlewares/tensorflow/third_party/cmsis_nn/Include/arm_nnsupportfunctions.h **** /**
 114:Middlewares/tensorflow/third_party/cmsis_nn/Include/arm_nnsupportfunctions.h ****  * @defgroup supportConversion Data Conversion
 115:Middlewares/tensorflow/third_party/cmsis_nn/Include/arm_nnsupportfunctions.h ****  *
 116:Middlewares/tensorflow/third_party/cmsis_nn/Include/arm_nnsupportfunctions.h ****  * Perform data type conversion in-between neural network operations
 117:Middlewares/tensorflow/third_party/cmsis_nn/Include/arm_nnsupportfunctions.h ****  *
 118:Middlewares/tensorflow/third_party/cmsis_nn/Include/arm_nnsupportfunctions.h ****  */
 119:Middlewares/tensorflow/third_party/cmsis_nn/Include/arm_nnsupportfunctions.h **** 
 120:Middlewares/tensorflow/third_party/cmsis_nn/Include/arm_nnsupportfunctions.h **** /**
 121:Middlewares/tensorflow/third_party/cmsis_nn/Include/arm_nnsupportfunctions.h ****  * @brief Converts the elements from a s8 vector to a s16 vector with an added offset
 122:Middlewares/tensorflow/third_party/cmsis_nn/Include/arm_nnsupportfunctions.h ****  * @param[in]    src        pointer to the s8 input vector
 123:Middlewares/tensorflow/third_party/cmsis_nn/Include/arm_nnsupportfunctions.h ****  * @param[out]   dst        pointer to the s16 output vector
 124:Middlewares/tensorflow/third_party/cmsis_nn/Include/arm_nnsupportfunctions.h ****  * @param[in]    block_size length of the input vector
 125:Middlewares/tensorflow/third_party/cmsis_nn/Include/arm_nnsupportfunctions.h ****  * @param[in]    offset     s8 offset to be added to each input vector element.
 126:Middlewares/tensorflow/third_party/cmsis_nn/Include/arm_nnsupportfunctions.h ****  *
ARM GAS  /tmp/cc6Z6mIk.s 			page 13


 127:Middlewares/tensorflow/third_party/cmsis_nn/Include/arm_nnsupportfunctions.h ****  * \par Description:
 128:Middlewares/tensorflow/third_party/cmsis_nn/Include/arm_nnsupportfunctions.h ****  *
 129:Middlewares/tensorflow/third_party/cmsis_nn/Include/arm_nnsupportfunctions.h ****  * The equation used for the conversion process is:
 130:Middlewares/tensorflow/third_party/cmsis_nn/Include/arm_nnsupportfunctions.h ****  *
 131:Middlewares/tensorflow/third_party/cmsis_nn/Include/arm_nnsupportfunctions.h ****  * <pre>
 132:Middlewares/tensorflow/third_party/cmsis_nn/Include/arm_nnsupportfunctions.h ****  *  dst[n] = (int16_t) src[n] + offset;   0 <= n < block_size.
 133:Middlewares/tensorflow/third_party/cmsis_nn/Include/arm_nnsupportfunctions.h ****  * </pre>
 134:Middlewares/tensorflow/third_party/cmsis_nn/Include/arm_nnsupportfunctions.h ****  *
 135:Middlewares/tensorflow/third_party/cmsis_nn/Include/arm_nnsupportfunctions.h ****  */
 136:Middlewares/tensorflow/third_party/cmsis_nn/Include/arm_nnsupportfunctions.h **** void arm_q7_to_q15_with_offset(const int8_t *src, int16_t *dst, uint32_t block_size, int16_t offset
 137:Middlewares/tensorflow/third_party/cmsis_nn/Include/arm_nnsupportfunctions.h **** 
 138:Middlewares/tensorflow/third_party/cmsis_nn/Include/arm_nnsupportfunctions.h **** /**
 139:Middlewares/tensorflow/third_party/cmsis_nn/Include/arm_nnsupportfunctions.h ****  * @brief Depthwise conv on an im2col buffer where the input channel equals output channel.
 140:Middlewares/tensorflow/third_party/cmsis_nn/Include/arm_nnsupportfunctions.h ****  * @param[in]    row     pointer to row
 141:Middlewares/tensorflow/third_party/cmsis_nn/Include/arm_nnsupportfunctions.h ****  * @param[in]    col     pointer to im2col buffer, always consists of 2 columns.
 142:Middlewares/tensorflow/third_party/cmsis_nn/Include/arm_nnsupportfunctions.h ****  * @param[in]    num_ch   number of channels
 143:Middlewares/tensorflow/third_party/cmsis_nn/Include/arm_nnsupportfunctions.h ****  * @param[in]    out_shift  pointer to per output channel requantization shift parameter.
 144:Middlewares/tensorflow/third_party/cmsis_nn/Include/arm_nnsupportfunctions.h ****  * @param[in]    out_mult   pointer to per output channel requantization multiplier parameter.
 145:Middlewares/tensorflow/third_party/cmsis_nn/Include/arm_nnsupportfunctions.h ****  * @param[in]    out_offset      output tensor offset.
 146:Middlewares/tensorflow/third_party/cmsis_nn/Include/arm_nnsupportfunctions.h ****  * @param[in]    activation_min   minimum value to clamp the output to. Range : int8
 147:Middlewares/tensorflow/third_party/cmsis_nn/Include/arm_nnsupportfunctions.h ****  * @param[in]    activation_max   maximum value to clamp the output to. Range : int8
 148:Middlewares/tensorflow/third_party/cmsis_nn/Include/arm_nnsupportfunctions.h ****  * @param[in]    kernel_size   number of elements in one column.
 149:Middlewares/tensorflow/third_party/cmsis_nn/Include/arm_nnsupportfunctions.h ****  * @param[in]    output_bias per output channel bias. Range : int32
 150:Middlewares/tensorflow/third_party/cmsis_nn/Include/arm_nnsupportfunctions.h ****  * @param[out]   out         pointer to output
 151:Middlewares/tensorflow/third_party/cmsis_nn/Include/arm_nnsupportfunctions.h ****  * @return     The function returns one of the two
 152:Middlewares/tensorflow/third_party/cmsis_nn/Include/arm_nnsupportfunctions.h ****  *              1. The incremented output pointer for a successful operation or
 153:Middlewares/tensorflow/third_party/cmsis_nn/Include/arm_nnsupportfunctions.h ****  *              2. NULL if implementation is not available.
 154:Middlewares/tensorflow/third_party/cmsis_nn/Include/arm_nnsupportfunctions.h ****  *
 155:Middlewares/tensorflow/third_party/cmsis_nn/Include/arm_nnsupportfunctions.h ****  * @details     Supported framework: TensorFlow Lite micro.
 156:Middlewares/tensorflow/third_party/cmsis_nn/Include/arm_nnsupportfunctions.h ****  */
 157:Middlewares/tensorflow/third_party/cmsis_nn/Include/arm_nnsupportfunctions.h **** int8_t *arm_nn_depthwise_conv_s8_core(const int8_t *row,
 158:Middlewares/tensorflow/third_party/cmsis_nn/Include/arm_nnsupportfunctions.h ****                                       const int16_t *col,
 159:Middlewares/tensorflow/third_party/cmsis_nn/Include/arm_nnsupportfunctions.h ****                                       const uint16_t num_ch,
 160:Middlewares/tensorflow/third_party/cmsis_nn/Include/arm_nnsupportfunctions.h ****                                       const int32_t *out_shift,
 161:Middlewares/tensorflow/third_party/cmsis_nn/Include/arm_nnsupportfunctions.h ****                                       const int32_t *out_mult,
 162:Middlewares/tensorflow/third_party/cmsis_nn/Include/arm_nnsupportfunctions.h ****                                       const int32_t out_offset,
 163:Middlewares/tensorflow/third_party/cmsis_nn/Include/arm_nnsupportfunctions.h ****                                       const int32_t activation_min,
 164:Middlewares/tensorflow/third_party/cmsis_nn/Include/arm_nnsupportfunctions.h ****                                       const int32_t activation_max,
 165:Middlewares/tensorflow/third_party/cmsis_nn/Include/arm_nnsupportfunctions.h ****                                       const uint16_t kernel_size,
 166:Middlewares/tensorflow/third_party/cmsis_nn/Include/arm_nnsupportfunctions.h ****                                       const int32_t *const output_bias,
 167:Middlewares/tensorflow/third_party/cmsis_nn/Include/arm_nnsupportfunctions.h ****                                       int8_t *out);
 168:Middlewares/tensorflow/third_party/cmsis_nn/Include/arm_nnsupportfunctions.h **** 
 169:Middlewares/tensorflow/third_party/cmsis_nn/Include/arm_nnsupportfunctions.h **** /**
 170:Middlewares/tensorflow/third_party/cmsis_nn/Include/arm_nnsupportfunctions.h ****  * @brief General Matrix-multiplication function with per-channel requantization.
 171:Middlewares/tensorflow/third_party/cmsis_nn/Include/arm_nnsupportfunctions.h ****  * @param[in]       input_row    pointer to row operand
 172:Middlewares/tensorflow/third_party/cmsis_nn/Include/arm_nnsupportfunctions.h ****  * @param[in]       input_col    pointer to col operand
 173:Middlewares/tensorflow/third_party/cmsis_nn/Include/arm_nnsupportfunctions.h ****  * @param[in]       output_ch    number of rows of input_row
 174:Middlewares/tensorflow/third_party/cmsis_nn/Include/arm_nnsupportfunctions.h ****  * @param[in]       col_batches  number of column batches. Range: 1 to 4
 175:Middlewares/tensorflow/third_party/cmsis_nn/Include/arm_nnsupportfunctions.h ****  * @param[in]       output_shift  pointer to per output channel requantization shift parameter.
 176:Middlewares/tensorflow/third_party/cmsis_nn/Include/arm_nnsupportfunctions.h ****  * @param[in]       output_mult   pointer to per output channel requantization multiplier parameter
 177:Middlewares/tensorflow/third_party/cmsis_nn/Include/arm_nnsupportfunctions.h ****  * @param[in]       out_offset    output tensor offset.
 178:Middlewares/tensorflow/third_party/cmsis_nn/Include/arm_nnsupportfunctions.h ****  * @param[in]       col_offset    input tensor(col) offset.
 179:Middlewares/tensorflow/third_party/cmsis_nn/Include/arm_nnsupportfunctions.h ****  * @param[in]       row_offset    kernel offset(row). Not used.
 180:Middlewares/tensorflow/third_party/cmsis_nn/Include/arm_nnsupportfunctions.h ****  * @param[in]       out_activation_min   minimum value to clamp the output to. Range : int8
 181:Middlewares/tensorflow/third_party/cmsis_nn/Include/arm_nnsupportfunctions.h ****  * @param[in]       out_activation_max   maximum value to clamp the output to. Range : int8
 182:Middlewares/tensorflow/third_party/cmsis_nn/Include/arm_nnsupportfunctions.h ****  * @param[in]       row_len       number of elements in each row
 183:Middlewares/tensorflow/third_party/cmsis_nn/Include/arm_nnsupportfunctions.h ****  * @param[in]       bias          per output channel bias. Range : int32
ARM GAS  /tmp/cc6Z6mIk.s 			page 14


 184:Middlewares/tensorflow/third_party/cmsis_nn/Include/arm_nnsupportfunctions.h ****  * @param[in,out]   out           pointer to output
 185:Middlewares/tensorflow/third_party/cmsis_nn/Include/arm_nnsupportfunctions.h ****  * @return     The function returns one of the two
 186:Middlewares/tensorflow/third_party/cmsis_nn/Include/arm_nnsupportfunctions.h ****  *              1. The incremented output pointer for a successful operation or
 187:Middlewares/tensorflow/third_party/cmsis_nn/Include/arm_nnsupportfunctions.h ****  *              2. NULL if implementation is not available.
 188:Middlewares/tensorflow/third_party/cmsis_nn/Include/arm_nnsupportfunctions.h ****  *
 189:Middlewares/tensorflow/third_party/cmsis_nn/Include/arm_nnsupportfunctions.h ****  * @details   Supported framework: TensorFlow Lite
 190:Middlewares/tensorflow/third_party/cmsis_nn/Include/arm_nnsupportfunctions.h ****  */
 191:Middlewares/tensorflow/third_party/cmsis_nn/Include/arm_nnsupportfunctions.h **** int8_t *arm_nn_mat_mult_s8(const int8_t *input_row,
 192:Middlewares/tensorflow/third_party/cmsis_nn/Include/arm_nnsupportfunctions.h ****                            const int8_t *input_col,
 193:Middlewares/tensorflow/third_party/cmsis_nn/Include/arm_nnsupportfunctions.h ****                            const uint16_t output_ch,
 194:Middlewares/tensorflow/third_party/cmsis_nn/Include/arm_nnsupportfunctions.h ****                            const uint16_t col_batches,
 195:Middlewares/tensorflow/third_party/cmsis_nn/Include/arm_nnsupportfunctions.h ****                            const int32_t *output_shift,
 196:Middlewares/tensorflow/third_party/cmsis_nn/Include/arm_nnsupportfunctions.h ****                            const int32_t *output_mult,
 197:Middlewares/tensorflow/third_party/cmsis_nn/Include/arm_nnsupportfunctions.h ****                            const int32_t out_offset,
 198:Middlewares/tensorflow/third_party/cmsis_nn/Include/arm_nnsupportfunctions.h ****                            const int32_t col_offset,
 199:Middlewares/tensorflow/third_party/cmsis_nn/Include/arm_nnsupportfunctions.h ****                            const int32_t row_offset,
 200:Middlewares/tensorflow/third_party/cmsis_nn/Include/arm_nnsupportfunctions.h ****                            const int16_t out_activation_min,
 201:Middlewares/tensorflow/third_party/cmsis_nn/Include/arm_nnsupportfunctions.h ****                            const int16_t out_activation_max,
 202:Middlewares/tensorflow/third_party/cmsis_nn/Include/arm_nnsupportfunctions.h ****                            const uint16_t row_len,
 203:Middlewares/tensorflow/third_party/cmsis_nn/Include/arm_nnsupportfunctions.h ****                            const int32_t *const bias,
 204:Middlewares/tensorflow/third_party/cmsis_nn/Include/arm_nnsupportfunctions.h ****                            int8_t *out);
 205:Middlewares/tensorflow/third_party/cmsis_nn/Include/arm_nnsupportfunctions.h **** /**
 206:Middlewares/tensorflow/third_party/cmsis_nn/Include/arm_nnsupportfunctions.h ****  * @brief Matrix-multiplication function for convolution with per-channel requantization for 16 bit
 207:Middlewares/tensorflow/third_party/cmsis_nn/Include/arm_nnsupportfunctions.h ****  * @param[in]       input_a     pointer to operand A
 208:Middlewares/tensorflow/third_party/cmsis_nn/Include/arm_nnsupportfunctions.h ****  * @param[in]       input_b     pointer to operand B, always consists of 2 vectors.
 209:Middlewares/tensorflow/third_party/cmsis_nn/Include/arm_nnsupportfunctions.h ****  * @param[in]       output_ch   number of rows of A
 210:Middlewares/tensorflow/third_party/cmsis_nn/Include/arm_nnsupportfunctions.h ****  * @param[in]       out_shift  pointer to per output channel requantization shift parameter.
 211:Middlewares/tensorflow/third_party/cmsis_nn/Include/arm_nnsupportfunctions.h ****  * @param[in]       out_mult   pointer to per output channel requantization multiplier parameter.
 212:Middlewares/tensorflow/third_party/cmsis_nn/Include/arm_nnsupportfunctions.h ****  * @param[in]       activation_min   minimum value to clamp the output to. Range : int16
 213:Middlewares/tensorflow/third_party/cmsis_nn/Include/arm_nnsupportfunctions.h ****  * @param[in]       activation_max   maximum value to clamp the output to. Range : int16
 214:Middlewares/tensorflow/third_party/cmsis_nn/Include/arm_nnsupportfunctions.h ****  * @param[in]       num_col_a   number of columns of A
 215:Middlewares/tensorflow/third_party/cmsis_nn/Include/arm_nnsupportfunctions.h ****  * @param[in]       output_bias per output channel bias. Range : int64
 216:Middlewares/tensorflow/third_party/cmsis_nn/Include/arm_nnsupportfunctions.h ****  * @param[in,out]   out_0       pointer to output
 217:Middlewares/tensorflow/third_party/cmsis_nn/Include/arm_nnsupportfunctions.h ****  * @return     The function returns one of the two
 218:Middlewares/tensorflow/third_party/cmsis_nn/Include/arm_nnsupportfunctions.h ****  *              1. The incremented output pointer for a successful operation or
 219:Middlewares/tensorflow/third_party/cmsis_nn/Include/arm_nnsupportfunctions.h ****  *              2. NULL if implementation is not available.
 220:Middlewares/tensorflow/third_party/cmsis_nn/Include/arm_nnsupportfunctions.h ****  *
 221:Middlewares/tensorflow/third_party/cmsis_nn/Include/arm_nnsupportfunctions.h ****  * @details   This function does the matrix multiplication of weight matrix for all output channels
 222:Middlewares/tensorflow/third_party/cmsis_nn/Include/arm_nnsupportfunctions.h ****  *            with 2 columns from im2col and produces two elements/output_channel. The outputs are
 223:Middlewares/tensorflow/third_party/cmsis_nn/Include/arm_nnsupportfunctions.h ****  *            clamped in the range provided by activation min and max.
 224:Middlewares/tensorflow/third_party/cmsis_nn/Include/arm_nnsupportfunctions.h ****  *            Supported framework: TensorFlow Lite micro.
 225:Middlewares/tensorflow/third_party/cmsis_nn/Include/arm_nnsupportfunctions.h ****  */
 226:Middlewares/tensorflow/third_party/cmsis_nn/Include/arm_nnsupportfunctions.h **** int16_t *arm_nn_mat_mult_kernel_s16(const int8_t *input_a,
 227:Middlewares/tensorflow/third_party/cmsis_nn/Include/arm_nnsupportfunctions.h ****                                     const int16_t *input_b,
 228:Middlewares/tensorflow/third_party/cmsis_nn/Include/arm_nnsupportfunctions.h ****                                     const int32_t output_ch,
 229:Middlewares/tensorflow/third_party/cmsis_nn/Include/arm_nnsupportfunctions.h ****                                     const int32_t *out_shift,
 230:Middlewares/tensorflow/third_party/cmsis_nn/Include/arm_nnsupportfunctions.h ****                                     const int32_t *out_mult,
 231:Middlewares/tensorflow/third_party/cmsis_nn/Include/arm_nnsupportfunctions.h ****                                     const int16_t activation_min,
 232:Middlewares/tensorflow/third_party/cmsis_nn/Include/arm_nnsupportfunctions.h ****                                     const int16_t activation_max,
 233:Middlewares/tensorflow/third_party/cmsis_nn/Include/arm_nnsupportfunctions.h ****                                     const int32_t num_col_a,
 234:Middlewares/tensorflow/third_party/cmsis_nn/Include/arm_nnsupportfunctions.h ****                                     const int64_t *const output_bias,
 235:Middlewares/tensorflow/third_party/cmsis_nn/Include/arm_nnsupportfunctions.h ****                                     int16_t *out_0);
 236:Middlewares/tensorflow/third_party/cmsis_nn/Include/arm_nnsupportfunctions.h **** 
 237:Middlewares/tensorflow/third_party/cmsis_nn/Include/arm_nnsupportfunctions.h **** /**
 238:Middlewares/tensorflow/third_party/cmsis_nn/Include/arm_nnsupportfunctions.h ****  * @brief General Vector by Matrix multiplication with requantization and storage of result.
 239:Middlewares/tensorflow/third_party/cmsis_nn/Include/arm_nnsupportfunctions.h ****  * @param[in]       row_elements          number of row elements
 240:Middlewares/tensorflow/third_party/cmsis_nn/Include/arm_nnsupportfunctions.h ****  * @param[in]       skipped_row_elements  number of row elements skipped due to padding.
ARM GAS  /tmp/cc6Z6mIk.s 			page 15


 241:Middlewares/tensorflow/third_party/cmsis_nn/Include/arm_nnsupportfunctions.h ****  *                                        row_elements + skipped_row_elements = (kernel_x * kernel_
 242:Middlewares/tensorflow/third_party/cmsis_nn/Include/arm_nnsupportfunctions.h ****  * @param[in]       row_base_ref          pointer to row operand
 243:Middlewares/tensorflow/third_party/cmsis_nn/Include/arm_nnsupportfunctions.h ****  * @param[in]       col_base_ref          pointer to col operand
 244:Middlewares/tensorflow/third_party/cmsis_nn/Include/arm_nnsupportfunctions.h ****  * @param[out]      out_ch                Number of output channels
 245:Middlewares/tensorflow/third_party/cmsis_nn/Include/arm_nnsupportfunctions.h ****  * @param[in]       conv_params           Pointer to convolution parameters like offsets and activa
 246:Middlewares/tensorflow/third_party/cmsis_nn/Include/arm_nnsupportfunctions.h ****  * @param[in]       quant_params          Pointer to per-channel quantization parameters
 247:Middlewares/tensorflow/third_party/cmsis_nn/Include/arm_nnsupportfunctions.h ****  * @param[in]       bias                  Pointer to optional per-channel bias
 248:Middlewares/tensorflow/third_party/cmsis_nn/Include/arm_nnsupportfunctions.h ****  * @param[out]      output                Pointer to output where int8 results are stored.
 249:Middlewares/tensorflow/third_party/cmsis_nn/Include/arm_nnsupportfunctions.h ****  * @return     The function performs matrix(row_base_ref) multiplication with vector(col_base_ref) 
 250:Middlewares/tensorflow/third_party/cmsis_nn/Include/arm_nnsupportfunctions.h ****  *             scaled result is stored in memory.
 251:Middlewares/tensorflow/third_party/cmsis_nn/Include/arm_nnsupportfunctions.h ****  *
 252:Middlewares/tensorflow/third_party/cmsis_nn/Include/arm_nnsupportfunctions.h ****  * @details Pseudo-code
 253:Middlewares/tensorflow/third_party/cmsis_nn/Include/arm_nnsupportfunctions.h ****  *      *output = 0
 254:Middlewares/tensorflow/third_party/cmsis_nn/Include/arm_nnsupportfunctions.h ****  *      sum_col = 0
 255:Middlewares/tensorflow/third_party/cmsis_nn/Include/arm_nnsupportfunctions.h ****  *      for (j = 0; j < out_ch; j++)
 256:Middlewares/tensorflow/third_party/cmsis_nn/Include/arm_nnsupportfunctions.h ****  *      for (i = 0; i < row_elements; i++)
 257:Middlewares/tensorflow/third_party/cmsis_nn/Include/arm_nnsupportfunctions.h ****  *          *output += row_base_ref[i] * col_base_ref[i]
 258:Middlewares/tensorflow/third_party/cmsis_nn/Include/arm_nnsupportfunctions.h ****  *          sum_col += col_base_ref[i]
 259:Middlewares/tensorflow/third_party/cmsis_nn/Include/arm_nnsupportfunctions.h ****  *      scale sum_col using quant_params and bias
 260:Middlewares/tensorflow/third_party/cmsis_nn/Include/arm_nnsupportfunctions.h ****  *      store result in 'output'
 261:Middlewares/tensorflow/third_party/cmsis_nn/Include/arm_nnsupportfunctions.h ****  *
 262:Middlewares/tensorflow/third_party/cmsis_nn/Include/arm_nnsupportfunctions.h ****  *
 263:Middlewares/tensorflow/third_party/cmsis_nn/Include/arm_nnsupportfunctions.h ****  */
 264:Middlewares/tensorflow/third_party/cmsis_nn/Include/arm_nnsupportfunctions.h **** arm_cmsis_nn_status arm_nn_mat_mul_core_1x_s8(int32_t row_elements,
 265:Middlewares/tensorflow/third_party/cmsis_nn/Include/arm_nnsupportfunctions.h ****                                               const int32_t skipped_row_elements,
 266:Middlewares/tensorflow/third_party/cmsis_nn/Include/arm_nnsupportfunctions.h ****                                               const int8_t *row_base_ref,
 267:Middlewares/tensorflow/third_party/cmsis_nn/Include/arm_nnsupportfunctions.h ****                                               const int8_t *col_base_ref,
 268:Middlewares/tensorflow/third_party/cmsis_nn/Include/arm_nnsupportfunctions.h ****                                               const int32_t out_ch,
 269:Middlewares/tensorflow/third_party/cmsis_nn/Include/arm_nnsupportfunctions.h ****                                               const cmsis_nn_conv_params *conv_params,
 270:Middlewares/tensorflow/third_party/cmsis_nn/Include/arm_nnsupportfunctions.h ****                                               const cmsis_nn_per_channel_quant_params *quant_params
 271:Middlewares/tensorflow/third_party/cmsis_nn/Include/arm_nnsupportfunctions.h ****                                               const int32_t *bias,
 272:Middlewares/tensorflow/third_party/cmsis_nn/Include/arm_nnsupportfunctions.h ****                                               int8_t *output);
 273:Middlewares/tensorflow/third_party/cmsis_nn/Include/arm_nnsupportfunctions.h **** 
 274:Middlewares/tensorflow/third_party/cmsis_nn/Include/arm_nnsupportfunctions.h **** /**
 275:Middlewares/tensorflow/third_party/cmsis_nn/Include/arm_nnsupportfunctions.h ****  * @brief Matrix-multiplication with requantization & activation function for four rows and one col
 276:Middlewares/tensorflow/third_party/cmsis_nn/Include/arm_nnsupportfunctions.h ****  * @param[in]       row_elements  number of row elements
 277:Middlewares/tensorflow/third_party/cmsis_nn/Include/arm_nnsupportfunctions.h ****  * @param[in]       offset        offset between rows. Can be the same as row_elements.
 278:Middlewares/tensorflow/third_party/cmsis_nn/Include/arm_nnsupportfunctions.h ****  *                                For e.g, in a 1x1 conv scenario with stride as 1.
 279:Middlewares/tensorflow/third_party/cmsis_nn/Include/arm_nnsupportfunctions.h ****  * @param[in]       row_base      pointer to row operand
 280:Middlewares/tensorflow/third_party/cmsis_nn/Include/arm_nnsupportfunctions.h ****  * @param[in]       col_base      pointer to col operand
 281:Middlewares/tensorflow/third_party/cmsis_nn/Include/arm_nnsupportfunctions.h ****  * @param[in]       out_ch        Number of output channels
 282:Middlewares/tensorflow/third_party/cmsis_nn/Include/arm_nnsupportfunctions.h ****  * @param[in]       conv_params   Pointer to convolution parameters like offsets and activation val
 283:Middlewares/tensorflow/third_party/cmsis_nn/Include/arm_nnsupportfunctions.h ****  * @param[in]       quant_params  Pointer to per-channel quantization parameters
 284:Middlewares/tensorflow/third_party/cmsis_nn/Include/arm_nnsupportfunctions.h ****  * @param[in]       bias          Pointer to per-channel bias
 285:Middlewares/tensorflow/third_party/cmsis_nn/Include/arm_nnsupportfunctions.h ****  * @param[out]      output        Pointer to output where int8 results are stored.
 286:Middlewares/tensorflow/third_party/cmsis_nn/Include/arm_nnsupportfunctions.h ****  *
 287:Middlewares/tensorflow/third_party/cmsis_nn/Include/arm_nnsupportfunctions.h ****  * @return     The function returns the updated output pointer or NULL if implementation is not ava
 288:Middlewares/tensorflow/third_party/cmsis_nn/Include/arm_nnsupportfunctions.h ****  *
 289:Middlewares/tensorflow/third_party/cmsis_nn/Include/arm_nnsupportfunctions.h ****  * @details Compliant to TFLM int8 specification. MVE implementation only
 290:Middlewares/tensorflow/third_party/cmsis_nn/Include/arm_nnsupportfunctions.h ****  */
 291:Middlewares/tensorflow/third_party/cmsis_nn/Include/arm_nnsupportfunctions.h **** int8_t *arm_nn_mat_mul_core_4x_s8(const int32_t row_elements,
 292:Middlewares/tensorflow/third_party/cmsis_nn/Include/arm_nnsupportfunctions.h ****                                   const int32_t offset,
 293:Middlewares/tensorflow/third_party/cmsis_nn/Include/arm_nnsupportfunctions.h ****                                   const int8_t *row_base,
 294:Middlewares/tensorflow/third_party/cmsis_nn/Include/arm_nnsupportfunctions.h ****                                   const int8_t *col_base,
 295:Middlewares/tensorflow/third_party/cmsis_nn/Include/arm_nnsupportfunctions.h ****                                   const int32_t out_ch,
 296:Middlewares/tensorflow/third_party/cmsis_nn/Include/arm_nnsupportfunctions.h ****                                   const cmsis_nn_conv_params *conv_params,
 297:Middlewares/tensorflow/third_party/cmsis_nn/Include/arm_nnsupportfunctions.h ****                                   const cmsis_nn_per_channel_quant_params *quant_params,
ARM GAS  /tmp/cc6Z6mIk.s 			page 16


 298:Middlewares/tensorflow/third_party/cmsis_nn/Include/arm_nnsupportfunctions.h ****                                   const int32_t *bias,
 299:Middlewares/tensorflow/third_party/cmsis_nn/Include/arm_nnsupportfunctions.h ****                                   int8_t *output);
 300:Middlewares/tensorflow/third_party/cmsis_nn/Include/arm_nnsupportfunctions.h **** 
 301:Middlewares/tensorflow/third_party/cmsis_nn/Include/arm_nnsupportfunctions.h **** /**
 302:Middlewares/tensorflow/third_party/cmsis_nn/Include/arm_nnsupportfunctions.h ****  * @brief General Matrix-multiplication function with per-channel requantization.
 303:Middlewares/tensorflow/third_party/cmsis_nn/Include/arm_nnsupportfunctions.h ****  *        This function assumes:
 304:Middlewares/tensorflow/third_party/cmsis_nn/Include/arm_nnsupportfunctions.h ****  *        - LHS input matrix NOT transposed (nt)
 305:Middlewares/tensorflow/third_party/cmsis_nn/Include/arm_nnsupportfunctions.h ****  *        - RHS input matrix transposed (t)
 306:Middlewares/tensorflow/third_party/cmsis_nn/Include/arm_nnsupportfunctions.h ****  *
 307:Middlewares/tensorflow/third_party/cmsis_nn/Include/arm_nnsupportfunctions.h ****  *  @note This operation also performs the broadcast bias addition before the requantization
 308:Middlewares/tensorflow/third_party/cmsis_nn/Include/arm_nnsupportfunctions.h ****  *
 309:Middlewares/tensorflow/third_party/cmsis_nn/Include/arm_nnsupportfunctions.h ****  * @param[in]  lhs                Pointer to the LHS input matrix
 310:Middlewares/tensorflow/third_party/cmsis_nn/Include/arm_nnsupportfunctions.h ****  * @param[in]  rhs                Pointer to the RHS input matrix
 311:Middlewares/tensorflow/third_party/cmsis_nn/Include/arm_nnsupportfunctions.h ****  * @param[in]  bias               Pointer to the bias vector. The length of this vector is equal to
 312:Middlewares/tensorflow/third_party/cmsis_nn/Include/arm_nnsupportfunctions.h ****  * output columns (or RHS input rows)
 313:Middlewares/tensorflow/third_party/cmsis_nn/Include/arm_nnsupportfunctions.h ****  * @param[out] dst                Pointer to the output matrix with "m" rows and "n" columns
 314:Middlewares/tensorflow/third_party/cmsis_nn/Include/arm_nnsupportfunctions.h ****  * @param[in]  dst_multipliers    Pointer to the multipliers vector needed for the per-channel requ
 315:Middlewares/tensorflow/third_party/cmsis_nn/Include/arm_nnsupportfunctions.h ****  *                                The length of this vector is equal to the number of output column
 316:Middlewares/tensorflow/third_party/cmsis_nn/Include/arm_nnsupportfunctions.h ****  * rows)
 317:Middlewares/tensorflow/third_party/cmsis_nn/Include/arm_nnsupportfunctions.h ****  * @param[in]  dst_shifts         Pointer to the shifts vector needed for the per-channel requantiz
 318:Middlewares/tensorflow/third_party/cmsis_nn/Include/arm_nnsupportfunctions.h ****  * of this vector is equal to the number of output columns (or RHS input rows)
 319:Middlewares/tensorflow/third_party/cmsis_nn/Include/arm_nnsupportfunctions.h ****  * @param[in]  lhs_rows           Number of LHS input rows
 320:Middlewares/tensorflow/third_party/cmsis_nn/Include/arm_nnsupportfunctions.h ****  * @param[in]  rhs_rows           Number of RHS input rows
 321:Middlewares/tensorflow/third_party/cmsis_nn/Include/arm_nnsupportfunctions.h ****  * @param[in]  rhs_cols           Number of LHS/RHS input columns
 322:Middlewares/tensorflow/third_party/cmsis_nn/Include/arm_nnsupportfunctions.h ****  * @param[in]  lhs_offset         Offset to be applied to the LHS input value
 323:Middlewares/tensorflow/third_party/cmsis_nn/Include/arm_nnsupportfunctions.h ****  * @param[in]  dst_offset         Offset to be applied the output result
 324:Middlewares/tensorflow/third_party/cmsis_nn/Include/arm_nnsupportfunctions.h ****  * @param[in]  activation_min     Minimum value to clamp down the output. Range : int8
 325:Middlewares/tensorflow/third_party/cmsis_nn/Include/arm_nnsupportfunctions.h ****  * @param[in]  activation_max     Maximum value to clamp up the output. Range : int8
 326:Middlewares/tensorflow/third_party/cmsis_nn/Include/arm_nnsupportfunctions.h ****  * @param[in]  rhs_cols_offset    Offset between input columns. Used to handle non-unity strides
 327:Middlewares/tensorflow/third_party/cmsis_nn/Include/arm_nnsupportfunctions.h ****  *                                Expected value : x * rhs_cols, where x >= 1
 328:Middlewares/tensorflow/third_party/cmsis_nn/Include/arm_nnsupportfunctions.h ****  *
 329:Middlewares/tensorflow/third_party/cmsis_nn/Include/arm_nnsupportfunctions.h ****  * @return     The function returns <code>ARM_CMSIS_NN_SUCCESS</code>
 330:Middlewares/tensorflow/third_party/cmsis_nn/Include/arm_nnsupportfunctions.h ****  *
 331:Middlewares/tensorflow/third_party/cmsis_nn/Include/arm_nnsupportfunctions.h ****  */
 332:Middlewares/tensorflow/third_party/cmsis_nn/Include/arm_nnsupportfunctions.h **** arm_cmsis_nn_status arm_nn_mat_mult_nt_t_s8(const int8_t *lhs,
 333:Middlewares/tensorflow/third_party/cmsis_nn/Include/arm_nnsupportfunctions.h ****                                             const int8_t *rhs,
 334:Middlewares/tensorflow/third_party/cmsis_nn/Include/arm_nnsupportfunctions.h ****                                             const int32_t *bias,
 335:Middlewares/tensorflow/third_party/cmsis_nn/Include/arm_nnsupportfunctions.h ****                                             int8_t *dst,
 336:Middlewares/tensorflow/third_party/cmsis_nn/Include/arm_nnsupportfunctions.h ****                                             const int32_t *dst_multipliers,
 337:Middlewares/tensorflow/third_party/cmsis_nn/Include/arm_nnsupportfunctions.h ****                                             const int32_t *dst_shifts,
 338:Middlewares/tensorflow/third_party/cmsis_nn/Include/arm_nnsupportfunctions.h ****                                             const int32_t lhs_rows,
 339:Middlewares/tensorflow/third_party/cmsis_nn/Include/arm_nnsupportfunctions.h ****                                             const int32_t rhs_rows,
 340:Middlewares/tensorflow/third_party/cmsis_nn/Include/arm_nnsupportfunctions.h ****                                             const int32_t rhs_cols,
 341:Middlewares/tensorflow/third_party/cmsis_nn/Include/arm_nnsupportfunctions.h ****                                             const int32_t lhs_offset,
 342:Middlewares/tensorflow/third_party/cmsis_nn/Include/arm_nnsupportfunctions.h ****                                             const int32_t dst_offset,
 343:Middlewares/tensorflow/third_party/cmsis_nn/Include/arm_nnsupportfunctions.h ****                                             const int32_t activation_min,
 344:Middlewares/tensorflow/third_party/cmsis_nn/Include/arm_nnsupportfunctions.h ****                                             const int32_t activation_max,
 345:Middlewares/tensorflow/third_party/cmsis_nn/Include/arm_nnsupportfunctions.h ****                                             const int32_t rhs_cols_offset);
 346:Middlewares/tensorflow/third_party/cmsis_nn/Include/arm_nnsupportfunctions.h **** 
 347:Middlewares/tensorflow/third_party/cmsis_nn/Include/arm_nnsupportfunctions.h **** /**
 348:Middlewares/tensorflow/third_party/cmsis_nn/Include/arm_nnsupportfunctions.h ****  * @brief s8 Vector by Matrix (transposed) multiplication
 349:Middlewares/tensorflow/third_party/cmsis_nn/Include/arm_nnsupportfunctions.h ****  *
 350:Middlewares/tensorflow/third_party/cmsis_nn/Include/arm_nnsupportfunctions.h ****  * @param[in]      lhs             Input left-hand side vector
 351:Middlewares/tensorflow/third_party/cmsis_nn/Include/arm_nnsupportfunctions.h ****  * @param[in]      rhs             Input right-hand side matrix (transposed)
 352:Middlewares/tensorflow/third_party/cmsis_nn/Include/arm_nnsupportfunctions.h ****  * @param[in]      bias            Input bias
 353:Middlewares/tensorflow/third_party/cmsis_nn/Include/arm_nnsupportfunctions.h ****  * @param[out]     dst             Output vector
 354:Middlewares/tensorflow/third_party/cmsis_nn/Include/arm_nnsupportfunctions.h ****  * @param[in]      lhs_offset      Offset to be added to the input values of the left-hand side vec
ARM GAS  /tmp/cc6Z6mIk.s 			page 17


 355:Middlewares/tensorflow/third_party/cmsis_nn/Include/arm_nnsupportfunctions.h ****  *                                 Range: -127 to 128
 356:Middlewares/tensorflow/third_party/cmsis_nn/Include/arm_nnsupportfunctions.h ****  * @param[in]      dst_offset      Offset to be added to the output values. Range: -127 to 128
 357:Middlewares/tensorflow/third_party/cmsis_nn/Include/arm_nnsupportfunctions.h ****  * @param[in]      dst_multiplier  Output multiplier
 358:Middlewares/tensorflow/third_party/cmsis_nn/Include/arm_nnsupportfunctions.h ****  * @param[in]      dst_shift       Output shift
 359:Middlewares/tensorflow/third_party/cmsis_nn/Include/arm_nnsupportfunctions.h ****  * @param[in]      rhs_cols        Number of columns in the right-hand side input matrix
 360:Middlewares/tensorflow/third_party/cmsis_nn/Include/arm_nnsupportfunctions.h ****  * @param[in]      rhs_rows        Number of rows in the right-hand side input matrix
 361:Middlewares/tensorflow/third_party/cmsis_nn/Include/arm_nnsupportfunctions.h ****  * @param[in]      activation_min  Minimum value to clamp the output to. Range: int8
 362:Middlewares/tensorflow/third_party/cmsis_nn/Include/arm_nnsupportfunctions.h ****  * @param[in]      activation_max  Maximum value to clamp the output to. Range: int8
 363:Middlewares/tensorflow/third_party/cmsis_nn/Include/arm_nnsupportfunctions.h ****  * @param[in]      address_offset  Memory position offset for dst. First output is stored at 'dst',
 364:Middlewares/tensorflow/third_party/cmsis_nn/Include/arm_nnsupportfunctions.h ****  *                                 second at 'dst + address_offset' and so on. Default value is typ
 365:Middlewares/tensorflow/third_party/cmsis_nn/Include/arm_nnsupportfunctions.h ****  *
 366:Middlewares/tensorflow/third_party/cmsis_nn/Include/arm_nnsupportfunctions.h ****  * @return         The function returns <code>ARM_CMSIS_NN_SUCCESS</code>
 367:Middlewares/tensorflow/third_party/cmsis_nn/Include/arm_nnsupportfunctions.h ****  *
 368:Middlewares/tensorflow/third_party/cmsis_nn/Include/arm_nnsupportfunctions.h ****  */
 369:Middlewares/tensorflow/third_party/cmsis_nn/Include/arm_nnsupportfunctions.h **** arm_cmsis_nn_status arm_nn_vec_mat_mult_t_s8(const int8_t *lhs,
 370:Middlewares/tensorflow/third_party/cmsis_nn/Include/arm_nnsupportfunctions.h ****                                              const int8_t *rhs,
 371:Middlewares/tensorflow/third_party/cmsis_nn/Include/arm_nnsupportfunctions.h ****                                              const int32_t *bias,
 372:Middlewares/tensorflow/third_party/cmsis_nn/Include/arm_nnsupportfunctions.h ****                                              int8_t *dst,
 373:Middlewares/tensorflow/third_party/cmsis_nn/Include/arm_nnsupportfunctions.h ****                                              const int32_t lhs_offset,
 374:Middlewares/tensorflow/third_party/cmsis_nn/Include/arm_nnsupportfunctions.h ****                                              const int32_t dst_offset,
 375:Middlewares/tensorflow/third_party/cmsis_nn/Include/arm_nnsupportfunctions.h ****                                              const int32_t dst_multiplier,
 376:Middlewares/tensorflow/third_party/cmsis_nn/Include/arm_nnsupportfunctions.h ****                                              const int32_t dst_shift,
 377:Middlewares/tensorflow/third_party/cmsis_nn/Include/arm_nnsupportfunctions.h ****                                              const int32_t rhs_cols,
 378:Middlewares/tensorflow/third_party/cmsis_nn/Include/arm_nnsupportfunctions.h ****                                              const int32_t rhs_rows,
 379:Middlewares/tensorflow/third_party/cmsis_nn/Include/arm_nnsupportfunctions.h ****                                              const int32_t activation_min,
 380:Middlewares/tensorflow/third_party/cmsis_nn/Include/arm_nnsupportfunctions.h ****                                              const int32_t activation_max,
 381:Middlewares/tensorflow/third_party/cmsis_nn/Include/arm_nnsupportfunctions.h ****                                              const int32_t address_offset);
 382:Middlewares/tensorflow/third_party/cmsis_nn/Include/arm_nnsupportfunctions.h **** 
 383:Middlewares/tensorflow/third_party/cmsis_nn/Include/arm_nnsupportfunctions.h **** /**
 384:Middlewares/tensorflow/third_party/cmsis_nn/Include/arm_nnsupportfunctions.h ****  * @brief s16 Vector by Matrix (transposed) multiplication
 385:Middlewares/tensorflow/third_party/cmsis_nn/Include/arm_nnsupportfunctions.h ****  *
 386:Middlewares/tensorflow/third_party/cmsis_nn/Include/arm_nnsupportfunctions.h ****  * @param[in]      lhs             Input left-hand side vector
 387:Middlewares/tensorflow/third_party/cmsis_nn/Include/arm_nnsupportfunctions.h ****  * @param[in]      rhs             Input right-hand side matrix (transposed)
 388:Middlewares/tensorflow/third_party/cmsis_nn/Include/arm_nnsupportfunctions.h ****  * @param[in]      bias            Input bias
 389:Middlewares/tensorflow/third_party/cmsis_nn/Include/arm_nnsupportfunctions.h ****  * @param[out]     dst             Output vector
 390:Middlewares/tensorflow/third_party/cmsis_nn/Include/arm_nnsupportfunctions.h ****  * @param[in]      dst_multiplier  Output multiplier
 391:Middlewares/tensorflow/third_party/cmsis_nn/Include/arm_nnsupportfunctions.h ****  * @param[in]      dst_shift       Output shift
 392:Middlewares/tensorflow/third_party/cmsis_nn/Include/arm_nnsupportfunctions.h ****  * @param[in]      rhs_cols        Number of columns in the right-hand side input matrix
 393:Middlewares/tensorflow/third_party/cmsis_nn/Include/arm_nnsupportfunctions.h ****  * @param[in]      rhs_rows        Number of rows in the right-hand side input matrix
 394:Middlewares/tensorflow/third_party/cmsis_nn/Include/arm_nnsupportfunctions.h ****  * @param[in]      activation_min  Minimum value to clamp the output to. Range: int16
 395:Middlewares/tensorflow/third_party/cmsis_nn/Include/arm_nnsupportfunctions.h ****  * @param[in]      activation_max  Maximum value to clamp the output to. Range: int16
 396:Middlewares/tensorflow/third_party/cmsis_nn/Include/arm_nnsupportfunctions.h ****  *
 397:Middlewares/tensorflow/third_party/cmsis_nn/Include/arm_nnsupportfunctions.h ****  * @return         The function returns <code>ARM_CMSIS_NN_SUCCESS</code>
 398:Middlewares/tensorflow/third_party/cmsis_nn/Include/arm_nnsupportfunctions.h ****  *
 399:Middlewares/tensorflow/third_party/cmsis_nn/Include/arm_nnsupportfunctions.h ****  */
 400:Middlewares/tensorflow/third_party/cmsis_nn/Include/arm_nnsupportfunctions.h **** arm_cmsis_nn_status arm_nn_vec_mat_mult_t_s16(const int16_t *lhs,
 401:Middlewares/tensorflow/third_party/cmsis_nn/Include/arm_nnsupportfunctions.h ****                                               const int8_t *rhs,
 402:Middlewares/tensorflow/third_party/cmsis_nn/Include/arm_nnsupportfunctions.h ****                                               const int64_t *bias,
 403:Middlewares/tensorflow/third_party/cmsis_nn/Include/arm_nnsupportfunctions.h ****                                               int16_t *dst,
 404:Middlewares/tensorflow/third_party/cmsis_nn/Include/arm_nnsupportfunctions.h ****                                               const int32_t dst_multiplier,
 405:Middlewares/tensorflow/third_party/cmsis_nn/Include/arm_nnsupportfunctions.h ****                                               const int32_t dst_shift,
 406:Middlewares/tensorflow/third_party/cmsis_nn/Include/arm_nnsupportfunctions.h ****                                               const int32_t rhs_cols,
 407:Middlewares/tensorflow/third_party/cmsis_nn/Include/arm_nnsupportfunctions.h ****                                               const int32_t rhs_rows,
 408:Middlewares/tensorflow/third_party/cmsis_nn/Include/arm_nnsupportfunctions.h ****                                               const int32_t activation_min,
 409:Middlewares/tensorflow/third_party/cmsis_nn/Include/arm_nnsupportfunctions.h ****                                               const int32_t activation_max);
 410:Middlewares/tensorflow/third_party/cmsis_nn/Include/arm_nnsupportfunctions.h **** 
 411:Middlewares/tensorflow/third_party/cmsis_nn/Include/arm_nnsupportfunctions.h **** /**
ARM GAS  /tmp/cc6Z6mIk.s 			page 18


 412:Middlewares/tensorflow/third_party/cmsis_nn/Include/arm_nnsupportfunctions.h ****  * @brief s8 Vector by Matrix (transposed) multiplication with s16 output
 413:Middlewares/tensorflow/third_party/cmsis_nn/Include/arm_nnsupportfunctions.h ****  *
 414:Middlewares/tensorflow/third_party/cmsis_nn/Include/arm_nnsupportfunctions.h ****  * @param[in]      lhs             Input left-hand side vector
 415:Middlewares/tensorflow/third_party/cmsis_nn/Include/arm_nnsupportfunctions.h ****  * @param[in]      rhs             Input right-hand side matrix (transposed)
 416:Middlewares/tensorflow/third_party/cmsis_nn/Include/arm_nnsupportfunctions.h ****  * @param[out]     dst             Output vector
 417:Middlewares/tensorflow/third_party/cmsis_nn/Include/arm_nnsupportfunctions.h ****  * @param[in]      lhs_offset      Offset to be added to the input values of the left-hand side
 418:Middlewares/tensorflow/third_party/cmsis_nn/Include/arm_nnsupportfunctions.h ****  *                                 vector. Range: -127 to 128
 419:Middlewares/tensorflow/third_party/cmsis_nn/Include/arm_nnsupportfunctions.h ****  * @param[in]      scatter_offset  Address offset for dst. First output is stored at 'dst', the
 420:Middlewares/tensorflow/third_party/cmsis_nn/Include/arm_nnsupportfunctions.h ****  *                                 second at 'dst + scatter_offset' and so on.
 421:Middlewares/tensorflow/third_party/cmsis_nn/Include/arm_nnsupportfunctions.h ****  * @param[in]      dst_multiplier  Output multiplier
 422:Middlewares/tensorflow/third_party/cmsis_nn/Include/arm_nnsupportfunctions.h ****  * @param[in]      dst_shift       Output shift
 423:Middlewares/tensorflow/third_party/cmsis_nn/Include/arm_nnsupportfunctions.h ****  * @param[in]      rhs_cols        Number of columns in the right-hand side input matrix
 424:Middlewares/tensorflow/third_party/cmsis_nn/Include/arm_nnsupportfunctions.h ****  * @param[in]      rhs_rows        Number of rows in the right-hand side input matrix
 425:Middlewares/tensorflow/third_party/cmsis_nn/Include/arm_nnsupportfunctions.h ****  * @param[in]      activation_min  Minimum value to clamp the output to. Range: int16
 426:Middlewares/tensorflow/third_party/cmsis_nn/Include/arm_nnsupportfunctions.h ****  * @param[in]      activation_max  Maximum value to clamp the output to. Range: int16
 427:Middlewares/tensorflow/third_party/cmsis_nn/Include/arm_nnsupportfunctions.h ****  *
 428:Middlewares/tensorflow/third_party/cmsis_nn/Include/arm_nnsupportfunctions.h ****  * @return         The function returns <code>ARM_CMSIS_NN_SUCCESS</code>
 429:Middlewares/tensorflow/third_party/cmsis_nn/Include/arm_nnsupportfunctions.h ****  *
 430:Middlewares/tensorflow/third_party/cmsis_nn/Include/arm_nnsupportfunctions.h ****  */
 431:Middlewares/tensorflow/third_party/cmsis_nn/Include/arm_nnsupportfunctions.h **** arm_cmsis_nn_status arm_nn_vec_mat_mult_t_svdf_s8(const int8_t *lhs,
 432:Middlewares/tensorflow/third_party/cmsis_nn/Include/arm_nnsupportfunctions.h ****                                                   const int8_t *rhs,
 433:Middlewares/tensorflow/third_party/cmsis_nn/Include/arm_nnsupportfunctions.h ****                                                   int16_t *dst,
 434:Middlewares/tensorflow/third_party/cmsis_nn/Include/arm_nnsupportfunctions.h ****                                                   const int32_t lhs_offset,
 435:Middlewares/tensorflow/third_party/cmsis_nn/Include/arm_nnsupportfunctions.h ****                                                   const int32_t scatter_offset,
 436:Middlewares/tensorflow/third_party/cmsis_nn/Include/arm_nnsupportfunctions.h ****                                                   const int32_t dst_multiplier,
 437:Middlewares/tensorflow/third_party/cmsis_nn/Include/arm_nnsupportfunctions.h ****                                                   const int32_t dst_shift,
 438:Middlewares/tensorflow/third_party/cmsis_nn/Include/arm_nnsupportfunctions.h ****                                                   const int32_t rhs_cols,
 439:Middlewares/tensorflow/third_party/cmsis_nn/Include/arm_nnsupportfunctions.h ****                                                   const int32_t rhs_rows,
 440:Middlewares/tensorflow/third_party/cmsis_nn/Include/arm_nnsupportfunctions.h ****                                                   const int32_t activation_min,
 441:Middlewares/tensorflow/third_party/cmsis_nn/Include/arm_nnsupportfunctions.h ****                                                   const int32_t activation_max);
 442:Middlewares/tensorflow/third_party/cmsis_nn/Include/arm_nnsupportfunctions.h **** 
 443:Middlewares/tensorflow/third_party/cmsis_nn/Include/arm_nnsupportfunctions.h **** /**
 444:Middlewares/tensorflow/third_party/cmsis_nn/Include/arm_nnsupportfunctions.h ****  * @brief Depthwise convolution of transposed rhs matrix with 4 lhs matrices. To be used in padded 
 445:Middlewares/tensorflow/third_party/cmsis_nn/Include/arm_nnsupportfunctions.h ****  *        the padding is -lhs_offset(Range: int8). Dimensions are the same for lhs and rhs.
 446:Middlewares/tensorflow/third_party/cmsis_nn/Include/arm_nnsupportfunctions.h ****  *
 447:Middlewares/tensorflow/third_party/cmsis_nn/Include/arm_nnsupportfunctions.h ****  * @param[in]      lhs             Input left-hand side matrix
 448:Middlewares/tensorflow/third_party/cmsis_nn/Include/arm_nnsupportfunctions.h ****  * @param[in]      rhs             Input right-hand side matrix (transposed)
 449:Middlewares/tensorflow/third_party/cmsis_nn/Include/arm_nnsupportfunctions.h ****  * @param[in]      lhs_offset      LHS matrix offset(input offset). Range: -127 to 128
 450:Middlewares/tensorflow/third_party/cmsis_nn/Include/arm_nnsupportfunctions.h ****  * @param[in]      active_ch       Subset of total_ch processed
 451:Middlewares/tensorflow/third_party/cmsis_nn/Include/arm_nnsupportfunctions.h ****  * @param[in]      total_ch        Number of channels in LHS/RHS
 452:Middlewares/tensorflow/third_party/cmsis_nn/Include/arm_nnsupportfunctions.h ****  * @param[in]      out_shift       Per channel output shift. Length of vector is equal to number of
 453:Middlewares/tensorflow/third_party/cmsis_nn/Include/arm_nnsupportfunctions.h ****  * @param[in]      out_mult        Per channel output multiplier. Length of vector is equal to numb
 454:Middlewares/tensorflow/third_party/cmsis_nn/Include/arm_nnsupportfunctions.h ****  * @param[in]      out_offset      Offset to be added to the output values. Range: -127 to 128
 455:Middlewares/tensorflow/third_party/cmsis_nn/Include/arm_nnsupportfunctions.h ****  * @param[in]      activation_min  Minimum value to clamp the output to. Range: int8
 456:Middlewares/tensorflow/third_party/cmsis_nn/Include/arm_nnsupportfunctions.h ****  * @param[in]      activation_max  Maximum value to clamp the output to. Range: int8
 457:Middlewares/tensorflow/third_party/cmsis_nn/Include/arm_nnsupportfunctions.h ****  * @param[in]       row_x_col       (row_dimension * col_dimension) of LHS/RHS matrix
 458:Middlewares/tensorflow/third_party/cmsis_nn/Include/arm_nnsupportfunctions.h ****  * @param[in]      output_bias     Per channel output bias. Length of vector is equal to number of 
 459:Middlewares/tensorflow/third_party/cmsis_nn/Include/arm_nnsupportfunctions.h ****  * @param[in]      out             Output pointer
 460:Middlewares/tensorflow/third_party/cmsis_nn/Include/arm_nnsupportfunctions.h ****  *
 461:Middlewares/tensorflow/third_party/cmsis_nn/Include/arm_nnsupportfunctions.h ****  * @return         The function returns one of the two
 462:Middlewares/tensorflow/third_party/cmsis_nn/Include/arm_nnsupportfunctions.h ****  *                  - Updated output pointer if an implementation is available
 463:Middlewares/tensorflow/third_party/cmsis_nn/Include/arm_nnsupportfunctions.h ****  *                  - NULL if no implementation is available.
 464:Middlewares/tensorflow/third_party/cmsis_nn/Include/arm_nnsupportfunctions.h ****  *
 465:Middlewares/tensorflow/third_party/cmsis_nn/Include/arm_nnsupportfunctions.h ****  * @note           If number of channels is not a multiple of 4, upto 3 elements outside the bounda
 466:Middlewares/tensorflow/third_party/cmsis_nn/Include/arm_nnsupportfunctions.h ****  * out for the following.
 467:Middlewares/tensorflow/third_party/cmsis_nn/Include/arm_nnsupportfunctions.h ****  *                  - Output shift
 468:Middlewares/tensorflow/third_party/cmsis_nn/Include/arm_nnsupportfunctions.h ****  *                  - Output multiplier
ARM GAS  /tmp/cc6Z6mIk.s 			page 19


 469:Middlewares/tensorflow/third_party/cmsis_nn/Include/arm_nnsupportfunctions.h ****  *                  - Output bias
 470:Middlewares/tensorflow/third_party/cmsis_nn/Include/arm_nnsupportfunctions.h ****  *                  - rhs
 471:Middlewares/tensorflow/third_party/cmsis_nn/Include/arm_nnsupportfunctions.h ****  */
 472:Middlewares/tensorflow/third_party/cmsis_nn/Include/arm_nnsupportfunctions.h **** arm_cmsis_nn_status arm_nn_depthwise_conv_nt_t_padded_s8(const int8_t *lhs,
 473:Middlewares/tensorflow/third_party/cmsis_nn/Include/arm_nnsupportfunctions.h ****                                                          const int8_t *rhs,
 474:Middlewares/tensorflow/third_party/cmsis_nn/Include/arm_nnsupportfunctions.h ****                                                          const int32_t lhs_offset,
 475:Middlewares/tensorflow/third_party/cmsis_nn/Include/arm_nnsupportfunctions.h ****                                                          const int32_t active_ch,
 476:Middlewares/tensorflow/third_party/cmsis_nn/Include/arm_nnsupportfunctions.h ****                                                          const int32_t total_ch,
 477:Middlewares/tensorflow/third_party/cmsis_nn/Include/arm_nnsupportfunctions.h ****                                                          const int32_t *out_shift,
 478:Middlewares/tensorflow/third_party/cmsis_nn/Include/arm_nnsupportfunctions.h ****                                                          const int32_t *out_mult,
 479:Middlewares/tensorflow/third_party/cmsis_nn/Include/arm_nnsupportfunctions.h ****                                                          const int32_t out_offset,
 480:Middlewares/tensorflow/third_party/cmsis_nn/Include/arm_nnsupportfunctions.h ****                                                          const int32_t activation_min,
 481:Middlewares/tensorflow/third_party/cmsis_nn/Include/arm_nnsupportfunctions.h ****                                                          const int32_t activation_max,
 482:Middlewares/tensorflow/third_party/cmsis_nn/Include/arm_nnsupportfunctions.h ****                                                          const uint16_t row_x_col,
 483:Middlewares/tensorflow/third_party/cmsis_nn/Include/arm_nnsupportfunctions.h ****                                                          const int32_t *const output_bias,
 484:Middlewares/tensorflow/third_party/cmsis_nn/Include/arm_nnsupportfunctions.h ****                                                          int8_t *out);
 485:Middlewares/tensorflow/third_party/cmsis_nn/Include/arm_nnsupportfunctions.h **** 
 486:Middlewares/tensorflow/third_party/cmsis_nn/Include/arm_nnsupportfunctions.h **** /**
 487:Middlewares/tensorflow/third_party/cmsis_nn/Include/arm_nnsupportfunctions.h ****  * @brief Depthwise convolution of transposed rhs matrix with 4 lhs matrices. To be used in non-pad
 488:Middlewares/tensorflow/third_party/cmsis_nn/Include/arm_nnsupportfunctions.h ****  *        Dimensions are the same for lhs and rhs.
 489:Middlewares/tensorflow/third_party/cmsis_nn/Include/arm_nnsupportfunctions.h ****  *
 490:Middlewares/tensorflow/third_party/cmsis_nn/Include/arm_nnsupportfunctions.h ****  * @param[in]      lhs             Input left-hand side matrix
 491:Middlewares/tensorflow/third_party/cmsis_nn/Include/arm_nnsupportfunctions.h ****  * @param[in]      rhs             Input right-hand side matrix (transposed)
 492:Middlewares/tensorflow/third_party/cmsis_nn/Include/arm_nnsupportfunctions.h ****  * @param[in]      lhs_offset      LHS matrix offset(input offset). Range: -127 to 128
 493:Middlewares/tensorflow/third_party/cmsis_nn/Include/arm_nnsupportfunctions.h ****  * @param[in]      active_ch       Subset of total_ch processed
 494:Middlewares/tensorflow/third_party/cmsis_nn/Include/arm_nnsupportfunctions.h ****  * @param[in]      total_ch        Number of channels in LHS/RHS
 495:Middlewares/tensorflow/third_party/cmsis_nn/Include/arm_nnsupportfunctions.h ****  * @param[in]      out_shift       Per channel output shift. Length of vector is equal to number of
 496:Middlewares/tensorflow/third_party/cmsis_nn/Include/arm_nnsupportfunctions.h ****  * @param[in]      out_mult        Per channel output multiplier. Length of vector is equal to numb
 497:Middlewares/tensorflow/third_party/cmsis_nn/Include/arm_nnsupportfunctions.h ****  * @param[in]      out_offset      Offset to be added to the output values. Range: -127 to 128
 498:Middlewares/tensorflow/third_party/cmsis_nn/Include/arm_nnsupportfunctions.h ****  * @param[in]      activation_min  Minimum value to clamp the output to. Range: int8
 499:Middlewares/tensorflow/third_party/cmsis_nn/Include/arm_nnsupportfunctions.h ****  * @param[in]      activation_max  Maximum value to clamp the output to. Range: int8
 500:Middlewares/tensorflow/third_party/cmsis_nn/Include/arm_nnsupportfunctions.h ****  * @param[in]       row_x_col       (row_dimension * col_dimension) of LHS/RHS matrix
 501:Middlewares/tensorflow/third_party/cmsis_nn/Include/arm_nnsupportfunctions.h ****  * @param[in]      output_bias     Per channel output bias. Length of vector is equal to number of 
 502:Middlewares/tensorflow/third_party/cmsis_nn/Include/arm_nnsupportfunctions.h ****  * @param[in]      out             Output pointer
 503:Middlewares/tensorflow/third_party/cmsis_nn/Include/arm_nnsupportfunctions.h ****  *
 504:Middlewares/tensorflow/third_party/cmsis_nn/Include/arm_nnsupportfunctions.h ****  * @return         The function returns one of the two
 505:Middlewares/tensorflow/third_party/cmsis_nn/Include/arm_nnsupportfunctions.h ****  *                  - Updated output pointer if an implementation is available
 506:Middlewares/tensorflow/third_party/cmsis_nn/Include/arm_nnsupportfunctions.h ****  *                  - NULL if no implementation is available.
 507:Middlewares/tensorflow/third_party/cmsis_nn/Include/arm_nnsupportfunctions.h ****  *
 508:Middlewares/tensorflow/third_party/cmsis_nn/Include/arm_nnsupportfunctions.h ****  * @note           If number of channels is not a multiple of 4, upto 3 elements outside the bounda
 509:Middlewares/tensorflow/third_party/cmsis_nn/Include/arm_nnsupportfunctions.h ****  * out for the following.
 510:Middlewares/tensorflow/third_party/cmsis_nn/Include/arm_nnsupportfunctions.h ****  *                  - Output shift
 511:Middlewares/tensorflow/third_party/cmsis_nn/Include/arm_nnsupportfunctions.h ****  *                  - Output multiplier
 512:Middlewares/tensorflow/third_party/cmsis_nn/Include/arm_nnsupportfunctions.h ****  *                  - Output bias
 513:Middlewares/tensorflow/third_party/cmsis_nn/Include/arm_nnsupportfunctions.h ****  *                  - rhs
 514:Middlewares/tensorflow/third_party/cmsis_nn/Include/arm_nnsupportfunctions.h ****  */
 515:Middlewares/tensorflow/third_party/cmsis_nn/Include/arm_nnsupportfunctions.h **** arm_cmsis_nn_status arm_nn_depthwise_conv_nt_t_s8(const int8_t *lhs,
 516:Middlewares/tensorflow/third_party/cmsis_nn/Include/arm_nnsupportfunctions.h ****                                                   const int8_t *rhs,
 517:Middlewares/tensorflow/third_party/cmsis_nn/Include/arm_nnsupportfunctions.h ****                                                   const int32_t lhs_offset,
 518:Middlewares/tensorflow/third_party/cmsis_nn/Include/arm_nnsupportfunctions.h ****                                                   const int32_t active_ch,
 519:Middlewares/tensorflow/third_party/cmsis_nn/Include/arm_nnsupportfunctions.h ****                                                   const int32_t total_ch,
 520:Middlewares/tensorflow/third_party/cmsis_nn/Include/arm_nnsupportfunctions.h ****                                                   const int32_t *out_shift,
 521:Middlewares/tensorflow/third_party/cmsis_nn/Include/arm_nnsupportfunctions.h ****                                                   const int32_t *out_mult,
 522:Middlewares/tensorflow/third_party/cmsis_nn/Include/arm_nnsupportfunctions.h ****                                                   const int32_t out_offset,
 523:Middlewares/tensorflow/third_party/cmsis_nn/Include/arm_nnsupportfunctions.h ****                                                   const int32_t activation_min,
 524:Middlewares/tensorflow/third_party/cmsis_nn/Include/arm_nnsupportfunctions.h ****                                                   const int32_t activation_max,
 525:Middlewares/tensorflow/third_party/cmsis_nn/Include/arm_nnsupportfunctions.h ****                                                   const uint16_t row_x_col,
ARM GAS  /tmp/cc6Z6mIk.s 			page 20


 526:Middlewares/tensorflow/third_party/cmsis_nn/Include/arm_nnsupportfunctions.h ****                                                   const int32_t *const output_bias,
 527:Middlewares/tensorflow/third_party/cmsis_nn/Include/arm_nnsupportfunctions.h ****                                                   int8_t *out);
 528:Middlewares/tensorflow/third_party/cmsis_nn/Include/arm_nnsupportfunctions.h **** 
 529:Middlewares/tensorflow/third_party/cmsis_nn/Include/arm_nnsupportfunctions.h **** /**
 530:Middlewares/tensorflow/third_party/cmsis_nn/Include/arm_nnsupportfunctions.h ****  * @brief Depthwise convolution of transposed rhs matrix with 4 lhs matrices. To be used in non-pad
 531:Middlewares/tensorflow/third_party/cmsis_nn/Include/arm_nnsupportfunctions.h ****  *        Dimensions are the same for lhs and rhs.
 532:Middlewares/tensorflow/third_party/cmsis_nn/Include/arm_nnsupportfunctions.h ****  *
 533:Middlewares/tensorflow/third_party/cmsis_nn/Include/arm_nnsupportfunctions.h ****  * @param[in]      lhs             Input left-hand side matrix
 534:Middlewares/tensorflow/third_party/cmsis_nn/Include/arm_nnsupportfunctions.h ****  * @param[in]      rhs             Input right-hand side matrix (transposed)
 535:Middlewares/tensorflow/third_party/cmsis_nn/Include/arm_nnsupportfunctions.h ****  * @param[in]      num_ch          Number of channels in LHS/RHS
 536:Middlewares/tensorflow/third_party/cmsis_nn/Include/arm_nnsupportfunctions.h ****  * @param[in]      out_shift       Per channel output shift. Length of vector is equal to number of
 537:Middlewares/tensorflow/third_party/cmsis_nn/Include/arm_nnsupportfunctions.h ****  * @param[in]      out_mult        Per channel output multiplier. Length of vector is equal to numb
 538:Middlewares/tensorflow/third_party/cmsis_nn/Include/arm_nnsupportfunctions.h ****  * @param[in]      activation_min  Minimum value to clamp the output to. Range: int8
 539:Middlewares/tensorflow/third_party/cmsis_nn/Include/arm_nnsupportfunctions.h ****  * @param[in]      activation_max  Maximum value to clamp the output to. Range: int8
 540:Middlewares/tensorflow/third_party/cmsis_nn/Include/arm_nnsupportfunctions.h ****  * @param[in]       row_x_col       (row_dimension * col_dimension) of LHS/RHS matrix
 541:Middlewares/tensorflow/third_party/cmsis_nn/Include/arm_nnsupportfunctions.h ****  * @param[in]      output_bias     Per channel output bias. Length of vector is equal to number of 
 542:Middlewares/tensorflow/third_party/cmsis_nn/Include/arm_nnsupportfunctions.h ****  * @param[in]      out             Output pointer
 543:Middlewares/tensorflow/third_party/cmsis_nn/Include/arm_nnsupportfunctions.h ****  *
 544:Middlewares/tensorflow/third_party/cmsis_nn/Include/arm_nnsupportfunctions.h ****  * @return         The function returns one of the two
 545:Middlewares/tensorflow/third_party/cmsis_nn/Include/arm_nnsupportfunctions.h ****  *                  - Updated output pointer if an implementation is available
 546:Middlewares/tensorflow/third_party/cmsis_nn/Include/arm_nnsupportfunctions.h ****  *                  - NULL if no implementation is available.
 547:Middlewares/tensorflow/third_party/cmsis_nn/Include/arm_nnsupportfunctions.h ****  *
 548:Middlewares/tensorflow/third_party/cmsis_nn/Include/arm_nnsupportfunctions.h ****  * @note           If number of channels is not a multiple of 4, upto 3 elements outside the bounda
 549:Middlewares/tensorflow/third_party/cmsis_nn/Include/arm_nnsupportfunctions.h ****  * out for the following.
 550:Middlewares/tensorflow/third_party/cmsis_nn/Include/arm_nnsupportfunctions.h ****  *                  - Output shift
 551:Middlewares/tensorflow/third_party/cmsis_nn/Include/arm_nnsupportfunctions.h ****  *                  - Output multiplier
 552:Middlewares/tensorflow/third_party/cmsis_nn/Include/arm_nnsupportfunctions.h ****  *                  - Output bias
 553:Middlewares/tensorflow/third_party/cmsis_nn/Include/arm_nnsupportfunctions.h ****  *                  - rhs
 554:Middlewares/tensorflow/third_party/cmsis_nn/Include/arm_nnsupportfunctions.h ****  */
 555:Middlewares/tensorflow/third_party/cmsis_nn/Include/arm_nnsupportfunctions.h **** int16_t *arm_nn_depthwise_conv_nt_t_s16(const int16_t *lhs,
 556:Middlewares/tensorflow/third_party/cmsis_nn/Include/arm_nnsupportfunctions.h ****                                         const int8_t *rhs,
 557:Middlewares/tensorflow/third_party/cmsis_nn/Include/arm_nnsupportfunctions.h ****                                         const uint16_t num_ch,
 558:Middlewares/tensorflow/third_party/cmsis_nn/Include/arm_nnsupportfunctions.h ****                                         const int32_t *out_shift,
 559:Middlewares/tensorflow/third_party/cmsis_nn/Include/arm_nnsupportfunctions.h ****                                         const int32_t *out_mult,
 560:Middlewares/tensorflow/third_party/cmsis_nn/Include/arm_nnsupportfunctions.h ****                                         const int32_t activation_min,
 561:Middlewares/tensorflow/third_party/cmsis_nn/Include/arm_nnsupportfunctions.h ****                                         const int32_t activation_max,
 562:Middlewares/tensorflow/third_party/cmsis_nn/Include/arm_nnsupportfunctions.h ****                                         const uint16_t row_x_col,
 563:Middlewares/tensorflow/third_party/cmsis_nn/Include/arm_nnsupportfunctions.h ****                                         const int64_t *const output_bias,
 564:Middlewares/tensorflow/third_party/cmsis_nn/Include/arm_nnsupportfunctions.h ****                                         int16_t *out);
 565:Middlewares/tensorflow/third_party/cmsis_nn/Include/arm_nnsupportfunctions.h **** 
 566:Middlewares/tensorflow/third_party/cmsis_nn/Include/arm_nnsupportfunctions.h **** /**
 567:Middlewares/tensorflow/third_party/cmsis_nn/Include/arm_nnsupportfunctions.h ****   @brief         Read 2 s16 elements and post increment pointer.
 568:Middlewares/tensorflow/third_party/cmsis_nn/Include/arm_nnsupportfunctions.h ****   @param[in]     in_q15   Pointer to pointer that holds address of input.
 569:Middlewares/tensorflow/third_party/cmsis_nn/Include/arm_nnsupportfunctions.h ****   @return        q31 value
 570:Middlewares/tensorflow/third_party/cmsis_nn/Include/arm_nnsupportfunctions.h ****  */
 571:Middlewares/tensorflow/third_party/cmsis_nn/Include/arm_nnsupportfunctions.h **** __STATIC_FORCEINLINE int32_t arm_nn_read_q15x2_ia(const int16_t **in_q15)
 572:Middlewares/tensorflow/third_party/cmsis_nn/Include/arm_nnsupportfunctions.h **** {
 573:Middlewares/tensorflow/third_party/cmsis_nn/Include/arm_nnsupportfunctions.h ****     int32_t val;
 574:Middlewares/tensorflow/third_party/cmsis_nn/Include/arm_nnsupportfunctions.h **** 
 575:Middlewares/tensorflow/third_party/cmsis_nn/Include/arm_nnsupportfunctions.h ****     memcpy(&val, *in_q15, 4);
 576:Middlewares/tensorflow/third_party/cmsis_nn/Include/arm_nnsupportfunctions.h ****     *in_q15 += 2;
 577:Middlewares/tensorflow/third_party/cmsis_nn/Include/arm_nnsupportfunctions.h **** 
 578:Middlewares/tensorflow/third_party/cmsis_nn/Include/arm_nnsupportfunctions.h ****     return (val);
 579:Middlewares/tensorflow/third_party/cmsis_nn/Include/arm_nnsupportfunctions.h **** }
 580:Middlewares/tensorflow/third_party/cmsis_nn/Include/arm_nnsupportfunctions.h **** 
 581:Middlewares/tensorflow/third_party/cmsis_nn/Include/arm_nnsupportfunctions.h **** /**
 582:Middlewares/tensorflow/third_party/cmsis_nn/Include/arm_nnsupportfunctions.h ****   @brief         Read 4 s8 from s8 pointer and post increment pointer.
ARM GAS  /tmp/cc6Z6mIk.s 			page 21


 583:Middlewares/tensorflow/third_party/cmsis_nn/Include/arm_nnsupportfunctions.h ****   @param[in]     in_s8       Pointer to pointer that holds address of input.
 584:Middlewares/tensorflow/third_party/cmsis_nn/Include/arm_nnsupportfunctions.h ****   @return        q31 value
 585:Middlewares/tensorflow/third_party/cmsis_nn/Include/arm_nnsupportfunctions.h ****  */
 586:Middlewares/tensorflow/third_party/cmsis_nn/Include/arm_nnsupportfunctions.h **** __STATIC_FORCEINLINE int32_t arm_nn_read_s8x4_ia(const int8_t **in_s8)
 186              		.loc 2 586 30 view .LVU52
 187              	.LBB539:
 587:Middlewares/tensorflow/third_party/cmsis_nn/Include/arm_nnsupportfunctions.h **** {
 588:Middlewares/tensorflow/third_party/cmsis_nn/Include/arm_nnsupportfunctions.h ****     int32_t val;
 188              		.loc 2 588 5 view .LVU53
 589:Middlewares/tensorflow/third_party/cmsis_nn/Include/arm_nnsupportfunctions.h ****     memcpy(&val, *in_s8, 4);
 189              		.loc 2 589 5 view .LVU54
 190 0076 54F8047B 		ldr	r7, [r4], #4	@ unaligned
 191              	.LVL24:
 590:Middlewares/tensorflow/third_party/cmsis_nn/Include/arm_nnsupportfunctions.h ****     *in_s8 += 4;
 192              		.loc 2 590 5 view .LVU55
 591:Middlewares/tensorflow/third_party/cmsis_nn/Include/arm_nnsupportfunctions.h **** 
 592:Middlewares/tensorflow/third_party/cmsis_nn/Include/arm_nnsupportfunctions.h ****     return (val);
 193              		.loc 2 592 5 view .LVU56
 194              		.loc 2 592 5 is_stmt 0 view .LVU57
 195              	.LBE539:
 196              	.LBE538:
 369:Middlewares/tensorflow/third_party/cmsis_nn/Source/NNSupportFunctions/arm_nn_mat_mult_nt_t_s8.c ****                 val2 = SXTB16(val1);
 197              		.loc 1 369 17 is_stmt 1 view .LVU58
 198              	.LBB540:
 199              	.LBI540:
 200              		.file 3 "Middlewares/tensorflow/third_party/cmsis_nn/Include/Internal/arm_nn_compiler.h"
   1:Middlewares/tensorflow/third_party/cmsis_nn/Include/Internal/arm_nn_compiler.h **** /*
   2:Middlewares/tensorflow/third_party/cmsis_nn/Include/Internal/arm_nn_compiler.h ****  * SPDX-FileCopyrightText: Copyright 2023 Arm Limited and/or its affiliates <open-source-office@arm
   3:Middlewares/tensorflow/third_party/cmsis_nn/Include/Internal/arm_nn_compiler.h ****  *
   4:Middlewares/tensorflow/third_party/cmsis_nn/Include/Internal/arm_nn_compiler.h ****  * SPDX-License-Identifier: Apache-2.0
   5:Middlewares/tensorflow/third_party/cmsis_nn/Include/Internal/arm_nn_compiler.h ****  *
   6:Middlewares/tensorflow/third_party/cmsis_nn/Include/Internal/arm_nn_compiler.h ****  * Licensed under the Apache License, Version 2.0 (the License); you may
   7:Middlewares/tensorflow/third_party/cmsis_nn/Include/Internal/arm_nn_compiler.h ****  * not use this file except in compliance with the License.
   8:Middlewares/tensorflow/third_party/cmsis_nn/Include/Internal/arm_nn_compiler.h ****  * You may obtain a copy of the License at
   9:Middlewares/tensorflow/third_party/cmsis_nn/Include/Internal/arm_nn_compiler.h ****  *
  10:Middlewares/tensorflow/third_party/cmsis_nn/Include/Internal/arm_nn_compiler.h ****  * www.apache.org/licenses/LICENSE-2.0
  11:Middlewares/tensorflow/third_party/cmsis_nn/Include/Internal/arm_nn_compiler.h ****  *
  12:Middlewares/tensorflow/third_party/cmsis_nn/Include/Internal/arm_nn_compiler.h ****  * Unless required by applicable law or agreed to in writing, software
  13:Middlewares/tensorflow/third_party/cmsis_nn/Include/Internal/arm_nn_compiler.h ****  * distributed under the License is distributed on an AS IS BASIS, WITHOUT
  14:Middlewares/tensorflow/third_party/cmsis_nn/Include/Internal/arm_nn_compiler.h ****  * WARRANTIES OR CONDITIONS OF ANY KIND, either express or implied.
  15:Middlewares/tensorflow/third_party/cmsis_nn/Include/Internal/arm_nn_compiler.h ****  * See the License for the specific language governing permissions and
  16:Middlewares/tensorflow/third_party/cmsis_nn/Include/Internal/arm_nn_compiler.h ****  * limitations under the License.
  17:Middlewares/tensorflow/third_party/cmsis_nn/Include/Internal/arm_nn_compiler.h ****  */
  18:Middlewares/tensorflow/third_party/cmsis_nn/Include/Internal/arm_nn_compiler.h **** 
  19:Middlewares/tensorflow/third_party/cmsis_nn/Include/Internal/arm_nn_compiler.h **** /* ----------------------------------------------------------------------
  20:Middlewares/tensorflow/third_party/cmsis_nn/Include/Internal/arm_nn_compiler.h ****  * Project:      CMSIS NN Library
  21:Middlewares/tensorflow/third_party/cmsis_nn/Include/Internal/arm_nn_compiler.h ****  * Title:        arm_nn_compiler.h
  22:Middlewares/tensorflow/third_party/cmsis_nn/Include/Internal/arm_nn_compiler.h ****  * Description:  Generic compiler header
  23:Middlewares/tensorflow/third_party/cmsis_nn/Include/Internal/arm_nn_compiler.h ****  *
  24:Middlewares/tensorflow/third_party/cmsis_nn/Include/Internal/arm_nn_compiler.h ****  * $Date:        31 January 2023
  25:Middlewares/tensorflow/third_party/cmsis_nn/Include/Internal/arm_nn_compiler.h ****  * $Revision:    V.1.1.0
  26:Middlewares/tensorflow/third_party/cmsis_nn/Include/Internal/arm_nn_compiler.h ****  *
  27:Middlewares/tensorflow/third_party/cmsis_nn/Include/Internal/arm_nn_compiler.h ****  * Target :  Arm(R) M-Profile Architecture
  28:Middlewares/tensorflow/third_party/cmsis_nn/Include/Internal/arm_nn_compiler.h ****  * -------------------------------------------------------------------- */
  29:Middlewares/tensorflow/third_party/cmsis_nn/Include/Internal/arm_nn_compiler.h **** 
  30:Middlewares/tensorflow/third_party/cmsis_nn/Include/Internal/arm_nn_compiler.h **** #ifndef ARM_NN_COMPILER_H
  31:Middlewares/tensorflow/third_party/cmsis_nn/Include/Internal/arm_nn_compiler.h **** #define ARM_NN_COMPILER_H
ARM GAS  /tmp/cc6Z6mIk.s 			page 22


  32:Middlewares/tensorflow/third_party/cmsis_nn/Include/Internal/arm_nn_compiler.h **** #include <stdint.h>
  33:Middlewares/tensorflow/third_party/cmsis_nn/Include/Internal/arm_nn_compiler.h **** 
  34:Middlewares/tensorflow/third_party/cmsis_nn/Include/Internal/arm_nn_compiler.h **** /**
  35:Middlewares/tensorflow/third_party/cmsis_nn/Include/Internal/arm_nn_compiler.h ****  *
  36:Middlewares/tensorflow/third_party/cmsis_nn/Include/Internal/arm_nn_compiler.h ****  * @brief Arm C-Language Extension(ACLE) Includes
  37:Middlewares/tensorflow/third_party/cmsis_nn/Include/Internal/arm_nn_compiler.h ****  *
  38:Middlewares/tensorflow/third_party/cmsis_nn/Include/Internal/arm_nn_compiler.h ****  */
  39:Middlewares/tensorflow/third_party/cmsis_nn/Include/Internal/arm_nn_compiler.h **** 
  40:Middlewares/tensorflow/third_party/cmsis_nn/Include/Internal/arm_nn_compiler.h **** #if defined(__ARMCC_VERSION) && (__ARMCC_VERSION >= 6010050)
  41:Middlewares/tensorflow/third_party/cmsis_nn/Include/Internal/arm_nn_compiler.h **** 
  42:Middlewares/tensorflow/third_party/cmsis_nn/Include/Internal/arm_nn_compiler.h ****     #ifndef __ASM
  43:Middlewares/tensorflow/third_party/cmsis_nn/Include/Internal/arm_nn_compiler.h ****         #define __ASM __asm
  44:Middlewares/tensorflow/third_party/cmsis_nn/Include/Internal/arm_nn_compiler.h ****     #endif
  45:Middlewares/tensorflow/third_party/cmsis_nn/Include/Internal/arm_nn_compiler.h ****     #ifndef __INLINE
  46:Middlewares/tensorflow/third_party/cmsis_nn/Include/Internal/arm_nn_compiler.h ****         #define __INLINE __inline
  47:Middlewares/tensorflow/third_party/cmsis_nn/Include/Internal/arm_nn_compiler.h ****     #endif
  48:Middlewares/tensorflow/third_party/cmsis_nn/Include/Internal/arm_nn_compiler.h ****     #ifndef __STATIC_INLINE
  49:Middlewares/tensorflow/third_party/cmsis_nn/Include/Internal/arm_nn_compiler.h ****         #define __STATIC_INLINE static __inline
  50:Middlewares/tensorflow/third_party/cmsis_nn/Include/Internal/arm_nn_compiler.h ****     #endif
  51:Middlewares/tensorflow/third_party/cmsis_nn/Include/Internal/arm_nn_compiler.h ****     #ifndef __STATIC_FORCEINLINE
  52:Middlewares/tensorflow/third_party/cmsis_nn/Include/Internal/arm_nn_compiler.h ****         #define __STATIC_FORCEINLINE __attribute__((always_inline)) static __inline
  53:Middlewares/tensorflow/third_party/cmsis_nn/Include/Internal/arm_nn_compiler.h ****     #endif
  54:Middlewares/tensorflow/third_party/cmsis_nn/Include/Internal/arm_nn_compiler.h ****     #ifndef __RESTRICT
  55:Middlewares/tensorflow/third_party/cmsis_nn/Include/Internal/arm_nn_compiler.h ****         #define __RESTRICT __restrict
  56:Middlewares/tensorflow/third_party/cmsis_nn/Include/Internal/arm_nn_compiler.h ****     #endif
  57:Middlewares/tensorflow/third_party/cmsis_nn/Include/Internal/arm_nn_compiler.h **** 
  58:Middlewares/tensorflow/third_party/cmsis_nn/Include/Internal/arm_nn_compiler.h **** #elif defined(__ICCARM__)
  59:Middlewares/tensorflow/third_party/cmsis_nn/Include/Internal/arm_nn_compiler.h **** 
  60:Middlewares/tensorflow/third_party/cmsis_nn/Include/Internal/arm_nn_compiler.h ****     // #warning IAR support is not tested
  61:Middlewares/tensorflow/third_party/cmsis_nn/Include/Internal/arm_nn_compiler.h ****     #ifndef __ASM
  62:Middlewares/tensorflow/third_party/cmsis_nn/Include/Internal/arm_nn_compiler.h ****         #define __ASM __asm
  63:Middlewares/tensorflow/third_party/cmsis_nn/Include/Internal/arm_nn_compiler.h ****     #endif
  64:Middlewares/tensorflow/third_party/cmsis_nn/Include/Internal/arm_nn_compiler.h ****     #ifndef __INLINE
  65:Middlewares/tensorflow/third_party/cmsis_nn/Include/Internal/arm_nn_compiler.h ****         #define __INLINE inline
  66:Middlewares/tensorflow/third_party/cmsis_nn/Include/Internal/arm_nn_compiler.h ****     #endif
  67:Middlewares/tensorflow/third_party/cmsis_nn/Include/Internal/arm_nn_compiler.h ****     #ifndef __STATIC_INLINE
  68:Middlewares/tensorflow/third_party/cmsis_nn/Include/Internal/arm_nn_compiler.h ****         #define __STATIC_INLINE static inline
  69:Middlewares/tensorflow/third_party/cmsis_nn/Include/Internal/arm_nn_compiler.h ****     #endif
  70:Middlewares/tensorflow/third_party/cmsis_nn/Include/Internal/arm_nn_compiler.h ****     #ifndef __FORCEINLINE
  71:Middlewares/tensorflow/third_party/cmsis_nn/Include/Internal/arm_nn_compiler.h ****         #define __FORCEINLINE _Pragma("inline=forced")
  72:Middlewares/tensorflow/third_party/cmsis_nn/Include/Internal/arm_nn_compiler.h ****     #endif
  73:Middlewares/tensorflow/third_party/cmsis_nn/Include/Internal/arm_nn_compiler.h ****     #ifndef __STATIC_FORCEINLINE
  74:Middlewares/tensorflow/third_party/cmsis_nn/Include/Internal/arm_nn_compiler.h ****         #define __STATIC_FORCEINLINE __FORCEINLINE __STATIC_INLINE
  75:Middlewares/tensorflow/third_party/cmsis_nn/Include/Internal/arm_nn_compiler.h ****     #endif
  76:Middlewares/tensorflow/third_party/cmsis_nn/Include/Internal/arm_nn_compiler.h ****     #ifndef __RESTRICT
  77:Middlewares/tensorflow/third_party/cmsis_nn/Include/Internal/arm_nn_compiler.h ****         #define __RESTRICT restrict
  78:Middlewares/tensorflow/third_party/cmsis_nn/Include/Internal/arm_nn_compiler.h ****     #endif
  79:Middlewares/tensorflow/third_party/cmsis_nn/Include/Internal/arm_nn_compiler.h **** 
  80:Middlewares/tensorflow/third_party/cmsis_nn/Include/Internal/arm_nn_compiler.h **** #elif defined(_MSC_VER)
  81:Middlewares/tensorflow/third_party/cmsis_nn/Include/Internal/arm_nn_compiler.h **** 
  82:Middlewares/tensorflow/third_party/cmsis_nn/Include/Internal/arm_nn_compiler.h ****     // Build for non Arm Cortex-M processors is not tested or supported.
  83:Middlewares/tensorflow/third_party/cmsis_nn/Include/Internal/arm_nn_compiler.h ****     // Use this section to stub any macros or intrinsics
  84:Middlewares/tensorflow/third_party/cmsis_nn/Include/Internal/arm_nn_compiler.h ****     #warning Unsupported compiler
  85:Middlewares/tensorflow/third_party/cmsis_nn/Include/Internal/arm_nn_compiler.h ****     #ifndef __STATIC_FORCEINLINE
  86:Middlewares/tensorflow/third_party/cmsis_nn/Include/Internal/arm_nn_compiler.h ****         #define __STATIC_FORCEINLINE static __forceinline
  87:Middlewares/tensorflow/third_party/cmsis_nn/Include/Internal/arm_nn_compiler.h ****     #endif
  88:Middlewares/tensorflow/third_party/cmsis_nn/Include/Internal/arm_nn_compiler.h ****     #ifndef __STATIC_INLINE
ARM GAS  /tmp/cc6Z6mIk.s 			page 23


  89:Middlewares/tensorflow/third_party/cmsis_nn/Include/Internal/arm_nn_compiler.h ****         #define __STATIC_INLINE static __inline
  90:Middlewares/tensorflow/third_party/cmsis_nn/Include/Internal/arm_nn_compiler.h ****     #endif
  91:Middlewares/tensorflow/third_party/cmsis_nn/Include/Internal/arm_nn_compiler.h ****     #ifndef __ALIGNED
  92:Middlewares/tensorflow/third_party/cmsis_nn/Include/Internal/arm_nn_compiler.h ****         #define __ALIGNED(x) __declspec(align(x))
  93:Middlewares/tensorflow/third_party/cmsis_nn/Include/Internal/arm_nn_compiler.h ****     #endif
  94:Middlewares/tensorflow/third_party/cmsis_nn/Include/Internal/arm_nn_compiler.h **** 
  95:Middlewares/tensorflow/third_party/cmsis_nn/Include/Internal/arm_nn_compiler.h **** #elif defined(__GNUC__)
  96:Middlewares/tensorflow/third_party/cmsis_nn/Include/Internal/arm_nn_compiler.h **** 
  97:Middlewares/tensorflow/third_party/cmsis_nn/Include/Internal/arm_nn_compiler.h ****     #ifndef __ASM
  98:Middlewares/tensorflow/third_party/cmsis_nn/Include/Internal/arm_nn_compiler.h ****         #define __ASM __asm
  99:Middlewares/tensorflow/third_party/cmsis_nn/Include/Internal/arm_nn_compiler.h ****     #endif
 100:Middlewares/tensorflow/third_party/cmsis_nn/Include/Internal/arm_nn_compiler.h ****     #ifndef __INLINE
 101:Middlewares/tensorflow/third_party/cmsis_nn/Include/Internal/arm_nn_compiler.h ****         #define __INLINE inline
 102:Middlewares/tensorflow/third_party/cmsis_nn/Include/Internal/arm_nn_compiler.h ****     #endif
 103:Middlewares/tensorflow/third_party/cmsis_nn/Include/Internal/arm_nn_compiler.h ****     #ifndef __STATIC_INLINE
 104:Middlewares/tensorflow/third_party/cmsis_nn/Include/Internal/arm_nn_compiler.h ****         #define __STATIC_INLINE static inline
 105:Middlewares/tensorflow/third_party/cmsis_nn/Include/Internal/arm_nn_compiler.h ****     #endif
 106:Middlewares/tensorflow/third_party/cmsis_nn/Include/Internal/arm_nn_compiler.h ****     #ifndef __STATIC_FORCEINLINE
 107:Middlewares/tensorflow/third_party/cmsis_nn/Include/Internal/arm_nn_compiler.h ****         #define __STATIC_FORCEINLINE __attribute__((always_inline)) static inline
 108:Middlewares/tensorflow/third_party/cmsis_nn/Include/Internal/arm_nn_compiler.h ****     #endif
 109:Middlewares/tensorflow/third_party/cmsis_nn/Include/Internal/arm_nn_compiler.h ****     #ifndef __RESTRICT
 110:Middlewares/tensorflow/third_party/cmsis_nn/Include/Internal/arm_nn_compiler.h ****         #define __RESTRICT __restrict
 111:Middlewares/tensorflow/third_party/cmsis_nn/Include/Internal/arm_nn_compiler.h ****     #endif
 112:Middlewares/tensorflow/third_party/cmsis_nn/Include/Internal/arm_nn_compiler.h **** 
 113:Middlewares/tensorflow/third_party/cmsis_nn/Include/Internal/arm_nn_compiler.h **** #else
 114:Middlewares/tensorflow/third_party/cmsis_nn/Include/Internal/arm_nn_compiler.h **** 
 115:Middlewares/tensorflow/third_party/cmsis_nn/Include/Internal/arm_nn_compiler.h ****     #error Unsupported compiler. Add support as needed
 116:Middlewares/tensorflow/third_party/cmsis_nn/Include/Internal/arm_nn_compiler.h **** 
 117:Middlewares/tensorflow/third_party/cmsis_nn/Include/Internal/arm_nn_compiler.h **** #endif
 118:Middlewares/tensorflow/third_party/cmsis_nn/Include/Internal/arm_nn_compiler.h **** 
 119:Middlewares/tensorflow/third_party/cmsis_nn/Include/Internal/arm_nn_compiler.h **** /**
 120:Middlewares/tensorflow/third_party/cmsis_nn/Include/Internal/arm_nn_compiler.h ****  *
 121:Middlewares/tensorflow/third_party/cmsis_nn/Include/Internal/arm_nn_compiler.h ****  * @brief Compiler specific diagnostic adjustment / fixes if applicable
 122:Middlewares/tensorflow/third_party/cmsis_nn/Include/Internal/arm_nn_compiler.h ****  *
 123:Middlewares/tensorflow/third_party/cmsis_nn/Include/Internal/arm_nn_compiler.h ****  */
 124:Middlewares/tensorflow/third_party/cmsis_nn/Include/Internal/arm_nn_compiler.h **** 
 125:Middlewares/tensorflow/third_party/cmsis_nn/Include/Internal/arm_nn_compiler.h **** // Note: __ARM_ARCH is used with M-profile architecture as the target here.
 126:Middlewares/tensorflow/third_party/cmsis_nn/Include/Internal/arm_nn_compiler.h **** #if defined(__GNUC__)
 127:Middlewares/tensorflow/third_party/cmsis_nn/Include/Internal/arm_nn_compiler.h ****     #if (__GNUC__ == 12 && (__GNUC_MINOR__ <= 2)) && defined(__ARM_ARCH)
 128:Middlewares/tensorflow/third_party/cmsis_nn/Include/Internal/arm_nn_compiler.h ****         // Workaround for 'Internal Compiler Error' on Arm GNU Toolchain rel 12.2.x
 129:Middlewares/tensorflow/third_party/cmsis_nn/Include/Internal/arm_nn_compiler.h ****         // https://gcc.gnu.org/pipermail/gcc-patches/2022-December/607963.html
 130:Middlewares/tensorflow/third_party/cmsis_nn/Include/Internal/arm_nn_compiler.h ****         #define ARM_GCC_12_2_ICE
 131:Middlewares/tensorflow/third_party/cmsis_nn/Include/Internal/arm_nn_compiler.h ****     #endif
 132:Middlewares/tensorflow/third_party/cmsis_nn/Include/Internal/arm_nn_compiler.h **** #endif
 133:Middlewares/tensorflow/third_party/cmsis_nn/Include/Internal/arm_nn_compiler.h **** 
 134:Middlewares/tensorflow/third_party/cmsis_nn/Include/Internal/arm_nn_compiler.h **** #if ((__ARM_FEATURE_MVE & 3) == 3) || (__ARM_FEATURE_MVE & 1)
 135:Middlewares/tensorflow/third_party/cmsis_nn/Include/Internal/arm_nn_compiler.h ****     #include <arm_mve.h>
 136:Middlewares/tensorflow/third_party/cmsis_nn/Include/Internal/arm_nn_compiler.h **** #endif
 137:Middlewares/tensorflow/third_party/cmsis_nn/Include/Internal/arm_nn_compiler.h **** 
 138:Middlewares/tensorflow/third_party/cmsis_nn/Include/Internal/arm_nn_compiler.h **** #if defined(__ARM_ARCH) || defined(__ARM_ACLE)
 139:Middlewares/tensorflow/third_party/cmsis_nn/Include/Internal/arm_nn_compiler.h ****     #include <arm_acle.h>
 140:Middlewares/tensorflow/third_party/cmsis_nn/Include/Internal/arm_nn_compiler.h **** #endif
 141:Middlewares/tensorflow/third_party/cmsis_nn/Include/Internal/arm_nn_compiler.h **** 
 142:Middlewares/tensorflow/third_party/cmsis_nn/Include/Internal/arm_nn_compiler.h **** /**
 143:Middlewares/tensorflow/third_party/cmsis_nn/Include/Internal/arm_nn_compiler.h ****  *
 144:Middlewares/tensorflow/third_party/cmsis_nn/Include/Internal/arm_nn_compiler.h ****  * @brief ACLE and Intrinsics
 145:Middlewares/tensorflow/third_party/cmsis_nn/Include/Internal/arm_nn_compiler.h ****  *
ARM GAS  /tmp/cc6Z6mIk.s 			page 24


 146:Middlewares/tensorflow/third_party/cmsis_nn/Include/Internal/arm_nn_compiler.h ****  */
 147:Middlewares/tensorflow/third_party/cmsis_nn/Include/Internal/arm_nn_compiler.h **** 
 148:Middlewares/tensorflow/third_party/cmsis_nn/Include/Internal/arm_nn_compiler.h **** // Note: Have __GNUC__, that is used to check for GCC , checks at the end
 149:Middlewares/tensorflow/third_party/cmsis_nn/Include/Internal/arm_nn_compiler.h **** // as __GNUC__ is defined by non-GCC compilers as well
 150:Middlewares/tensorflow/third_party/cmsis_nn/Include/Internal/arm_nn_compiler.h **** 
 151:Middlewares/tensorflow/third_party/cmsis_nn/Include/Internal/arm_nn_compiler.h **** /* Common intrinsics for all architectures */
 152:Middlewares/tensorflow/third_party/cmsis_nn/Include/Internal/arm_nn_compiler.h **** #if defined(__ARMCC_VERSION) && (__ARMCC_VERSION >= 6010050) || defined(__ICCARM__)
 153:Middlewares/tensorflow/third_party/cmsis_nn/Include/Internal/arm_nn_compiler.h ****     #define CLZ __clz
 154:Middlewares/tensorflow/third_party/cmsis_nn/Include/Internal/arm_nn_compiler.h **** #elif defined(__GNUC__)
 155:Middlewares/tensorflow/third_party/cmsis_nn/Include/Internal/arm_nn_compiler.h **** /**
 156:Middlewares/tensorflow/third_party/cmsis_nn/Include/Internal/arm_nn_compiler.h ****   \brief   Count leading zeros
 157:Middlewares/tensorflow/third_party/cmsis_nn/Include/Internal/arm_nn_compiler.h ****   \details Counts the number of leading zeros of a data value.
 158:Middlewares/tensorflow/third_party/cmsis_nn/Include/Internal/arm_nn_compiler.h ****   \param [in]  value  Value to count the leading zeros
 159:Middlewares/tensorflow/third_party/cmsis_nn/Include/Internal/arm_nn_compiler.h ****   \return             number of leading zeros in value
 160:Middlewares/tensorflow/third_party/cmsis_nn/Include/Internal/arm_nn_compiler.h ****  */
 161:Middlewares/tensorflow/third_party/cmsis_nn/Include/Internal/arm_nn_compiler.h **** __STATIC_FORCEINLINE uint8_t CLZ(uint32_t value)
 162:Middlewares/tensorflow/third_party/cmsis_nn/Include/Internal/arm_nn_compiler.h **** {
 163:Middlewares/tensorflow/third_party/cmsis_nn/Include/Internal/arm_nn_compiler.h ****     /* Even though __builtin_clz produces a CLZ instruction on ARM, formally
 164:Middlewares/tensorflow/third_party/cmsis_nn/Include/Internal/arm_nn_compiler.h ****        __builtin_clz(0) is undefined behaviour, so handle this case specially.
 165:Middlewares/tensorflow/third_party/cmsis_nn/Include/Internal/arm_nn_compiler.h ****        This guarantees Arm-compatible results if compiling on a non-Arm
 166:Middlewares/tensorflow/third_party/cmsis_nn/Include/Internal/arm_nn_compiler.h ****        target, and ensures the compiler doesn't decide to activate any
 167:Middlewares/tensorflow/third_party/cmsis_nn/Include/Internal/arm_nn_compiler.h ****        optimisations using the logic "value was passed to __builtin_clz, so it
 168:Middlewares/tensorflow/third_party/cmsis_nn/Include/Internal/arm_nn_compiler.h ****        is non-zero".
 169:Middlewares/tensorflow/third_party/cmsis_nn/Include/Internal/arm_nn_compiler.h ****        ARM GCC 7.3 and possibly earlier will optimise this test away, leaving a
 170:Middlewares/tensorflow/third_party/cmsis_nn/Include/Internal/arm_nn_compiler.h ****        single CLZ instruction.
 171:Middlewares/tensorflow/third_party/cmsis_nn/Include/Internal/arm_nn_compiler.h ****      */
 172:Middlewares/tensorflow/third_party/cmsis_nn/Include/Internal/arm_nn_compiler.h ****     if (value == 0U)
 173:Middlewares/tensorflow/third_party/cmsis_nn/Include/Internal/arm_nn_compiler.h ****     {
 174:Middlewares/tensorflow/third_party/cmsis_nn/Include/Internal/arm_nn_compiler.h ****         return 32U;
 175:Middlewares/tensorflow/third_party/cmsis_nn/Include/Internal/arm_nn_compiler.h ****     }
 176:Middlewares/tensorflow/third_party/cmsis_nn/Include/Internal/arm_nn_compiler.h ****     return __builtin_clz(value);
 177:Middlewares/tensorflow/third_party/cmsis_nn/Include/Internal/arm_nn_compiler.h **** }
 178:Middlewares/tensorflow/third_party/cmsis_nn/Include/Internal/arm_nn_compiler.h **** #endif
 179:Middlewares/tensorflow/third_party/cmsis_nn/Include/Internal/arm_nn_compiler.h **** 
 180:Middlewares/tensorflow/third_party/cmsis_nn/Include/Internal/arm_nn_compiler.h **** // ACLE intrinsics under groups __ARM_FEATURE_QBIT, __ARM_FEATURE_DSP , __ARM_FEATURE_SAT, __ARM_FE
 181:Middlewares/tensorflow/third_party/cmsis_nn/Include/Internal/arm_nn_compiler.h **** 
 182:Middlewares/tensorflow/third_party/cmsis_nn/Include/Internal/arm_nn_compiler.h **** // Note: Just __ARM_FEATURE_DSP is checked to collect all intrinsics from the above mentioned group
 183:Middlewares/tensorflow/third_party/cmsis_nn/Include/Internal/arm_nn_compiler.h **** 
 184:Middlewares/tensorflow/third_party/cmsis_nn/Include/Internal/arm_nn_compiler.h **** #if (defined(__ARM_FEATURE_DSP) && (__ARM_FEATURE_DSP == 1))
 185:Middlewares/tensorflow/third_party/cmsis_nn/Include/Internal/arm_nn_compiler.h **** 
 186:Middlewares/tensorflow/third_party/cmsis_nn/Include/Internal/arm_nn_compiler.h ****     // Common intrinsics
 187:Middlewares/tensorflow/third_party/cmsis_nn/Include/Internal/arm_nn_compiler.h ****     #define SMLABB __smlabb
 188:Middlewares/tensorflow/third_party/cmsis_nn/Include/Internal/arm_nn_compiler.h ****     #define SMLATT __smlatt
 189:Middlewares/tensorflow/third_party/cmsis_nn/Include/Internal/arm_nn_compiler.h ****     #define QADD __qadd
 190:Middlewares/tensorflow/third_party/cmsis_nn/Include/Internal/arm_nn_compiler.h ****     #define QSUB8 __qsub8
 191:Middlewares/tensorflow/third_party/cmsis_nn/Include/Internal/arm_nn_compiler.h ****     #define QSUB16 __qsub16
 192:Middlewares/tensorflow/third_party/cmsis_nn/Include/Internal/arm_nn_compiler.h ****     #define SADD16 __sadd16
 193:Middlewares/tensorflow/third_party/cmsis_nn/Include/Internal/arm_nn_compiler.h **** 
 194:Middlewares/tensorflow/third_party/cmsis_nn/Include/Internal/arm_nn_compiler.h ****     // Compiler specifc variants of intrinsics. Create a new section or file for IAR if needed
 195:Middlewares/tensorflow/third_party/cmsis_nn/Include/Internal/arm_nn_compiler.h ****     #if defined(__ARMCC_VERSION) && (__ARMCC_VERSION >= 6010050) || defined(__ICCARM__)
 196:Middlewares/tensorflow/third_party/cmsis_nn/Include/Internal/arm_nn_compiler.h **** 
 197:Middlewares/tensorflow/third_party/cmsis_nn/Include/Internal/arm_nn_compiler.h ****         #define SMULBB __smulbb
 198:Middlewares/tensorflow/third_party/cmsis_nn/Include/Internal/arm_nn_compiler.h ****         #define SMULTT __smultt
 199:Middlewares/tensorflow/third_party/cmsis_nn/Include/Internal/arm_nn_compiler.h ****         #define ROR __ror
 200:Middlewares/tensorflow/third_party/cmsis_nn/Include/Internal/arm_nn_compiler.h ****         #define SXTB16 __sxtb16
 201:Middlewares/tensorflow/third_party/cmsis_nn/Include/Internal/arm_nn_compiler.h ****         #define SXTAB16 __sxtab16
 202:Middlewares/tensorflow/third_party/cmsis_nn/Include/Internal/arm_nn_compiler.h ****         #define SXTB16_RORn(ARG1, ARG2) SXTB16(ROR(ARG1, ARG2))
ARM GAS  /tmp/cc6Z6mIk.s 			page 25


 203:Middlewares/tensorflow/third_party/cmsis_nn/Include/Internal/arm_nn_compiler.h ****         #define SXTAB16_RORn(ARG1, ARG2, ARG3) SXTAB16(ARG1, ROR(ARG2, ARG3))
 204:Middlewares/tensorflow/third_party/cmsis_nn/Include/Internal/arm_nn_compiler.h ****         #define SMLAD __smlad
 205:Middlewares/tensorflow/third_party/cmsis_nn/Include/Internal/arm_nn_compiler.h ****         // PKH<XY> translates into pkh<xy> on AC6
 206:Middlewares/tensorflow/third_party/cmsis_nn/Include/Internal/arm_nn_compiler.h ****         #define PKHBT(ARG1, ARG2, ARG3)                                                            
 207:Middlewares/tensorflow/third_party/cmsis_nn/Include/Internal/arm_nn_compiler.h ****             (((((uint32_t)(ARG1))) & 0x0000FFFFUL) | ((((uint32_t)(ARG2)) << (ARG3)) & 0xFFFF0000UL
 208:Middlewares/tensorflow/third_party/cmsis_nn/Include/Internal/arm_nn_compiler.h ****         #define PKHTB(ARG1, ARG2, ARG3)                                                            
 209:Middlewares/tensorflow/third_party/cmsis_nn/Include/Internal/arm_nn_compiler.h ****             (((((uint32_t)(ARG1))) & 0xFFFF0000UL) | ((((uint32_t)(ARG2)) >> (ARG3)) & 0x0000FFFFUL
 210:Middlewares/tensorflow/third_party/cmsis_nn/Include/Internal/arm_nn_compiler.h **** 
 211:Middlewares/tensorflow/third_party/cmsis_nn/Include/Internal/arm_nn_compiler.h ****     #elif defined(__GNUC__)
 212:Middlewares/tensorflow/third_party/cmsis_nn/Include/Internal/arm_nn_compiler.h **** 
 213:Middlewares/tensorflow/third_party/cmsis_nn/Include/Internal/arm_nn_compiler.h ****         #define PKHBT(ARG1, ARG2, ARG3)                                                            
 214:Middlewares/tensorflow/third_party/cmsis_nn/Include/Internal/arm_nn_compiler.h ****             __extension__({                                                                        
 215:Middlewares/tensorflow/third_party/cmsis_nn/Include/Internal/arm_nn_compiler.h ****                 uint32_t __RES, __ARG1 = (ARG1), __ARG2 = (ARG2);                                  
 216:Middlewares/tensorflow/third_party/cmsis_nn/Include/Internal/arm_nn_compiler.h ****                 __ASM("pkhbt %0, %1, %2, lsl %3" : "=r"(__RES) : "r"(__ARG1), "r"(__ARG2), "I"(ARG3
 217:Middlewares/tensorflow/third_party/cmsis_nn/Include/Internal/arm_nn_compiler.h ****                 __RES;                                                                             
 218:Middlewares/tensorflow/third_party/cmsis_nn/Include/Internal/arm_nn_compiler.h ****             })
 219:Middlewares/tensorflow/third_party/cmsis_nn/Include/Internal/arm_nn_compiler.h ****         #define PKHTB(ARG1, ARG2, ARG3)                                                            
 220:Middlewares/tensorflow/third_party/cmsis_nn/Include/Internal/arm_nn_compiler.h ****             __extension__({                                                                        
 221:Middlewares/tensorflow/third_party/cmsis_nn/Include/Internal/arm_nn_compiler.h ****                 uint32_t __RES, __ARG1 = (ARG1), __ARG2 = (ARG2);                                  
 222:Middlewares/tensorflow/third_party/cmsis_nn/Include/Internal/arm_nn_compiler.h ****                 if (ARG3 == 0)                                                                     
 223:Middlewares/tensorflow/third_party/cmsis_nn/Include/Internal/arm_nn_compiler.h ****                     __ASM("pkhtb %0, %1, %2" : "=r"(__RES) : "r"(__ARG1), "r"(__ARG2));            
 224:Middlewares/tensorflow/third_party/cmsis_nn/Include/Internal/arm_nn_compiler.h ****                 else                                                                               
 225:Middlewares/tensorflow/third_party/cmsis_nn/Include/Internal/arm_nn_compiler.h ****                     __ASM("pkhtb %0, %1, %2, asr %3" : "=r"(__RES) : "r"(__ARG1), "r"(__ARG2), "I"(
 226:Middlewares/tensorflow/third_party/cmsis_nn/Include/Internal/arm_nn_compiler.h ****                 __RES;                                                                             
 227:Middlewares/tensorflow/third_party/cmsis_nn/Include/Internal/arm_nn_compiler.h ****             })
 228:Middlewares/tensorflow/third_party/cmsis_nn/Include/Internal/arm_nn_compiler.h **** 
 229:Middlewares/tensorflow/third_party/cmsis_nn/Include/Internal/arm_nn_compiler.h **** __STATIC_FORCEINLINE uint32_t SXTAB16(uint32_t op1, uint32_t op2)
 230:Middlewares/tensorflow/third_party/cmsis_nn/Include/Internal/arm_nn_compiler.h **** {
 231:Middlewares/tensorflow/third_party/cmsis_nn/Include/Internal/arm_nn_compiler.h ****     uint32_t result;
 232:Middlewares/tensorflow/third_party/cmsis_nn/Include/Internal/arm_nn_compiler.h **** 
 233:Middlewares/tensorflow/third_party/cmsis_nn/Include/Internal/arm_nn_compiler.h ****     __ASM("sxtab16 %0, %1, %2" : "=r"(result) : "r"(op1), "r"(op2));
 234:Middlewares/tensorflow/third_party/cmsis_nn/Include/Internal/arm_nn_compiler.h ****     return (result);
 235:Middlewares/tensorflow/third_party/cmsis_nn/Include/Internal/arm_nn_compiler.h **** }
 236:Middlewares/tensorflow/third_party/cmsis_nn/Include/Internal/arm_nn_compiler.h **** 
 237:Middlewares/tensorflow/third_party/cmsis_nn/Include/Internal/arm_nn_compiler.h **** __STATIC_FORCEINLINE uint32_t SXTB16(uint32_t op1)
 201              		.loc 3 237 31 view .LVU59
 202              	.LBB541:
 238:Middlewares/tensorflow/third_party/cmsis_nn/Include/Internal/arm_nn_compiler.h **** {
 239:Middlewares/tensorflow/third_party/cmsis_nn/Include/Internal/arm_nn_compiler.h ****     uint32_t result;
 203              		.loc 3 239 5 view .LVU60
 240:Middlewares/tensorflow/third_party/cmsis_nn/Include/Internal/arm_nn_compiler.h **** 
 241:Middlewares/tensorflow/third_party/cmsis_nn/Include/Internal/arm_nn_compiler.h ****     __ASM("sxtb16 %0, %1" : "=r"(result) : "r"(op1));
 204              		.loc 3 241 5 view .LVU61
 205              		.syntax unified
 206              	@ 241 "Middlewares/tensorflow/third_party/cmsis_nn/Include/Internal/arm_nn_compiler.h" 1
 207 007a 2FFA87F8 		sxtb16 r8, r7
 208              	@ 0 "" 2
 209              	.LVL25:
 242:Middlewares/tensorflow/third_party/cmsis_nn/Include/Internal/arm_nn_compiler.h ****     return (result);
 210              		.loc 3 242 5 view .LVU62
 211              		.loc 3 242 5 is_stmt 0 view .LVU63
 212              		.thumb
 213              		.syntax unified
 214              	.LBE541:
 215              	.LBE540:
 370:Middlewares/tensorflow/third_party/cmsis_nn/Source/NNSupportFunctions/arm_nn_mat_mult_nt_t_s8.c ****                 val0 = arm_nn_read_s8x4_ia((const int8_t **)&lhs_ptr);
 216              		.loc 1 370 17 is_stmt 1 view .LVU64
ARM GAS  /tmp/cc6Z6mIk.s 			page 26


 217              	.LBB542:
 218              	.LBI542:
 586:Middlewares/tensorflow/third_party/cmsis_nn/Include/arm_nnsupportfunctions.h **** {
 219              		.loc 2 586 30 view .LVU65
 220              	.LBB543:
 588:Middlewares/tensorflow/third_party/cmsis_nn/Include/arm_nnsupportfunctions.h ****     memcpy(&val, *in_s8, 4);
 221              		.loc 2 588 5 view .LVU66
 589:Middlewares/tensorflow/third_party/cmsis_nn/Include/arm_nnsupportfunctions.h ****     *in_s8 += 4;
 222              		.loc 2 589 5 view .LVU67
 223 007e 55F8049B 		ldr	r9, [r5], #4	@ unaligned
 224              	.LVL26:
 590:Middlewares/tensorflow/third_party/cmsis_nn/Include/arm_nnsupportfunctions.h **** 
 225              		.loc 2 590 5 view .LVU68
 226              		.loc 2 592 5 view .LVU69
 227              		.loc 2 592 5 is_stmt 0 view .LVU70
 228              	.LBE543:
 229              	.LBE542:
 371:Middlewares/tensorflow/third_party/cmsis_nn/Source/NNSupportFunctions/arm_nn_mat_mult_nt_t_s8.c ****                 val3 = SXTB16(val0);
 230              		.loc 1 371 17 is_stmt 1 view .LVU71
 231              	.LBB544:
 232              	.LBI544:
 237:Middlewares/tensorflow/third_party/cmsis_nn/Include/Internal/arm_nn_compiler.h **** {
 233              		.loc 3 237 31 view .LVU72
 234              	.LBB545:
 239:Middlewares/tensorflow/third_party/cmsis_nn/Include/Internal/arm_nn_compiler.h **** 
 235              		.loc 3 239 5 view .LVU73
 241:Middlewares/tensorflow/third_party/cmsis_nn/Include/Internal/arm_nn_compiler.h ****     return (result);
 236              		.loc 3 241 5 view .LVU74
 237              		.syntax unified
 238              	@ 241 "Middlewares/tensorflow/third_party/cmsis_nn/Include/Internal/arm_nn_compiler.h" 1
 239 0082 2FFA89F6 		sxtb16 r6, r9
 240              	@ 0 "" 2
 241              	.LVL27:
 242              		.loc 3 242 5 view .LVU75
 243              		.loc 3 242 5 is_stmt 0 view .LVU76
 244              		.thumb
 245              		.syntax unified
 246              	.LBE545:
 247              	.LBE544:
 372:Middlewares/tensorflow/third_party/cmsis_nn/Source/NNSupportFunctions/arm_nn_mat_mult_nt_t_s8.c ****                 val4 = arm_nn_read_s8x4((const int8_t *)&rhs_ptr[off0]);
 248              		.loc 1 372 17 is_stmt 1 view .LVU77
 249              		.loc 1 372 17 is_stmt 0 view .LVU78
 250              	.LBE537:
 251              	.LBE535:
 252              	.LBE534:
 593:Middlewares/tensorflow/third_party/cmsis_nn/Include/arm_nnsupportfunctions.h **** }
 594:Middlewares/tensorflow/third_party/cmsis_nn/Include/arm_nnsupportfunctions.h **** 
 595:Middlewares/tensorflow/third_party/cmsis_nn/Include/arm_nnsupportfunctions.h **** /**
 596:Middlewares/tensorflow/third_party/cmsis_nn/Include/arm_nnsupportfunctions.h ****   @brief         Read 2 int16 values from int16 pointer.
 597:Middlewares/tensorflow/third_party/cmsis_nn/Include/arm_nnsupportfunctions.h ****   @param[in]     in     pointer to address of input.
 598:Middlewares/tensorflow/third_party/cmsis_nn/Include/arm_nnsupportfunctions.h ****   @return        s32    value
 599:Middlewares/tensorflow/third_party/cmsis_nn/Include/arm_nnsupportfunctions.h ****  */
 600:Middlewares/tensorflow/third_party/cmsis_nn/Include/arm_nnsupportfunctions.h **** __STATIC_FORCEINLINE int32_t arm_nn_read_s16x2(const int16_t *in)
 601:Middlewares/tensorflow/third_party/cmsis_nn/Include/arm_nnsupportfunctions.h **** {
 602:Middlewares/tensorflow/third_party/cmsis_nn/Include/arm_nnsupportfunctions.h ****     int32_t val;
 603:Middlewares/tensorflow/third_party/cmsis_nn/Include/arm_nnsupportfunctions.h ****     memcpy(&val, in, 4);
 604:Middlewares/tensorflow/third_party/cmsis_nn/Include/arm_nnsupportfunctions.h **** 
ARM GAS  /tmp/cc6Z6mIk.s 			page 27


 605:Middlewares/tensorflow/third_party/cmsis_nn/Include/arm_nnsupportfunctions.h ****     return (val);
 606:Middlewares/tensorflow/third_party/cmsis_nn/Include/arm_nnsupportfunctions.h **** }
 607:Middlewares/tensorflow/third_party/cmsis_nn/Include/arm_nnsupportfunctions.h **** 
 608:Middlewares/tensorflow/third_party/cmsis_nn/Include/arm_nnsupportfunctions.h **** /**
 609:Middlewares/tensorflow/third_party/cmsis_nn/Include/arm_nnsupportfunctions.h ****   @brief         Read 4 s8 values.
 610:Middlewares/tensorflow/third_party/cmsis_nn/Include/arm_nnsupportfunctions.h ****   @param[in]     in_s8       pointer to address of input.
 611:Middlewares/tensorflow/third_party/cmsis_nn/Include/arm_nnsupportfunctions.h ****   @return        s32 value
 612:Middlewares/tensorflow/third_party/cmsis_nn/Include/arm_nnsupportfunctions.h ****  */
 613:Middlewares/tensorflow/third_party/cmsis_nn/Include/arm_nnsupportfunctions.h **** __STATIC_FORCEINLINE int32_t arm_nn_read_s8x4(const int8_t *in_s8)
 614:Middlewares/tensorflow/third_party/cmsis_nn/Include/arm_nnsupportfunctions.h **** {
 615:Middlewares/tensorflow/third_party/cmsis_nn/Include/arm_nnsupportfunctions.h ****     int32_t val;
 253              		.loc 2 615 5 is_stmt 1 view .LVU79
 616:Middlewares/tensorflow/third_party/cmsis_nn/Include/arm_nnsupportfunctions.h ****     memcpy(&val, in_s8, 4);
 254              		.loc 2 616 5 view .LVU80
 255 0086 009B     		ldr	r3, [sp]
 256 0088 54F803E0 		ldr	lr, [r4, r3]	@ unaligned
 257              	.LVL28:
 617:Middlewares/tensorflow/third_party/cmsis_nn/Include/arm_nnsupportfunctions.h **** 
 618:Middlewares/tensorflow/third_party/cmsis_nn/Include/arm_nnsupportfunctions.h ****     return (val);
 258              		.loc 2 618 5 view .LVU81
 259              	.LBB934:
 260              	.LBB912:
 261              	.LBB755:
 373:Middlewares/tensorflow/third_party/cmsis_nn/Source/NNSupportFunctions/arm_nn_mat_mult_nt_t_s8.c ****                 val1 = SXTB16_RORn(val1, 8);
 262              		.loc 1 373 17 view .LVU82
 263              	.LBB546:
 264              	.LBI546:
 243:Middlewares/tensorflow/third_party/cmsis_nn/Include/Internal/arm_nn_compiler.h **** }
 244:Middlewares/tensorflow/third_party/cmsis_nn/Include/Internal/arm_nn_compiler.h **** 
 245:Middlewares/tensorflow/third_party/cmsis_nn/Include/Internal/arm_nn_compiler.h **** // __smlad is defined by GCC, but results in a performance drop(Tested on Arm GNU Toolchain version
 246:Middlewares/tensorflow/third_party/cmsis_nn/Include/Internal/arm_nn_compiler.h **** __STATIC_FORCEINLINE uint32_t SMLAD(uint32_t op1, uint32_t op2, uint32_t op3)
 247:Middlewares/tensorflow/third_party/cmsis_nn/Include/Internal/arm_nn_compiler.h **** {
 248:Middlewares/tensorflow/third_party/cmsis_nn/Include/Internal/arm_nn_compiler.h ****     uint32_t result;
 249:Middlewares/tensorflow/third_party/cmsis_nn/Include/Internal/arm_nn_compiler.h **** 
 250:Middlewares/tensorflow/third_party/cmsis_nn/Include/Internal/arm_nn_compiler.h ****     __ASM volatile("smlad %0, %1, %2, %3" : "=r"(result) : "r"(op1), "r"(op2), "r"(op3));
 251:Middlewares/tensorflow/third_party/cmsis_nn/Include/Internal/arm_nn_compiler.h ****     return (result);
 252:Middlewares/tensorflow/third_party/cmsis_nn/Include/Internal/arm_nn_compiler.h **** }
 253:Middlewares/tensorflow/third_party/cmsis_nn/Include/Internal/arm_nn_compiler.h **** 
 254:Middlewares/tensorflow/third_party/cmsis_nn/Include/Internal/arm_nn_compiler.h **** __STATIC_FORCEINLINE uint32_t ROR(uint32_t op1, uint32_t op2)
 255:Middlewares/tensorflow/third_party/cmsis_nn/Include/Internal/arm_nn_compiler.h **** {
 256:Middlewares/tensorflow/third_party/cmsis_nn/Include/Internal/arm_nn_compiler.h ****     op2 %= 32U;
 257:Middlewares/tensorflow/third_party/cmsis_nn/Include/Internal/arm_nn_compiler.h ****     if (op2 == 0U)
 258:Middlewares/tensorflow/third_party/cmsis_nn/Include/Internal/arm_nn_compiler.h ****     {
 259:Middlewares/tensorflow/third_party/cmsis_nn/Include/Internal/arm_nn_compiler.h ****         return op1;
 260:Middlewares/tensorflow/third_party/cmsis_nn/Include/Internal/arm_nn_compiler.h ****     }
 261:Middlewares/tensorflow/third_party/cmsis_nn/Include/Internal/arm_nn_compiler.h ****     return (op1 >> op2) | (op1 << (32U - op2));
 262:Middlewares/tensorflow/third_party/cmsis_nn/Include/Internal/arm_nn_compiler.h **** }
 263:Middlewares/tensorflow/third_party/cmsis_nn/Include/Internal/arm_nn_compiler.h **** 
 264:Middlewares/tensorflow/third_party/cmsis_nn/Include/Internal/arm_nn_compiler.h **** __STATIC_FORCEINLINE uint32_t SXTB16_RORn(uint32_t op1, uint32_t rotate)
 265              		.loc 3 264 31 view .LVU83
 266              	.LBB547:
 265:Middlewares/tensorflow/third_party/cmsis_nn/Include/Internal/arm_nn_compiler.h **** {
 266:Middlewares/tensorflow/third_party/cmsis_nn/Include/Internal/arm_nn_compiler.h ****     uint32_t result;
 267              		.loc 3 266 5 view .LVU84
 267:Middlewares/tensorflow/third_party/cmsis_nn/Include/Internal/arm_nn_compiler.h ****     if (__builtin_constant_p(rotate) && ((rotate == 8U) || (rotate == 16U) || (rotate == 24U)))
 268              		.loc 3 267 5 view .LVU85
 268:Middlewares/tensorflow/third_party/cmsis_nn/Include/Internal/arm_nn_compiler.h ****     {
ARM GAS  /tmp/cc6Z6mIk.s 			page 28


 269:Middlewares/tensorflow/third_party/cmsis_nn/Include/Internal/arm_nn_compiler.h ****         __ASM volatile("sxtb16 %0, %1, ROR %2" : "=r"(result) : "r"(op1), "i"(rotate));
 269              		.loc 3 269 9 view .LVU86
 270              		.syntax unified
 271              	@ 269 "Middlewares/tensorflow/third_party/cmsis_nn/Include/Internal/arm_nn_compiler.h" 1
 272 008c 2FFA97F7 		sxtb16 r7, r7, ROR #8
 273              	@ 0 "" 2
 274              	.LVL29:
 270:Middlewares/tensorflow/third_party/cmsis_nn/Include/Internal/arm_nn_compiler.h ****     }
 271:Middlewares/tensorflow/third_party/cmsis_nn/Include/Internal/arm_nn_compiler.h ****     else
 272:Middlewares/tensorflow/third_party/cmsis_nn/Include/Internal/arm_nn_compiler.h ****     {
 273:Middlewares/tensorflow/third_party/cmsis_nn/Include/Internal/arm_nn_compiler.h ****         result = SXTB16(ROR(op1, rotate));
 274:Middlewares/tensorflow/third_party/cmsis_nn/Include/Internal/arm_nn_compiler.h ****     }
 275:Middlewares/tensorflow/third_party/cmsis_nn/Include/Internal/arm_nn_compiler.h ****     return result;
 275              		.loc 3 275 5 view .LVU87
 276              		.loc 3 275 5 is_stmt 0 view .LVU88
 277              		.thumb
 278              		.syntax unified
 279              	.LBE547:
 280              	.LBE546:
 374:Middlewares/tensorflow/third_party/cmsis_nn/Source/NNSupportFunctions/arm_nn_mat_mult_nt_t_s8.c ****                 val0 = SXTB16_RORn(val0, 8);
 281              		.loc 1 374 17 is_stmt 1 view .LVU89
 282              	.LBB548:
 283              	.LBI548:
 264:Middlewares/tensorflow/third_party/cmsis_nn/Include/Internal/arm_nn_compiler.h **** {
 284              		.loc 3 264 31 view .LVU90
 285              	.LBB549:
 266:Middlewares/tensorflow/third_party/cmsis_nn/Include/Internal/arm_nn_compiler.h ****     if (__builtin_constant_p(rotate) && ((rotate == 8U) || (rotate == 16U) || (rotate == 24U)))
 286              		.loc 3 266 5 view .LVU91
 267:Middlewares/tensorflow/third_party/cmsis_nn/Include/Internal/arm_nn_compiler.h ****     {
 287              		.loc 3 267 5 view .LVU92
 269:Middlewares/tensorflow/third_party/cmsis_nn/Include/Internal/arm_nn_compiler.h ****     }
 288              		.loc 3 269 9 view .LVU93
 289              		.syntax unified
 290              	@ 269 "Middlewares/tensorflow/third_party/cmsis_nn/Include/Internal/arm_nn_compiler.h" 1
 291 0090 2FFA99F9 		sxtb16 r9, r9, ROR #8
 292              	@ 0 "" 2
 293              	.LVL30:
 294              		.loc 3 275 5 view .LVU94
 295              		.loc 3 275 5 is_stmt 0 view .LVU95
 296              		.thumb
 297              		.syntax unified
 298              	.LBE549:
 299              	.LBE548:
 375:Middlewares/tensorflow/third_party/cmsis_nn/Source/NNSupportFunctions/arm_nn_mat_mult_nt_t_s8.c **** 
 376:Middlewares/tensorflow/third_party/cmsis_nn/Source/NNSupportFunctions/arm_nn_mat_mult_nt_t_s8.c ****                 // 4 x MAC res00, res01
 377:Middlewares/tensorflow/third_party/cmsis_nn/Source/NNSupportFunctions/arm_nn_mat_mult_nt_t_s8.c ****                 res00 = SMLAD(val3, val2, res00);
 300              		.loc 1 377 17 is_stmt 1 view .LVU96
 301              	.LBB550:
 302              	.LBI550:
 246:Middlewares/tensorflow/third_party/cmsis_nn/Include/Internal/arm_nn_compiler.h **** {
 303              		.loc 3 246 31 view .LVU97
 304              	.LBB551:
 248:Middlewares/tensorflow/third_party/cmsis_nn/Include/Internal/arm_nn_compiler.h **** 
 305              		.loc 3 248 5 view .LVU98
 250:Middlewares/tensorflow/third_party/cmsis_nn/Include/Internal/arm_nn_compiler.h ****     return (result);
 306              		.loc 3 250 5 view .LVU99
 307              		.syntax unified
ARM GAS  /tmp/cc6Z6mIk.s 			page 29


 308              	@ 250 "Middlewares/tensorflow/third_party/cmsis_nn/Include/Internal/arm_nn_compiler.h" 1
 309 0094 26FB0800 		smlad r0, r6, r8, r0
 310              	@ 0 "" 2
 311              	.LVL31:
 251:Middlewares/tensorflow/third_party/cmsis_nn/Include/Internal/arm_nn_compiler.h **** }
 312              		.loc 3 251 5 view .LVU100
 251:Middlewares/tensorflow/third_party/cmsis_nn/Include/Internal/arm_nn_compiler.h **** }
 313              		.loc 3 251 5 is_stmt 0 view .LVU101
 314              		.thumb
 315              		.syntax unified
 316              	.LBE551:
 317              	.LBE550:
 378:Middlewares/tensorflow/third_party/cmsis_nn/Source/NNSupportFunctions/arm_nn_mat_mult_nt_t_s8.c ****                 val5 = SXTB16(val4);
 318              		.loc 1 378 17 is_stmt 1 view .LVU102
 319              	.LBB552:
 320              	.LBI552:
 237:Middlewares/tensorflow/third_party/cmsis_nn/Include/Internal/arm_nn_compiler.h **** {
 321              		.loc 3 237 31 view .LVU103
 322              	.LBB553:
 239:Middlewares/tensorflow/third_party/cmsis_nn/Include/Internal/arm_nn_compiler.h **** 
 323              		.loc 3 239 5 view .LVU104
 241:Middlewares/tensorflow/third_party/cmsis_nn/Include/Internal/arm_nn_compiler.h ****     return (result);
 324              		.loc 3 241 5 view .LVU105
 325              		.syntax unified
 326              	@ 241 "Middlewares/tensorflow/third_party/cmsis_nn/Include/Internal/arm_nn_compiler.h" 1
 327 0098 2FFA8EFA 		sxtb16 r10, lr
 328              	@ 0 "" 2
 329              	.LVL32:
 242:Middlewares/tensorflow/third_party/cmsis_nn/Include/Internal/arm_nn_compiler.h **** }
 330              		.loc 3 242 5 view .LVU106
 242:Middlewares/tensorflow/third_party/cmsis_nn/Include/Internal/arm_nn_compiler.h **** }
 331              		.loc 3 242 5 is_stmt 0 view .LVU107
 332              		.thumb
 333              		.syntax unified
 334              	.LBE553:
 335              	.LBE552:
 379:Middlewares/tensorflow/third_party/cmsis_nn/Source/NNSupportFunctions/arm_nn_mat_mult_nt_t_s8.c ****                 res00 = SMLAD(val0, val1, res00);
 336              		.loc 1 379 17 is_stmt 1 view .LVU108
 337              	.LBB554:
 338              	.LBI554:
 246:Middlewares/tensorflow/third_party/cmsis_nn/Include/Internal/arm_nn_compiler.h **** {
 339              		.loc 3 246 31 view .LVU109
 340              	.LBB555:
 248:Middlewares/tensorflow/third_party/cmsis_nn/Include/Internal/arm_nn_compiler.h **** 
 341              		.loc 3 248 5 view .LVU110
 250:Middlewares/tensorflow/third_party/cmsis_nn/Include/Internal/arm_nn_compiler.h ****     return (result);
 342              		.loc 3 250 5 view .LVU111
 343              		.syntax unified
 344              	@ 250 "Middlewares/tensorflow/third_party/cmsis_nn/Include/Internal/arm_nn_compiler.h" 1
 345 009c 29FB0700 		smlad r0, r9, r7, r0
 346              	@ 0 "" 2
 347              	.LVL33:
 251:Middlewares/tensorflow/third_party/cmsis_nn/Include/Internal/arm_nn_compiler.h **** }
 348              		.loc 3 251 5 view .LVU112
 251:Middlewares/tensorflow/third_party/cmsis_nn/Include/Internal/arm_nn_compiler.h **** }
 349              		.loc 3 251 5 is_stmt 0 view .LVU113
 350              		.thumb
ARM GAS  /tmp/cc6Z6mIk.s 			page 30


 351              		.syntax unified
 352              	.LBE555:
 353              	.LBE554:
 380:Middlewares/tensorflow/third_party/cmsis_nn/Source/NNSupportFunctions/arm_nn_mat_mult_nt_t_s8.c ****                 val4 = SXTB16_RORn(val4, 8);
 354              		.loc 1 380 17 is_stmt 1 view .LVU114
 355              	.LBB556:
 356              	.LBI556:
 264:Middlewares/tensorflow/third_party/cmsis_nn/Include/Internal/arm_nn_compiler.h **** {
 357              		.loc 3 264 31 view .LVU115
 358              	.LBB557:
 266:Middlewares/tensorflow/third_party/cmsis_nn/Include/Internal/arm_nn_compiler.h ****     if (__builtin_constant_p(rotate) && ((rotate == 8U) || (rotate == 16U) || (rotate == 24U)))
 359              		.loc 3 266 5 view .LVU116
 267:Middlewares/tensorflow/third_party/cmsis_nn/Include/Internal/arm_nn_compiler.h ****     {
 360              		.loc 3 267 5 view .LVU117
 269:Middlewares/tensorflow/third_party/cmsis_nn/Include/Internal/arm_nn_compiler.h ****     }
 361              		.loc 3 269 9 view .LVU118
 362              		.syntax unified
 363              	@ 269 "Middlewares/tensorflow/third_party/cmsis_nn/Include/Internal/arm_nn_compiler.h" 1
 364 00a0 2FFA9EFE 		sxtb16 lr, lr, ROR #8
 365              	@ 0 "" 2
 366              	.LVL34:
 367              		.loc 3 275 5 view .LVU119
 368              		.loc 3 275 5 is_stmt 0 view .LVU120
 369              		.thumb
 370              		.syntax unified
 371              	.LBE557:
 372              	.LBE556:
 381:Middlewares/tensorflow/third_party/cmsis_nn/Source/NNSupportFunctions/arm_nn_mat_mult_nt_t_s8.c ****                 res01 = SMLAD(val3, val5, res01);
 373              		.loc 1 381 17 is_stmt 1 view .LVU121
 374              	.LBB558:
 375              	.LBI558:
 246:Middlewares/tensorflow/third_party/cmsis_nn/Include/Internal/arm_nn_compiler.h **** {
 376              		.loc 3 246 31 view .LVU122
 377              	.LBB559:
 248:Middlewares/tensorflow/third_party/cmsis_nn/Include/Internal/arm_nn_compiler.h **** 
 378              		.loc 3 248 5 view .LVU123
 250:Middlewares/tensorflow/third_party/cmsis_nn/Include/Internal/arm_nn_compiler.h ****     return (result);
 379              		.loc 3 250 5 view .LVU124
 380              		.syntax unified
 381              	@ 250 "Middlewares/tensorflow/third_party/cmsis_nn/Include/Internal/arm_nn_compiler.h" 1
 382 00a4 26FB0A11 		smlad r1, r6, r10, r1
 383              	@ 0 "" 2
 384              	.LVL35:
 251:Middlewares/tensorflow/third_party/cmsis_nn/Include/Internal/arm_nn_compiler.h **** }
 385              		.loc 3 251 5 view .LVU125
 251:Middlewares/tensorflow/third_party/cmsis_nn/Include/Internal/arm_nn_compiler.h **** }
 386              		.loc 3 251 5 is_stmt 0 view .LVU126
 387              		.thumb
 388              		.syntax unified
 389              	.LBE559:
 390              	.LBE558:
 382:Middlewares/tensorflow/third_party/cmsis_nn/Source/NNSupportFunctions/arm_nn_mat_mult_nt_t_s8.c ****                 res01 = SMLAD(val0, val4, res01);
 391              		.loc 1 382 17 is_stmt 1 view .LVU127
 392              	.LBB560:
 393              	.LBI560:
 246:Middlewares/tensorflow/third_party/cmsis_nn/Include/Internal/arm_nn_compiler.h **** {
 394              		.loc 3 246 31 view .LVU128
ARM GAS  /tmp/cc6Z6mIk.s 			page 31


 395              	.LBB561:
 248:Middlewares/tensorflow/third_party/cmsis_nn/Include/Internal/arm_nn_compiler.h **** 
 396              		.loc 3 248 5 view .LVU129
 250:Middlewares/tensorflow/third_party/cmsis_nn/Include/Internal/arm_nn_compiler.h ****     return (result);
 397              		.loc 3 250 5 view .LVU130
 398              		.syntax unified
 399              	@ 250 "Middlewares/tensorflow/third_party/cmsis_nn/Include/Internal/arm_nn_compiler.h" 1
 400 00a8 29FB0E11 		smlad r1, r9, lr, r1
 401              	@ 0 "" 2
 402              	.LVL36:
 251:Middlewares/tensorflow/third_party/cmsis_nn/Include/Internal/arm_nn_compiler.h **** }
 403              		.loc 3 251 5 view .LVU131
 251:Middlewares/tensorflow/third_party/cmsis_nn/Include/Internal/arm_nn_compiler.h **** }
 404              		.loc 3 251 5 is_stmt 0 view .LVU132
 405              		.thumb
 406              		.syntax unified
 407              	.LBE561:
 408              	.LBE560:
 383:Middlewares/tensorflow/third_party/cmsis_nn/Source/NNSupportFunctions/arm_nn_mat_mult_nt_t_s8.c **** 
 384:Middlewares/tensorflow/third_party/cmsis_nn/Source/NNSupportFunctions/arm_nn_mat_mult_nt_t_s8.c ****                 // 4 x MAC res10, res11
 385:Middlewares/tensorflow/third_party/cmsis_nn/Source/NNSupportFunctions/arm_nn_mat_mult_nt_t_s8.c ****                 val0 = arm_nn_read_s8x4((const int8_t *)&lhs_ptr[lhs_off0]);
 409              		.loc 1 385 17 is_stmt 1 view .LVU133
 410              		.loc 1 385 17 is_stmt 0 view .LVU134
 411              	.LBE755:
 412              	.LBE912:
 413              	.LBE934:
 615:Middlewares/tensorflow/third_party/cmsis_nn/Include/arm_nnsupportfunctions.h ****     memcpy(&val, in_s8, 4);
 414              		.loc 2 615 5 is_stmt 1 view .LVU135
 616:Middlewares/tensorflow/third_party/cmsis_nn/Include/arm_nnsupportfunctions.h **** 
 415              		.loc 2 616 5 view .LVU136
 416 00ac 029B     		ldr	r3, [sp, #8]
 417 00ae EE58     		ldr	r6, [r5, r3]	@ unaligned
 418              	.LVL37:
 419              		.loc 2 618 5 view .LVU137
 420              	.LBB935:
 421              	.LBB913:
 422              	.LBB756:
 386:Middlewares/tensorflow/third_party/cmsis_nn/Source/NNSupportFunctions/arm_nn_mat_mult_nt_t_s8.c ****                 val3 = SXTB16(val0);
 423              		.loc 1 386 17 view .LVU138
 424              	.LBB562:
 425              	.LBI562:
 237:Middlewares/tensorflow/third_party/cmsis_nn/Include/Internal/arm_nn_compiler.h **** {
 426              		.loc 3 237 31 view .LVU139
 427              	.LBB563:
 239:Middlewares/tensorflow/third_party/cmsis_nn/Include/Internal/arm_nn_compiler.h **** 
 428              		.loc 3 239 5 view .LVU140
 241:Middlewares/tensorflow/third_party/cmsis_nn/Include/Internal/arm_nn_compiler.h ****     return (result);
 429              		.loc 3 241 5 view .LVU141
 430              		.syntax unified
 431              	@ 241 "Middlewares/tensorflow/third_party/cmsis_nn/Include/Internal/arm_nn_compiler.h" 1
 432 00b0 2FFA86F9 		sxtb16 r9, r6
 433              	@ 0 "" 2
 434              	.LVL38:
 242:Middlewares/tensorflow/third_party/cmsis_nn/Include/Internal/arm_nn_compiler.h **** }
 435              		.loc 3 242 5 view .LVU142
 242:Middlewares/tensorflow/third_party/cmsis_nn/Include/Internal/arm_nn_compiler.h **** }
 436              		.loc 3 242 5 is_stmt 0 view .LVU143
ARM GAS  /tmp/cc6Z6mIk.s 			page 32


 437              		.thumb
 438              		.syntax unified
 439              	.LBE563:
 440              	.LBE562:
 387:Middlewares/tensorflow/third_party/cmsis_nn/Source/NNSupportFunctions/arm_nn_mat_mult_nt_t_s8.c ****                 val0 = SXTB16_RORn(val0, 8);
 441              		.loc 1 387 17 is_stmt 1 view .LVU144
 442              	.LBB564:
 443              	.LBI564:
 264:Middlewares/tensorflow/third_party/cmsis_nn/Include/Internal/arm_nn_compiler.h **** {
 444              		.loc 3 264 31 view .LVU145
 445              	.LBB565:
 266:Middlewares/tensorflow/third_party/cmsis_nn/Include/Internal/arm_nn_compiler.h ****     if (__builtin_constant_p(rotate) && ((rotate == 8U) || (rotate == 16U) || (rotate == 24U)))
 446              		.loc 3 266 5 view .LVU146
 267:Middlewares/tensorflow/third_party/cmsis_nn/Include/Internal/arm_nn_compiler.h ****     {
 447              		.loc 3 267 5 view .LVU147
 269:Middlewares/tensorflow/third_party/cmsis_nn/Include/Internal/arm_nn_compiler.h ****     }
 448              		.loc 3 269 9 view .LVU148
 449              		.syntax unified
 450              	@ 269 "Middlewares/tensorflow/third_party/cmsis_nn/Include/Internal/arm_nn_compiler.h" 1
 451 00b4 2FFA96F6 		sxtb16 r6, r6, ROR #8
 452              	@ 0 "" 2
 453              	.LVL39:
 454              		.loc 3 275 5 view .LVU149
 455              		.loc 3 275 5 is_stmt 0 view .LVU150
 456              		.thumb
 457              		.syntax unified
 458              	.LBE565:
 459              	.LBE564:
 388:Middlewares/tensorflow/third_party/cmsis_nn/Source/NNSupportFunctions/arm_nn_mat_mult_nt_t_s8.c ****                 res10 = SMLAD(val3, val2, res10);
 460              		.loc 1 388 17 is_stmt 1 view .LVU151
 461              	.LBB566:
 462              	.LBI566:
 246:Middlewares/tensorflow/third_party/cmsis_nn/Include/Internal/arm_nn_compiler.h **** {
 463              		.loc 3 246 31 view .LVU152
 464              	.LBB567:
 248:Middlewares/tensorflow/third_party/cmsis_nn/Include/Internal/arm_nn_compiler.h **** 
 465              		.loc 3 248 5 view .LVU153
 250:Middlewares/tensorflow/third_party/cmsis_nn/Include/Internal/arm_nn_compiler.h ****     return (result);
 466              		.loc 3 250 5 view .LVU154
 467              		.syntax unified
 468              	@ 250 "Middlewares/tensorflow/third_party/cmsis_nn/Include/Internal/arm_nn_compiler.h" 1
 469 00b8 29FB0828 		smlad r8, r9, r8, r2
 470              	@ 0 "" 2
 471              	.LVL40:
 251:Middlewares/tensorflow/third_party/cmsis_nn/Include/Internal/arm_nn_compiler.h **** }
 472              		.loc 3 251 5 view .LVU155
 251:Middlewares/tensorflow/third_party/cmsis_nn/Include/Internal/arm_nn_compiler.h **** }
 473              		.loc 3 251 5 is_stmt 0 view .LVU156
 474              		.thumb
 475              		.syntax unified
 476              	.LBE567:
 477              	.LBE566:
 389:Middlewares/tensorflow/third_party/cmsis_nn/Source/NNSupportFunctions/arm_nn_mat_mult_nt_t_s8.c ****                 res11 = SMLAD(val3, val5, res11);
 478              		.loc 1 389 17 is_stmt 1 view .LVU157
 479              	.LBB568:
 480              	.LBI568:
 246:Middlewares/tensorflow/third_party/cmsis_nn/Include/Internal/arm_nn_compiler.h **** {
ARM GAS  /tmp/cc6Z6mIk.s 			page 33


 481              		.loc 3 246 31 view .LVU158
 482              	.LBB569:
 248:Middlewares/tensorflow/third_party/cmsis_nn/Include/Internal/arm_nn_compiler.h **** 
 483              		.loc 3 248 5 view .LVU159
 250:Middlewares/tensorflow/third_party/cmsis_nn/Include/Internal/arm_nn_compiler.h ****     return (result);
 484              		.loc 3 250 5 view .LVU160
 485 00bc 049B     		ldr	r3, [sp, #16]
 486              		.syntax unified
 487              	@ 250 "Middlewares/tensorflow/third_party/cmsis_nn/Include/Internal/arm_nn_compiler.h" 1
 488 00be 29FB0A33 		smlad r3, r9, r10, r3
 489              	@ 0 "" 2
 490              	.LVL41:
 251:Middlewares/tensorflow/third_party/cmsis_nn/Include/Internal/arm_nn_compiler.h **** }
 491              		.loc 3 251 5 view .LVU161
 251:Middlewares/tensorflow/third_party/cmsis_nn/Include/Internal/arm_nn_compiler.h **** }
 492              		.loc 3 251 5 is_stmt 0 view .LVU162
 493              		.thumb
 494              		.syntax unified
 495              	.LBE569:
 496              	.LBE568:
 390:Middlewares/tensorflow/third_party/cmsis_nn/Source/NNSupportFunctions/arm_nn_mat_mult_nt_t_s8.c ****                 res10 = SMLAD(val0, val1, res10);
 497              		.loc 1 390 17 is_stmt 1 view .LVU163
 498              	.LBB570:
 499              	.LBI570:
 246:Middlewares/tensorflow/third_party/cmsis_nn/Include/Internal/arm_nn_compiler.h **** {
 500              		.loc 3 246 31 view .LVU164
 501              	.LBB571:
 248:Middlewares/tensorflow/third_party/cmsis_nn/Include/Internal/arm_nn_compiler.h **** 
 502              		.loc 3 248 5 view .LVU165
 250:Middlewares/tensorflow/third_party/cmsis_nn/Include/Internal/arm_nn_compiler.h ****     return (result);
 503              		.loc 3 250 5 view .LVU166
 504              		.syntax unified
 505              	@ 250 "Middlewares/tensorflow/third_party/cmsis_nn/Include/Internal/arm_nn_compiler.h" 1
 506 00c2 26FB0782 		smlad r2, r6, r7, r8
 507              	@ 0 "" 2
 508              	.LVL42:
 251:Middlewares/tensorflow/third_party/cmsis_nn/Include/Internal/arm_nn_compiler.h **** }
 509              		.loc 3 251 5 view .LVU167
 251:Middlewares/tensorflow/third_party/cmsis_nn/Include/Internal/arm_nn_compiler.h **** }
 510              		.loc 3 251 5 is_stmt 0 view .LVU168
 511              		.thumb
 512              		.syntax unified
 513              	.LBE571:
 514              	.LBE570:
 391:Middlewares/tensorflow/third_party/cmsis_nn/Source/NNSupportFunctions/arm_nn_mat_mult_nt_t_s8.c ****                 res11 = SMLAD(val0, val4, res11);
 515              		.loc 1 391 17 is_stmt 1 view .LVU169
 516              	.LBB572:
 517              	.LBI572:
 246:Middlewares/tensorflow/third_party/cmsis_nn/Include/Internal/arm_nn_compiler.h **** {
 518              		.loc 3 246 31 view .LVU170
 519              	.LBB573:
 248:Middlewares/tensorflow/third_party/cmsis_nn/Include/Internal/arm_nn_compiler.h **** 
 520              		.loc 3 248 5 view .LVU171
 250:Middlewares/tensorflow/third_party/cmsis_nn/Include/Internal/arm_nn_compiler.h ****     return (result);
 521              		.loc 3 250 5 view .LVU172
 522              		.syntax unified
 523              	@ 250 "Middlewares/tensorflow/third_party/cmsis_nn/Include/Internal/arm_nn_compiler.h" 1
ARM GAS  /tmp/cc6Z6mIk.s 			page 34


 524 00c6 26FB0E33 		smlad r3, r6, lr, r3
 525              	@ 0 "" 2
 526              	.LVL43:
 251:Middlewares/tensorflow/third_party/cmsis_nn/Include/Internal/arm_nn_compiler.h **** }
 527              		.loc 3 251 5 view .LVU173
 251:Middlewares/tensorflow/third_party/cmsis_nn/Include/Internal/arm_nn_compiler.h **** }
 528              		.loc 3 251 5 is_stmt 0 view .LVU174
 529              		.thumb
 530              		.syntax unified
 531              	.LBE573:
 532              	.LBE572:
 533              		.loc 1 391 23 view .LVU175
 534 00ca 0493     		str	r3, [sp, #16]
 535              	.LVL44:
 366:Middlewares/tensorflow/third_party/cmsis_nn/Source/NNSupportFunctions/arm_nn_mat_mult_nt_t_s8.c ****             {
 536              		.loc 1 366 52 is_stmt 1 view .LVU176
 366:Middlewares/tensorflow/third_party/cmsis_nn/Source/NNSupportFunctions/arm_nn_mat_mult_nt_t_s8.c ****             {
 537              		.loc 1 366 65 is_stmt 0 view .LVU177
 538 00cc 0CF1040C 		add	ip, ip, #4
 539              	.LVL45:
 540              	.L8:
 366:Middlewares/tensorflow/third_party/cmsis_nn/Source/NNSupportFunctions/arm_nn_mat_mult_nt_t_s8.c ****             {
 541              		.loc 1 366 20 is_stmt 1 discriminator 1 view .LVU178
 366:Middlewares/tensorflow/third_party/cmsis_nn/Source/NNSupportFunctions/arm_nn_mat_mult_nt_t_s8.c ****             {
 542              		.loc 1 366 33 is_stmt 0 discriminator 1 view .LVU179
 543 00d0 ABF10306 		sub	r6, fp, #3
 366:Middlewares/tensorflow/third_party/cmsis_nn/Source/NNSupportFunctions/arm_nn_mat_mult_nt_t_s8.c ****             {
 544              		.loc 1 366 13 discriminator 1 view .LVU180
 545 00d4 6645     		cmp	r6, ip
 546 00d6 CEDC     		bgt	.L9
 366:Middlewares/tensorflow/third_party/cmsis_nn/Source/NNSupportFunctions/arm_nn_mat_mult_nt_t_s8.c ****             {
 547              		.loc 1 366 13 discriminator 1 view .LVU181
 548 00d8 049B     		ldr	r3, [sp, #16]
 549 00da DDF8A080 		ldr	r8, [sp, #160]
 550 00de DDF8B490 		ldr	r9, [sp, #180]
 551 00e2 13E0     		b	.L10
 552              	.LVL46:
 553              	.L11:
 554              	.LBB574:
 392:Middlewares/tensorflow/third_party/cmsis_nn/Source/NNSupportFunctions/arm_nn_mat_mult_nt_t_s8.c ****             }
 393:Middlewares/tensorflow/third_party/cmsis_nn/Source/NNSupportFunctions/arm_nn_mat_mult_nt_t_s8.c **** 
 394:Middlewares/tensorflow/third_party/cmsis_nn/Source/NNSupportFunctions/arm_nn_mat_mult_nt_t_s8.c ****             for (; rhs_cols_idx < rhs_cols; ++rhs_cols_idx)
 395:Middlewares/tensorflow/third_party/cmsis_nn/Source/NNSupportFunctions/arm_nn_mat_mult_nt_t_s8.c ****             {
 396:Middlewares/tensorflow/third_party/cmsis_nn/Source/NNSupportFunctions/arm_nn_mat_mult_nt_t_s8.c ****                 int8_t rhs_value0 = rhs_ptr[0];
 555              		.loc 1 396 17 is_stmt 1 discriminator 2 view .LVU182
 556              		.loc 1 396 24 is_stmt 0 discriminator 2 view .LVU183
 557 00e4 94F900E0 		ldrsb	lr, [r4]
 558              	.LVL47:
 397:Middlewares/tensorflow/third_party/cmsis_nn/Source/NNSupportFunctions/arm_nn_mat_mult_nt_t_s8.c ****                 int8_t rhs_value1 = rhs_ptr[rhs_cols];
 559              		.loc 1 397 17 is_stmt 1 discriminator 2 view .LVU184
 560              		.loc 1 397 24 is_stmt 0 discriminator 2 view .LVU185
 561 00e8 14F90860 		ldrsb	r6, [r4, r8]
 562              	.LVL48:
 398:Middlewares/tensorflow/third_party/cmsis_nn/Source/NNSupportFunctions/arm_nn_mat_mult_nt_t_s8.c ****                 int8_t lhs_value = lhs_ptr[0];
 563              		.loc 1 398 17 is_stmt 1 discriminator 2 view .LVU186
 564              		.loc 1 398 24 is_stmt 0 discriminator 2 view .LVU187
 565 00ec 95F90070 		ldrsb	r7, [r5]
ARM GAS  /tmp/cc6Z6mIk.s 			page 35


 566              	.LVL49:
 399:Middlewares/tensorflow/third_party/cmsis_nn/Source/NNSupportFunctions/arm_nn_mat_mult_nt_t_s8.c **** 
 400:Middlewares/tensorflow/third_party/cmsis_nn/Source/NNSupportFunctions/arm_nn_mat_mult_nt_t_s8.c ****                 res00 += lhs_value * rhs_value0;
 567              		.loc 1 400 17 is_stmt 1 discriminator 2 view .LVU188
 568              		.loc 1 400 23 is_stmt 0 discriminator 2 view .LVU189
 569 00f0 0EFB0700 		mla	r0, lr, r7, r0
 570              	.LVL50:
 401:Middlewares/tensorflow/third_party/cmsis_nn/Source/NNSupportFunctions/arm_nn_mat_mult_nt_t_s8.c ****                 res01 += lhs_value * rhs_value1;
 571              		.loc 1 401 17 is_stmt 1 discriminator 2 view .LVU190
 572              		.loc 1 401 23 is_stmt 0 discriminator 2 view .LVU191
 573 00f4 06FB0711 		mla	r1, r6, r7, r1
 574              	.LVL51:
 402:Middlewares/tensorflow/third_party/cmsis_nn/Source/NNSupportFunctions/arm_nn_mat_mult_nt_t_s8.c **** 
 403:Middlewares/tensorflow/third_party/cmsis_nn/Source/NNSupportFunctions/arm_nn_mat_mult_nt_t_s8.c ****                 lhs_value = lhs_ptr[rhs_cols_offset];
 575              		.loc 1 403 17 is_stmt 1 discriminator 2 view .LVU192
 576              		.loc 1 403 27 is_stmt 0 discriminator 2 view .LVU193
 577 00f8 15F90970 		ldrsb	r7, [r5, r9]
 578              	.LVL52:
 404:Middlewares/tensorflow/third_party/cmsis_nn/Source/NNSupportFunctions/arm_nn_mat_mult_nt_t_s8.c ****                 res10 += lhs_value * rhs_value0;
 579              		.loc 1 404 17 is_stmt 1 discriminator 2 view .LVU194
 580              		.loc 1 404 23 is_stmt 0 discriminator 2 view .LVU195
 581 00fc 07FB0E22 		mla	r2, r7, lr, r2
 582              	.LVL53:
 405:Middlewares/tensorflow/third_party/cmsis_nn/Source/NNSupportFunctions/arm_nn_mat_mult_nt_t_s8.c ****                 res11 += lhs_value * rhs_value1;
 583              		.loc 1 405 17 is_stmt 1 discriminator 2 view .LVU196
 584              		.loc 1 405 23 is_stmt 0 discriminator 2 view .LVU197
 585 0100 07FB0633 		mla	r3, r7, r6, r3
 586              	.LVL54:
 406:Middlewares/tensorflow/third_party/cmsis_nn/Source/NNSupportFunctions/arm_nn_mat_mult_nt_t_s8.c **** 
 407:Middlewares/tensorflow/third_party/cmsis_nn/Source/NNSupportFunctions/arm_nn_mat_mult_nt_t_s8.c ****                 ++rhs_ptr;
 587              		.loc 1 407 17 is_stmt 1 discriminator 2 view .LVU198
 588 0104 0134     		adds	r4, r4, #1
 589              	.LVL55:
 408:Middlewares/tensorflow/third_party/cmsis_nn/Source/NNSupportFunctions/arm_nn_mat_mult_nt_t_s8.c ****                 ++lhs_ptr;
 590              		.loc 1 408 17 discriminator 2 view .LVU199
 591 0106 0135     		adds	r5, r5, #1
 592              	.LVL56:
 593              		.loc 1 408 17 is_stmt 0 discriminator 2 view .LVU200
 594              	.LBE574:
 394:Middlewares/tensorflow/third_party/cmsis_nn/Source/NNSupportFunctions/arm_nn_mat_mult_nt_t_s8.c ****             {
 595              		.loc 1 394 45 is_stmt 1 discriminator 2 view .LVU201
 596 0108 0CF1010C 		add	ip, ip, #1
 597              	.LVL57:
 598              	.L10:
 394:Middlewares/tensorflow/third_party/cmsis_nn/Source/NNSupportFunctions/arm_nn_mat_mult_nt_t_s8.c ****             {
 599              		.loc 1 394 20 discriminator 1 view .LVU202
 394:Middlewares/tensorflow/third_party/cmsis_nn/Source/NNSupportFunctions/arm_nn_mat_mult_nt_t_s8.c ****             {
 600              		.loc 1 394 13 is_stmt 0 discriminator 1 view .LVU203
 601 010c C445     		cmp	ip, r8
 602 010e E9DB     		blt	.L11
 409:Middlewares/tensorflow/third_party/cmsis_nn/Source/NNSupportFunctions/arm_nn_mat_mult_nt_t_s8.c ****             }
 410:Middlewares/tensorflow/third_party/cmsis_nn/Source/NNSupportFunctions/arm_nn_mat_mult_nt_t_s8.c **** 
 411:Middlewares/tensorflow/third_party/cmsis_nn/Source/NNSupportFunctions/arm_nn_mat_mult_nt_t_s8.c ****             // Quantize down
 412:Middlewares/tensorflow/third_party/cmsis_nn/Source/NNSupportFunctions/arm_nn_mat_mult_nt_t_s8.c ****             res00 = arm_nn_requantize(res00, dst_multipliers[rhs_rows_idx], dst_shifts[rhs_rows_idx
 603              		.loc 1 412 13 is_stmt 1 view .LVU204
 604              		.loc 1 412 61 is_stmt 0 view .LVU205
 605 0110 139C     		ldr	r4, [sp, #76]
ARM GAS  /tmp/cc6Z6mIk.s 			page 36


 606              	.LVL58:
 607              		.loc 1 412 61 view .LVU206
 608 0112 A346     		mov	fp, r4
 609              		.loc 1 412 21 view .LVU207
 610 0114 249E     		ldr	r6, [sp, #144]
 611 0116 56F824A0 		ldr	r10, [r6, r4, lsl #2]
 612 011a 259E     		ldr	r6, [sp, #148]
 613 011c 56F824C0 		ldr	ip, [r6, r4, lsl #2]
 614              	.LVL59:
 615              	.LBB575:
 616              	.LBI575:
 619:Middlewares/tensorflow/third_party/cmsis_nn/Include/arm_nnsupportfunctions.h **** }
 620:Middlewares/tensorflow/third_party/cmsis_nn/Include/arm_nnsupportfunctions.h **** 
 621:Middlewares/tensorflow/third_party/cmsis_nn/Include/arm_nnsupportfunctions.h **** /**
 622:Middlewares/tensorflow/third_party/cmsis_nn/Include/arm_nnsupportfunctions.h ****   @brief         Write four s8 to s8 pointer and increment pointer afterwards.
 623:Middlewares/tensorflow/third_party/cmsis_nn/Include/arm_nnsupportfunctions.h ****   @param[in]     in       Double pointer to input value
 624:Middlewares/tensorflow/third_party/cmsis_nn/Include/arm_nnsupportfunctions.h ****   @param[in]     value    Four bytes to copy
 625:Middlewares/tensorflow/third_party/cmsis_nn/Include/arm_nnsupportfunctions.h ****  */
 626:Middlewares/tensorflow/third_party/cmsis_nn/Include/arm_nnsupportfunctions.h **** __STATIC_FORCEINLINE void arm_nn_write_s8x4_ia(int8_t **in, int32_t value)
 627:Middlewares/tensorflow/third_party/cmsis_nn/Include/arm_nnsupportfunctions.h **** {
 628:Middlewares/tensorflow/third_party/cmsis_nn/Include/arm_nnsupportfunctions.h ****     memcpy(*in, &value, 4);
 629:Middlewares/tensorflow/third_party/cmsis_nn/Include/arm_nnsupportfunctions.h ****     *in += 4;
 630:Middlewares/tensorflow/third_party/cmsis_nn/Include/arm_nnsupportfunctions.h **** }
 631:Middlewares/tensorflow/third_party/cmsis_nn/Include/arm_nnsupportfunctions.h **** 
 632:Middlewares/tensorflow/third_party/cmsis_nn/Include/arm_nnsupportfunctions.h **** /**
 633:Middlewares/tensorflow/third_party/cmsis_nn/Include/arm_nnsupportfunctions.h ****  * @brief           memset optimized for MVE
 634:Middlewares/tensorflow/third_party/cmsis_nn/Include/arm_nnsupportfunctions.h ****  * @param[in, out]  dst         Destination pointer
 635:Middlewares/tensorflow/third_party/cmsis_nn/Include/arm_nnsupportfunctions.h ****  * @param[in]       val         Value to set
 636:Middlewares/tensorflow/third_party/cmsis_nn/Include/arm_nnsupportfunctions.h ****  * @param[in]       block_size  Number of bytes to copy.
 637:Middlewares/tensorflow/third_party/cmsis_nn/Include/arm_nnsupportfunctions.h ****  *
 638:Middlewares/tensorflow/third_party/cmsis_nn/Include/arm_nnsupportfunctions.h ****  */
 639:Middlewares/tensorflow/third_party/cmsis_nn/Include/arm_nnsupportfunctions.h **** __STATIC_FORCEINLINE void arm_memset_s8(int8_t *dst, const int8_t val, uint32_t block_size)
 640:Middlewares/tensorflow/third_party/cmsis_nn/Include/arm_nnsupportfunctions.h **** {
 641:Middlewares/tensorflow/third_party/cmsis_nn/Include/arm_nnsupportfunctions.h **** #if defined(ARM_MATH_MVEI)
 642:Middlewares/tensorflow/third_party/cmsis_nn/Include/arm_nnsupportfunctions.h ****     __asm volatile("   vdup.8                  q0, %[set_val]             \n"
 643:Middlewares/tensorflow/third_party/cmsis_nn/Include/arm_nnsupportfunctions.h ****                    "   wlstp.8                 lr, %[cnt], 1f             \n"
 644:Middlewares/tensorflow/third_party/cmsis_nn/Include/arm_nnsupportfunctions.h ****                    "2:                                                    \n"
 645:Middlewares/tensorflow/third_party/cmsis_nn/Include/arm_nnsupportfunctions.h ****                    "   vstrb.8                 q0, [%[in]], #16            \n"
 646:Middlewares/tensorflow/third_party/cmsis_nn/Include/arm_nnsupportfunctions.h ****                    "   letp                    lr, 2b                     \n"
 647:Middlewares/tensorflow/third_party/cmsis_nn/Include/arm_nnsupportfunctions.h ****                    "1:                                                    \n"
 648:Middlewares/tensorflow/third_party/cmsis_nn/Include/arm_nnsupportfunctions.h ****                    : [in] "+r"(dst)
 649:Middlewares/tensorflow/third_party/cmsis_nn/Include/arm_nnsupportfunctions.h ****                    : [cnt] "r"(block_size), [set_val] "r"(val)
 650:Middlewares/tensorflow/third_party/cmsis_nn/Include/arm_nnsupportfunctions.h ****                    : "q0", "memory", "r14");
 651:Middlewares/tensorflow/third_party/cmsis_nn/Include/arm_nnsupportfunctions.h **** #else
 652:Middlewares/tensorflow/third_party/cmsis_nn/Include/arm_nnsupportfunctions.h ****     memset(dst, val, block_size);
 653:Middlewares/tensorflow/third_party/cmsis_nn/Include/arm_nnsupportfunctions.h **** #endif
 654:Middlewares/tensorflow/third_party/cmsis_nn/Include/arm_nnsupportfunctions.h **** }
 655:Middlewares/tensorflow/third_party/cmsis_nn/Include/arm_nnsupportfunctions.h **** 
 656:Middlewares/tensorflow/third_party/cmsis_nn/Include/arm_nnsupportfunctions.h **** #if defined(ARM_MATH_DSP)
 657:Middlewares/tensorflow/third_party/cmsis_nn/Include/arm_nnsupportfunctions.h **** 
 658:Middlewares/tensorflow/third_party/cmsis_nn/Include/arm_nnsupportfunctions.h **** /**
 659:Middlewares/tensorflow/third_party/cmsis_nn/Include/arm_nnsupportfunctions.h ****  * @brief read and expand one s8 word into two s16 words
 660:Middlewares/tensorflow/third_party/cmsis_nn/Include/arm_nnsupportfunctions.h ****  */
 661:Middlewares/tensorflow/third_party/cmsis_nn/Include/arm_nnsupportfunctions.h **** 
 662:Middlewares/tensorflow/third_party/cmsis_nn/Include/arm_nnsupportfunctions.h **** __STATIC_FORCEINLINE const int8_t *read_and_pad(const int8_t *source, int32_t *out1, int32_t *out2)
 663:Middlewares/tensorflow/third_party/cmsis_nn/Include/arm_nnsupportfunctions.h **** {
 664:Middlewares/tensorflow/third_party/cmsis_nn/Include/arm_nnsupportfunctions.h ****     int32_t inA = arm_nn_read_s8x4_ia(&source);
ARM GAS  /tmp/cc6Z6mIk.s 			page 37


 665:Middlewares/tensorflow/third_party/cmsis_nn/Include/arm_nnsupportfunctions.h ****     int32_t inAbuf1 = SXTB16_RORn((uint32_t)inA, 8);
 666:Middlewares/tensorflow/third_party/cmsis_nn/Include/arm_nnsupportfunctions.h ****     int32_t inAbuf2 = SXTB16(inA);
 667:Middlewares/tensorflow/third_party/cmsis_nn/Include/arm_nnsupportfunctions.h **** 
 668:Middlewares/tensorflow/third_party/cmsis_nn/Include/arm_nnsupportfunctions.h ****     #ifndef ARM_MATH_BIG_ENDIAN
 669:Middlewares/tensorflow/third_party/cmsis_nn/Include/arm_nnsupportfunctions.h ****     *out2 = (int32_t)(PKHTB(inAbuf1, inAbuf2, 16));
 670:Middlewares/tensorflow/third_party/cmsis_nn/Include/arm_nnsupportfunctions.h ****     *out1 = (int32_t)(PKHBT(inAbuf2, inAbuf1, 16));
 671:Middlewares/tensorflow/third_party/cmsis_nn/Include/arm_nnsupportfunctions.h ****     #else
 672:Middlewares/tensorflow/third_party/cmsis_nn/Include/arm_nnsupportfunctions.h ****     *out1 = (int32_t)(PKHTB(inAbuf1, inAbuf2, 16));
 673:Middlewares/tensorflow/third_party/cmsis_nn/Include/arm_nnsupportfunctions.h ****     *out2 = (int32_t)(PKHBT(inAbuf2, inAbuf1, 16));
 674:Middlewares/tensorflow/third_party/cmsis_nn/Include/arm_nnsupportfunctions.h ****     #endif
 675:Middlewares/tensorflow/third_party/cmsis_nn/Include/arm_nnsupportfunctions.h **** 
 676:Middlewares/tensorflow/third_party/cmsis_nn/Include/arm_nnsupportfunctions.h ****     return source;
 677:Middlewares/tensorflow/third_party/cmsis_nn/Include/arm_nnsupportfunctions.h **** }
 678:Middlewares/tensorflow/third_party/cmsis_nn/Include/arm_nnsupportfunctions.h **** 
 679:Middlewares/tensorflow/third_party/cmsis_nn/Include/arm_nnsupportfunctions.h **** /**
 680:Middlewares/tensorflow/third_party/cmsis_nn/Include/arm_nnsupportfunctions.h ****  * @brief read and expand one s8 word into two s16 words with reordering
 681:Middlewares/tensorflow/third_party/cmsis_nn/Include/arm_nnsupportfunctions.h ****  */
 682:Middlewares/tensorflow/third_party/cmsis_nn/Include/arm_nnsupportfunctions.h **** 
 683:Middlewares/tensorflow/third_party/cmsis_nn/Include/arm_nnsupportfunctions.h **** __STATIC_FORCEINLINE const int8_t *read_and_pad_reordered(const int8_t *source, int32_t *out1, int3
 684:Middlewares/tensorflow/third_party/cmsis_nn/Include/arm_nnsupportfunctions.h **** {
 685:Middlewares/tensorflow/third_party/cmsis_nn/Include/arm_nnsupportfunctions.h ****     int32_t inA = arm_nn_read_s8x4_ia(&source);
 686:Middlewares/tensorflow/third_party/cmsis_nn/Include/arm_nnsupportfunctions.h ****     #ifndef ARM_MATH_BIG_ENDIAN
 687:Middlewares/tensorflow/third_party/cmsis_nn/Include/arm_nnsupportfunctions.h ****     *out2 = SXTB16(ROR((uint32_t)inA, 8));
 688:Middlewares/tensorflow/third_party/cmsis_nn/Include/arm_nnsupportfunctions.h ****     *out1 = SXTB16(inA);
 689:Middlewares/tensorflow/third_party/cmsis_nn/Include/arm_nnsupportfunctions.h ****     #else
 690:Middlewares/tensorflow/third_party/cmsis_nn/Include/arm_nnsupportfunctions.h ****     *out1 = SXTB16(ROR((uint32_t)inA, 8));
 691:Middlewares/tensorflow/third_party/cmsis_nn/Include/arm_nnsupportfunctions.h ****     *out2 = SXTB16(inA);
 692:Middlewares/tensorflow/third_party/cmsis_nn/Include/arm_nnsupportfunctions.h ****     #endif
 693:Middlewares/tensorflow/third_party/cmsis_nn/Include/arm_nnsupportfunctions.h **** 
 694:Middlewares/tensorflow/third_party/cmsis_nn/Include/arm_nnsupportfunctions.h ****     return source;
 695:Middlewares/tensorflow/third_party/cmsis_nn/Include/arm_nnsupportfunctions.h **** }
 696:Middlewares/tensorflow/third_party/cmsis_nn/Include/arm_nnsupportfunctions.h **** 
 697:Middlewares/tensorflow/third_party/cmsis_nn/Include/arm_nnsupportfunctions.h **** #endif
 698:Middlewares/tensorflow/third_party/cmsis_nn/Include/arm_nnsupportfunctions.h **** 
 699:Middlewares/tensorflow/third_party/cmsis_nn/Include/arm_nnsupportfunctions.h **** /**
 700:Middlewares/tensorflow/third_party/cmsis_nn/Include/arm_nnsupportfunctions.h ****  * @brief Matrix-multiplication function for convolution with per-channel requantization.
 701:Middlewares/tensorflow/third_party/cmsis_nn/Include/arm_nnsupportfunctions.h ****  * @param[in]       input_a     pointer to operand A
 702:Middlewares/tensorflow/third_party/cmsis_nn/Include/arm_nnsupportfunctions.h ****  * @param[in]       input_b     pointer to operand B, always consists of 2 vectors.
 703:Middlewares/tensorflow/third_party/cmsis_nn/Include/arm_nnsupportfunctions.h ****  * @param[in]       output_ch   number of rows of A
 704:Middlewares/tensorflow/third_party/cmsis_nn/Include/arm_nnsupportfunctions.h ****  * @param[in]       out_shift  pointer to per output channel requantization shift parameter.
 705:Middlewares/tensorflow/third_party/cmsis_nn/Include/arm_nnsupportfunctions.h ****  * @param[in]       out_mult   pointer to per output channel requantization multiplier parameter.
 706:Middlewares/tensorflow/third_party/cmsis_nn/Include/arm_nnsupportfunctions.h ****  * @param[in]       out_offset      output tensor offset.
 707:Middlewares/tensorflow/third_party/cmsis_nn/Include/arm_nnsupportfunctions.h ****  * @param[in]       activation_min   minimum value to clamp the output to. Range : int8
 708:Middlewares/tensorflow/third_party/cmsis_nn/Include/arm_nnsupportfunctions.h ****  * @param[in]       activation_max   maximum value to clamp the output to. Range : int8
 709:Middlewares/tensorflow/third_party/cmsis_nn/Include/arm_nnsupportfunctions.h ****  * @param[in]       num_col_a   number of columns of A
 710:Middlewares/tensorflow/third_party/cmsis_nn/Include/arm_nnsupportfunctions.h ****  * @param[in]       output_bias per output channel bias. Range : int32
 711:Middlewares/tensorflow/third_party/cmsis_nn/Include/arm_nnsupportfunctions.h ****  * @param[in,out]   out_0       pointer to output
 712:Middlewares/tensorflow/third_party/cmsis_nn/Include/arm_nnsupportfunctions.h ****  * @return     The function returns one of the two
 713:Middlewares/tensorflow/third_party/cmsis_nn/Include/arm_nnsupportfunctions.h ****  *              1. The incremented output pointer for a successful operation or
 714:Middlewares/tensorflow/third_party/cmsis_nn/Include/arm_nnsupportfunctions.h ****  *              2. NULL if implementation is not available.
 715:Middlewares/tensorflow/third_party/cmsis_nn/Include/arm_nnsupportfunctions.h ****  *
 716:Middlewares/tensorflow/third_party/cmsis_nn/Include/arm_nnsupportfunctions.h ****  * @details   This function does the matrix multiplication of weight matrix for all output channels
 717:Middlewares/tensorflow/third_party/cmsis_nn/Include/arm_nnsupportfunctions.h ****  *            with 2 columns from im2col and produces two elements/output_channel. The outputs are
 718:Middlewares/tensorflow/third_party/cmsis_nn/Include/arm_nnsupportfunctions.h ****  *            clamped in the range provided by activation min and max.
 719:Middlewares/tensorflow/third_party/cmsis_nn/Include/arm_nnsupportfunctions.h ****  *            Supported framework: TensorFlow Lite micro.
 720:Middlewares/tensorflow/third_party/cmsis_nn/Include/arm_nnsupportfunctions.h ****  */
 721:Middlewares/tensorflow/third_party/cmsis_nn/Include/arm_nnsupportfunctions.h **** int8_t *arm_nn_mat_mult_kernel_s8_s16(const int8_t *input_a,
ARM GAS  /tmp/cc6Z6mIk.s 			page 38


 722:Middlewares/tensorflow/third_party/cmsis_nn/Include/arm_nnsupportfunctions.h ****                                       const int16_t *input_b,
 723:Middlewares/tensorflow/third_party/cmsis_nn/Include/arm_nnsupportfunctions.h ****                                       const uint16_t output_ch,
 724:Middlewares/tensorflow/third_party/cmsis_nn/Include/arm_nnsupportfunctions.h ****                                       const int32_t *out_shift,
 725:Middlewares/tensorflow/third_party/cmsis_nn/Include/arm_nnsupportfunctions.h ****                                       const int32_t *out_mult,
 726:Middlewares/tensorflow/third_party/cmsis_nn/Include/arm_nnsupportfunctions.h ****                                       const int32_t out_offset,
 727:Middlewares/tensorflow/third_party/cmsis_nn/Include/arm_nnsupportfunctions.h ****                                       const int16_t activation_min,
 728:Middlewares/tensorflow/third_party/cmsis_nn/Include/arm_nnsupportfunctions.h ****                                       const int16_t activation_max,
 729:Middlewares/tensorflow/third_party/cmsis_nn/Include/arm_nnsupportfunctions.h ****                                       const uint16_t num_col_a,
 730:Middlewares/tensorflow/third_party/cmsis_nn/Include/arm_nnsupportfunctions.h ****                                       const int32_t *const output_bias,
 731:Middlewares/tensorflow/third_party/cmsis_nn/Include/arm_nnsupportfunctions.h ****                                       int8_t *out_0);
 732:Middlewares/tensorflow/third_party/cmsis_nn/Include/arm_nnsupportfunctions.h **** 
 733:Middlewares/tensorflow/third_party/cmsis_nn/Include/arm_nnsupportfunctions.h **** /**
 734:Middlewares/tensorflow/third_party/cmsis_nn/Include/arm_nnsupportfunctions.h ****  * @brief Common softmax function for s8 input and s8 or s16 output
 735:Middlewares/tensorflow/third_party/cmsis_nn/Include/arm_nnsupportfunctions.h ****  * @param[in]  input          Pointer to the input tensor
 736:Middlewares/tensorflow/third_party/cmsis_nn/Include/arm_nnsupportfunctions.h ****  * @param[in]  num_rows       Number of rows in the input tensor
 737:Middlewares/tensorflow/third_party/cmsis_nn/Include/arm_nnsupportfunctions.h ****  * @param[in]  row_size       Number of elements in each input row
 738:Middlewares/tensorflow/third_party/cmsis_nn/Include/arm_nnsupportfunctions.h ****  * @param[in]  mult           Input quantization multiplier
 739:Middlewares/tensorflow/third_party/cmsis_nn/Include/arm_nnsupportfunctions.h ****  * @param[in]  shift          Input quantization shift within the range [0, 31]
 740:Middlewares/tensorflow/third_party/cmsis_nn/Include/arm_nnsupportfunctions.h ****  * @param[in]  diff_min       Minimum difference with max in row. Used to check if
 741:Middlewares/tensorflow/third_party/cmsis_nn/Include/arm_nnsupportfunctions.h ****  *                            the quantized exponential operation can be performed
 742:Middlewares/tensorflow/third_party/cmsis_nn/Include/arm_nnsupportfunctions.h ****  * @param[in]  int16_output   Indicating s8 output if 0 else s16 output
 743:Middlewares/tensorflow/third_party/cmsis_nn/Include/arm_nnsupportfunctions.h ****  * @param[out] output         Pointer to the output tensor
 744:Middlewares/tensorflow/third_party/cmsis_nn/Include/arm_nnsupportfunctions.h ****  *
 745:Middlewares/tensorflow/third_party/cmsis_nn/Include/arm_nnsupportfunctions.h ****  * @note Supported framework: TensorFlow Lite micro (bit-accurate)
 746:Middlewares/tensorflow/third_party/cmsis_nn/Include/arm_nnsupportfunctions.h ****  *
 747:Middlewares/tensorflow/third_party/cmsis_nn/Include/arm_nnsupportfunctions.h ****  */
 748:Middlewares/tensorflow/third_party/cmsis_nn/Include/arm_nnsupportfunctions.h **** void arm_nn_softmax_common_s8(const int8_t *input,
 749:Middlewares/tensorflow/third_party/cmsis_nn/Include/arm_nnsupportfunctions.h ****                               const int32_t num_rows,
 750:Middlewares/tensorflow/third_party/cmsis_nn/Include/arm_nnsupportfunctions.h ****                               const int32_t row_size,
 751:Middlewares/tensorflow/third_party/cmsis_nn/Include/arm_nnsupportfunctions.h ****                               const int32_t mult,
 752:Middlewares/tensorflow/third_party/cmsis_nn/Include/arm_nnsupportfunctions.h ****                               const int32_t shift,
 753:Middlewares/tensorflow/third_party/cmsis_nn/Include/arm_nnsupportfunctions.h ****                               const int32_t diff_min,
 754:Middlewares/tensorflow/third_party/cmsis_nn/Include/arm_nnsupportfunctions.h ****                               const bool int16_output,
 755:Middlewares/tensorflow/third_party/cmsis_nn/Include/arm_nnsupportfunctions.h ****                               void *output);
 756:Middlewares/tensorflow/third_party/cmsis_nn/Include/arm_nnsupportfunctions.h **** 
 757:Middlewares/tensorflow/third_party/cmsis_nn/Include/arm_nnsupportfunctions.h **** /**
 758:Middlewares/tensorflow/third_party/cmsis_nn/Include/arm_nnsupportfunctions.h ****  * @brief macro for adding rounding offset
 759:Middlewares/tensorflow/third_party/cmsis_nn/Include/arm_nnsupportfunctions.h ****  */
 760:Middlewares/tensorflow/third_party/cmsis_nn/Include/arm_nnsupportfunctions.h **** #ifndef ARM_NN_TRUNCATE
 761:Middlewares/tensorflow/third_party/cmsis_nn/Include/arm_nnsupportfunctions.h ****     #define NN_ROUND(out_shift) ((0x1 << out_shift) >> 1)
 762:Middlewares/tensorflow/third_party/cmsis_nn/Include/arm_nnsupportfunctions.h **** #else
 763:Middlewares/tensorflow/third_party/cmsis_nn/Include/arm_nnsupportfunctions.h ****     #define NN_ROUND(out_shift) 0
 764:Middlewares/tensorflow/third_party/cmsis_nn/Include/arm_nnsupportfunctions.h **** #endif
 765:Middlewares/tensorflow/third_party/cmsis_nn/Include/arm_nnsupportfunctions.h **** 
 766:Middlewares/tensorflow/third_party/cmsis_nn/Include/arm_nnsupportfunctions.h **** // Macros for shortening quantization functions' names and avoid long lines
 767:Middlewares/tensorflow/third_party/cmsis_nn/Include/arm_nnsupportfunctions.h **** #define MUL_SAT(a, b) arm_nn_doubling_high_mult((a), (b))
 768:Middlewares/tensorflow/third_party/cmsis_nn/Include/arm_nnsupportfunctions.h **** #define MUL_SAT_MVE(a, b) arm_doubling_high_mult_mve_32x4((a), (b))
 769:Middlewares/tensorflow/third_party/cmsis_nn/Include/arm_nnsupportfunctions.h **** #define MUL_POW2(a, b) arm_nn_mult_by_power_of_two((a), (b))
 770:Middlewares/tensorflow/third_party/cmsis_nn/Include/arm_nnsupportfunctions.h **** 
 771:Middlewares/tensorflow/third_party/cmsis_nn/Include/arm_nnsupportfunctions.h **** #define DIV_POW2(a, b) arm_nn_divide_by_power_of_two((a), (b))
 772:Middlewares/tensorflow/third_party/cmsis_nn/Include/arm_nnsupportfunctions.h **** #define DIV_POW2_MVE(a, b) arm_divide_by_power_of_two_mve((a), (b))
 773:Middlewares/tensorflow/third_party/cmsis_nn/Include/arm_nnsupportfunctions.h **** 
 774:Middlewares/tensorflow/third_party/cmsis_nn/Include/arm_nnsupportfunctions.h **** #define EXP_ON_NEG(x) arm_nn_exp_on_negative_values((x))
 775:Middlewares/tensorflow/third_party/cmsis_nn/Include/arm_nnsupportfunctions.h **** #define ONE_OVER1(x) arm_nn_one_over_one_plus_x_for_x_in_0_1((x))
 776:Middlewares/tensorflow/third_party/cmsis_nn/Include/arm_nnsupportfunctions.h **** 
 777:Middlewares/tensorflow/third_party/cmsis_nn/Include/arm_nnsupportfunctions.h **** /**
 778:Middlewares/tensorflow/third_party/cmsis_nn/Include/arm_nnsupportfunctions.h ****  * @brief           Saturating doubling high multiply. Result matches
ARM GAS  /tmp/cc6Z6mIk.s 			page 39


 779:Middlewares/tensorflow/third_party/cmsis_nn/Include/arm_nnsupportfunctions.h ****  *                  NEON instruction VQRDMULH.
 780:Middlewares/tensorflow/third_party/cmsis_nn/Include/arm_nnsupportfunctions.h ****  * @param[in]       m1        Multiplicand. Range: {NN_Q31_MIN, NN_Q31_MAX}
 781:Middlewares/tensorflow/third_party/cmsis_nn/Include/arm_nnsupportfunctions.h ****  * @param[in]       m2        Multiplier. Range: {NN_Q31_MIN, NN_Q31_MAX}
 782:Middlewares/tensorflow/third_party/cmsis_nn/Include/arm_nnsupportfunctions.h ****  * @return          Result of multiplication.
 783:Middlewares/tensorflow/third_party/cmsis_nn/Include/arm_nnsupportfunctions.h ****  *
 784:Middlewares/tensorflow/third_party/cmsis_nn/Include/arm_nnsupportfunctions.h ****  */
 785:Middlewares/tensorflow/third_party/cmsis_nn/Include/arm_nnsupportfunctions.h **** __STATIC_FORCEINLINE int32_t arm_nn_doubling_high_mult(const int32_t m1, const int32_t m2)
 786:Middlewares/tensorflow/third_party/cmsis_nn/Include/arm_nnsupportfunctions.h **** {
 787:Middlewares/tensorflow/third_party/cmsis_nn/Include/arm_nnsupportfunctions.h ****     int32_t result = 0;
 788:Middlewares/tensorflow/third_party/cmsis_nn/Include/arm_nnsupportfunctions.h ****     // Rounding offset to add for a right shift of 31
 789:Middlewares/tensorflow/third_party/cmsis_nn/Include/arm_nnsupportfunctions.h ****     int64_t mult = 1 << 30;
 790:Middlewares/tensorflow/third_party/cmsis_nn/Include/arm_nnsupportfunctions.h **** 
 791:Middlewares/tensorflow/third_party/cmsis_nn/Include/arm_nnsupportfunctions.h ****     if ((m1 < 0) ^ (m2 < 0))
 792:Middlewares/tensorflow/third_party/cmsis_nn/Include/arm_nnsupportfunctions.h ****     {
 793:Middlewares/tensorflow/third_party/cmsis_nn/Include/arm_nnsupportfunctions.h ****         mult = 1 - mult;
 794:Middlewares/tensorflow/third_party/cmsis_nn/Include/arm_nnsupportfunctions.h ****     }
 795:Middlewares/tensorflow/third_party/cmsis_nn/Include/arm_nnsupportfunctions.h ****     // Gets resolved as a SMLAL instruction
 796:Middlewares/tensorflow/third_party/cmsis_nn/Include/arm_nnsupportfunctions.h ****     mult = mult + (int64_t)m1 * m2;
 797:Middlewares/tensorflow/third_party/cmsis_nn/Include/arm_nnsupportfunctions.h **** 
 798:Middlewares/tensorflow/third_party/cmsis_nn/Include/arm_nnsupportfunctions.h ****     // Utilize all of the upper 32 bits. This is the doubling step
 799:Middlewares/tensorflow/third_party/cmsis_nn/Include/arm_nnsupportfunctions.h ****     // as well.
 800:Middlewares/tensorflow/third_party/cmsis_nn/Include/arm_nnsupportfunctions.h ****     result = (int32_t)(mult / (1ll << 31));
 801:Middlewares/tensorflow/third_party/cmsis_nn/Include/arm_nnsupportfunctions.h **** 
 802:Middlewares/tensorflow/third_party/cmsis_nn/Include/arm_nnsupportfunctions.h ****     if ((m1 == m2) && (m1 == (int32_t)NN_Q31_MIN))
 803:Middlewares/tensorflow/third_party/cmsis_nn/Include/arm_nnsupportfunctions.h ****     {
 804:Middlewares/tensorflow/third_party/cmsis_nn/Include/arm_nnsupportfunctions.h ****         result = NN_Q31_MAX;
 805:Middlewares/tensorflow/third_party/cmsis_nn/Include/arm_nnsupportfunctions.h ****     }
 806:Middlewares/tensorflow/third_party/cmsis_nn/Include/arm_nnsupportfunctions.h ****     return result;
 807:Middlewares/tensorflow/third_party/cmsis_nn/Include/arm_nnsupportfunctions.h **** }
 808:Middlewares/tensorflow/third_party/cmsis_nn/Include/arm_nnsupportfunctions.h **** 
 809:Middlewares/tensorflow/third_party/cmsis_nn/Include/arm_nnsupportfunctions.h **** /**
 810:Middlewares/tensorflow/third_party/cmsis_nn/Include/arm_nnsupportfunctions.h ****  * @brief           Doubling high multiply without saturation. This is intended
 811:Middlewares/tensorflow/third_party/cmsis_nn/Include/arm_nnsupportfunctions.h ****  *                  for requantization where the scale is a positive integer
 812:Middlewares/tensorflow/third_party/cmsis_nn/Include/arm_nnsupportfunctions.h ****  *
 813:Middlewares/tensorflow/third_party/cmsis_nn/Include/arm_nnsupportfunctions.h ****  * @param[in]       m1        Multiplicand. Range: {NN_Q31_MIN, NN_Q31_MAX}
 814:Middlewares/tensorflow/third_party/cmsis_nn/Include/arm_nnsupportfunctions.h ****  * @param[in]       m2        Multiplier Range: {NN_Q31_MIN, NN_Q31_MAX}
 815:Middlewares/tensorflow/third_party/cmsis_nn/Include/arm_nnsupportfunctions.h ****  * @return          Result of multiplication.
 816:Middlewares/tensorflow/third_party/cmsis_nn/Include/arm_nnsupportfunctions.h ****  * @note            The result of this matches that of neon instruction
 817:Middlewares/tensorflow/third_party/cmsis_nn/Include/arm_nnsupportfunctions.h ****  *                  VQRDMULH for m1 in range {NN_Q31_MIN, NN_Q31_MAX} and m2 in
 818:Middlewares/tensorflow/third_party/cmsis_nn/Include/arm_nnsupportfunctions.h ****  *                  range {NN_Q31_MIN + 1, NN_Q31_MAX}. Saturation occurs when
 819:Middlewares/tensorflow/third_party/cmsis_nn/Include/arm_nnsupportfunctions.h ****  *                  m1 equals m2 equals NN_Q31_MIN and that is not handled by
 820:Middlewares/tensorflow/third_party/cmsis_nn/Include/arm_nnsupportfunctions.h ****  *                  this function.
 821:Middlewares/tensorflow/third_party/cmsis_nn/Include/arm_nnsupportfunctions.h ****  *
 822:Middlewares/tensorflow/third_party/cmsis_nn/Include/arm_nnsupportfunctions.h ****  */
 823:Middlewares/tensorflow/third_party/cmsis_nn/Include/arm_nnsupportfunctions.h **** __STATIC_FORCEINLINE int32_t arm_nn_doubling_high_mult_no_sat(const int32_t m1, const int32_t m2)
 824:Middlewares/tensorflow/third_party/cmsis_nn/Include/arm_nnsupportfunctions.h **** {
 825:Middlewares/tensorflow/third_party/cmsis_nn/Include/arm_nnsupportfunctions.h ****     int32_t result = 0;
 826:Middlewares/tensorflow/third_party/cmsis_nn/Include/arm_nnsupportfunctions.h ****     union arm_nn_long_long mult;
 827:Middlewares/tensorflow/third_party/cmsis_nn/Include/arm_nnsupportfunctions.h **** 
 828:Middlewares/tensorflow/third_party/cmsis_nn/Include/arm_nnsupportfunctions.h ****     // Rounding offset to add for a right shift of 31
 829:Middlewares/tensorflow/third_party/cmsis_nn/Include/arm_nnsupportfunctions.h ****     mult.word.low = 1 << 30;
 830:Middlewares/tensorflow/third_party/cmsis_nn/Include/arm_nnsupportfunctions.h ****     mult.word.high = 0;
 831:Middlewares/tensorflow/third_party/cmsis_nn/Include/arm_nnsupportfunctions.h **** 
 832:Middlewares/tensorflow/third_party/cmsis_nn/Include/arm_nnsupportfunctions.h ****     // Gets resolved as a SMLAL instruction
 833:Middlewares/tensorflow/third_party/cmsis_nn/Include/arm_nnsupportfunctions.h ****     mult.long_long = mult.long_long + (int64_t)m1 * m2;
 834:Middlewares/tensorflow/third_party/cmsis_nn/Include/arm_nnsupportfunctions.h **** 
 835:Middlewares/tensorflow/third_party/cmsis_nn/Include/arm_nnsupportfunctions.h ****     // Utilize all of the upper 32 bits. This is the doubling step
ARM GAS  /tmp/cc6Z6mIk.s 			page 40


 836:Middlewares/tensorflow/third_party/cmsis_nn/Include/arm_nnsupportfunctions.h ****     // as well.
 837:Middlewares/tensorflow/third_party/cmsis_nn/Include/arm_nnsupportfunctions.h ****     result = (int32_t)(mult.long_long >> 31);
 838:Middlewares/tensorflow/third_party/cmsis_nn/Include/arm_nnsupportfunctions.h **** 
 839:Middlewares/tensorflow/third_party/cmsis_nn/Include/arm_nnsupportfunctions.h ****     return result;
 840:Middlewares/tensorflow/third_party/cmsis_nn/Include/arm_nnsupportfunctions.h **** }
 841:Middlewares/tensorflow/third_party/cmsis_nn/Include/arm_nnsupportfunctions.h **** 
 842:Middlewares/tensorflow/third_party/cmsis_nn/Include/arm_nnsupportfunctions.h **** /**
 843:Middlewares/tensorflow/third_party/cmsis_nn/Include/arm_nnsupportfunctions.h ****  * @brief           Rounding divide by power of two.
 844:Middlewares/tensorflow/third_party/cmsis_nn/Include/arm_nnsupportfunctions.h ****  * @param[in]       dividend - Dividend
 845:Middlewares/tensorflow/third_party/cmsis_nn/Include/arm_nnsupportfunctions.h ****  * @param[in]       exponent - Divisor = power(2, exponent)
 846:Middlewares/tensorflow/third_party/cmsis_nn/Include/arm_nnsupportfunctions.h ****  *                             Range: [0, 31]
 847:Middlewares/tensorflow/third_party/cmsis_nn/Include/arm_nnsupportfunctions.h ****  * @return          Rounded result of division. Midpoint is rounded away from zero.
 848:Middlewares/tensorflow/third_party/cmsis_nn/Include/arm_nnsupportfunctions.h ****  *
 849:Middlewares/tensorflow/third_party/cmsis_nn/Include/arm_nnsupportfunctions.h ****  */
 850:Middlewares/tensorflow/third_party/cmsis_nn/Include/arm_nnsupportfunctions.h **** __STATIC_FORCEINLINE int32_t arm_nn_divide_by_power_of_two(const int32_t dividend, const int32_t ex
 851:Middlewares/tensorflow/third_party/cmsis_nn/Include/arm_nnsupportfunctions.h **** {
 852:Middlewares/tensorflow/third_party/cmsis_nn/Include/arm_nnsupportfunctions.h ****     int32_t result = 0;
 853:Middlewares/tensorflow/third_party/cmsis_nn/Include/arm_nnsupportfunctions.h ****     const int32_t remainder_mask = (1 << exponent) - 1;
 854:Middlewares/tensorflow/third_party/cmsis_nn/Include/arm_nnsupportfunctions.h ****     int32_t remainder = remainder_mask & dividend;
 855:Middlewares/tensorflow/third_party/cmsis_nn/Include/arm_nnsupportfunctions.h **** 
 856:Middlewares/tensorflow/third_party/cmsis_nn/Include/arm_nnsupportfunctions.h ****     // Basic division
 857:Middlewares/tensorflow/third_party/cmsis_nn/Include/arm_nnsupportfunctions.h ****     result = dividend >> exponent;
 858:Middlewares/tensorflow/third_party/cmsis_nn/Include/arm_nnsupportfunctions.h **** 
 859:Middlewares/tensorflow/third_party/cmsis_nn/Include/arm_nnsupportfunctions.h ****     // Adjust 'result' for rounding (mid point away from zero)
 860:Middlewares/tensorflow/third_party/cmsis_nn/Include/arm_nnsupportfunctions.h ****     int32_t threshold = remainder_mask >> 1;
 861:Middlewares/tensorflow/third_party/cmsis_nn/Include/arm_nnsupportfunctions.h ****     if (result < 0)
 862:Middlewares/tensorflow/third_party/cmsis_nn/Include/arm_nnsupportfunctions.h ****     {
 863:Middlewares/tensorflow/third_party/cmsis_nn/Include/arm_nnsupportfunctions.h ****         threshold++;
 864:Middlewares/tensorflow/third_party/cmsis_nn/Include/arm_nnsupportfunctions.h ****     }
 865:Middlewares/tensorflow/third_party/cmsis_nn/Include/arm_nnsupportfunctions.h ****     if (remainder > threshold)
 866:Middlewares/tensorflow/third_party/cmsis_nn/Include/arm_nnsupportfunctions.h ****     {
 867:Middlewares/tensorflow/third_party/cmsis_nn/Include/arm_nnsupportfunctions.h ****         result++;
 868:Middlewares/tensorflow/third_party/cmsis_nn/Include/arm_nnsupportfunctions.h ****     }
 869:Middlewares/tensorflow/third_party/cmsis_nn/Include/arm_nnsupportfunctions.h **** 
 870:Middlewares/tensorflow/third_party/cmsis_nn/Include/arm_nnsupportfunctions.h ****     return result;
 871:Middlewares/tensorflow/third_party/cmsis_nn/Include/arm_nnsupportfunctions.h **** }
 872:Middlewares/tensorflow/third_party/cmsis_nn/Include/arm_nnsupportfunctions.h **** 
 873:Middlewares/tensorflow/third_party/cmsis_nn/Include/arm_nnsupportfunctions.h **** /**
 874:Middlewares/tensorflow/third_party/cmsis_nn/Include/arm_nnsupportfunctions.h ****  * @brief           Requantize a given value.
 875:Middlewares/tensorflow/third_party/cmsis_nn/Include/arm_nnsupportfunctions.h ****  * @param[in]       val         Value to be requantized
 876:Middlewares/tensorflow/third_party/cmsis_nn/Include/arm_nnsupportfunctions.h ****  * @param[in]       multiplier  multiplier. Range {NN_Q31_MIN + 1, Q32_MAX}
 877:Middlewares/tensorflow/third_party/cmsis_nn/Include/arm_nnsupportfunctions.h ****  * @param[in]       shift       left or right shift for 'val * multiplier'
 878:Middlewares/tensorflow/third_party/cmsis_nn/Include/arm_nnsupportfunctions.h ****  *
 879:Middlewares/tensorflow/third_party/cmsis_nn/Include/arm_nnsupportfunctions.h ****  * @return          Returns (val * multiplier)/(2 ^ shift)
 880:Middlewares/tensorflow/third_party/cmsis_nn/Include/arm_nnsupportfunctions.h ****  *
 881:Middlewares/tensorflow/third_party/cmsis_nn/Include/arm_nnsupportfunctions.h ****  */
 882:Middlewares/tensorflow/third_party/cmsis_nn/Include/arm_nnsupportfunctions.h **** __STATIC_FORCEINLINE int32_t arm_nn_requantize(const int32_t val, const int32_t multiplier, const i
 617              		.loc 2 882 30 is_stmt 1 view .LVU208
 618              	.LBB576:
 883:Middlewares/tensorflow/third_party/cmsis_nn/Include/arm_nnsupportfunctions.h **** {
 884:Middlewares/tensorflow/third_party/cmsis_nn/Include/arm_nnsupportfunctions.h **** #ifdef CMSIS_NN_USE_SINGLE_ROUNDING
 885:Middlewares/tensorflow/third_party/cmsis_nn/Include/arm_nnsupportfunctions.h ****     const int64_t total_shift = 31 - shift;
 886:Middlewares/tensorflow/third_party/cmsis_nn/Include/arm_nnsupportfunctions.h ****     const int64_t new_val = val * (int64_t)multiplier;
 887:Middlewares/tensorflow/third_party/cmsis_nn/Include/arm_nnsupportfunctions.h **** 
 888:Middlewares/tensorflow/third_party/cmsis_nn/Include/arm_nnsupportfunctions.h ****     int32_t result = new_val >> (total_shift - 1);
 889:Middlewares/tensorflow/third_party/cmsis_nn/Include/arm_nnsupportfunctions.h ****     result = (result + 1) >> 1;
 890:Middlewares/tensorflow/third_party/cmsis_nn/Include/arm_nnsupportfunctions.h **** 
ARM GAS  /tmp/cc6Z6mIk.s 			page 41


 891:Middlewares/tensorflow/third_party/cmsis_nn/Include/arm_nnsupportfunctions.h ****     return result;
 892:Middlewares/tensorflow/third_party/cmsis_nn/Include/arm_nnsupportfunctions.h **** #else
 893:Middlewares/tensorflow/third_party/cmsis_nn/Include/arm_nnsupportfunctions.h ****     return arm_nn_divide_by_power_of_two(arm_nn_doubling_high_mult_no_sat(val * (1 << LEFT_SHIFT(sh
 619              		.loc 2 893 5 view .LVU209
 620              		.loc 2 893 87 is_stmt 0 view .LVU210
 621 0120 2CEAEC74 		bic	r4, ip, ip, asr #31
 622 0124 0F94     		str	r4, [sp, #60]
 623              		.loc 2 893 12 view .LVU211
 624 0126 A040     		lsls	r0, r0, r4
 625              	.LVL60:
 626              	.LBB577:
 627              	.LBI577:
 823:Middlewares/tensorflow/third_party/cmsis_nn/Include/arm_nnsupportfunctions.h **** {
 628              		.loc 2 823 30 is_stmt 1 view .LVU212
 629              	.LBB578:
 825:Middlewares/tensorflow/third_party/cmsis_nn/Include/arm_nnsupportfunctions.h ****     union arm_nn_long_long mult;
 630              		.loc 2 825 5 view .LVU213
 826:Middlewares/tensorflow/third_party/cmsis_nn/Include/arm_nnsupportfunctions.h **** 
 631              		.loc 2 826 5 view .LVU214
 829:Middlewares/tensorflow/third_party/cmsis_nn/Include/arm_nnsupportfunctions.h ****     mult.word.high = 0;
 632              		.loc 2 829 5 view .LVU215
 830:Middlewares/tensorflow/third_party/cmsis_nn/Include/arm_nnsupportfunctions.h **** 
 633              		.loc 2 830 5 view .LVU216
 833:Middlewares/tensorflow/third_party/cmsis_nn/Include/arm_nnsupportfunctions.h **** 
 634              		.loc 2 833 5 view .LVU217
