ARM GAS  /tmp/ccFCOfgV.s 			page 1


   1              		.cpu cortex-m4
   2              		.eabi_attribute 27, 1
   3              		.eabi_attribute 28, 1
   4              		.eabi_attribute 20, 1
   5              		.eabi_attribute 21, 1
   6              		.eabi_attribute 23, 3
   7              		.eabi_attribute 24, 1
   8              		.eabi_attribute 25, 1
   9              		.eabi_attribute 26, 1
  10              		.eabi_attribute 30, 1
  11              		.eabi_attribute 34, 1
  12              		.eabi_attribute 18, 4
  13              		.file	"arm_q7_to_q15_with_offset.c"
  14              		.text
  15              	.Ltext0:
  16              		.cfi_sections	.debug_frame
  17              		.section	.text.arm_q7_to_q15_with_offset,"ax",%progbits
  18              		.align	1
  19              		.global	arm_q7_to_q15_with_offset
  20              		.arch armv7e-m
  21              		.syntax unified
  22              		.thumb
  23              		.thumb_func
  24              		.fpu fpv4-sp-d16
  26              	arm_q7_to_q15_with_offset:
  27              	.LVL0:
  28              	.LFB47:
  29              		.file 1 "Middlewares/tensorflow/third_party/cmsis_nn/Source/NNSupportFunctions/arm_q7_to_q15_with_
   1:Middlewares/tensorflow/third_party/cmsis_nn/Source/NNSupportFunctions/arm_q7_to_q15_with_offset.c **** /*
   2:Middlewares/tensorflow/third_party/cmsis_nn/Source/NNSupportFunctions/arm_q7_to_q15_with_offset.c ****  * SPDX-FileCopyrightText: Copyright 2010-2023 Arm Limited and/or its affiliates <open-source-offic
   3:Middlewares/tensorflow/third_party/cmsis_nn/Source/NNSupportFunctions/arm_q7_to_q15_with_offset.c ****  *
   4:Middlewares/tensorflow/third_party/cmsis_nn/Source/NNSupportFunctions/arm_q7_to_q15_with_offset.c ****  * SPDX-License-Identifier: Apache-2.0
   5:Middlewares/tensorflow/third_party/cmsis_nn/Source/NNSupportFunctions/arm_q7_to_q15_with_offset.c ****  *
   6:Middlewares/tensorflow/third_party/cmsis_nn/Source/NNSupportFunctions/arm_q7_to_q15_with_offset.c ****  * Licensed under the Apache License, Version 2.0 (the License); you may
   7:Middlewares/tensorflow/third_party/cmsis_nn/Source/NNSupportFunctions/arm_q7_to_q15_with_offset.c ****  * not use this file except in_q7x4 compliance with the License.
   8:Middlewares/tensorflow/third_party/cmsis_nn/Source/NNSupportFunctions/arm_q7_to_q15_with_offset.c ****  * You may obtain a copy of the License at
   9:Middlewares/tensorflow/third_party/cmsis_nn/Source/NNSupportFunctions/arm_q7_to_q15_with_offset.c ****  *
  10:Middlewares/tensorflow/third_party/cmsis_nn/Source/NNSupportFunctions/arm_q7_to_q15_with_offset.c ****  * www.apache.org/licenses/LICENSE-2.0
  11:Middlewares/tensorflow/third_party/cmsis_nn/Source/NNSupportFunctions/arm_q7_to_q15_with_offset.c ****  *
  12:Middlewares/tensorflow/third_party/cmsis_nn/Source/NNSupportFunctions/arm_q7_to_q15_with_offset.c ****  * Unless required by applicable law or agreed to in_q7x4 writing, software
  13:Middlewares/tensorflow/third_party/cmsis_nn/Source/NNSupportFunctions/arm_q7_to_q15_with_offset.c ****  * distributed under the License is distributed on an AS IS BASIS, WITHOUT
  14:Middlewares/tensorflow/third_party/cmsis_nn/Source/NNSupportFunctions/arm_q7_to_q15_with_offset.c ****  * WARRANTIES OR CONDITIONS OF ANY KIND, either express or implied.
  15:Middlewares/tensorflow/third_party/cmsis_nn/Source/NNSupportFunctions/arm_q7_to_q15_with_offset.c ****  * See the License for the specific language governing permissions and
  16:Middlewares/tensorflow/third_party/cmsis_nn/Source/NNSupportFunctions/arm_q7_to_q15_with_offset.c ****  * limitations under the License.
  17:Middlewares/tensorflow/third_party/cmsis_nn/Source/NNSupportFunctions/arm_q7_to_q15_with_offset.c ****  */
  18:Middlewares/tensorflow/third_party/cmsis_nn/Source/NNSupportFunctions/arm_q7_to_q15_with_offset.c **** 
  19:Middlewares/tensorflow/third_party/cmsis_nn/Source/NNSupportFunctions/arm_q7_to_q15_with_offset.c **** /* ----------------------------------------------------------------------
  20:Middlewares/tensorflow/third_party/cmsis_nn/Source/NNSupportFunctions/arm_q7_to_q15_with_offset.c ****  * Project:      CMSIS NN Library
  21:Middlewares/tensorflow/third_party/cmsis_nn/Source/NNSupportFunctions/arm_q7_to_q15_with_offset.c ****  * Title:        arm_q7_to_q15_with_offset.c
  22:Middlewares/tensorflow/third_party/cmsis_nn/Source/NNSupportFunctions/arm_q7_to_q15_with_offset.c ****  * Description:  Converts the elements of the Q7 vector to Q15 vector with an added offset
  23:Middlewares/tensorflow/third_party/cmsis_nn/Source/NNSupportFunctions/arm_q7_to_q15_with_offset.c ****  *
  24:Middlewares/tensorflow/third_party/cmsis_nn/Source/NNSupportFunctions/arm_q7_to_q15_with_offset.c ****  * $Date:        5 January 2023
  25:Middlewares/tensorflow/third_party/cmsis_nn/Source/NNSupportFunctions/arm_q7_to_q15_with_offset.c ****  * $Revision:    V.2.1.0
  26:Middlewares/tensorflow/third_party/cmsis_nn/Source/NNSupportFunctions/arm_q7_to_q15_with_offset.c ****  *
  27:Middlewares/tensorflow/third_party/cmsis_nn/Source/NNSupportFunctions/arm_q7_to_q15_with_offset.c ****  * Target :  Arm(R) M-Profile Architecture
  28:Middlewares/tensorflow/third_party/cmsis_nn/Source/NNSupportFunctions/arm_q7_to_q15_with_offset.c ****  *
  29:Middlewares/tensorflow/third_party/cmsis_nn/Source/NNSupportFunctions/arm_q7_to_q15_with_offset.c ****  * -------------------------------------------------------------------- */
ARM GAS  /tmp/ccFCOfgV.s 			page 2


  30:Middlewares/tensorflow/third_party/cmsis_nn/Source/NNSupportFunctions/arm_q7_to_q15_with_offset.c **** 
  31:Middlewares/tensorflow/third_party/cmsis_nn/Source/NNSupportFunctions/arm_q7_to_q15_with_offset.c **** #include "arm_nnsupportfunctions.h"
  32:Middlewares/tensorflow/third_party/cmsis_nn/Source/NNSupportFunctions/arm_q7_to_q15_with_offset.c **** 
  33:Middlewares/tensorflow/third_party/cmsis_nn/Source/NNSupportFunctions/arm_q7_to_q15_with_offset.c **** /**
  34:Middlewares/tensorflow/third_party/cmsis_nn/Source/NNSupportFunctions/arm_q7_to_q15_with_offset.c ****  * @ingroup groupSupport
  35:Middlewares/tensorflow/third_party/cmsis_nn/Source/NNSupportFunctions/arm_q7_to_q15_with_offset.c ****  */
  36:Middlewares/tensorflow/third_party/cmsis_nn/Source/NNSupportFunctions/arm_q7_to_q15_with_offset.c **** 
  37:Middlewares/tensorflow/third_party/cmsis_nn/Source/NNSupportFunctions/arm_q7_to_q15_with_offset.c **** /**
  38:Middlewares/tensorflow/third_party/cmsis_nn/Source/NNSupportFunctions/arm_q7_to_q15_with_offset.c ****  * @addtogroup supportConversion
  39:Middlewares/tensorflow/third_party/cmsis_nn/Source/NNSupportFunctions/arm_q7_to_q15_with_offset.c ****  * @{
  40:Middlewares/tensorflow/third_party/cmsis_nn/Source/NNSupportFunctions/arm_q7_to_q15_with_offset.c ****  */
  41:Middlewares/tensorflow/third_party/cmsis_nn/Source/NNSupportFunctions/arm_q7_to_q15_with_offset.c **** 
  42:Middlewares/tensorflow/third_party/cmsis_nn/Source/NNSupportFunctions/arm_q7_to_q15_with_offset.c **** void arm_q7_to_q15_with_offset(const int8_t *src, int16_t *dst, uint32_t block_size, int16_t offset
  43:Middlewares/tensorflow/third_party/cmsis_nn/Source/NNSupportFunctions/arm_q7_to_q15_with_offset.c **** {
  30              		.loc 1 43 1 view -0
  31              		.cfi_startproc
  32              		@ args = 0, pretend = 0, frame = 0
  33              		@ frame_needed = 0, uses_anonymous_args = 0
  34              		@ link register save eliminated.
  35              		.loc 1 43 1 is_stmt 0 view .LVU1
  36 0000 F0B4     		push	{r4, r5, r6, r7}
  37              	.LCFI0:
  38              		.cfi_def_cfa_offset 16
  39              		.cfi_offset 4, -16
  40              		.cfi_offset 5, -12
  41              		.cfi_offset 6, -8
  42              		.cfi_offset 7, -4
  44:Middlewares/tensorflow/third_party/cmsis_nn/Source/NNSupportFunctions/arm_q7_to_q15_with_offset.c ****     int block_cnt;
  43              		.loc 1 44 5 is_stmt 1 view .LVU2
  45:Middlewares/tensorflow/third_party/cmsis_nn/Source/NNSupportFunctions/arm_q7_to_q15_with_offset.c **** 
  46:Middlewares/tensorflow/third_party/cmsis_nn/Source/NNSupportFunctions/arm_q7_to_q15_with_offset.c **** #if defined(ARM_MATH_MVEI)
  47:Middlewares/tensorflow/third_party/cmsis_nn/Source/NNSupportFunctions/arm_q7_to_q15_with_offset.c **** 
  48:Middlewares/tensorflow/third_party/cmsis_nn/Source/NNSupportFunctions/arm_q7_to_q15_with_offset.c ****     int16x8_t source;
  49:Middlewares/tensorflow/third_party/cmsis_nn/Source/NNSupportFunctions/arm_q7_to_q15_with_offset.c ****     const int16x8_t source_offset = vdupq_n_s16(offset);
  50:Middlewares/tensorflow/third_party/cmsis_nn/Source/NNSupportFunctions/arm_q7_to_q15_with_offset.c ****     block_cnt = block_size / 8;
  51:Middlewares/tensorflow/third_party/cmsis_nn/Source/NNSupportFunctions/arm_q7_to_q15_with_offset.c **** 
  52:Middlewares/tensorflow/third_party/cmsis_nn/Source/NNSupportFunctions/arm_q7_to_q15_with_offset.c ****     while (block_cnt > 0)
  53:Middlewares/tensorflow/third_party/cmsis_nn/Source/NNSupportFunctions/arm_q7_to_q15_with_offset.c ****     {
  54:Middlewares/tensorflow/third_party/cmsis_nn/Source/NNSupportFunctions/arm_q7_to_q15_with_offset.c ****         source = vldrbq_s16(src);
  55:Middlewares/tensorflow/third_party/cmsis_nn/Source/NNSupportFunctions/arm_q7_to_q15_with_offset.c ****         source = vaddq_s16(source, source_offset);
  56:Middlewares/tensorflow/third_party/cmsis_nn/Source/NNSupportFunctions/arm_q7_to_q15_with_offset.c ****         vstrhq_s16(dst, source);
  57:Middlewares/tensorflow/third_party/cmsis_nn/Source/NNSupportFunctions/arm_q7_to_q15_with_offset.c ****         dst += 8;
  58:Middlewares/tensorflow/third_party/cmsis_nn/Source/NNSupportFunctions/arm_q7_to_q15_with_offset.c ****         src += 8;
  59:Middlewares/tensorflow/third_party/cmsis_nn/Source/NNSupportFunctions/arm_q7_to_q15_with_offset.c ****         block_cnt--;
  60:Middlewares/tensorflow/third_party/cmsis_nn/Source/NNSupportFunctions/arm_q7_to_q15_with_offset.c ****     }
  61:Middlewares/tensorflow/third_party/cmsis_nn/Source/NNSupportFunctions/arm_q7_to_q15_with_offset.c **** 
  62:Middlewares/tensorflow/third_party/cmsis_nn/Source/NNSupportFunctions/arm_q7_to_q15_with_offset.c ****     block_cnt = block_size & 0x7;
  63:Middlewares/tensorflow/third_party/cmsis_nn/Source/NNSupportFunctions/arm_q7_to_q15_with_offset.c **** 
  64:Middlewares/tensorflow/third_party/cmsis_nn/Source/NNSupportFunctions/arm_q7_to_q15_with_offset.c **** #elif defined(ARM_MATH_DSP)
  65:Middlewares/tensorflow/third_party/cmsis_nn/Source/NNSupportFunctions/arm_q7_to_q15_with_offset.c ****     /* Run the below code for cores that support SIMD instructions  */
  66:Middlewares/tensorflow/third_party/cmsis_nn/Source/NNSupportFunctions/arm_q7_to_q15_with_offset.c ****     int32_t in_q7x4;
  44              		.loc 1 66 5 view .LVU3
  67:Middlewares/tensorflow/third_party/cmsis_nn/Source/NNSupportFunctions/arm_q7_to_q15_with_offset.c ****     int32_t in_q15x2_1;
  45              		.loc 1 67 5 view .LVU4
  68:Middlewares/tensorflow/third_party/cmsis_nn/Source/NNSupportFunctions/arm_q7_to_q15_with_offset.c ****     int32_t in_q15x2_2;
  46              		.loc 1 68 5 view .LVU5
  69:Middlewares/tensorflow/third_party/cmsis_nn/Source/NNSupportFunctions/arm_q7_to_q15_with_offset.c ****     int32_t out_q15x2_1;
ARM GAS  /tmp/ccFCOfgV.s 			page 3


  47              		.loc 1 69 5 view .LVU6
  70:Middlewares/tensorflow/third_party/cmsis_nn/Source/NNSupportFunctions/arm_q7_to_q15_with_offset.c ****     int32_t out_q15x2_2;
  48              		.loc 1 70 5 view .LVU7
  71:Middlewares/tensorflow/third_party/cmsis_nn/Source/NNSupportFunctions/arm_q7_to_q15_with_offset.c **** 
  72:Middlewares/tensorflow/third_party/cmsis_nn/Source/NNSupportFunctions/arm_q7_to_q15_with_offset.c ****     /*loop unrolling */
  73:Middlewares/tensorflow/third_party/cmsis_nn/Source/NNSupportFunctions/arm_q7_to_q15_with_offset.c ****     block_cnt = block_size >> 2;
  49              		.loc 1 73 5 view .LVU8
  50              		.loc 1 73 28 is_stmt 0 view .LVU9
  51 0002 9608     		lsrs	r6, r2, #2
  52              	.LVL1:
  74:Middlewares/tensorflow/third_party/cmsis_nn/Source/NNSupportFunctions/arm_q7_to_q15_with_offset.c **** 
  75:Middlewares/tensorflow/third_party/cmsis_nn/Source/NNSupportFunctions/arm_q7_to_q15_with_offset.c ****     /* First part of the processing with loop unrolling.  Compute 4 outputs at a time. */
  76:Middlewares/tensorflow/third_party/cmsis_nn/Source/NNSupportFunctions/arm_q7_to_q15_with_offset.c ****     const int32_t offset_q15x2 = PKHBT(offset, offset, 16);
  53              		.loc 1 76 5 is_stmt 1 view .LVU10
  54              	.LBB17:
  55              		.loc 1 76 34 view .LVU11
  56              		.loc 1 76 34 view .LVU12
  57              		.syntax unified
  58              	@ 76 "Middlewares/tensorflow/third_party/cmsis_nn/Source/NNSupportFunctions/arm_q7_to_q15_with_offs
  59 0004 C3EA0347 		pkhbt r7, r3, r3, lsl #16
  60              	@ 0 "" 2
  61              	.LVL2:
  62              		.loc 1 76 34 view .LVU13
  63              		.loc 1 76 34 is_stmt 0 view .LVU14
  64              		.thumb
  65              		.syntax unified
  66              	.LBE17:
  77:Middlewares/tensorflow/third_party/cmsis_nn/Source/NNSupportFunctions/arm_q7_to_q15_with_offset.c ****     while (block_cnt > 0)
  67              		.loc 1 77 5 is_stmt 1 view .LVU15
  68              	.L2:
  69              		.loc 1 77 11 view .LVU16
  70 0008 002E     		cmp	r6, #0
  71 000a 11DD     		ble	.L7
  78:Middlewares/tensorflow/third_party/cmsis_nn/Source/NNSupportFunctions/arm_q7_to_q15_with_offset.c ****     {
  79:Middlewares/tensorflow/third_party/cmsis_nn/Source/NNSupportFunctions/arm_q7_to_q15_with_offset.c ****         /* convert from s8 to s16 and then store the results in the destination buffer */
  80:Middlewares/tensorflow/third_party/cmsis_nn/Source/NNSupportFunctions/arm_q7_to_q15_with_offset.c ****         in_q7x4 = arm_nn_read_s8x4_ia(&src);
  72              		.loc 1 80 9 view .LVU17
  73              	.LVL3:
  74              	.LBB18:
  75              	.LBI18:
  76              		.file 2 "Middlewares/tensorflow/third_party/cmsis_nn/Include/arm_nnsupportfunctions.h"
   1:Middlewares/tensorflow/third_party/cmsis_nn/Include/arm_nnsupportfunctions.h **** /*
   2:Middlewares/tensorflow/third_party/cmsis_nn/Include/arm_nnsupportfunctions.h ****  * SPDX-FileCopyrightText: Copyright 2010-2023 Arm Limited and/or its affiliates <open-source-offic
   3:Middlewares/tensorflow/third_party/cmsis_nn/Include/arm_nnsupportfunctions.h ****  *
   4:Middlewares/tensorflow/third_party/cmsis_nn/Include/arm_nnsupportfunctions.h ****  * SPDX-License-Identifier: Apache-2.0
   5:Middlewares/tensorflow/third_party/cmsis_nn/Include/arm_nnsupportfunctions.h ****  *
   6:Middlewares/tensorflow/third_party/cmsis_nn/Include/arm_nnsupportfunctions.h ****  * Licensed under the Apache License, Version 2.0 (the License); you may
   7:Middlewares/tensorflow/third_party/cmsis_nn/Include/arm_nnsupportfunctions.h ****  * not use this file except in compliance with the License.
   8:Middlewares/tensorflow/third_party/cmsis_nn/Include/arm_nnsupportfunctions.h ****  * You may obtain a copy of the License at
   9:Middlewares/tensorflow/third_party/cmsis_nn/Include/arm_nnsupportfunctions.h ****  *
  10:Middlewares/tensorflow/third_party/cmsis_nn/Include/arm_nnsupportfunctions.h ****  * www.apache.org/licenses/LICENSE-2.0
  11:Middlewares/tensorflow/third_party/cmsis_nn/Include/arm_nnsupportfunctions.h ****  *
  12:Middlewares/tensorflow/third_party/cmsis_nn/Include/arm_nnsupportfunctions.h ****  * Unless required by applicable law or agreed to in writing, software
  13:Middlewares/tensorflow/third_party/cmsis_nn/Include/arm_nnsupportfunctions.h ****  * distributed under the License is distributed on an AS IS BASIS, WITHOUT
  14:Middlewares/tensorflow/third_party/cmsis_nn/Include/arm_nnsupportfunctions.h ****  * WARRANTIES OR CONDITIONS OF ANY KIND, either express or implied.
  15:Middlewares/tensorflow/third_party/cmsis_nn/Include/arm_nnsupportfunctions.h ****  * See the License for the specific language governing permissions and
  16:Middlewares/tensorflow/third_party/cmsis_nn/Include/arm_nnsupportfunctions.h ****  * limitations under the License.
ARM GAS  /tmp/ccFCOfgV.s 			page 4


  17:Middlewares/tensorflow/third_party/cmsis_nn/Include/arm_nnsupportfunctions.h ****  */
  18:Middlewares/tensorflow/third_party/cmsis_nn/Include/arm_nnsupportfunctions.h **** 
  19:Middlewares/tensorflow/third_party/cmsis_nn/Include/arm_nnsupportfunctions.h **** /* ----------------------------------------------------------------------
  20:Middlewares/tensorflow/third_party/cmsis_nn/Include/arm_nnsupportfunctions.h ****  * Project:      CMSIS NN Library
  21:Middlewares/tensorflow/third_party/cmsis_nn/Include/arm_nnsupportfunctions.h ****  * Title:        arm_nnsupportfunctions.h
  22:Middlewares/tensorflow/third_party/cmsis_nn/Include/arm_nnsupportfunctions.h ****  * Description:  Public header file of support functions for CMSIS NN Library
  23:Middlewares/tensorflow/third_party/cmsis_nn/Include/arm_nnsupportfunctions.h ****  *
  24:Middlewares/tensorflow/third_party/cmsis_nn/Include/arm_nnsupportfunctions.h ****  * $Date:        13 Februari 2023
  25:Middlewares/tensorflow/third_party/cmsis_nn/Include/arm_nnsupportfunctions.h ****  * $Revision:    V.15.0.0
  26:Middlewares/tensorflow/third_party/cmsis_nn/Include/arm_nnsupportfunctions.h ****  *
  27:Middlewares/tensorflow/third_party/cmsis_nn/Include/arm_nnsupportfunctions.h ****  * Target :  Arm(R) M-Profile Architecture
  28:Middlewares/tensorflow/third_party/cmsis_nn/Include/arm_nnsupportfunctions.h ****  * -------------------------------------------------------------------- */
  29:Middlewares/tensorflow/third_party/cmsis_nn/Include/arm_nnsupportfunctions.h **** 
  30:Middlewares/tensorflow/third_party/cmsis_nn/Include/arm_nnsupportfunctions.h **** #ifndef _ARM_NNSUPPORTFUNCTIONS_H_
  31:Middlewares/tensorflow/third_party/cmsis_nn/Include/arm_nnsupportfunctions.h **** #define _ARM_NNSUPPORTFUNCTIONS_H_
  32:Middlewares/tensorflow/third_party/cmsis_nn/Include/arm_nnsupportfunctions.h **** 
  33:Middlewares/tensorflow/third_party/cmsis_nn/Include/arm_nnsupportfunctions.h **** #include "Internal/arm_nn_compiler.h"
  34:Middlewares/tensorflow/third_party/cmsis_nn/Include/arm_nnsupportfunctions.h **** #include "arm_nn_math_types.h"
  35:Middlewares/tensorflow/third_party/cmsis_nn/Include/arm_nnsupportfunctions.h **** #include "arm_nn_types.h"
  36:Middlewares/tensorflow/third_party/cmsis_nn/Include/arm_nnsupportfunctions.h **** 
  37:Middlewares/tensorflow/third_party/cmsis_nn/Include/arm_nnsupportfunctions.h **** #include <stdbool.h>
  38:Middlewares/tensorflow/third_party/cmsis_nn/Include/arm_nnsupportfunctions.h **** 
  39:Middlewares/tensorflow/third_party/cmsis_nn/Include/arm_nnsupportfunctions.h **** #ifdef __cplusplus
  40:Middlewares/tensorflow/third_party/cmsis_nn/Include/arm_nnsupportfunctions.h **** extern "C" {
  41:Middlewares/tensorflow/third_party/cmsis_nn/Include/arm_nnsupportfunctions.h **** #endif
  42:Middlewares/tensorflow/third_party/cmsis_nn/Include/arm_nnsupportfunctions.h **** 
  43:Middlewares/tensorflow/third_party/cmsis_nn/Include/arm_nnsupportfunctions.h **** #define USE_FAST_DW_CONV_S16_FUNCTION(dw_conv_params, filter_dims, input_dims)                     
  44:Middlewares/tensorflow/third_party/cmsis_nn/Include/arm_nnsupportfunctions.h ****     (dw_conv_params->ch_mult == 1 && dw_conv_params->dilation.w == 1 && dw_conv_params->dilation.h 
  45:Middlewares/tensorflow/third_party/cmsis_nn/Include/arm_nnsupportfunctions.h ****      filter_dims->w * filter_dims->h < 512)
  46:Middlewares/tensorflow/third_party/cmsis_nn/Include/arm_nnsupportfunctions.h **** 
  47:Middlewares/tensorflow/third_party/cmsis_nn/Include/arm_nnsupportfunctions.h **** #define LEFT_SHIFT(_shift) (_shift > 0 ? _shift : 0)
  48:Middlewares/tensorflow/third_party/cmsis_nn/Include/arm_nnsupportfunctions.h **** #define RIGHT_SHIFT(_shift) (_shift > 0 ? 0 : -_shift)
  49:Middlewares/tensorflow/third_party/cmsis_nn/Include/arm_nnsupportfunctions.h **** #define MASK_IF_ZERO(x) (x) == 0 ? ~0 : 0
  50:Middlewares/tensorflow/third_party/cmsis_nn/Include/arm_nnsupportfunctions.h **** #define MASK_IF_NON_ZERO(x) (x) != 0 ? ~0 : 0
  51:Middlewares/tensorflow/third_party/cmsis_nn/Include/arm_nnsupportfunctions.h **** #define SELECT_USING_MASK(mask, a, b) ((mask) & (a)) ^ (~(mask) & (b))
  52:Middlewares/tensorflow/third_party/cmsis_nn/Include/arm_nnsupportfunctions.h **** 
  53:Middlewares/tensorflow/third_party/cmsis_nn/Include/arm_nnsupportfunctions.h **** #define MAX(A, B) ((A) > (B) ? (A) : (B))
  54:Middlewares/tensorflow/third_party/cmsis_nn/Include/arm_nnsupportfunctions.h **** #define MIN(A, B) ((A) < (B) ? (A) : (B))
  55:Middlewares/tensorflow/third_party/cmsis_nn/Include/arm_nnsupportfunctions.h **** #define CLAMP(x, h, l) MAX(MIN((x), (h)), (l))
  56:Middlewares/tensorflow/third_party/cmsis_nn/Include/arm_nnsupportfunctions.h **** #define REDUCE_MULTIPLIER(_mult) ((_mult < 0x7FFF0000) ? ((_mult + (1 << 15)) >> 16) : 0x7FFF)
  57:Middlewares/tensorflow/third_party/cmsis_nn/Include/arm_nnsupportfunctions.h **** 
  58:Middlewares/tensorflow/third_party/cmsis_nn/Include/arm_nnsupportfunctions.h **** // Number of channels processed in a block for DW Conv(MVE)
  59:Middlewares/tensorflow/third_party/cmsis_nn/Include/arm_nnsupportfunctions.h **** // Requirement: Greater than 0 & less than 128
  60:Middlewares/tensorflow/third_party/cmsis_nn/Include/arm_nnsupportfunctions.h **** // This can be fine tuned to match number of input channels for best performance.
  61:Middlewares/tensorflow/third_party/cmsis_nn/Include/arm_nnsupportfunctions.h **** // A layer with lower number of channels than CH_IN_BLOCK_MVE will result in higher
  62:Middlewares/tensorflow/third_party/cmsis_nn/Include/arm_nnsupportfunctions.h **** // scratch buffer usage and a layer with higher number of channels than CH_IN_BLOCK_MVE
  63:Middlewares/tensorflow/third_party/cmsis_nn/Include/arm_nnsupportfunctions.h **** // will result in lower scratch buffer usage.
  64:Middlewares/tensorflow/third_party/cmsis_nn/Include/arm_nnsupportfunctions.h **** #define CH_IN_BLOCK_MVE (124)
  65:Middlewares/tensorflow/third_party/cmsis_nn/Include/arm_nnsupportfunctions.h **** 
  66:Middlewares/tensorflow/third_party/cmsis_nn/Include/arm_nnsupportfunctions.h **** /**
  67:Middlewares/tensorflow/third_party/cmsis_nn/Include/arm_nnsupportfunctions.h ****  * @brief definition to pack four 8 bit values.
  68:Middlewares/tensorflow/third_party/cmsis_nn/Include/arm_nnsupportfunctions.h ****  */
  69:Middlewares/tensorflow/third_party/cmsis_nn/Include/arm_nnsupportfunctions.h **** #define PACK_S8x4_32x1(v0, v1, v2, v3)                                                             
  70:Middlewares/tensorflow/third_party/cmsis_nn/Include/arm_nnsupportfunctions.h ****     ((((int32_t)(v0) << 0) & (int32_t)0x000000FF) | (((int32_t)(v1) << 8) & (int32_t)0x0000FF00) | 
  71:Middlewares/tensorflow/third_party/cmsis_nn/Include/arm_nnsupportfunctions.h ****      (((int32_t)(v2) << 16) & (int32_t)0x00FF0000) | (((int32_t)(v3) << 24) & (int32_t)0xFF000000))
  72:Middlewares/tensorflow/third_party/cmsis_nn/Include/arm_nnsupportfunctions.h **** 
  73:Middlewares/tensorflow/third_party/cmsis_nn/Include/arm_nnsupportfunctions.h **** /**
ARM GAS  /tmp/ccFCOfgV.s 			page 5


  74:Middlewares/tensorflow/third_party/cmsis_nn/Include/arm_nnsupportfunctions.h ****  * @brief definition to pack two 16 bit values.
  75:Middlewares/tensorflow/third_party/cmsis_nn/Include/arm_nnsupportfunctions.h ****  */
  76:Middlewares/tensorflow/third_party/cmsis_nn/Include/arm_nnsupportfunctions.h **** #define PACK_Q15x2_32x1(v0, v1) (((int32_t)v0 & (int32_t)0xFFFF) | ((int32_t)v1 << 16))
  77:Middlewares/tensorflow/third_party/cmsis_nn/Include/arm_nnsupportfunctions.h **** 
  78:Middlewares/tensorflow/third_party/cmsis_nn/Include/arm_nnsupportfunctions.h **** /**
  79:Middlewares/tensorflow/third_party/cmsis_nn/Include/arm_nnsupportfunctions.h ****  * @brief Union for SIMD access of q31/s16/s8 types
  80:Middlewares/tensorflow/third_party/cmsis_nn/Include/arm_nnsupportfunctions.h ****  */
  81:Middlewares/tensorflow/third_party/cmsis_nn/Include/arm_nnsupportfunctions.h **** union arm_nnword
  82:Middlewares/tensorflow/third_party/cmsis_nn/Include/arm_nnsupportfunctions.h **** {
  83:Middlewares/tensorflow/third_party/cmsis_nn/Include/arm_nnsupportfunctions.h ****     int32_t word;
  84:Middlewares/tensorflow/third_party/cmsis_nn/Include/arm_nnsupportfunctions.h ****     /**< q31 type */
  85:Middlewares/tensorflow/third_party/cmsis_nn/Include/arm_nnsupportfunctions.h ****     int16_t half_words[2];
  86:Middlewares/tensorflow/third_party/cmsis_nn/Include/arm_nnsupportfunctions.h ****     /**< s16 type */
  87:Middlewares/tensorflow/third_party/cmsis_nn/Include/arm_nnsupportfunctions.h ****     int8_t bytes[4];
  88:Middlewares/tensorflow/third_party/cmsis_nn/Include/arm_nnsupportfunctions.h ****     /**< s8 type */
  89:Middlewares/tensorflow/third_party/cmsis_nn/Include/arm_nnsupportfunctions.h **** };
  90:Middlewares/tensorflow/third_party/cmsis_nn/Include/arm_nnsupportfunctions.h **** 
  91:Middlewares/tensorflow/third_party/cmsis_nn/Include/arm_nnsupportfunctions.h **** /**
  92:Middlewares/tensorflow/third_party/cmsis_nn/Include/arm_nnsupportfunctions.h ****  * @brief Union for data type long long
  93:Middlewares/tensorflow/third_party/cmsis_nn/Include/arm_nnsupportfunctions.h ****  */
  94:Middlewares/tensorflow/third_party/cmsis_nn/Include/arm_nnsupportfunctions.h **** struct arm_nn_double
  95:Middlewares/tensorflow/third_party/cmsis_nn/Include/arm_nnsupportfunctions.h **** {
  96:Middlewares/tensorflow/third_party/cmsis_nn/Include/arm_nnsupportfunctions.h ****     uint32_t low;
  97:Middlewares/tensorflow/third_party/cmsis_nn/Include/arm_nnsupportfunctions.h ****     int32_t high;
  98:Middlewares/tensorflow/third_party/cmsis_nn/Include/arm_nnsupportfunctions.h **** };
  99:Middlewares/tensorflow/third_party/cmsis_nn/Include/arm_nnsupportfunctions.h **** 
 100:Middlewares/tensorflow/third_party/cmsis_nn/Include/arm_nnsupportfunctions.h **** union arm_nn_long_long
 101:Middlewares/tensorflow/third_party/cmsis_nn/Include/arm_nnsupportfunctions.h **** {
 102:Middlewares/tensorflow/third_party/cmsis_nn/Include/arm_nnsupportfunctions.h ****     int64_t long_long;
 103:Middlewares/tensorflow/third_party/cmsis_nn/Include/arm_nnsupportfunctions.h ****     struct arm_nn_double word;
 104:Middlewares/tensorflow/third_party/cmsis_nn/Include/arm_nnsupportfunctions.h **** };
 105:Middlewares/tensorflow/third_party/cmsis_nn/Include/arm_nnsupportfunctions.h **** 
 106:Middlewares/tensorflow/third_party/cmsis_nn/Include/arm_nnsupportfunctions.h **** /**
 107:Middlewares/tensorflow/third_party/cmsis_nn/Include/arm_nnsupportfunctions.h ****  * @defgroup groupSupport Private
 108:Middlewares/tensorflow/third_party/cmsis_nn/Include/arm_nnsupportfunctions.h ****  *
 109:Middlewares/tensorflow/third_party/cmsis_nn/Include/arm_nnsupportfunctions.h ****  * Internal Support functions. Not intended to be called direclty by a CMSIS-NN user.
 110:Middlewares/tensorflow/third_party/cmsis_nn/Include/arm_nnsupportfunctions.h ****  *
 111:Middlewares/tensorflow/third_party/cmsis_nn/Include/arm_nnsupportfunctions.h ****  */
 112:Middlewares/tensorflow/third_party/cmsis_nn/Include/arm_nnsupportfunctions.h **** 
 113:Middlewares/tensorflow/third_party/cmsis_nn/Include/arm_nnsupportfunctions.h **** /**
 114:Middlewares/tensorflow/third_party/cmsis_nn/Include/arm_nnsupportfunctions.h ****  * @defgroup supportConversion Data Conversion
 115:Middlewares/tensorflow/third_party/cmsis_nn/Include/arm_nnsupportfunctions.h ****  *
 116:Middlewares/tensorflow/third_party/cmsis_nn/Include/arm_nnsupportfunctions.h ****  * Perform data type conversion in-between neural network operations
 117:Middlewares/tensorflow/third_party/cmsis_nn/Include/arm_nnsupportfunctions.h ****  *
 118:Middlewares/tensorflow/third_party/cmsis_nn/Include/arm_nnsupportfunctions.h ****  */
 119:Middlewares/tensorflow/third_party/cmsis_nn/Include/arm_nnsupportfunctions.h **** 
 120:Middlewares/tensorflow/third_party/cmsis_nn/Include/arm_nnsupportfunctions.h **** /**
 121:Middlewares/tensorflow/third_party/cmsis_nn/Include/arm_nnsupportfunctions.h ****  * @brief Converts the elements from a s8 vector to a s16 vector with an added offset
 122:Middlewares/tensorflow/third_party/cmsis_nn/Include/arm_nnsupportfunctions.h ****  * @param[in]    src        pointer to the s8 input vector
 123:Middlewares/tensorflow/third_party/cmsis_nn/Include/arm_nnsupportfunctions.h ****  * @param[out]   dst        pointer to the s16 output vector
 124:Middlewares/tensorflow/third_party/cmsis_nn/Include/arm_nnsupportfunctions.h ****  * @param[in]    block_size length of the input vector
 125:Middlewares/tensorflow/third_party/cmsis_nn/Include/arm_nnsupportfunctions.h ****  * @param[in]    offset     s8 offset to be added to each input vector element.
 126:Middlewares/tensorflow/third_party/cmsis_nn/Include/arm_nnsupportfunctions.h ****  *
 127:Middlewares/tensorflow/third_party/cmsis_nn/Include/arm_nnsupportfunctions.h ****  * \par Description:
 128:Middlewares/tensorflow/third_party/cmsis_nn/Include/arm_nnsupportfunctions.h ****  *
 129:Middlewares/tensorflow/third_party/cmsis_nn/Include/arm_nnsupportfunctions.h ****  * The equation used for the conversion process is:
 130:Middlewares/tensorflow/third_party/cmsis_nn/Include/arm_nnsupportfunctions.h ****  *
ARM GAS  /tmp/ccFCOfgV.s 			page 6


 131:Middlewares/tensorflow/third_party/cmsis_nn/Include/arm_nnsupportfunctions.h ****  * <pre>
 132:Middlewares/tensorflow/third_party/cmsis_nn/Include/arm_nnsupportfunctions.h ****  *  dst[n] = (int16_t) src[n] + offset;   0 <= n < block_size.
 133:Middlewares/tensorflow/third_party/cmsis_nn/Include/arm_nnsupportfunctions.h ****  * </pre>
 134:Middlewares/tensorflow/third_party/cmsis_nn/Include/arm_nnsupportfunctions.h ****  *
 135:Middlewares/tensorflow/third_party/cmsis_nn/Include/arm_nnsupportfunctions.h ****  */
 136:Middlewares/tensorflow/third_party/cmsis_nn/Include/arm_nnsupportfunctions.h **** void arm_q7_to_q15_with_offset(const int8_t *src, int16_t *dst, uint32_t block_size, int16_t offset
 137:Middlewares/tensorflow/third_party/cmsis_nn/Include/arm_nnsupportfunctions.h **** 
 138:Middlewares/tensorflow/third_party/cmsis_nn/Include/arm_nnsupportfunctions.h **** /**
 139:Middlewares/tensorflow/third_party/cmsis_nn/Include/arm_nnsupportfunctions.h ****  * @brief Depthwise conv on an im2col buffer where the input channel equals output channel.
 140:Middlewares/tensorflow/third_party/cmsis_nn/Include/arm_nnsupportfunctions.h ****  * @param[in]    row     pointer to row
 141:Middlewares/tensorflow/third_party/cmsis_nn/Include/arm_nnsupportfunctions.h ****  * @param[in]    col     pointer to im2col buffer, always consists of 2 columns.
 142:Middlewares/tensorflow/third_party/cmsis_nn/Include/arm_nnsupportfunctions.h ****  * @param[in]    num_ch   number of channels
 143:Middlewares/tensorflow/third_party/cmsis_nn/Include/arm_nnsupportfunctions.h ****  * @param[in]    out_shift  pointer to per output channel requantization shift parameter.
 144:Middlewares/tensorflow/third_party/cmsis_nn/Include/arm_nnsupportfunctions.h ****  * @param[in]    out_mult   pointer to per output channel requantization multiplier parameter.
 145:Middlewares/tensorflow/third_party/cmsis_nn/Include/arm_nnsupportfunctions.h ****  * @param[in]    out_offset      output tensor offset.
 146:Middlewares/tensorflow/third_party/cmsis_nn/Include/arm_nnsupportfunctions.h ****  * @param[in]    activation_min   minimum value to clamp the output to. Range : int8
 147:Middlewares/tensorflow/third_party/cmsis_nn/Include/arm_nnsupportfunctions.h ****  * @param[in]    activation_max   maximum value to clamp the output to. Range : int8
 148:Middlewares/tensorflow/third_party/cmsis_nn/Include/arm_nnsupportfunctions.h ****  * @param[in]    kernel_size   number of elements in one column.
 149:Middlewares/tensorflow/third_party/cmsis_nn/Include/arm_nnsupportfunctions.h ****  * @param[in]    output_bias per output channel bias. Range : int32
 150:Middlewares/tensorflow/third_party/cmsis_nn/Include/arm_nnsupportfunctions.h ****  * @param[out]   out         pointer to output
 151:Middlewares/tensorflow/third_party/cmsis_nn/Include/arm_nnsupportfunctions.h ****  * @return     The function returns one of the two
 152:Middlewares/tensorflow/third_party/cmsis_nn/Include/arm_nnsupportfunctions.h ****  *              1. The incremented output pointer for a successful operation or
 153:Middlewares/tensorflow/third_party/cmsis_nn/Include/arm_nnsupportfunctions.h ****  *              2. NULL if implementation is not available.
 154:Middlewares/tensorflow/third_party/cmsis_nn/Include/arm_nnsupportfunctions.h ****  *
 155:Middlewares/tensorflow/third_party/cmsis_nn/Include/arm_nnsupportfunctions.h ****  * @details     Supported framework: TensorFlow Lite micro.
 156:Middlewares/tensorflow/third_party/cmsis_nn/Include/arm_nnsupportfunctions.h ****  */
 157:Middlewares/tensorflow/third_party/cmsis_nn/Include/arm_nnsupportfunctions.h **** int8_t *arm_nn_depthwise_conv_s8_core(const int8_t *row,
 158:Middlewares/tensorflow/third_party/cmsis_nn/Include/arm_nnsupportfunctions.h ****                                       const int16_t *col,
 159:Middlewares/tensorflow/third_party/cmsis_nn/Include/arm_nnsupportfunctions.h ****                                       const uint16_t num_ch,
 160:Middlewares/tensorflow/third_party/cmsis_nn/Include/arm_nnsupportfunctions.h ****                                       const int32_t *out_shift,
 161:Middlewares/tensorflow/third_party/cmsis_nn/Include/arm_nnsupportfunctions.h ****                                       const int32_t *out_mult,
 162:Middlewares/tensorflow/third_party/cmsis_nn/Include/arm_nnsupportfunctions.h ****                                       const int32_t out_offset,
 163:Middlewares/tensorflow/third_party/cmsis_nn/Include/arm_nnsupportfunctions.h ****                                       const int32_t activation_min,
 164:Middlewares/tensorflow/third_party/cmsis_nn/Include/arm_nnsupportfunctions.h ****                                       const int32_t activation_max,
 165:Middlewares/tensorflow/third_party/cmsis_nn/Include/arm_nnsupportfunctions.h ****                                       const uint16_t kernel_size,
 166:Middlewares/tensorflow/third_party/cmsis_nn/Include/arm_nnsupportfunctions.h ****                                       const int32_t *const output_bias,
 167:Middlewares/tensorflow/third_party/cmsis_nn/Include/arm_nnsupportfunctions.h ****                                       int8_t *out);
 168:Middlewares/tensorflow/third_party/cmsis_nn/Include/arm_nnsupportfunctions.h **** 
 169:Middlewares/tensorflow/third_party/cmsis_nn/Include/arm_nnsupportfunctions.h **** /**
 170:Middlewares/tensorflow/third_party/cmsis_nn/Include/arm_nnsupportfunctions.h ****  * @brief General Matrix-multiplication function with per-channel requantization.
 171:Middlewares/tensorflow/third_party/cmsis_nn/Include/arm_nnsupportfunctions.h ****  * @param[in]       input_row    pointer to row operand
 172:Middlewares/tensorflow/third_party/cmsis_nn/Include/arm_nnsupportfunctions.h ****  * @param[in]       input_col    pointer to col operand
 173:Middlewares/tensorflow/third_party/cmsis_nn/Include/arm_nnsupportfunctions.h ****  * @param[in]       output_ch    number of rows of input_row
 174:Middlewares/tensorflow/third_party/cmsis_nn/Include/arm_nnsupportfunctions.h ****  * @param[in]       col_batches  number of column batches. Range: 1 to 4
 175:Middlewares/tensorflow/third_party/cmsis_nn/Include/arm_nnsupportfunctions.h ****  * @param[in]       output_shift  pointer to per output channel requantization shift parameter.
 176:Middlewares/tensorflow/third_party/cmsis_nn/Include/arm_nnsupportfunctions.h ****  * @param[in]       output_mult   pointer to per output channel requantization multiplier parameter
 177:Middlewares/tensorflow/third_party/cmsis_nn/Include/arm_nnsupportfunctions.h ****  * @param[in]       out_offset    output tensor offset.
 178:Middlewares/tensorflow/third_party/cmsis_nn/Include/arm_nnsupportfunctions.h ****  * @param[in]       col_offset    input tensor(col) offset.
 179:Middlewares/tensorflow/third_party/cmsis_nn/Include/arm_nnsupportfunctions.h ****  * @param[in]       row_offset    kernel offset(row). Not used.
 180:Middlewares/tensorflow/third_party/cmsis_nn/Include/arm_nnsupportfunctions.h ****  * @param[in]       out_activation_min   minimum value to clamp the output to. Range : int8
 181:Middlewares/tensorflow/third_party/cmsis_nn/Include/arm_nnsupportfunctions.h ****  * @param[in]       out_activation_max   maximum value to clamp the output to. Range : int8
 182:Middlewares/tensorflow/third_party/cmsis_nn/Include/arm_nnsupportfunctions.h ****  * @param[in]       row_len       number of elements in each row
 183:Middlewares/tensorflow/third_party/cmsis_nn/Include/arm_nnsupportfunctions.h ****  * @param[in]       bias          per output channel bias. Range : int32
 184:Middlewares/tensorflow/third_party/cmsis_nn/Include/arm_nnsupportfunctions.h ****  * @param[in,out]   out           pointer to output
 185:Middlewares/tensorflow/third_party/cmsis_nn/Include/arm_nnsupportfunctions.h ****  * @return     The function returns one of the two
 186:Middlewares/tensorflow/third_party/cmsis_nn/Include/arm_nnsupportfunctions.h ****  *              1. The incremented output pointer for a successful operation or
 187:Middlewares/tensorflow/third_party/cmsis_nn/Include/arm_nnsupportfunctions.h ****  *              2. NULL if implementation is not available.
ARM GAS  /tmp/ccFCOfgV.s 			page 7


 188:Middlewares/tensorflow/third_party/cmsis_nn/Include/arm_nnsupportfunctions.h ****  *
 189:Middlewares/tensorflow/third_party/cmsis_nn/Include/arm_nnsupportfunctions.h ****  * @details   Supported framework: TensorFlow Lite
 190:Middlewares/tensorflow/third_party/cmsis_nn/Include/arm_nnsupportfunctions.h ****  */
 191:Middlewares/tensorflow/third_party/cmsis_nn/Include/arm_nnsupportfunctions.h **** int8_t *arm_nn_mat_mult_s8(const int8_t *input_row,
 192:Middlewares/tensorflow/third_party/cmsis_nn/Include/arm_nnsupportfunctions.h ****                            const int8_t *input_col,
 193:Middlewares/tensorflow/third_party/cmsis_nn/Include/arm_nnsupportfunctions.h ****                            const uint16_t output_ch,
 194:Middlewares/tensorflow/third_party/cmsis_nn/Include/arm_nnsupportfunctions.h ****                            const uint16_t col_batches,
 195:Middlewares/tensorflow/third_party/cmsis_nn/Include/arm_nnsupportfunctions.h ****                            const int32_t *output_shift,
 196:Middlewares/tensorflow/third_party/cmsis_nn/Include/arm_nnsupportfunctions.h ****                            const int32_t *output_mult,
 197:Middlewares/tensorflow/third_party/cmsis_nn/Include/arm_nnsupportfunctions.h ****                            const int32_t out_offset,
 198:Middlewares/tensorflow/third_party/cmsis_nn/Include/arm_nnsupportfunctions.h ****                            const int32_t col_offset,
 199:Middlewares/tensorflow/third_party/cmsis_nn/Include/arm_nnsupportfunctions.h ****                            const int32_t row_offset,
 200:Middlewares/tensorflow/third_party/cmsis_nn/Include/arm_nnsupportfunctions.h ****                            const int16_t out_activation_min,
 201:Middlewares/tensorflow/third_party/cmsis_nn/Include/arm_nnsupportfunctions.h ****                            const int16_t out_activation_max,
 202:Middlewares/tensorflow/third_party/cmsis_nn/Include/arm_nnsupportfunctions.h ****                            const uint16_t row_len,
 203:Middlewares/tensorflow/third_party/cmsis_nn/Include/arm_nnsupportfunctions.h ****                            const int32_t *const bias,
 204:Middlewares/tensorflow/third_party/cmsis_nn/Include/arm_nnsupportfunctions.h ****                            int8_t *out);
 205:Middlewares/tensorflow/third_party/cmsis_nn/Include/arm_nnsupportfunctions.h **** /**
 206:Middlewares/tensorflow/third_party/cmsis_nn/Include/arm_nnsupportfunctions.h ****  * @brief Matrix-multiplication function for convolution with per-channel requantization for 16 bit
 207:Middlewares/tensorflow/third_party/cmsis_nn/Include/arm_nnsupportfunctions.h ****  * @param[in]       input_a     pointer to operand A
 208:Middlewares/tensorflow/third_party/cmsis_nn/Include/arm_nnsupportfunctions.h ****  * @param[in]       input_b     pointer to operand B, always consists of 2 vectors.
 209:Middlewares/tensorflow/third_party/cmsis_nn/Include/arm_nnsupportfunctions.h ****  * @param[in]       output_ch   number of rows of A
 210:Middlewares/tensorflow/third_party/cmsis_nn/Include/arm_nnsupportfunctions.h ****  * @param[in]       out_shift  pointer to per output channel requantization shift parameter.
 211:Middlewares/tensorflow/third_party/cmsis_nn/Include/arm_nnsupportfunctions.h ****  * @param[in]       out_mult   pointer to per output channel requantization multiplier parameter.
 212:Middlewares/tensorflow/third_party/cmsis_nn/Include/arm_nnsupportfunctions.h ****  * @param[in]       activation_min   minimum value to clamp the output to. Range : int16
 213:Middlewares/tensorflow/third_party/cmsis_nn/Include/arm_nnsupportfunctions.h ****  * @param[in]       activation_max   maximum value to clamp the output to. Range : int16
 214:Middlewares/tensorflow/third_party/cmsis_nn/Include/arm_nnsupportfunctions.h ****  * @param[in]       num_col_a   number of columns of A
 215:Middlewares/tensorflow/third_party/cmsis_nn/Include/arm_nnsupportfunctions.h ****  * @param[in]       output_bias per output channel bias. Range : int64
 216:Middlewares/tensorflow/third_party/cmsis_nn/Include/arm_nnsupportfunctions.h ****  * @param[in,out]   out_0       pointer to output
 217:Middlewares/tensorflow/third_party/cmsis_nn/Include/arm_nnsupportfunctions.h ****  * @return     The function returns one of the two
 218:Middlewares/tensorflow/third_party/cmsis_nn/Include/arm_nnsupportfunctions.h ****  *              1. The incremented output pointer for a successful operation or
 219:Middlewares/tensorflow/third_party/cmsis_nn/Include/arm_nnsupportfunctions.h ****  *              2. NULL if implementation is not available.
 220:Middlewares/tensorflow/third_party/cmsis_nn/Include/arm_nnsupportfunctions.h ****  *
 221:Middlewares/tensorflow/third_party/cmsis_nn/Include/arm_nnsupportfunctions.h ****  * @details   This function does the matrix multiplication of weight matrix for all output channels
 222:Middlewares/tensorflow/third_party/cmsis_nn/Include/arm_nnsupportfunctions.h ****  *            with 2 columns from im2col and produces two elements/output_channel. The outputs are
 223:Middlewares/tensorflow/third_party/cmsis_nn/Include/arm_nnsupportfunctions.h ****  *            clamped in the range provided by activation min and max.
 224:Middlewares/tensorflow/third_party/cmsis_nn/Include/arm_nnsupportfunctions.h ****  *            Supported framework: TensorFlow Lite micro.
 225:Middlewares/tensorflow/third_party/cmsis_nn/Include/arm_nnsupportfunctions.h ****  */
 226:Middlewares/tensorflow/third_party/cmsis_nn/Include/arm_nnsupportfunctions.h **** int16_t *arm_nn_mat_mult_kernel_s16(const int8_t *input_a,
 227:Middlewares/tensorflow/third_party/cmsis_nn/Include/arm_nnsupportfunctions.h ****                                     const int16_t *input_b,
 228:Middlewares/tensorflow/third_party/cmsis_nn/Include/arm_nnsupportfunctions.h ****                                     const int32_t output_ch,
 229:Middlewares/tensorflow/third_party/cmsis_nn/Include/arm_nnsupportfunctions.h ****                                     const int32_t *out_shift,
 230:Middlewares/tensorflow/third_party/cmsis_nn/Include/arm_nnsupportfunctions.h ****                                     const int32_t *out_mult,
 231:Middlewares/tensorflow/third_party/cmsis_nn/Include/arm_nnsupportfunctions.h ****                                     const int16_t activation_min,
 232:Middlewares/tensorflow/third_party/cmsis_nn/Include/arm_nnsupportfunctions.h ****                                     const int16_t activation_max,
 233:Middlewares/tensorflow/third_party/cmsis_nn/Include/arm_nnsupportfunctions.h ****                                     const int32_t num_col_a,
 234:Middlewares/tensorflow/third_party/cmsis_nn/Include/arm_nnsupportfunctions.h ****                                     const int64_t *const output_bias,
 235:Middlewares/tensorflow/third_party/cmsis_nn/Include/arm_nnsupportfunctions.h ****                                     int16_t *out_0);
 236:Middlewares/tensorflow/third_party/cmsis_nn/Include/arm_nnsupportfunctions.h **** 
 237:Middlewares/tensorflow/third_party/cmsis_nn/Include/arm_nnsupportfunctions.h **** /**
 238:Middlewares/tensorflow/third_party/cmsis_nn/Include/arm_nnsupportfunctions.h ****  * @brief General Vector by Matrix multiplication with requantization and storage of result.
 239:Middlewares/tensorflow/third_party/cmsis_nn/Include/arm_nnsupportfunctions.h ****  * @param[in]       row_elements          number of row elements
 240:Middlewares/tensorflow/third_party/cmsis_nn/Include/arm_nnsupportfunctions.h ****  * @param[in]       skipped_row_elements  number of row elements skipped due to padding.
 241:Middlewares/tensorflow/third_party/cmsis_nn/Include/arm_nnsupportfunctions.h ****  *                                        row_elements + skipped_row_elements = (kernel_x * kernel_
 242:Middlewares/tensorflow/third_party/cmsis_nn/Include/arm_nnsupportfunctions.h ****  * @param[in]       row_base_ref          pointer to row operand
 243:Middlewares/tensorflow/third_party/cmsis_nn/Include/arm_nnsupportfunctions.h ****  * @param[in]       col_base_ref          pointer to col operand
 244:Middlewares/tensorflow/third_party/cmsis_nn/Include/arm_nnsupportfunctions.h ****  * @param[out]      out_ch                Number of output channels
ARM GAS  /tmp/ccFCOfgV.s 			page 8


 245:Middlewares/tensorflow/third_party/cmsis_nn/Include/arm_nnsupportfunctions.h ****  * @param[in]       conv_params           Pointer to convolution parameters like offsets and activa
 246:Middlewares/tensorflow/third_party/cmsis_nn/Include/arm_nnsupportfunctions.h ****  * @param[in]       quant_params          Pointer to per-channel quantization parameters
 247:Middlewares/tensorflow/third_party/cmsis_nn/Include/arm_nnsupportfunctions.h ****  * @param[in]       bias                  Pointer to optional per-channel bias
 248:Middlewares/tensorflow/third_party/cmsis_nn/Include/arm_nnsupportfunctions.h ****  * @param[out]      output                Pointer to output where int8 results are stored.
 249:Middlewares/tensorflow/third_party/cmsis_nn/Include/arm_nnsupportfunctions.h ****  * @return     The function performs matrix(row_base_ref) multiplication with vector(col_base_ref) 
 250:Middlewares/tensorflow/third_party/cmsis_nn/Include/arm_nnsupportfunctions.h ****  *             scaled result is stored in memory.
 251:Middlewares/tensorflow/third_party/cmsis_nn/Include/arm_nnsupportfunctions.h ****  *
 252:Middlewares/tensorflow/third_party/cmsis_nn/Include/arm_nnsupportfunctions.h ****  * @details Pseudo-code
 253:Middlewares/tensorflow/third_party/cmsis_nn/Include/arm_nnsupportfunctions.h ****  *      *output = 0
 254:Middlewares/tensorflow/third_party/cmsis_nn/Include/arm_nnsupportfunctions.h ****  *      sum_col = 0
 255:Middlewares/tensorflow/third_party/cmsis_nn/Include/arm_nnsupportfunctions.h ****  *      for (j = 0; j < out_ch; j++)
 256:Middlewares/tensorflow/third_party/cmsis_nn/Include/arm_nnsupportfunctions.h ****  *      for (i = 0; i < row_elements; i++)
 257:Middlewares/tensorflow/third_party/cmsis_nn/Include/arm_nnsupportfunctions.h ****  *          *output += row_base_ref[i] * col_base_ref[i]
 258:Middlewares/tensorflow/third_party/cmsis_nn/Include/arm_nnsupportfunctions.h ****  *          sum_col += col_base_ref[i]
 259:Middlewares/tensorflow/third_party/cmsis_nn/Include/arm_nnsupportfunctions.h ****  *      scale sum_col using quant_params and bias
 260:Middlewares/tensorflow/third_party/cmsis_nn/Include/arm_nnsupportfunctions.h ****  *      store result in 'output'
 261:Middlewares/tensorflow/third_party/cmsis_nn/Include/arm_nnsupportfunctions.h ****  *
 262:Middlewares/tensorflow/third_party/cmsis_nn/Include/arm_nnsupportfunctions.h ****  *
 263:Middlewares/tensorflow/third_party/cmsis_nn/Include/arm_nnsupportfunctions.h ****  */
 264:Middlewares/tensorflow/third_party/cmsis_nn/Include/arm_nnsupportfunctions.h **** arm_cmsis_nn_status arm_nn_mat_mul_core_1x_s8(int32_t row_elements,
 265:Middlewares/tensorflow/third_party/cmsis_nn/Include/arm_nnsupportfunctions.h ****                                               const int32_t skipped_row_elements,
 266:Middlewares/tensorflow/third_party/cmsis_nn/Include/arm_nnsupportfunctions.h ****                                               const int8_t *row_base_ref,
 267:Middlewares/tensorflow/third_party/cmsis_nn/Include/arm_nnsupportfunctions.h ****                                               const int8_t *col_base_ref,
 268:Middlewares/tensorflow/third_party/cmsis_nn/Include/arm_nnsupportfunctions.h ****                                               const int32_t out_ch,
 269:Middlewares/tensorflow/third_party/cmsis_nn/Include/arm_nnsupportfunctions.h ****                                               const cmsis_nn_conv_params *conv_params,
 270:Middlewares/tensorflow/third_party/cmsis_nn/Include/arm_nnsupportfunctions.h ****                                               const cmsis_nn_per_channel_quant_params *quant_params
 271:Middlewares/tensorflow/third_party/cmsis_nn/Include/arm_nnsupportfunctions.h ****                                               const int32_t *bias,
 272:Middlewares/tensorflow/third_party/cmsis_nn/Include/arm_nnsupportfunctions.h ****                                               int8_t *output);
 273:Middlewares/tensorflow/third_party/cmsis_nn/Include/arm_nnsupportfunctions.h **** 
 274:Middlewares/tensorflow/third_party/cmsis_nn/Include/arm_nnsupportfunctions.h **** /**
 275:Middlewares/tensorflow/third_party/cmsis_nn/Include/arm_nnsupportfunctions.h ****  * @brief Matrix-multiplication with requantization & activation function for four rows and one col
 276:Middlewares/tensorflow/third_party/cmsis_nn/Include/arm_nnsupportfunctions.h ****  * @param[in]       row_elements  number of row elements
 277:Middlewares/tensorflow/third_party/cmsis_nn/Include/arm_nnsupportfunctions.h ****  * @param[in]       offset        offset between rows. Can be the same as row_elements.
 278:Middlewares/tensorflow/third_party/cmsis_nn/Include/arm_nnsupportfunctions.h ****  *                                For e.g, in a 1x1 conv scenario with stride as 1.
 279:Middlewares/tensorflow/third_party/cmsis_nn/Include/arm_nnsupportfunctions.h ****  * @param[in]       row_base      pointer to row operand
 280:Middlewares/tensorflow/third_party/cmsis_nn/Include/arm_nnsupportfunctions.h ****  * @param[in]       col_base      pointer to col operand
 281:Middlewares/tensorflow/third_party/cmsis_nn/Include/arm_nnsupportfunctions.h ****  * @param[in]       out_ch        Number of output channels
 282:Middlewares/tensorflow/third_party/cmsis_nn/Include/arm_nnsupportfunctions.h ****  * @param[in]       conv_params   Pointer to convolution parameters like offsets and activation val
 283:Middlewares/tensorflow/third_party/cmsis_nn/Include/arm_nnsupportfunctions.h ****  * @param[in]       quant_params  Pointer to per-channel quantization parameters
 284:Middlewares/tensorflow/third_party/cmsis_nn/Include/arm_nnsupportfunctions.h ****  * @param[in]       bias          Pointer to per-channel bias
 285:Middlewares/tensorflow/third_party/cmsis_nn/Include/arm_nnsupportfunctions.h ****  * @param[out]      output        Pointer to output where int8 results are stored.
 286:Middlewares/tensorflow/third_party/cmsis_nn/Include/arm_nnsupportfunctions.h ****  *
 287:Middlewares/tensorflow/third_party/cmsis_nn/Include/arm_nnsupportfunctions.h ****  * @return     The function returns the updated output pointer or NULL if implementation is not ava
 288:Middlewares/tensorflow/third_party/cmsis_nn/Include/arm_nnsupportfunctions.h ****  *
 289:Middlewares/tensorflow/third_party/cmsis_nn/Include/arm_nnsupportfunctions.h ****  * @details Compliant to TFLM int8 specification. MVE implementation only
 290:Middlewares/tensorflow/third_party/cmsis_nn/Include/arm_nnsupportfunctions.h ****  */
 291:Middlewares/tensorflow/third_party/cmsis_nn/Include/arm_nnsupportfunctions.h **** int8_t *arm_nn_mat_mul_core_4x_s8(const int32_t row_elements,
 292:Middlewares/tensorflow/third_party/cmsis_nn/Include/arm_nnsupportfunctions.h ****                                   const int32_t offset,
 293:Middlewares/tensorflow/third_party/cmsis_nn/Include/arm_nnsupportfunctions.h ****                                   const int8_t *row_base,
 294:Middlewares/tensorflow/third_party/cmsis_nn/Include/arm_nnsupportfunctions.h ****                                   const int8_t *col_base,
 295:Middlewares/tensorflow/third_party/cmsis_nn/Include/arm_nnsupportfunctions.h ****                                   const int32_t out_ch,
 296:Middlewares/tensorflow/third_party/cmsis_nn/Include/arm_nnsupportfunctions.h ****                                   const cmsis_nn_conv_params *conv_params,
 297:Middlewares/tensorflow/third_party/cmsis_nn/Include/arm_nnsupportfunctions.h ****                                   const cmsis_nn_per_channel_quant_params *quant_params,
 298:Middlewares/tensorflow/third_party/cmsis_nn/Include/arm_nnsupportfunctions.h ****                                   const int32_t *bias,
 299:Middlewares/tensorflow/third_party/cmsis_nn/Include/arm_nnsupportfunctions.h ****                                   int8_t *output);
 300:Middlewares/tensorflow/third_party/cmsis_nn/Include/arm_nnsupportfunctions.h **** 
 301:Middlewares/tensorflow/third_party/cmsis_nn/Include/arm_nnsupportfunctions.h **** /**
ARM GAS  /tmp/ccFCOfgV.s 			page 9


 302:Middlewares/tensorflow/third_party/cmsis_nn/Include/arm_nnsupportfunctions.h ****  * @brief General Matrix-multiplication function with per-channel requantization.
 303:Middlewares/tensorflow/third_party/cmsis_nn/Include/arm_nnsupportfunctions.h ****  *        This function assumes:
 304:Middlewares/tensorflow/third_party/cmsis_nn/Include/arm_nnsupportfunctions.h ****  *        - LHS input matrix NOT transposed (nt)
 305:Middlewares/tensorflow/third_party/cmsis_nn/Include/arm_nnsupportfunctions.h ****  *        - RHS input matrix transposed (t)
 306:Middlewares/tensorflow/third_party/cmsis_nn/Include/arm_nnsupportfunctions.h ****  *
 307:Middlewares/tensorflow/third_party/cmsis_nn/Include/arm_nnsupportfunctions.h ****  *  @note This operation also performs the broadcast bias addition before the requantization
 308:Middlewares/tensorflow/third_party/cmsis_nn/Include/arm_nnsupportfunctions.h ****  *
 309:Middlewares/tensorflow/third_party/cmsis_nn/Include/arm_nnsupportfunctions.h ****  * @param[in]  lhs                Pointer to the LHS input matrix
 310:Middlewares/tensorflow/third_party/cmsis_nn/Include/arm_nnsupportfunctions.h ****  * @param[in]  rhs                Pointer to the RHS input matrix
 311:Middlewares/tensorflow/third_party/cmsis_nn/Include/arm_nnsupportfunctions.h ****  * @param[in]  bias               Pointer to the bias vector. The length of this vector is equal to
 312:Middlewares/tensorflow/third_party/cmsis_nn/Include/arm_nnsupportfunctions.h ****  * output columns (or RHS input rows)
 313:Middlewares/tensorflow/third_party/cmsis_nn/Include/arm_nnsupportfunctions.h ****  * @param[out] dst                Pointer to the output matrix with "m" rows and "n" columns
 314:Middlewares/tensorflow/third_party/cmsis_nn/Include/arm_nnsupportfunctions.h ****  * @param[in]  dst_multipliers    Pointer to the multipliers vector needed for the per-channel requ
 315:Middlewares/tensorflow/third_party/cmsis_nn/Include/arm_nnsupportfunctions.h ****  *                                The length of this vector is equal to the number of output column
 316:Middlewares/tensorflow/third_party/cmsis_nn/Include/arm_nnsupportfunctions.h ****  * rows)
 317:Middlewares/tensorflow/third_party/cmsis_nn/Include/arm_nnsupportfunctions.h ****  * @param[in]  dst_shifts         Pointer to the shifts vector needed for the per-channel requantiz
 318:Middlewares/tensorflow/third_party/cmsis_nn/Include/arm_nnsupportfunctions.h ****  * of this vector is equal to the number of output columns (or RHS input rows)
 319:Middlewares/tensorflow/third_party/cmsis_nn/Include/arm_nnsupportfunctions.h ****  * @param[in]  lhs_rows           Number of LHS input rows
 320:Middlewares/tensorflow/third_party/cmsis_nn/Include/arm_nnsupportfunctions.h ****  * @param[in]  rhs_rows           Number of RHS input rows
 321:Middlewares/tensorflow/third_party/cmsis_nn/Include/arm_nnsupportfunctions.h ****  * @param[in]  rhs_cols           Number of LHS/RHS input columns
 322:Middlewares/tensorflow/third_party/cmsis_nn/Include/arm_nnsupportfunctions.h ****  * @param[in]  lhs_offset         Offset to be applied to the LHS input value
 323:Middlewares/tensorflow/third_party/cmsis_nn/Include/arm_nnsupportfunctions.h ****  * @param[in]  dst_offset         Offset to be applied the output result
 324:Middlewares/tensorflow/third_party/cmsis_nn/Include/arm_nnsupportfunctions.h ****  * @param[in]  activation_min     Minimum value to clamp down the output. Range : int8
 325:Middlewares/tensorflow/third_party/cmsis_nn/Include/arm_nnsupportfunctions.h ****  * @param[in]  activation_max     Maximum value to clamp up the output. Range : int8
 326:Middlewares/tensorflow/third_party/cmsis_nn/Include/arm_nnsupportfunctions.h ****  * @param[in]  rhs_cols_offset    Offset between input columns. Used to handle non-unity strides
 327:Middlewares/tensorflow/third_party/cmsis_nn/Include/arm_nnsupportfunctions.h ****  *                                Expected value : x * rhs_cols, where x >= 1
 328:Middlewares/tensorflow/third_party/cmsis_nn/Include/arm_nnsupportfunctions.h ****  *
 329:Middlewares/tensorflow/third_party/cmsis_nn/Include/arm_nnsupportfunctions.h ****  * @return     The function returns <code>ARM_CMSIS_NN_SUCCESS</code>
 330:Middlewares/tensorflow/third_party/cmsis_nn/Include/arm_nnsupportfunctions.h ****  *
 331:Middlewares/tensorflow/third_party/cmsis_nn/Include/arm_nnsupportfunctions.h ****  */
 332:Middlewares/tensorflow/third_party/cmsis_nn/Include/arm_nnsupportfunctions.h **** arm_cmsis_nn_status arm_nn_mat_mult_nt_t_s8(const int8_t *lhs,
 333:Middlewares/tensorflow/third_party/cmsis_nn/Include/arm_nnsupportfunctions.h ****                                             const int8_t *rhs,
 334:Middlewares/tensorflow/third_party/cmsis_nn/Include/arm_nnsupportfunctions.h ****                                             const int32_t *bias,
 335:Middlewares/tensorflow/third_party/cmsis_nn/Include/arm_nnsupportfunctions.h ****                                             int8_t *dst,
 336:Middlewares/tensorflow/third_party/cmsis_nn/Include/arm_nnsupportfunctions.h ****                                             const int32_t *dst_multipliers,
 337:Middlewares/tensorflow/third_party/cmsis_nn/Include/arm_nnsupportfunctions.h ****                                             const int32_t *dst_shifts,
 338:Middlewares/tensorflow/third_party/cmsis_nn/Include/arm_nnsupportfunctions.h ****                                             const int32_t lhs_rows,
 339:Middlewares/tensorflow/third_party/cmsis_nn/Include/arm_nnsupportfunctions.h ****                                             const int32_t rhs_rows,
 340:Middlewares/tensorflow/third_party/cmsis_nn/Include/arm_nnsupportfunctions.h ****                                             const int32_t rhs_cols,
 341:Middlewares/tensorflow/third_party/cmsis_nn/Include/arm_nnsupportfunctions.h ****                                             const int32_t lhs_offset,
 342:Middlewares/tensorflow/third_party/cmsis_nn/Include/arm_nnsupportfunctions.h ****                                             const int32_t dst_offset,
 343:Middlewares/tensorflow/third_party/cmsis_nn/Include/arm_nnsupportfunctions.h ****                                             const int32_t activation_min,
 344:Middlewares/tensorflow/third_party/cmsis_nn/Include/arm_nnsupportfunctions.h ****                                             const int32_t activation_max,
 345:Middlewares/tensorflow/third_party/cmsis_nn/Include/arm_nnsupportfunctions.h ****                                             const int32_t rhs_cols_offset);
 346:Middlewares/tensorflow/third_party/cmsis_nn/Include/arm_nnsupportfunctions.h **** 
 347:Middlewares/tensorflow/third_party/cmsis_nn/Include/arm_nnsupportfunctions.h **** /**
 348:Middlewares/tensorflow/third_party/cmsis_nn/Include/arm_nnsupportfunctions.h ****  * @brief s8 Vector by Matrix (transposed) multiplication
 349:Middlewares/tensorflow/third_party/cmsis_nn/Include/arm_nnsupportfunctions.h ****  *
 350:Middlewares/tensorflow/third_party/cmsis_nn/Include/arm_nnsupportfunctions.h ****  * @param[in]      lhs             Input left-hand side vector
 351:Middlewares/tensorflow/third_party/cmsis_nn/Include/arm_nnsupportfunctions.h ****  * @param[in]      rhs             Input right-hand side matrix (transposed)
 352:Middlewares/tensorflow/third_party/cmsis_nn/Include/arm_nnsupportfunctions.h ****  * @param[in]      bias            Input bias
 353:Middlewares/tensorflow/third_party/cmsis_nn/Include/arm_nnsupportfunctions.h ****  * @param[out]     dst             Output vector
 354:Middlewares/tensorflow/third_party/cmsis_nn/Include/arm_nnsupportfunctions.h ****  * @param[in]      lhs_offset      Offset to be added to the input values of the left-hand side vec
 355:Middlewares/tensorflow/third_party/cmsis_nn/Include/arm_nnsupportfunctions.h ****  *                                 Range: -127 to 128
 356:Middlewares/tensorflow/third_party/cmsis_nn/Include/arm_nnsupportfunctions.h ****  * @param[in]      dst_offset      Offset to be added to the output values. Range: -127 to 128
 357:Middlewares/tensorflow/third_party/cmsis_nn/Include/arm_nnsupportfunctions.h ****  * @param[in]      dst_multiplier  Output multiplier
 358:Middlewares/tensorflow/third_party/cmsis_nn/Include/arm_nnsupportfunctions.h ****  * @param[in]      dst_shift       Output shift
ARM GAS  /tmp/ccFCOfgV.s 			page 10


 359:Middlewares/tensorflow/third_party/cmsis_nn/Include/arm_nnsupportfunctions.h ****  * @param[in]      rhs_cols        Number of columns in the right-hand side input matrix
 360:Middlewares/tensorflow/third_party/cmsis_nn/Include/arm_nnsupportfunctions.h ****  * @param[in]      rhs_rows        Number of rows in the right-hand side input matrix
 361:Middlewares/tensorflow/third_party/cmsis_nn/Include/arm_nnsupportfunctions.h ****  * @param[in]      activation_min  Minimum value to clamp the output to. Range: int8
 362:Middlewares/tensorflow/third_party/cmsis_nn/Include/arm_nnsupportfunctions.h ****  * @param[in]      activation_max  Maximum value to clamp the output to. Range: int8
 363:Middlewares/tensorflow/third_party/cmsis_nn/Include/arm_nnsupportfunctions.h ****  * @param[in]      address_offset  Memory position offset for dst. First output is stored at 'dst',
 364:Middlewares/tensorflow/third_party/cmsis_nn/Include/arm_nnsupportfunctions.h ****  *                                 second at 'dst + address_offset' and so on. Default value is typ
 365:Middlewares/tensorflow/third_party/cmsis_nn/Include/arm_nnsupportfunctions.h ****  *
 366:Middlewares/tensorflow/third_party/cmsis_nn/Include/arm_nnsupportfunctions.h ****  * @return         The function returns <code>ARM_CMSIS_NN_SUCCESS</code>
 367:Middlewares/tensorflow/third_party/cmsis_nn/Include/arm_nnsupportfunctions.h ****  *
 368:Middlewares/tensorflow/third_party/cmsis_nn/Include/arm_nnsupportfunctions.h ****  */
 369:Middlewares/tensorflow/third_party/cmsis_nn/Include/arm_nnsupportfunctions.h **** arm_cmsis_nn_status arm_nn_vec_mat_mult_t_s8(const int8_t *lhs,
 370:Middlewares/tensorflow/third_party/cmsis_nn/Include/arm_nnsupportfunctions.h ****                                              const int8_t *rhs,
 371:Middlewares/tensorflow/third_party/cmsis_nn/Include/arm_nnsupportfunctions.h ****                                              const int32_t *bias,
 372:Middlewares/tensorflow/third_party/cmsis_nn/Include/arm_nnsupportfunctions.h ****                                              int8_t *dst,
 373:Middlewares/tensorflow/third_party/cmsis_nn/Include/arm_nnsupportfunctions.h ****                                              const int32_t lhs_offset,
 374:Middlewares/tensorflow/third_party/cmsis_nn/Include/arm_nnsupportfunctions.h ****                                              const int32_t dst_offset,
 375:Middlewares/tensorflow/third_party/cmsis_nn/Include/arm_nnsupportfunctions.h ****                                              const int32_t dst_multiplier,
 376:Middlewares/tensorflow/third_party/cmsis_nn/Include/arm_nnsupportfunctions.h ****                                              const int32_t dst_shift,
 377:Middlewares/tensorflow/third_party/cmsis_nn/Include/arm_nnsupportfunctions.h ****                                              const int32_t rhs_cols,
 378:Middlewares/tensorflow/third_party/cmsis_nn/Include/arm_nnsupportfunctions.h ****                                              const int32_t rhs_rows,
 379:Middlewares/tensorflow/third_party/cmsis_nn/Include/arm_nnsupportfunctions.h ****                                              const int32_t activation_min,
 380:Middlewares/tensorflow/third_party/cmsis_nn/Include/arm_nnsupportfunctions.h ****                                              const int32_t activation_max,
 381:Middlewares/tensorflow/third_party/cmsis_nn/Include/arm_nnsupportfunctions.h ****                                              const int32_t address_offset);
 382:Middlewares/tensorflow/third_party/cmsis_nn/Include/arm_nnsupportfunctions.h **** 
 383:Middlewares/tensorflow/third_party/cmsis_nn/Include/arm_nnsupportfunctions.h **** /**
 384:Middlewares/tensorflow/third_party/cmsis_nn/Include/arm_nnsupportfunctions.h ****  * @brief s16 Vector by Matrix (transposed) multiplication
 385:Middlewares/tensorflow/third_party/cmsis_nn/Include/arm_nnsupportfunctions.h ****  *
 386:Middlewares/tensorflow/third_party/cmsis_nn/Include/arm_nnsupportfunctions.h ****  * @param[in]      lhs             Input left-hand side vector
 387:Middlewares/tensorflow/third_party/cmsis_nn/Include/arm_nnsupportfunctions.h ****  * @param[in]      rhs             Input right-hand side matrix (transposed)
 388:Middlewares/tensorflow/third_party/cmsis_nn/Include/arm_nnsupportfunctions.h ****  * @param[in]      bias            Input bias
 389:Middlewares/tensorflow/third_party/cmsis_nn/Include/arm_nnsupportfunctions.h ****  * @param[out]     dst             Output vector
 390:Middlewares/tensorflow/third_party/cmsis_nn/Include/arm_nnsupportfunctions.h ****  * @param[in]      dst_multiplier  Output multiplier
 391:Middlewares/tensorflow/third_party/cmsis_nn/Include/arm_nnsupportfunctions.h ****  * @param[in]      dst_shift       Output shift
 392:Middlewares/tensorflow/third_party/cmsis_nn/Include/arm_nnsupportfunctions.h ****  * @param[in]      rhs_cols        Number of columns in the right-hand side input matrix
 393:Middlewares/tensorflow/third_party/cmsis_nn/Include/arm_nnsupportfunctions.h ****  * @param[in]      rhs_rows        Number of rows in the right-hand side input matrix
 394:Middlewares/tensorflow/third_party/cmsis_nn/Include/arm_nnsupportfunctions.h ****  * @param[in]      activation_min  Minimum value to clamp the output to. Range: int16
 395:Middlewares/tensorflow/third_party/cmsis_nn/Include/arm_nnsupportfunctions.h ****  * @param[in]      activation_max  Maximum value to clamp the output to. Range: int16
 396:Middlewares/tensorflow/third_party/cmsis_nn/Include/arm_nnsupportfunctions.h ****  *
 397:Middlewares/tensorflow/third_party/cmsis_nn/Include/arm_nnsupportfunctions.h ****  * @return         The function returns <code>ARM_CMSIS_NN_SUCCESS</code>
 398:Middlewares/tensorflow/third_party/cmsis_nn/Include/arm_nnsupportfunctions.h ****  *
 399:Middlewares/tensorflow/third_party/cmsis_nn/Include/arm_nnsupportfunctions.h ****  */
 400:Middlewares/tensorflow/third_party/cmsis_nn/Include/arm_nnsupportfunctions.h **** arm_cmsis_nn_status arm_nn_vec_mat_mult_t_s16(const int16_t *lhs,
 401:Middlewares/tensorflow/third_party/cmsis_nn/Include/arm_nnsupportfunctions.h ****                                               const int8_t *rhs,
 402:Middlewares/tensorflow/third_party/cmsis_nn/Include/arm_nnsupportfunctions.h ****                                               const int64_t *bias,
 403:Middlewares/tensorflow/third_party/cmsis_nn/Include/arm_nnsupportfunctions.h ****                                               int16_t *dst,
 404:Middlewares/tensorflow/third_party/cmsis_nn/Include/arm_nnsupportfunctions.h ****                                               const int32_t dst_multiplier,
 405:Middlewares/tensorflow/third_party/cmsis_nn/Include/arm_nnsupportfunctions.h ****                                               const int32_t dst_shift,
 406:Middlewares/tensorflow/third_party/cmsis_nn/Include/arm_nnsupportfunctions.h ****                                               const int32_t rhs_cols,
 407:Middlewares/tensorflow/third_party/cmsis_nn/Include/arm_nnsupportfunctions.h ****                                               const int32_t rhs_rows,
 408:Middlewares/tensorflow/third_party/cmsis_nn/Include/arm_nnsupportfunctions.h ****                                               const int32_t activation_min,
 409:Middlewares/tensorflow/third_party/cmsis_nn/Include/arm_nnsupportfunctions.h ****                                               const int32_t activation_max);
 410:Middlewares/tensorflow/third_party/cmsis_nn/Include/arm_nnsupportfunctions.h **** 
 411:Middlewares/tensorflow/third_party/cmsis_nn/Include/arm_nnsupportfunctions.h **** /**
 412:Middlewares/tensorflow/third_party/cmsis_nn/Include/arm_nnsupportfunctions.h ****  * @brief s8 Vector by Matrix (transposed) multiplication with s16 output
 413:Middlewares/tensorflow/third_party/cmsis_nn/Include/arm_nnsupportfunctions.h ****  *
 414:Middlewares/tensorflow/third_party/cmsis_nn/Include/arm_nnsupportfunctions.h ****  * @param[in]      lhs             Input left-hand side vector
 415:Middlewares/tensorflow/third_party/cmsis_nn/Include/arm_nnsupportfunctions.h ****  * @param[in]      rhs             Input right-hand side matrix (transposed)
ARM GAS  /tmp/ccFCOfgV.s 			page 11


 416:Middlewares/tensorflow/third_party/cmsis_nn/Include/arm_nnsupportfunctions.h ****  * @param[out]     dst             Output vector
 417:Middlewares/tensorflow/third_party/cmsis_nn/Include/arm_nnsupportfunctions.h ****  * @param[in]      lhs_offset      Offset to be added to the input values of the left-hand side
 418:Middlewares/tensorflow/third_party/cmsis_nn/Include/arm_nnsupportfunctions.h ****  *                                 vector. Range: -127 to 128
 419:Middlewares/tensorflow/third_party/cmsis_nn/Include/arm_nnsupportfunctions.h ****  * @param[in]      scatter_offset  Address offset for dst. First output is stored at 'dst', the
 420:Middlewares/tensorflow/third_party/cmsis_nn/Include/arm_nnsupportfunctions.h ****  *                                 second at 'dst + scatter_offset' and so on.
 421:Middlewares/tensorflow/third_party/cmsis_nn/Include/arm_nnsupportfunctions.h ****  * @param[in]      dst_multiplier  Output multiplier
 422:Middlewares/tensorflow/third_party/cmsis_nn/Include/arm_nnsupportfunctions.h ****  * @param[in]      dst_shift       Output shift
 423:Middlewares/tensorflow/third_party/cmsis_nn/Include/arm_nnsupportfunctions.h ****  * @param[in]      rhs_cols        Number of columns in the right-hand side input matrix
 424:Middlewares/tensorflow/third_party/cmsis_nn/Include/arm_nnsupportfunctions.h ****  * @param[in]      rhs_rows        Number of rows in the right-hand side input matrix
 425:Middlewares/tensorflow/third_party/cmsis_nn/Include/arm_nnsupportfunctions.h ****  * @param[in]      activation_min  Minimum value to clamp the output to. Range: int16
 426:Middlewares/tensorflow/third_party/cmsis_nn/Include/arm_nnsupportfunctions.h ****  * @param[in]      activation_max  Maximum value to clamp the output to. Range: int16
 427:Middlewares/tensorflow/third_party/cmsis_nn/Include/arm_nnsupportfunctions.h ****  *
 428:Middlewares/tensorflow/third_party/cmsis_nn/Include/arm_nnsupportfunctions.h ****  * @return         The function returns <code>ARM_CMSIS_NN_SUCCESS</code>
 429:Middlewares/tensorflow/third_party/cmsis_nn/Include/arm_nnsupportfunctions.h ****  *
 430:Middlewares/tensorflow/third_party/cmsis_nn/Include/arm_nnsupportfunctions.h ****  */
 431:Middlewares/tensorflow/third_party/cmsis_nn/Include/arm_nnsupportfunctions.h **** arm_cmsis_nn_status arm_nn_vec_mat_mult_t_svdf_s8(const int8_t *lhs,
 432:Middlewares/tensorflow/third_party/cmsis_nn/Include/arm_nnsupportfunctions.h ****                                                   const int8_t *rhs,
 433:Middlewares/tensorflow/third_party/cmsis_nn/Include/arm_nnsupportfunctions.h ****                                                   int16_t *dst,
 434:Middlewares/tensorflow/third_party/cmsis_nn/Include/arm_nnsupportfunctions.h ****                                                   const int32_t lhs_offset,
 435:Middlewares/tensorflow/third_party/cmsis_nn/Include/arm_nnsupportfunctions.h ****                                                   const int32_t scatter_offset,
 436:Middlewares/tensorflow/third_party/cmsis_nn/Include/arm_nnsupportfunctions.h ****                                                   const int32_t dst_multiplier,
 437:Middlewares/tensorflow/third_party/cmsis_nn/Include/arm_nnsupportfunctions.h ****                                                   const int32_t dst_shift,
 438:Middlewares/tensorflow/third_party/cmsis_nn/Include/arm_nnsupportfunctions.h ****                                                   const int32_t rhs_cols,
 439:Middlewares/tensorflow/third_party/cmsis_nn/Include/arm_nnsupportfunctions.h ****                                                   const int32_t rhs_rows,
 440:Middlewares/tensorflow/third_party/cmsis_nn/Include/arm_nnsupportfunctions.h ****                                                   const int32_t activation_min,
 441:Middlewares/tensorflow/third_party/cmsis_nn/Include/arm_nnsupportfunctions.h ****                                                   const int32_t activation_max);
 442:Middlewares/tensorflow/third_party/cmsis_nn/Include/arm_nnsupportfunctions.h **** 
 443:Middlewares/tensorflow/third_party/cmsis_nn/Include/arm_nnsupportfunctions.h **** /**
 444:Middlewares/tensorflow/third_party/cmsis_nn/Include/arm_nnsupportfunctions.h ****  * @brief Depthwise convolution of transposed rhs matrix with 4 lhs matrices. To be used in padded 
 445:Middlewares/tensorflow/third_party/cmsis_nn/Include/arm_nnsupportfunctions.h ****  *        the padding is -lhs_offset(Range: int8). Dimensions are the same for lhs and rhs.
 446:Middlewares/tensorflow/third_party/cmsis_nn/Include/arm_nnsupportfunctions.h ****  *
 447:Middlewares/tensorflow/third_party/cmsis_nn/Include/arm_nnsupportfunctions.h ****  * @param[in]      lhs             Input left-hand side matrix
 448:Middlewares/tensorflow/third_party/cmsis_nn/Include/arm_nnsupportfunctions.h ****  * @param[in]      rhs             Input right-hand side matrix (transposed)
 449:Middlewares/tensorflow/third_party/cmsis_nn/Include/arm_nnsupportfunctions.h ****  * @param[in]      lhs_offset      LHS matrix offset(input offset). Range: -127 to 128
 450:Middlewares/tensorflow/third_party/cmsis_nn/Include/arm_nnsupportfunctions.h ****  * @param[in]      active_ch       Subset of total_ch processed
 451:Middlewares/tensorflow/third_party/cmsis_nn/Include/arm_nnsupportfunctions.h ****  * @param[in]      total_ch        Number of channels in LHS/RHS
 452:Middlewares/tensorflow/third_party/cmsis_nn/Include/arm_nnsupportfunctions.h ****  * @param[in]      out_shift       Per channel output shift. Length of vector is equal to number of
 453:Middlewares/tensorflow/third_party/cmsis_nn/Include/arm_nnsupportfunctions.h ****  * @param[in]      out_mult        Per channel output multiplier. Length of vector is equal to numb
 454:Middlewares/tensorflow/third_party/cmsis_nn/Include/arm_nnsupportfunctions.h ****  * @param[in]      out_offset      Offset to be added to the output values. Range: -127 to 128
 455:Middlewares/tensorflow/third_party/cmsis_nn/Include/arm_nnsupportfunctions.h ****  * @param[in]      activation_min  Minimum value to clamp the output to. Range: int8
 456:Middlewares/tensorflow/third_party/cmsis_nn/Include/arm_nnsupportfunctions.h ****  * @param[in]      activation_max  Maximum value to clamp the output to. Range: int8
 457:Middlewares/tensorflow/third_party/cmsis_nn/Include/arm_nnsupportfunctions.h ****  * @param[in]       row_x_col       (row_dimension * col_dimension) of LHS/RHS matrix
 458:Middlewares/tensorflow/third_party/cmsis_nn/Include/arm_nnsupportfunctions.h ****  * @param[in]      output_bias     Per channel output bias. Length of vector is equal to number of 
 459:Middlewares/tensorflow/third_party/cmsis_nn/Include/arm_nnsupportfunctions.h ****  * @param[in]      out             Output pointer
 460:Middlewares/tensorflow/third_party/cmsis_nn/Include/arm_nnsupportfunctions.h ****  *
 461:Middlewares/tensorflow/third_party/cmsis_nn/Include/arm_nnsupportfunctions.h ****  * @return         The function returns one of the two
 462:Middlewares/tensorflow/third_party/cmsis_nn/Include/arm_nnsupportfunctions.h ****  *                  - Updated output pointer if an implementation is available
 463:Middlewares/tensorflow/third_party/cmsis_nn/Include/arm_nnsupportfunctions.h ****  *                  - NULL if no implementation is available.
 464:Middlewares/tensorflow/third_party/cmsis_nn/Include/arm_nnsupportfunctions.h ****  *
 465:Middlewares/tensorflow/third_party/cmsis_nn/Include/arm_nnsupportfunctions.h ****  * @note           If number of channels is not a multiple of 4, upto 3 elements outside the bounda
 466:Middlewares/tensorflow/third_party/cmsis_nn/Include/arm_nnsupportfunctions.h ****  * out for the following.
 467:Middlewares/tensorflow/third_party/cmsis_nn/Include/arm_nnsupportfunctions.h ****  *                  - Output shift
 468:Middlewares/tensorflow/third_party/cmsis_nn/Include/arm_nnsupportfunctions.h ****  *                  - Output multiplier
 469:Middlewares/tensorflow/third_party/cmsis_nn/Include/arm_nnsupportfunctions.h ****  *                  - Output bias
 470:Middlewares/tensorflow/third_party/cmsis_nn/Include/arm_nnsupportfunctions.h ****  *                  - rhs
 471:Middlewares/tensorflow/third_party/cmsis_nn/Include/arm_nnsupportfunctions.h ****  */
 472:Middlewares/tensorflow/third_party/cmsis_nn/Include/arm_nnsupportfunctions.h **** arm_cmsis_nn_status arm_nn_depthwise_conv_nt_t_padded_s8(const int8_t *lhs,
ARM GAS  /tmp/ccFCOfgV.s 			page 12


 473:Middlewares/tensorflow/third_party/cmsis_nn/Include/arm_nnsupportfunctions.h ****                                                          const int8_t *rhs,
 474:Middlewares/tensorflow/third_party/cmsis_nn/Include/arm_nnsupportfunctions.h ****                                                          const int32_t lhs_offset,
 475:Middlewares/tensorflow/third_party/cmsis_nn/Include/arm_nnsupportfunctions.h ****                                                          const int32_t active_ch,
 476:Middlewares/tensorflow/third_party/cmsis_nn/Include/arm_nnsupportfunctions.h ****                                                          const int32_t total_ch,
 477:Middlewares/tensorflow/third_party/cmsis_nn/Include/arm_nnsupportfunctions.h ****                                                          const int32_t *out_shift,
 478:Middlewares/tensorflow/third_party/cmsis_nn/Include/arm_nnsupportfunctions.h ****                                                          const int32_t *out_mult,
 479:Middlewares/tensorflow/third_party/cmsis_nn/Include/arm_nnsupportfunctions.h ****                                                          const int32_t out_offset,
 480:Middlewares/tensorflow/third_party/cmsis_nn/Include/arm_nnsupportfunctions.h ****                                                          const int32_t activation_min,
 481:Middlewares/tensorflow/third_party/cmsis_nn/Include/arm_nnsupportfunctions.h ****                                                          const int32_t activation_max,
 482:Middlewares/tensorflow/third_party/cmsis_nn/Include/arm_nnsupportfunctions.h ****                                                          const uint16_t row_x_col,
 483:Middlewares/tensorflow/third_party/cmsis_nn/Include/arm_nnsupportfunctions.h ****                                                          const int32_t *const output_bias,
 484:Middlewares/tensorflow/third_party/cmsis_nn/Include/arm_nnsupportfunctions.h ****                                                          int8_t *out);
 485:Middlewares/tensorflow/third_party/cmsis_nn/Include/arm_nnsupportfunctions.h **** 
 486:Middlewares/tensorflow/third_party/cmsis_nn/Include/arm_nnsupportfunctions.h **** /**
 487:Middlewares/tensorflow/third_party/cmsis_nn/Include/arm_nnsupportfunctions.h ****  * @brief Depthwise convolution of transposed rhs matrix with 4 lhs matrices. To be used in non-pad
 488:Middlewares/tensorflow/third_party/cmsis_nn/Include/arm_nnsupportfunctions.h ****  *        Dimensions are the same for lhs and rhs.
 489:Middlewares/tensorflow/third_party/cmsis_nn/Include/arm_nnsupportfunctions.h ****  *
 490:Middlewares/tensorflow/third_party/cmsis_nn/Include/arm_nnsupportfunctions.h ****  * @param[in]      lhs             Input left-hand side matrix
 491:Middlewares/tensorflow/third_party/cmsis_nn/Include/arm_nnsupportfunctions.h ****  * @param[in]      rhs             Input right-hand side matrix (transposed)
 492:Middlewares/tensorflow/third_party/cmsis_nn/Include/arm_nnsupportfunctions.h ****  * @param[in]      lhs_offset      LHS matrix offset(input offset). Range: -127 to 128
 493:Middlewares/tensorflow/third_party/cmsis_nn/Include/arm_nnsupportfunctions.h ****  * @param[in]      active_ch       Subset of total_ch processed
 494:Middlewares/tensorflow/third_party/cmsis_nn/Include/arm_nnsupportfunctions.h ****  * @param[in]      total_ch        Number of channels in LHS/RHS
 495:Middlewares/tensorflow/third_party/cmsis_nn/Include/arm_nnsupportfunctions.h ****  * @param[in]      out_shift       Per channel output shift. Length of vector is equal to number of
 496:Middlewares/tensorflow/third_party/cmsis_nn/Include/arm_nnsupportfunctions.h ****  * @param[in]      out_mult        Per channel output multiplier. Length of vector is equal to numb
 497:Middlewares/tensorflow/third_party/cmsis_nn/Include/arm_nnsupportfunctions.h ****  * @param[in]      out_offset      Offset to be added to the output values. Range: -127 to 128
 498:Middlewares/tensorflow/third_party/cmsis_nn/Include/arm_nnsupportfunctions.h ****  * @param[in]      activation_min  Minimum value to clamp the output to. Range: int8
 499:Middlewares/tensorflow/third_party/cmsis_nn/Include/arm_nnsupportfunctions.h ****  * @param[in]      activation_max  Maximum value to clamp the output to. Range: int8
 500:Middlewares/tensorflow/third_party/cmsis_nn/Include/arm_nnsupportfunctions.h ****  * @param[in]       row_x_col       (row_dimension * col_dimension) of LHS/RHS matrix
 501:Middlewares/tensorflow/third_party/cmsis_nn/Include/arm_nnsupportfunctions.h ****  * @param[in]      output_bias     Per channel output bias. Length of vector is equal to number of 
 502:Middlewares/tensorflow/third_party/cmsis_nn/Include/arm_nnsupportfunctions.h ****  * @param[in]      out             Output pointer
 503:Middlewares/tensorflow/third_party/cmsis_nn/Include/arm_nnsupportfunctions.h ****  *
 504:Middlewares/tensorflow/third_party/cmsis_nn/Include/arm_nnsupportfunctions.h ****  * @return         The function returns one of the two
 505:Middlewares/tensorflow/third_party/cmsis_nn/Include/arm_nnsupportfunctions.h ****  *                  - Updated output pointer if an implementation is available
 506:Middlewares/tensorflow/third_party/cmsis_nn/Include/arm_nnsupportfunctions.h ****  *                  - NULL if no implementation is available.
 507:Middlewares/tensorflow/third_party/cmsis_nn/Include/arm_nnsupportfunctions.h ****  *
 508:Middlewares/tensorflow/third_party/cmsis_nn/Include/arm_nnsupportfunctions.h ****  * @note           If number of channels is not a multiple of 4, upto 3 elements outside the bounda
 509:Middlewares/tensorflow/third_party/cmsis_nn/Include/arm_nnsupportfunctions.h ****  * out for the following.
 510:Middlewares/tensorflow/third_party/cmsis_nn/Include/arm_nnsupportfunctions.h ****  *                  - Output shift
 511:Middlewares/tensorflow/third_party/cmsis_nn/Include/arm_nnsupportfunctions.h ****  *                  - Output multiplier
 512:Middlewares/tensorflow/third_party/cmsis_nn/Include/arm_nnsupportfunctions.h ****  *                  - Output bias
 513:Middlewares/tensorflow/third_party/cmsis_nn/Include/arm_nnsupportfunctions.h ****  *                  - rhs
 514:Middlewares/tensorflow/third_party/cmsis_nn/Include/arm_nnsupportfunctions.h ****  */
 515:Middlewares/tensorflow/third_party/cmsis_nn/Include/arm_nnsupportfunctions.h **** arm_cmsis_nn_status arm_nn_depthwise_conv_nt_t_s8(const int8_t *lhs,
 516:Middlewares/tensorflow/third_party/cmsis_nn/Include/arm_nnsupportfunctions.h ****                                                   const int8_t *rhs,
 517:Middlewares/tensorflow/third_party/cmsis_nn/Include/arm_nnsupportfunctions.h ****                                                   const int32_t lhs_offset,
 518:Middlewares/tensorflow/third_party/cmsis_nn/Include/arm_nnsupportfunctions.h ****                                                   const int32_t active_ch,
 519:Middlewares/tensorflow/third_party/cmsis_nn/Include/arm_nnsupportfunctions.h ****                                                   const int32_t total_ch,
 520:Middlewares/tensorflow/third_party/cmsis_nn/Include/arm_nnsupportfunctions.h ****                                                   const int32_t *out_shift,
 521:Middlewares/tensorflow/third_party/cmsis_nn/Include/arm_nnsupportfunctions.h ****                                                   const int32_t *out_mult,
 522:Middlewares/tensorflow/third_party/cmsis_nn/Include/arm_nnsupportfunctions.h ****                                                   const int32_t out_offset,
 523:Middlewares/tensorflow/third_party/cmsis_nn/Include/arm_nnsupportfunctions.h ****                                                   const int32_t activation_min,
 524:Middlewares/tensorflow/third_party/cmsis_nn/Include/arm_nnsupportfunctions.h ****                                                   const int32_t activation_max,
 525:Middlewares/tensorflow/third_party/cmsis_nn/Include/arm_nnsupportfunctions.h ****                                                   const uint16_t row_x_col,
 526:Middlewares/tensorflow/third_party/cmsis_nn/Include/arm_nnsupportfunctions.h ****                                                   const int32_t *const output_bias,
 527:Middlewares/tensorflow/third_party/cmsis_nn/Include/arm_nnsupportfunctions.h ****                                                   int8_t *out);
 528:Middlewares/tensorflow/third_party/cmsis_nn/Include/arm_nnsupportfunctions.h **** 
 529:Middlewares/tensorflow/third_party/cmsis_nn/Include/arm_nnsupportfunctions.h **** /**
ARM GAS  /tmp/ccFCOfgV.s 			page 13


 530:Middlewares/tensorflow/third_party/cmsis_nn/Include/arm_nnsupportfunctions.h ****  * @brief Depthwise convolution of transposed rhs matrix with 4 lhs matrices. To be used in non-pad
 531:Middlewares/tensorflow/third_party/cmsis_nn/Include/arm_nnsupportfunctions.h ****  *        Dimensions are the same for lhs and rhs.
 532:Middlewares/tensorflow/third_party/cmsis_nn/Include/arm_nnsupportfunctions.h ****  *
 533:Middlewares/tensorflow/third_party/cmsis_nn/Include/arm_nnsupportfunctions.h ****  * @param[in]      lhs             Input left-hand side matrix
 534:Middlewares/tensorflow/third_party/cmsis_nn/Include/arm_nnsupportfunctions.h ****  * @param[in]      rhs             Input right-hand side matrix (transposed)
 535:Middlewares/tensorflow/third_party/cmsis_nn/Include/arm_nnsupportfunctions.h ****  * @param[in]      num_ch          Number of channels in LHS/RHS
 536:Middlewares/tensorflow/third_party/cmsis_nn/Include/arm_nnsupportfunctions.h ****  * @param[in]      out_shift       Per channel output shift. Length of vector is equal to number of
 537:Middlewares/tensorflow/third_party/cmsis_nn/Include/arm_nnsupportfunctions.h ****  * @param[in]      out_mult        Per channel output multiplier. Length of vector is equal to numb
 538:Middlewares/tensorflow/third_party/cmsis_nn/Include/arm_nnsupportfunctions.h ****  * @param[in]      activation_min  Minimum value to clamp the output to. Range: int8
 539:Middlewares/tensorflow/third_party/cmsis_nn/Include/arm_nnsupportfunctions.h ****  * @param[in]      activation_max  Maximum value to clamp the output to. Range: int8
 540:Middlewares/tensorflow/third_party/cmsis_nn/Include/arm_nnsupportfunctions.h ****  * @param[in]       row_x_col       (row_dimension * col_dimension) of LHS/RHS matrix
 541:Middlewares/tensorflow/third_party/cmsis_nn/Include/arm_nnsupportfunctions.h ****  * @param[in]      output_bias     Per channel output bias. Length of vector is equal to number of 
 542:Middlewares/tensorflow/third_party/cmsis_nn/Include/arm_nnsupportfunctions.h ****  * @param[in]      out             Output pointer
 543:Middlewares/tensorflow/third_party/cmsis_nn/Include/arm_nnsupportfunctions.h ****  *
 544:Middlewares/tensorflow/third_party/cmsis_nn/Include/arm_nnsupportfunctions.h ****  * @return         The function returns one of the two
 545:Middlewares/tensorflow/third_party/cmsis_nn/Include/arm_nnsupportfunctions.h ****  *                  - Updated output pointer if an implementation is available
 546:Middlewares/tensorflow/third_party/cmsis_nn/Include/arm_nnsupportfunctions.h ****  *                  - NULL if no implementation is available.
 547:Middlewares/tensorflow/third_party/cmsis_nn/Include/arm_nnsupportfunctions.h ****  *
 548:Middlewares/tensorflow/third_party/cmsis_nn/Include/arm_nnsupportfunctions.h ****  * @note           If number of channels is not a multiple of 4, upto 3 elements outside the bounda
 549:Middlewares/tensorflow/third_party/cmsis_nn/Include/arm_nnsupportfunctions.h ****  * out for the following.
 550:Middlewares/tensorflow/third_party/cmsis_nn/Include/arm_nnsupportfunctions.h ****  *                  - Output shift
 551:Middlewares/tensorflow/third_party/cmsis_nn/Include/arm_nnsupportfunctions.h ****  *                  - Output multiplier
 552:Middlewares/tensorflow/third_party/cmsis_nn/Include/arm_nnsupportfunctions.h ****  *                  - Output bias
 553:Middlewares/tensorflow/third_party/cmsis_nn/Include/arm_nnsupportfunctions.h ****  *                  - rhs
 554:Middlewares/tensorflow/third_party/cmsis_nn/Include/arm_nnsupportfunctions.h ****  */
 555:Middlewares/tensorflow/third_party/cmsis_nn/Include/arm_nnsupportfunctions.h **** int16_t *arm_nn_depthwise_conv_nt_t_s16(const int16_t *lhs,
 556:Middlewares/tensorflow/third_party/cmsis_nn/Include/arm_nnsupportfunctions.h ****                                         const int8_t *rhs,
 557:Middlewares/tensorflow/third_party/cmsis_nn/Include/arm_nnsupportfunctions.h ****                                         const uint16_t num_ch,
 558:Middlewares/tensorflow/third_party/cmsis_nn/Include/arm_nnsupportfunctions.h ****                                         const int32_t *out_shift,
 559:Middlewares/tensorflow/third_party/cmsis_nn/Include/arm_nnsupportfunctions.h ****                                         const int32_t *out_mult,
 560:Middlewares/tensorflow/third_party/cmsis_nn/Include/arm_nnsupportfunctions.h ****                                         const int32_t activation_min,
 561:Middlewares/tensorflow/third_party/cmsis_nn/Include/arm_nnsupportfunctions.h ****                                         const int32_t activation_max,
 562:Middlewares/tensorflow/third_party/cmsis_nn/Include/arm_nnsupportfunctions.h ****                                         const uint16_t row_x_col,
 563:Middlewares/tensorflow/third_party/cmsis_nn/Include/arm_nnsupportfunctions.h ****                                         const int64_t *const output_bias,
 564:Middlewares/tensorflow/third_party/cmsis_nn/Include/arm_nnsupportfunctions.h ****                                         int16_t *out);
 565:Middlewares/tensorflow/third_party/cmsis_nn/Include/arm_nnsupportfunctions.h **** 
 566:Middlewares/tensorflow/third_party/cmsis_nn/Include/arm_nnsupportfunctions.h **** /**
 567:Middlewares/tensorflow/third_party/cmsis_nn/Include/arm_nnsupportfunctions.h ****   @brief         Read 2 s16 elements and post increment pointer.
 568:Middlewares/tensorflow/third_party/cmsis_nn/Include/arm_nnsupportfunctions.h ****   @param[in]     in_q15   Pointer to pointer that holds address of input.
 569:Middlewares/tensorflow/third_party/cmsis_nn/Include/arm_nnsupportfunctions.h ****   @return        q31 value
 570:Middlewares/tensorflow/third_party/cmsis_nn/Include/arm_nnsupportfunctions.h ****  */
 571:Middlewares/tensorflow/third_party/cmsis_nn/Include/arm_nnsupportfunctions.h **** __STATIC_FORCEINLINE int32_t arm_nn_read_q15x2_ia(const int16_t **in_q15)
 572:Middlewares/tensorflow/third_party/cmsis_nn/Include/arm_nnsupportfunctions.h **** {
 573:Middlewares/tensorflow/third_party/cmsis_nn/Include/arm_nnsupportfunctions.h ****     int32_t val;
 574:Middlewares/tensorflow/third_party/cmsis_nn/Include/arm_nnsupportfunctions.h **** 
 575:Middlewares/tensorflow/third_party/cmsis_nn/Include/arm_nnsupportfunctions.h ****     memcpy(&val, *in_q15, 4);
 576:Middlewares/tensorflow/third_party/cmsis_nn/Include/arm_nnsupportfunctions.h ****     *in_q15 += 2;
 577:Middlewares/tensorflow/third_party/cmsis_nn/Include/arm_nnsupportfunctions.h **** 
 578:Middlewares/tensorflow/third_party/cmsis_nn/Include/arm_nnsupportfunctions.h ****     return (val);
 579:Middlewares/tensorflow/third_party/cmsis_nn/Include/arm_nnsupportfunctions.h **** }
 580:Middlewares/tensorflow/third_party/cmsis_nn/Include/arm_nnsupportfunctions.h **** 
 581:Middlewares/tensorflow/third_party/cmsis_nn/Include/arm_nnsupportfunctions.h **** /**
 582:Middlewares/tensorflow/third_party/cmsis_nn/Include/arm_nnsupportfunctions.h ****   @brief         Read 4 s8 from s8 pointer and post increment pointer.
 583:Middlewares/tensorflow/third_party/cmsis_nn/Include/arm_nnsupportfunctions.h ****   @param[in]     in_s8       Pointer to pointer that holds address of input.
 584:Middlewares/tensorflow/third_party/cmsis_nn/Include/arm_nnsupportfunctions.h ****   @return        q31 value
 585:Middlewares/tensorflow/third_party/cmsis_nn/Include/arm_nnsupportfunctions.h ****  */
 586:Middlewares/tensorflow/third_party/cmsis_nn/Include/arm_nnsupportfunctions.h **** __STATIC_FORCEINLINE int32_t arm_nn_read_s8x4_ia(const int8_t **in_s8)
ARM GAS  /tmp/ccFCOfgV.s 			page 14


  77              		.loc 2 586 30 view .LVU18
  78              	.LBB19:
 587:Middlewares/tensorflow/third_party/cmsis_nn/Include/arm_nnsupportfunctions.h **** {
 588:Middlewares/tensorflow/third_party/cmsis_nn/Include/arm_nnsupportfunctions.h ****     int32_t val;
  79              		.loc 2 588 5 view .LVU19
 589:Middlewares/tensorflow/third_party/cmsis_nn/Include/arm_nnsupportfunctions.h ****     memcpy(&val, *in_s8, 4);
  80              		.loc 2 589 5 view .LVU20
  81 000c 50F8044B 		ldr	r4, [r0], #4	@ unaligned
  82              	.LVL4:
 590:Middlewares/tensorflow/third_party/cmsis_nn/Include/arm_nnsupportfunctions.h ****     *in_s8 += 4;
  83              		.loc 2 590 5 view .LVU21
 591:Middlewares/tensorflow/third_party/cmsis_nn/Include/arm_nnsupportfunctions.h **** 
 592:Middlewares/tensorflow/third_party/cmsis_nn/Include/arm_nnsupportfunctions.h ****     return (val);
  84              		.loc 2 592 5 view .LVU22
  85              		.loc 2 592 5 is_stmt 0 view .LVU23
  86              	.LBE19:
  87              	.LBE18:
  81:Middlewares/tensorflow/third_party/cmsis_nn/Source/NNSupportFunctions/arm_q7_to_q15_with_offset.c **** 
  82:Middlewares/tensorflow/third_party/cmsis_nn/Source/NNSupportFunctions/arm_q7_to_q15_with_offset.c ****         /* Extract and sign extend each of the four s8 values to s16 */
  83:Middlewares/tensorflow/third_party/cmsis_nn/Source/NNSupportFunctions/arm_q7_to_q15_with_offset.c ****         in_q15x2_1 = SXTAB16(offset_q15x2, ROR(in_q7x4, 8));
  88              		.loc 1 83 9 is_stmt 1 view .LVU24
  89              	.LBB20:
  90              	.LBI20:
  91              		.file 3 "Middlewares/tensorflow/third_party/cmsis_nn/Include/Internal/arm_nn_compiler.h"
   1:Middlewares/tensorflow/third_party/cmsis_nn/Include/Internal/arm_nn_compiler.h **** /*
   2:Middlewares/tensorflow/third_party/cmsis_nn/Include/Internal/arm_nn_compiler.h ****  * SPDX-FileCopyrightText: Copyright 2023 Arm Limited and/or its affiliates <open-source-office@arm
   3:Middlewares/tensorflow/third_party/cmsis_nn/Include/Internal/arm_nn_compiler.h ****  *
   4:Middlewares/tensorflow/third_party/cmsis_nn/Include/Internal/arm_nn_compiler.h ****  * SPDX-License-Identifier: Apache-2.0
   5:Middlewares/tensorflow/third_party/cmsis_nn/Include/Internal/arm_nn_compiler.h ****  *
   6:Middlewares/tensorflow/third_party/cmsis_nn/Include/Internal/arm_nn_compiler.h ****  * Licensed under the Apache License, Version 2.0 (the License); you may
   7:Middlewares/tensorflow/third_party/cmsis_nn/Include/Internal/arm_nn_compiler.h ****  * not use this file except in compliance with the License.
   8:Middlewares/tensorflow/third_party/cmsis_nn/Include/Internal/arm_nn_compiler.h ****  * You may obtain a copy of the License at
   9:Middlewares/tensorflow/third_party/cmsis_nn/Include/Internal/arm_nn_compiler.h ****  *
  10:Middlewares/tensorflow/third_party/cmsis_nn/Include/Internal/arm_nn_compiler.h ****  * www.apache.org/licenses/LICENSE-2.0
  11:Middlewares/tensorflow/third_party/cmsis_nn/Include/Internal/arm_nn_compiler.h ****  *
  12:Middlewares/tensorflow/third_party/cmsis_nn/Include/Internal/arm_nn_compiler.h ****  * Unless required by applicable law or agreed to in writing, software
  13:Middlewares/tensorflow/third_party/cmsis_nn/Include/Internal/arm_nn_compiler.h ****  * distributed under the License is distributed on an AS IS BASIS, WITHOUT
  14:Middlewares/tensorflow/third_party/cmsis_nn/Include/Internal/arm_nn_compiler.h ****  * WARRANTIES OR CONDITIONS OF ANY KIND, either express or implied.
  15:Middlewares/tensorflow/third_party/cmsis_nn/Include/Internal/arm_nn_compiler.h ****  * See the License for the specific language governing permissions and
  16:Middlewares/tensorflow/third_party/cmsis_nn/Include/Internal/arm_nn_compiler.h ****  * limitations under the License.
  17:Middlewares/tensorflow/third_party/cmsis_nn/Include/Internal/arm_nn_compiler.h ****  */
  18:Middlewares/tensorflow/third_party/cmsis_nn/Include/Internal/arm_nn_compiler.h **** 
  19:Middlewares/tensorflow/third_party/cmsis_nn/Include/Internal/arm_nn_compiler.h **** /* ----------------------------------------------------------------------
  20:Middlewares/tensorflow/third_party/cmsis_nn/Include/Internal/arm_nn_compiler.h ****  * Project:      CMSIS NN Library
  21:Middlewares/tensorflow/third_party/cmsis_nn/Include/Internal/arm_nn_compiler.h ****  * Title:        arm_nn_compiler.h
  22:Middlewares/tensorflow/third_party/cmsis_nn/Include/Internal/arm_nn_compiler.h ****  * Description:  Generic compiler header
  23:Middlewares/tensorflow/third_party/cmsis_nn/Include/Internal/arm_nn_compiler.h ****  *
  24:Middlewares/tensorflow/third_party/cmsis_nn/Include/Internal/arm_nn_compiler.h ****  * $Date:        31 January 2023
  25:Middlewares/tensorflow/third_party/cmsis_nn/Include/Internal/arm_nn_compiler.h ****  * $Revision:    V.1.1.0
  26:Middlewares/tensorflow/third_party/cmsis_nn/Include/Internal/arm_nn_compiler.h ****  *
  27:Middlewares/tensorflow/third_party/cmsis_nn/Include/Internal/arm_nn_compiler.h ****  * Target :  Arm(R) M-Profile Architecture
  28:Middlewares/tensorflow/third_party/cmsis_nn/Include/Internal/arm_nn_compiler.h ****  * -------------------------------------------------------------------- */
  29:Middlewares/tensorflow/third_party/cmsis_nn/Include/Internal/arm_nn_compiler.h **** 
  30:Middlewares/tensorflow/third_party/cmsis_nn/Include/Internal/arm_nn_compiler.h **** #ifndef ARM_NN_COMPILER_H
  31:Middlewares/tensorflow/third_party/cmsis_nn/Include/Internal/arm_nn_compiler.h **** #define ARM_NN_COMPILER_H
  32:Middlewares/tensorflow/third_party/cmsis_nn/Include/Internal/arm_nn_compiler.h **** #include <stdint.h>
  33:Middlewares/tensorflow/third_party/cmsis_nn/Include/Internal/arm_nn_compiler.h **** 
ARM GAS  /tmp/ccFCOfgV.s 			page 15


  34:Middlewares/tensorflow/third_party/cmsis_nn/Include/Internal/arm_nn_compiler.h **** /**
  35:Middlewares/tensorflow/third_party/cmsis_nn/Include/Internal/arm_nn_compiler.h ****  *
  36:Middlewares/tensorflow/third_party/cmsis_nn/Include/Internal/arm_nn_compiler.h ****  * @brief Arm C-Language Extension(ACLE) Includes
  37:Middlewares/tensorflow/third_party/cmsis_nn/Include/Internal/arm_nn_compiler.h ****  *
  38:Middlewares/tensorflow/third_party/cmsis_nn/Include/Internal/arm_nn_compiler.h ****  */
  39:Middlewares/tensorflow/third_party/cmsis_nn/Include/Internal/arm_nn_compiler.h **** 
  40:Middlewares/tensorflow/third_party/cmsis_nn/Include/Internal/arm_nn_compiler.h **** #if defined(__ARMCC_VERSION) && (__ARMCC_VERSION >= 6010050)
  41:Middlewares/tensorflow/third_party/cmsis_nn/Include/Internal/arm_nn_compiler.h **** 
  42:Middlewares/tensorflow/third_party/cmsis_nn/Include/Internal/arm_nn_compiler.h ****     #ifndef __ASM
  43:Middlewares/tensorflow/third_party/cmsis_nn/Include/Internal/arm_nn_compiler.h ****         #define __ASM __asm
  44:Middlewares/tensorflow/third_party/cmsis_nn/Include/Internal/arm_nn_compiler.h ****     #endif
  45:Middlewares/tensorflow/third_party/cmsis_nn/Include/Internal/arm_nn_compiler.h ****     #ifndef __INLINE
  46:Middlewares/tensorflow/third_party/cmsis_nn/Include/Internal/arm_nn_compiler.h ****         #define __INLINE __inline
  47:Middlewares/tensorflow/third_party/cmsis_nn/Include/Internal/arm_nn_compiler.h ****     #endif
  48:Middlewares/tensorflow/third_party/cmsis_nn/Include/Internal/arm_nn_compiler.h ****     #ifndef __STATIC_INLINE
  49:Middlewares/tensorflow/third_party/cmsis_nn/Include/Internal/arm_nn_compiler.h ****         #define __STATIC_INLINE static __inline
  50:Middlewares/tensorflow/third_party/cmsis_nn/Include/Internal/arm_nn_compiler.h ****     #endif
  51:Middlewares/tensorflow/third_party/cmsis_nn/Include/Internal/arm_nn_compiler.h ****     #ifndef __STATIC_FORCEINLINE
  52:Middlewares/tensorflow/third_party/cmsis_nn/Include/Internal/arm_nn_compiler.h ****         #define __STATIC_FORCEINLINE __attribute__((always_inline)) static __inline
  53:Middlewares/tensorflow/third_party/cmsis_nn/Include/Internal/arm_nn_compiler.h ****     #endif
  54:Middlewares/tensorflow/third_party/cmsis_nn/Include/Internal/arm_nn_compiler.h ****     #ifndef __RESTRICT
  55:Middlewares/tensorflow/third_party/cmsis_nn/Include/Internal/arm_nn_compiler.h ****         #define __RESTRICT __restrict
  56:Middlewares/tensorflow/third_party/cmsis_nn/Include/Internal/arm_nn_compiler.h ****     #endif
  57:Middlewares/tensorflow/third_party/cmsis_nn/Include/Internal/arm_nn_compiler.h **** 
  58:Middlewares/tensorflow/third_party/cmsis_nn/Include/Internal/arm_nn_compiler.h **** #elif defined(__ICCARM__)
  59:Middlewares/tensorflow/third_party/cmsis_nn/Include/Internal/arm_nn_compiler.h **** 
  60:Middlewares/tensorflow/third_party/cmsis_nn/Include/Internal/arm_nn_compiler.h ****     // #warning IAR support is not tested
  61:Middlewares/tensorflow/third_party/cmsis_nn/Include/Internal/arm_nn_compiler.h ****     #ifndef __ASM
  62:Middlewares/tensorflow/third_party/cmsis_nn/Include/Internal/arm_nn_compiler.h ****         #define __ASM __asm
  63:Middlewares/tensorflow/third_party/cmsis_nn/Include/Internal/arm_nn_compiler.h ****     #endif
  64:Middlewares/tensorflow/third_party/cmsis_nn/Include/Internal/arm_nn_compiler.h ****     #ifndef __INLINE
  65:Middlewares/tensorflow/third_party/cmsis_nn/Include/Internal/arm_nn_compiler.h ****         #define __INLINE inline
  66:Middlewares/tensorflow/third_party/cmsis_nn/Include/Internal/arm_nn_compiler.h ****     #endif
  67:Middlewares/tensorflow/third_party/cmsis_nn/Include/Internal/arm_nn_compiler.h ****     #ifndef __STATIC_INLINE
  68:Middlewares/tensorflow/third_party/cmsis_nn/Include/Internal/arm_nn_compiler.h ****         #define __STATIC_INLINE static inline
  69:Middlewares/tensorflow/third_party/cmsis_nn/Include/Internal/arm_nn_compiler.h ****     #endif
  70:Middlewares/tensorflow/third_party/cmsis_nn/Include/Internal/arm_nn_compiler.h ****     #ifndef __FORCEINLINE
  71:Middlewares/tensorflow/third_party/cmsis_nn/Include/Internal/arm_nn_compiler.h ****         #define __FORCEINLINE _Pragma("inline=forced")
  72:Middlewares/tensorflow/third_party/cmsis_nn/Include/Internal/arm_nn_compiler.h ****     #endif
  73:Middlewares/tensorflow/third_party/cmsis_nn/Include/Internal/arm_nn_compiler.h ****     #ifndef __STATIC_FORCEINLINE
  74:Middlewares/tensorflow/third_party/cmsis_nn/Include/Internal/arm_nn_compiler.h ****         #define __STATIC_FORCEINLINE __FORCEINLINE __STATIC_INLINE
  75:Middlewares/tensorflow/third_party/cmsis_nn/Include/Internal/arm_nn_compiler.h ****     #endif
  76:Middlewares/tensorflow/third_party/cmsis_nn/Include/Internal/arm_nn_compiler.h ****     #ifndef __RESTRICT
  77:Middlewares/tensorflow/third_party/cmsis_nn/Include/Internal/arm_nn_compiler.h ****         #define __RESTRICT restrict
  78:Middlewares/tensorflow/third_party/cmsis_nn/Include/Internal/arm_nn_compiler.h ****     #endif
  79:Middlewares/tensorflow/third_party/cmsis_nn/Include/Internal/arm_nn_compiler.h **** 
  80:Middlewares/tensorflow/third_party/cmsis_nn/Include/Internal/arm_nn_compiler.h **** #elif defined(_MSC_VER)
  81:Middlewares/tensorflow/third_party/cmsis_nn/Include/Internal/arm_nn_compiler.h **** 
  82:Middlewares/tensorflow/third_party/cmsis_nn/Include/Internal/arm_nn_compiler.h ****     // Build for non Arm Cortex-M processors is not tested or supported.
  83:Middlewares/tensorflow/third_party/cmsis_nn/Include/Internal/arm_nn_compiler.h ****     // Use this section to stub any macros or intrinsics
  84:Middlewares/tensorflow/third_party/cmsis_nn/Include/Internal/arm_nn_compiler.h ****     #warning Unsupported compiler
  85:Middlewares/tensorflow/third_party/cmsis_nn/Include/Internal/arm_nn_compiler.h ****     #ifndef __STATIC_FORCEINLINE
  86:Middlewares/tensorflow/third_party/cmsis_nn/Include/Internal/arm_nn_compiler.h ****         #define __STATIC_FORCEINLINE static __forceinline
  87:Middlewares/tensorflow/third_party/cmsis_nn/Include/Internal/arm_nn_compiler.h ****     #endif
  88:Middlewares/tensorflow/third_party/cmsis_nn/Include/Internal/arm_nn_compiler.h ****     #ifndef __STATIC_INLINE
  89:Middlewares/tensorflow/third_party/cmsis_nn/Include/Internal/arm_nn_compiler.h ****         #define __STATIC_INLINE static __inline
  90:Middlewares/tensorflow/third_party/cmsis_nn/Include/Internal/arm_nn_compiler.h ****     #endif
ARM GAS  /tmp/ccFCOfgV.s 			page 16


  91:Middlewares/tensorflow/third_party/cmsis_nn/Include/Internal/arm_nn_compiler.h ****     #ifndef __ALIGNED
  92:Middlewares/tensorflow/third_party/cmsis_nn/Include/Internal/arm_nn_compiler.h ****         #define __ALIGNED(x) __declspec(align(x))
  93:Middlewares/tensorflow/third_party/cmsis_nn/Include/Internal/arm_nn_compiler.h ****     #endif
  94:Middlewares/tensorflow/third_party/cmsis_nn/Include/Internal/arm_nn_compiler.h **** 
  95:Middlewares/tensorflow/third_party/cmsis_nn/Include/Internal/arm_nn_compiler.h **** #elif defined(__GNUC__)
  96:Middlewares/tensorflow/third_party/cmsis_nn/Include/Internal/arm_nn_compiler.h **** 
  97:Middlewares/tensorflow/third_party/cmsis_nn/Include/Internal/arm_nn_compiler.h ****     #ifndef __ASM
  98:Middlewares/tensorflow/third_party/cmsis_nn/Include/Internal/arm_nn_compiler.h ****         #define __ASM __asm
  99:Middlewares/tensorflow/third_party/cmsis_nn/Include/Internal/arm_nn_compiler.h ****     #endif
 100:Middlewares/tensorflow/third_party/cmsis_nn/Include/Internal/arm_nn_compiler.h ****     #ifndef __INLINE
 101:Middlewares/tensorflow/third_party/cmsis_nn/Include/Internal/arm_nn_compiler.h ****         #define __INLINE inline
 102:Middlewares/tensorflow/third_party/cmsis_nn/Include/Internal/arm_nn_compiler.h ****     #endif
 103:Middlewares/tensorflow/third_party/cmsis_nn/Include/Internal/arm_nn_compiler.h ****     #ifndef __STATIC_INLINE
 104:Middlewares/tensorflow/third_party/cmsis_nn/Include/Internal/arm_nn_compiler.h ****         #define __STATIC_INLINE static inline
 105:Middlewares/tensorflow/third_party/cmsis_nn/Include/Internal/arm_nn_compiler.h ****     #endif
 106:Middlewares/tensorflow/third_party/cmsis_nn/Include/Internal/arm_nn_compiler.h ****     #ifndef __STATIC_FORCEINLINE
 107:Middlewares/tensorflow/third_party/cmsis_nn/Include/Internal/arm_nn_compiler.h ****         #define __STATIC_FORCEINLINE __attribute__((always_inline)) static inline
 108:Middlewares/tensorflow/third_party/cmsis_nn/Include/Internal/arm_nn_compiler.h ****     #endif
 109:Middlewares/tensorflow/third_party/cmsis_nn/Include/Internal/arm_nn_compiler.h ****     #ifndef __RESTRICT
 110:Middlewares/tensorflow/third_party/cmsis_nn/Include/Internal/arm_nn_compiler.h ****         #define __RESTRICT __restrict
 111:Middlewares/tensorflow/third_party/cmsis_nn/Include/Internal/arm_nn_compiler.h ****     #endif
 112:Middlewares/tensorflow/third_party/cmsis_nn/Include/Internal/arm_nn_compiler.h **** 
 113:Middlewares/tensorflow/third_party/cmsis_nn/Include/Internal/arm_nn_compiler.h **** #else
 114:Middlewares/tensorflow/third_party/cmsis_nn/Include/Internal/arm_nn_compiler.h **** 
 115:Middlewares/tensorflow/third_party/cmsis_nn/Include/Internal/arm_nn_compiler.h ****     #error Unsupported compiler. Add support as needed
 116:Middlewares/tensorflow/third_party/cmsis_nn/Include/Internal/arm_nn_compiler.h **** 
 117:Middlewares/tensorflow/third_party/cmsis_nn/Include/Internal/arm_nn_compiler.h **** #endif
 118:Middlewares/tensorflow/third_party/cmsis_nn/Include/Internal/arm_nn_compiler.h **** 
 119:Middlewares/tensorflow/third_party/cmsis_nn/Include/Internal/arm_nn_compiler.h **** /**
 120:Middlewares/tensorflow/third_party/cmsis_nn/Include/Internal/arm_nn_compiler.h ****  *
 121:Middlewares/tensorflow/third_party/cmsis_nn/Include/Internal/arm_nn_compiler.h ****  * @brief Compiler specific diagnostic adjustment / fixes if applicable
 122:Middlewares/tensorflow/third_party/cmsis_nn/Include/Internal/arm_nn_compiler.h ****  *
 123:Middlewares/tensorflow/third_party/cmsis_nn/Include/Internal/arm_nn_compiler.h ****  */
 124:Middlewares/tensorflow/third_party/cmsis_nn/Include/Internal/arm_nn_compiler.h **** 
 125:Middlewares/tensorflow/third_party/cmsis_nn/Include/Internal/arm_nn_compiler.h **** // Note: __ARM_ARCH is used with M-profile architecture as the target here.
 126:Middlewares/tensorflow/third_party/cmsis_nn/Include/Internal/arm_nn_compiler.h **** #if defined(__GNUC__)
 127:Middlewares/tensorflow/third_party/cmsis_nn/Include/Internal/arm_nn_compiler.h ****     #if (__GNUC__ == 12 && (__GNUC_MINOR__ <= 2)) && defined(__ARM_ARCH)
 128:Middlewares/tensorflow/third_party/cmsis_nn/Include/Internal/arm_nn_compiler.h ****         // Workaround for 'Internal Compiler Error' on Arm GNU Toolchain rel 12.2.x
 129:Middlewares/tensorflow/third_party/cmsis_nn/Include/Internal/arm_nn_compiler.h ****         // https://gcc.gnu.org/pipermail/gcc-patches/2022-December/607963.html
 130:Middlewares/tensorflow/third_party/cmsis_nn/Include/Internal/arm_nn_compiler.h ****         #define ARM_GCC_12_2_ICE
 131:Middlewares/tensorflow/third_party/cmsis_nn/Include/Internal/arm_nn_compiler.h ****     #endif
 132:Middlewares/tensorflow/third_party/cmsis_nn/Include/Internal/arm_nn_compiler.h **** #endif
 133:Middlewares/tensorflow/third_party/cmsis_nn/Include/Internal/arm_nn_compiler.h **** 
 134:Middlewares/tensorflow/third_party/cmsis_nn/Include/Internal/arm_nn_compiler.h **** #if ((__ARM_FEATURE_MVE & 3) == 3) || (__ARM_FEATURE_MVE & 1)
 135:Middlewares/tensorflow/third_party/cmsis_nn/Include/Internal/arm_nn_compiler.h ****     #include <arm_mve.h>
 136:Middlewares/tensorflow/third_party/cmsis_nn/Include/Internal/arm_nn_compiler.h **** #endif
 137:Middlewares/tensorflow/third_party/cmsis_nn/Include/Internal/arm_nn_compiler.h **** 
 138:Middlewares/tensorflow/third_party/cmsis_nn/Include/Internal/arm_nn_compiler.h **** #if defined(__ARM_ARCH) || defined(__ARM_ACLE)
 139:Middlewares/tensorflow/third_party/cmsis_nn/Include/Internal/arm_nn_compiler.h ****     #include <arm_acle.h>
 140:Middlewares/tensorflow/third_party/cmsis_nn/Include/Internal/arm_nn_compiler.h **** #endif
 141:Middlewares/tensorflow/third_party/cmsis_nn/Include/Internal/arm_nn_compiler.h **** 
 142:Middlewares/tensorflow/third_party/cmsis_nn/Include/Internal/arm_nn_compiler.h **** /**
 143:Middlewares/tensorflow/third_party/cmsis_nn/Include/Internal/arm_nn_compiler.h ****  *
 144:Middlewares/tensorflow/third_party/cmsis_nn/Include/Internal/arm_nn_compiler.h ****  * @brief ACLE and Intrinsics
 145:Middlewares/tensorflow/third_party/cmsis_nn/Include/Internal/arm_nn_compiler.h ****  *
 146:Middlewares/tensorflow/third_party/cmsis_nn/Include/Internal/arm_nn_compiler.h ****  */
 147:Middlewares/tensorflow/third_party/cmsis_nn/Include/Internal/arm_nn_compiler.h **** 
ARM GAS  /tmp/ccFCOfgV.s 			page 17


 148:Middlewares/tensorflow/third_party/cmsis_nn/Include/Internal/arm_nn_compiler.h **** // Note: Have __GNUC__, that is used to check for GCC , checks at the end
 149:Middlewares/tensorflow/third_party/cmsis_nn/Include/Internal/arm_nn_compiler.h **** // as __GNUC__ is defined by non-GCC compilers as well
 150:Middlewares/tensorflow/third_party/cmsis_nn/Include/Internal/arm_nn_compiler.h **** 
 151:Middlewares/tensorflow/third_party/cmsis_nn/Include/Internal/arm_nn_compiler.h **** /* Common intrinsics for all architectures */
 152:Middlewares/tensorflow/third_party/cmsis_nn/Include/Internal/arm_nn_compiler.h **** #if defined(__ARMCC_VERSION) && (__ARMCC_VERSION >= 6010050) || defined(__ICCARM__)
 153:Middlewares/tensorflow/third_party/cmsis_nn/Include/Internal/arm_nn_compiler.h ****     #define CLZ __clz
 154:Middlewares/tensorflow/third_party/cmsis_nn/Include/Internal/arm_nn_compiler.h **** #elif defined(__GNUC__)
 155:Middlewares/tensorflow/third_party/cmsis_nn/Include/Internal/arm_nn_compiler.h **** /**
 156:Middlewares/tensorflow/third_party/cmsis_nn/Include/Internal/arm_nn_compiler.h ****   \brief   Count leading zeros
 157:Middlewares/tensorflow/third_party/cmsis_nn/Include/Internal/arm_nn_compiler.h ****   \details Counts the number of leading zeros of a data value.
 158:Middlewares/tensorflow/third_party/cmsis_nn/Include/Internal/arm_nn_compiler.h ****   \param [in]  value  Value to count the leading zeros
 159:Middlewares/tensorflow/third_party/cmsis_nn/Include/Internal/arm_nn_compiler.h ****   \return             number of leading zeros in value
 160:Middlewares/tensorflow/third_party/cmsis_nn/Include/Internal/arm_nn_compiler.h ****  */
 161:Middlewares/tensorflow/third_party/cmsis_nn/Include/Internal/arm_nn_compiler.h **** __STATIC_FORCEINLINE uint8_t CLZ(uint32_t value)
 162:Middlewares/tensorflow/third_party/cmsis_nn/Include/Internal/arm_nn_compiler.h **** {
 163:Middlewares/tensorflow/third_party/cmsis_nn/Include/Internal/arm_nn_compiler.h ****     /* Even though __builtin_clz produces a CLZ instruction on ARM, formally
 164:Middlewares/tensorflow/third_party/cmsis_nn/Include/Internal/arm_nn_compiler.h ****        __builtin_clz(0) is undefined behaviour, so handle this case specially.
 165:Middlewares/tensorflow/third_party/cmsis_nn/Include/Internal/arm_nn_compiler.h ****        This guarantees Arm-compatible results if compiling on a non-Arm
 166:Middlewares/tensorflow/third_party/cmsis_nn/Include/Internal/arm_nn_compiler.h ****        target, and ensures the compiler doesn't decide to activate any
 167:Middlewares/tensorflow/third_party/cmsis_nn/Include/Internal/arm_nn_compiler.h ****        optimisations using the logic "value was passed to __builtin_clz, so it
 168:Middlewares/tensorflow/third_party/cmsis_nn/Include/Internal/arm_nn_compiler.h ****        is non-zero".
 169:Middlewares/tensorflow/third_party/cmsis_nn/Include/Internal/arm_nn_compiler.h ****        ARM GCC 7.3 and possibly earlier will optimise this test away, leaving a
 170:Middlewares/tensorflow/third_party/cmsis_nn/Include/Internal/arm_nn_compiler.h ****        single CLZ instruction.
 171:Middlewares/tensorflow/third_party/cmsis_nn/Include/Internal/arm_nn_compiler.h ****      */
 172:Middlewares/tensorflow/third_party/cmsis_nn/Include/Internal/arm_nn_compiler.h ****     if (value == 0U)
 173:Middlewares/tensorflow/third_party/cmsis_nn/Include/Internal/arm_nn_compiler.h ****     {
 174:Middlewares/tensorflow/third_party/cmsis_nn/Include/Internal/arm_nn_compiler.h ****         return 32U;
 175:Middlewares/tensorflow/third_party/cmsis_nn/Include/Internal/arm_nn_compiler.h ****     }
 176:Middlewares/tensorflow/third_party/cmsis_nn/Include/Internal/arm_nn_compiler.h ****     return __builtin_clz(value);
 177:Middlewares/tensorflow/third_party/cmsis_nn/Include/Internal/arm_nn_compiler.h **** }
 178:Middlewares/tensorflow/third_party/cmsis_nn/Include/Internal/arm_nn_compiler.h **** #endif
 179:Middlewares/tensorflow/third_party/cmsis_nn/Include/Internal/arm_nn_compiler.h **** 
 180:Middlewares/tensorflow/third_party/cmsis_nn/Include/Internal/arm_nn_compiler.h **** // ACLE intrinsics under groups __ARM_FEATURE_QBIT, __ARM_FEATURE_DSP , __ARM_FEATURE_SAT, __ARM_FE
 181:Middlewares/tensorflow/third_party/cmsis_nn/Include/Internal/arm_nn_compiler.h **** 
 182:Middlewares/tensorflow/third_party/cmsis_nn/Include/Internal/arm_nn_compiler.h **** // Note: Just __ARM_FEATURE_DSP is checked to collect all intrinsics from the above mentioned group
 183:Middlewares/tensorflow/third_party/cmsis_nn/Include/Internal/arm_nn_compiler.h **** 
 184:Middlewares/tensorflow/third_party/cmsis_nn/Include/Internal/arm_nn_compiler.h **** #if (defined(__ARM_FEATURE_DSP) && (__ARM_FEATURE_DSP == 1))
 185:Middlewares/tensorflow/third_party/cmsis_nn/Include/Internal/arm_nn_compiler.h **** 
 186:Middlewares/tensorflow/third_party/cmsis_nn/Include/Internal/arm_nn_compiler.h ****     // Common intrinsics
 187:Middlewares/tensorflow/third_party/cmsis_nn/Include/Internal/arm_nn_compiler.h ****     #define SMLABB __smlabb
 188:Middlewares/tensorflow/third_party/cmsis_nn/Include/Internal/arm_nn_compiler.h ****     #define SMLATT __smlatt
 189:Middlewares/tensorflow/third_party/cmsis_nn/Include/Internal/arm_nn_compiler.h ****     #define QADD __qadd
 190:Middlewares/tensorflow/third_party/cmsis_nn/Include/Internal/arm_nn_compiler.h ****     #define QSUB8 __qsub8
 191:Middlewares/tensorflow/third_party/cmsis_nn/Include/Internal/arm_nn_compiler.h ****     #define QSUB16 __qsub16
 192:Middlewares/tensorflow/third_party/cmsis_nn/Include/Internal/arm_nn_compiler.h ****     #define SADD16 __sadd16
 193:Middlewares/tensorflow/third_party/cmsis_nn/Include/Internal/arm_nn_compiler.h **** 
 194:Middlewares/tensorflow/third_party/cmsis_nn/Include/Internal/arm_nn_compiler.h ****     // Compiler specifc variants of intrinsics. Create a new section or file for IAR if needed
 195:Middlewares/tensorflow/third_party/cmsis_nn/Include/Internal/arm_nn_compiler.h ****     #if defined(__ARMCC_VERSION) && (__ARMCC_VERSION >= 6010050) || defined(__ICCARM__)
 196:Middlewares/tensorflow/third_party/cmsis_nn/Include/Internal/arm_nn_compiler.h **** 
 197:Middlewares/tensorflow/third_party/cmsis_nn/Include/Internal/arm_nn_compiler.h ****         #define SMULBB __smulbb
 198:Middlewares/tensorflow/third_party/cmsis_nn/Include/Internal/arm_nn_compiler.h ****         #define SMULTT __smultt
 199:Middlewares/tensorflow/third_party/cmsis_nn/Include/Internal/arm_nn_compiler.h ****         #define ROR __ror
 200:Middlewares/tensorflow/third_party/cmsis_nn/Include/Internal/arm_nn_compiler.h ****         #define SXTB16 __sxtb16
 201:Middlewares/tensorflow/third_party/cmsis_nn/Include/Internal/arm_nn_compiler.h ****         #define SXTAB16 __sxtab16
 202:Middlewares/tensorflow/third_party/cmsis_nn/Include/Internal/arm_nn_compiler.h ****         #define SXTB16_RORn(ARG1, ARG2) SXTB16(ROR(ARG1, ARG2))
 203:Middlewares/tensorflow/third_party/cmsis_nn/Include/Internal/arm_nn_compiler.h ****         #define SXTAB16_RORn(ARG1, ARG2, ARG3) SXTAB16(ARG1, ROR(ARG2, ARG3))
 204:Middlewares/tensorflow/third_party/cmsis_nn/Include/Internal/arm_nn_compiler.h ****         #define SMLAD __smlad
ARM GAS  /tmp/ccFCOfgV.s 			page 18


 205:Middlewares/tensorflow/third_party/cmsis_nn/Include/Internal/arm_nn_compiler.h ****         // PKH<XY> translates into pkh<xy> on AC6
 206:Middlewares/tensorflow/third_party/cmsis_nn/Include/Internal/arm_nn_compiler.h ****         #define PKHBT(ARG1, ARG2, ARG3)                                                            
 207:Middlewares/tensorflow/third_party/cmsis_nn/Include/Internal/arm_nn_compiler.h ****             (((((uint32_t)(ARG1))) & 0x0000FFFFUL) | ((((uint32_t)(ARG2)) << (ARG3)) & 0xFFFF0000UL
 208:Middlewares/tensorflow/third_party/cmsis_nn/Include/Internal/arm_nn_compiler.h ****         #define PKHTB(ARG1, ARG2, ARG3)                                                            
 209:Middlewares/tensorflow/third_party/cmsis_nn/Include/Internal/arm_nn_compiler.h ****             (((((uint32_t)(ARG1))) & 0xFFFF0000UL) | ((((uint32_t)(ARG2)) >> (ARG3)) & 0x0000FFFFUL
 210:Middlewares/tensorflow/third_party/cmsis_nn/Include/Internal/arm_nn_compiler.h **** 
 211:Middlewares/tensorflow/third_party/cmsis_nn/Include/Internal/arm_nn_compiler.h ****     #elif defined(__GNUC__)
 212:Middlewares/tensorflow/third_party/cmsis_nn/Include/Internal/arm_nn_compiler.h **** 
 213:Middlewares/tensorflow/third_party/cmsis_nn/Include/Internal/arm_nn_compiler.h ****         #define PKHBT(ARG1, ARG2, ARG3)                                                            
 214:Middlewares/tensorflow/third_party/cmsis_nn/Include/Internal/arm_nn_compiler.h ****             __extension__({                                                                        
 215:Middlewares/tensorflow/third_party/cmsis_nn/Include/Internal/arm_nn_compiler.h ****                 uint32_t __RES, __ARG1 = (ARG1), __ARG2 = (ARG2);                                  
 216:Middlewares/tensorflow/third_party/cmsis_nn/Include/Internal/arm_nn_compiler.h ****                 __ASM("pkhbt %0, %1, %2, lsl %3" : "=r"(__RES) : "r"(__ARG1), "r"(__ARG2), "I"(ARG3
 217:Middlewares/tensorflow/third_party/cmsis_nn/Include/Internal/arm_nn_compiler.h ****                 __RES;                                                                             
 218:Middlewares/tensorflow/third_party/cmsis_nn/Include/Internal/arm_nn_compiler.h ****             })
 219:Middlewares/tensorflow/third_party/cmsis_nn/Include/Internal/arm_nn_compiler.h ****         #define PKHTB(ARG1, ARG2, ARG3)                                                            
 220:Middlewares/tensorflow/third_party/cmsis_nn/Include/Internal/arm_nn_compiler.h ****             __extension__({                                                                        
 221:Middlewares/tensorflow/third_party/cmsis_nn/Include/Internal/arm_nn_compiler.h ****                 uint32_t __RES, __ARG1 = (ARG1), __ARG2 = (ARG2);                                  
 222:Middlewares/tensorflow/third_party/cmsis_nn/Include/Internal/arm_nn_compiler.h ****                 if (ARG3 == 0)                                                                     
 223:Middlewares/tensorflow/third_party/cmsis_nn/Include/Internal/arm_nn_compiler.h ****                     __ASM("pkhtb %0, %1, %2" : "=r"(__RES) : "r"(__ARG1), "r"(__ARG2));            
 224:Middlewares/tensorflow/third_party/cmsis_nn/Include/Internal/arm_nn_compiler.h ****                 else                                                                               
 225:Middlewares/tensorflow/third_party/cmsis_nn/Include/Internal/arm_nn_compiler.h ****                     __ASM("pkhtb %0, %1, %2, asr %3" : "=r"(__RES) : "r"(__ARG1), "r"(__ARG2), "I"(
 226:Middlewares/tensorflow/third_party/cmsis_nn/Include/Internal/arm_nn_compiler.h ****                 __RES;                                                                             
 227:Middlewares/tensorflow/third_party/cmsis_nn/Include/Internal/arm_nn_compiler.h ****             })
 228:Middlewares/tensorflow/third_party/cmsis_nn/Include/Internal/arm_nn_compiler.h **** 
 229:Middlewares/tensorflow/third_party/cmsis_nn/Include/Internal/arm_nn_compiler.h **** __STATIC_FORCEINLINE uint32_t SXTAB16(uint32_t op1, uint32_t op2)
 230:Middlewares/tensorflow/third_party/cmsis_nn/Include/Internal/arm_nn_compiler.h **** {
 231:Middlewares/tensorflow/third_party/cmsis_nn/Include/Internal/arm_nn_compiler.h ****     uint32_t result;
 232:Middlewares/tensorflow/third_party/cmsis_nn/Include/Internal/arm_nn_compiler.h **** 
 233:Middlewares/tensorflow/third_party/cmsis_nn/Include/Internal/arm_nn_compiler.h ****     __ASM("sxtab16 %0, %1, %2" : "=r"(result) : "r"(op1), "r"(op2));
 234:Middlewares/tensorflow/third_party/cmsis_nn/Include/Internal/arm_nn_compiler.h ****     return (result);
 235:Middlewares/tensorflow/third_party/cmsis_nn/Include/Internal/arm_nn_compiler.h **** }
 236:Middlewares/tensorflow/third_party/cmsis_nn/Include/Internal/arm_nn_compiler.h **** 
 237:Middlewares/tensorflow/third_party/cmsis_nn/Include/Internal/arm_nn_compiler.h **** __STATIC_FORCEINLINE uint32_t SXTB16(uint32_t op1)
 238:Middlewares/tensorflow/third_party/cmsis_nn/Include/Internal/arm_nn_compiler.h **** {
 239:Middlewares/tensorflow/third_party/cmsis_nn/Include/Internal/arm_nn_compiler.h ****     uint32_t result;
 240:Middlewares/tensorflow/third_party/cmsis_nn/Include/Internal/arm_nn_compiler.h **** 
 241:Middlewares/tensorflow/third_party/cmsis_nn/Include/Internal/arm_nn_compiler.h ****     __ASM("sxtb16 %0, %1" : "=r"(result) : "r"(op1));
 242:Middlewares/tensorflow/third_party/cmsis_nn/Include/Internal/arm_nn_compiler.h ****     return (result);
 243:Middlewares/tensorflow/third_party/cmsis_nn/Include/Internal/arm_nn_compiler.h **** }
 244:Middlewares/tensorflow/third_party/cmsis_nn/Include/Internal/arm_nn_compiler.h **** 
 245:Middlewares/tensorflow/third_party/cmsis_nn/Include/Internal/arm_nn_compiler.h **** // __smlad is defined by GCC, but results in a performance drop(Tested on Arm GNU Toolchain version
 246:Middlewares/tensorflow/third_party/cmsis_nn/Include/Internal/arm_nn_compiler.h **** __STATIC_FORCEINLINE uint32_t SMLAD(uint32_t op1, uint32_t op2, uint32_t op3)
 247:Middlewares/tensorflow/third_party/cmsis_nn/Include/Internal/arm_nn_compiler.h **** {
 248:Middlewares/tensorflow/third_party/cmsis_nn/Include/Internal/arm_nn_compiler.h ****     uint32_t result;
 249:Middlewares/tensorflow/third_party/cmsis_nn/Include/Internal/arm_nn_compiler.h **** 
 250:Middlewares/tensorflow/third_party/cmsis_nn/Include/Internal/arm_nn_compiler.h ****     __ASM volatile("smlad %0, %1, %2, %3" : "=r"(result) : "r"(op1), "r"(op2), "r"(op3));
 251:Middlewares/tensorflow/third_party/cmsis_nn/Include/Internal/arm_nn_compiler.h ****     return (result);
 252:Middlewares/tensorflow/third_party/cmsis_nn/Include/Internal/arm_nn_compiler.h **** }
 253:Middlewares/tensorflow/third_party/cmsis_nn/Include/Internal/arm_nn_compiler.h **** 
 254:Middlewares/tensorflow/third_party/cmsis_nn/Include/Internal/arm_nn_compiler.h **** __STATIC_FORCEINLINE uint32_t ROR(uint32_t op1, uint32_t op2)
  92              		.loc 3 254 31 view .LVU25
  93              	.LBB21:
 255:Middlewares/tensorflow/third_party/cmsis_nn/Include/Internal/arm_nn_compiler.h **** {
 256:Middlewares/tensorflow/third_party/cmsis_nn/Include/Internal/arm_nn_compiler.h ****     op2 %= 32U;
  94              		.loc 3 256 5 view .LVU26
 257:Middlewares/tensorflow/third_party/cmsis_nn/Include/Internal/arm_nn_compiler.h ****     if (op2 == 0U)
  95              		.loc 3 257 5 view .LVU27
ARM GAS  /tmp/ccFCOfgV.s 			page 19


 258:Middlewares/tensorflow/third_party/cmsis_nn/Include/Internal/arm_nn_compiler.h ****     {
 259:Middlewares/tensorflow/third_party/cmsis_nn/Include/Internal/arm_nn_compiler.h ****         return op1;
 260:Middlewares/tensorflow/third_party/cmsis_nn/Include/Internal/arm_nn_compiler.h ****     }
 261:Middlewares/tensorflow/third_party/cmsis_nn/Include/Internal/arm_nn_compiler.h ****     return (op1 >> op2) | (op1 << (32U - op2));
  96              		.loc 3 261 5 view .LVU28
  97              		.loc 3 261 25 is_stmt 0 view .LVU29
  98 0010 4FEA3425 		ror	r5, r4, #8
  99              	.LVL5:
 100              		.loc 3 261 25 view .LVU30
 101              	.LBE21:
 102              	.LBE20:
 103              	.LBB22:
 104              	.LBI22:
 229:Middlewares/tensorflow/third_party/cmsis_nn/Include/Internal/arm_nn_compiler.h **** {
 105              		.loc 3 229 31 is_stmt 1 view .LVU31
 106              	.LBB23:
 231:Middlewares/tensorflow/third_party/cmsis_nn/Include/Internal/arm_nn_compiler.h **** 
 107              		.loc 3 231 5 view .LVU32
 233:Middlewares/tensorflow/third_party/cmsis_nn/Include/Internal/arm_nn_compiler.h ****     return (result);
 108              		.loc 3 233 5 view .LVU33
 109              		.syntax unified
 110              	@ 233 "Middlewares/tensorflow/third_party/cmsis_nn/Include/Internal/arm_nn_compiler.h" 1
 111 0014 27FA85F5 		sxtab16 r5, r7, r5
 112              	@ 0 "" 2
 113              	.LVL6:
 234:Middlewares/tensorflow/third_party/cmsis_nn/Include/Internal/arm_nn_compiler.h **** }
 114              		.loc 3 234 5 view .LVU34
 234:Middlewares/tensorflow/third_party/cmsis_nn/Include/Internal/arm_nn_compiler.h **** }
 115              		.loc 3 234 5 is_stmt 0 view .LVU35
 116              		.thumb
 117              		.syntax unified
 118              	.LBE23:
 119              	.LBE22:
  84:Middlewares/tensorflow/third_party/cmsis_nn/Source/NNSupportFunctions/arm_q7_to_q15_with_offset.c ****         in_q15x2_2 = SXTAB16(offset_q15x2, in_q7x4);
 120              		.loc 1 84 9 is_stmt 1 view .LVU36
 121              	.LBB24:
 122              	.LBI24:
 229:Middlewares/tensorflow/third_party/cmsis_nn/Include/Internal/arm_nn_compiler.h **** {
 123              		.loc 3 229 31 view .LVU37
 124              	.LBB25:
 231:Middlewares/tensorflow/third_party/cmsis_nn/Include/Internal/arm_nn_compiler.h **** 
 125              		.loc 3 231 5 view .LVU38
 233:Middlewares/tensorflow/third_party/cmsis_nn/Include/Internal/arm_nn_compiler.h ****     return (result);
 126              		.loc 3 233 5 view .LVU39
 127              		.syntax unified
 128              	@ 233 "Middlewares/tensorflow/third_party/cmsis_nn/Include/Internal/arm_nn_compiler.h" 1
 129 0018 27FA84F4 		sxtab16 r4, r7, r4
 130              	@ 0 "" 2
 131              	.LVL7:
 234:Middlewares/tensorflow/third_party/cmsis_nn/Include/Internal/arm_nn_compiler.h **** }
 132              		.loc 3 234 5 view .LVU40
 234:Middlewares/tensorflow/third_party/cmsis_nn/Include/Internal/arm_nn_compiler.h **** }
 133              		.loc 3 234 5 is_stmt 0 view .LVU41
 134              		.thumb
 135              		.syntax unified
 136              	.LBE25:
 137              	.LBE24:
ARM GAS  /tmp/ccFCOfgV.s 			page 20


  85:Middlewares/tensorflow/third_party/cmsis_nn/Source/NNSupportFunctions/arm_q7_to_q15_with_offset.c **** 
  86:Middlewares/tensorflow/third_party/cmsis_nn/Source/NNSupportFunctions/arm_q7_to_q15_with_offset.c ****         out_q15x2_2 = PKHTB(in_q15x2_1, in_q15x2_2, 16);
 138              		.loc 1 86 9 is_stmt 1 view .LVU42
 139              	.LBB26:
 140              		.loc 1 86 23 view .LVU43
 141              		.loc 1 86 23 view .LVU44
 142              		.loc 1 86 23 view .LVU45
 143              		.syntax unified
 144              	@ 86 "Middlewares/tensorflow/third_party/cmsis_nn/Source/NNSupportFunctions/arm_q7_to_q15_with_offs
 145 001c C5EA244C 		pkhtb ip, r5, r4, asr #16
 146              	@ 0 "" 2
 147              	.LVL8:
 148              		.loc 1 86 23 view .LVU46
 149              		.loc 1 86 23 is_stmt 0 view .LVU47
 150              		.thumb
 151              		.syntax unified
 152              	.LBE26:
  87:Middlewares/tensorflow/third_party/cmsis_nn/Source/NNSupportFunctions/arm_q7_to_q15_with_offset.c ****         out_q15x2_1 = PKHBT(in_q15x2_2, in_q15x2_1, 16);
 153              		.loc 1 87 9 is_stmt 1 view .LVU48
 154              	.LBB27:
 155              		.loc 1 87 23 view .LVU49
 156              		.loc 1 87 23 view .LVU50
 157              		.syntax unified
 158              	@ 87 "Middlewares/tensorflow/third_party/cmsis_nn/Source/NNSupportFunctions/arm_q7_to_q15_with_offs
 159 0020 C4EA0544 		pkhbt r4, r4, r5, lsl #16
 160              	@ 0 "" 2
 161              	.LVL9:
 162              		.loc 1 87 23 view .LVU51
 163              		.loc 1 87 23 is_stmt 0 view .LVU52
 164              		.thumb
 165              		.syntax unified
 166              	.LBE27:
  88:Middlewares/tensorflow/third_party/cmsis_nn/Source/NNSupportFunctions/arm_q7_to_q15_with_offset.c **** 
  89:Middlewares/tensorflow/third_party/cmsis_nn/Source/NNSupportFunctions/arm_q7_to_q15_with_offset.c ****         arm_nn_write_q15x2_ia(&dst, out_q15x2_1);
 167              		.loc 1 89 9 is_stmt 1 view .LVU53
 168              	.LBB28:
 169              	.LBI28:
 593:Middlewares/tensorflow/third_party/cmsis_nn/Include/arm_nnsupportfunctions.h **** }
 594:Middlewares/tensorflow/third_party/cmsis_nn/Include/arm_nnsupportfunctions.h **** 
 595:Middlewares/tensorflow/third_party/cmsis_nn/Include/arm_nnsupportfunctions.h **** /**
 596:Middlewares/tensorflow/third_party/cmsis_nn/Include/arm_nnsupportfunctions.h ****   @brief         Read 2 int16 values from int16 pointer.
 597:Middlewares/tensorflow/third_party/cmsis_nn/Include/arm_nnsupportfunctions.h ****   @param[in]     in     pointer to address of input.
 598:Middlewares/tensorflow/third_party/cmsis_nn/Include/arm_nnsupportfunctions.h ****   @return        s32    value
 599:Middlewares/tensorflow/third_party/cmsis_nn/Include/arm_nnsupportfunctions.h ****  */
 600:Middlewares/tensorflow/third_party/cmsis_nn/Include/arm_nnsupportfunctions.h **** __STATIC_FORCEINLINE int32_t arm_nn_read_s16x2(const int16_t *in)
 601:Middlewares/tensorflow/third_party/cmsis_nn/Include/arm_nnsupportfunctions.h **** {
 602:Middlewares/tensorflow/third_party/cmsis_nn/Include/arm_nnsupportfunctions.h ****     int32_t val;
 603:Middlewares/tensorflow/third_party/cmsis_nn/Include/arm_nnsupportfunctions.h ****     memcpy(&val, in, 4);
 604:Middlewares/tensorflow/third_party/cmsis_nn/Include/arm_nnsupportfunctions.h **** 
 605:Middlewares/tensorflow/third_party/cmsis_nn/Include/arm_nnsupportfunctions.h ****     return (val);
 606:Middlewares/tensorflow/third_party/cmsis_nn/Include/arm_nnsupportfunctions.h **** }
 607:Middlewares/tensorflow/third_party/cmsis_nn/Include/arm_nnsupportfunctions.h **** 
 608:Middlewares/tensorflow/third_party/cmsis_nn/Include/arm_nnsupportfunctions.h **** /**
 609:Middlewares/tensorflow/third_party/cmsis_nn/Include/arm_nnsupportfunctions.h ****   @brief         Read 4 s8 values.
 610:Middlewares/tensorflow/third_party/cmsis_nn/Include/arm_nnsupportfunctions.h ****   @param[in]     in_s8       pointer to address of input.
 611:Middlewares/tensorflow/third_party/cmsis_nn/Include/arm_nnsupportfunctions.h ****   @return        s32 value
 612:Middlewares/tensorflow/third_party/cmsis_nn/Include/arm_nnsupportfunctions.h ****  */
ARM GAS  /tmp/ccFCOfgV.s 			page 21


 613:Middlewares/tensorflow/third_party/cmsis_nn/Include/arm_nnsupportfunctions.h **** __STATIC_FORCEINLINE int32_t arm_nn_read_s8x4(const int8_t *in_s8)
 614:Middlewares/tensorflow/third_party/cmsis_nn/Include/arm_nnsupportfunctions.h **** {
 615:Middlewares/tensorflow/third_party/cmsis_nn/Include/arm_nnsupportfunctions.h ****     int32_t val;
 616:Middlewares/tensorflow/third_party/cmsis_nn/Include/arm_nnsupportfunctions.h ****     memcpy(&val, in_s8, 4);
 617:Middlewares/tensorflow/third_party/cmsis_nn/Include/arm_nnsupportfunctions.h **** 
 618:Middlewares/tensorflow/third_party/cmsis_nn/Include/arm_nnsupportfunctions.h ****     return (val);
 619:Middlewares/tensorflow/third_party/cmsis_nn/Include/arm_nnsupportfunctions.h **** }
 620:Middlewares/tensorflow/third_party/cmsis_nn/Include/arm_nnsupportfunctions.h **** 
 621:Middlewares/tensorflow/third_party/cmsis_nn/Include/arm_nnsupportfunctions.h **** /**
 622:Middlewares/tensorflow/third_party/cmsis_nn/Include/arm_nnsupportfunctions.h ****   @brief         Write four s8 to s8 pointer and increment pointer afterwards.
 623:Middlewares/tensorflow/third_party/cmsis_nn/Include/arm_nnsupportfunctions.h ****   @param[in]     in       Double pointer to input value
 624:Middlewares/tensorflow/third_party/cmsis_nn/Include/arm_nnsupportfunctions.h ****   @param[in]     value    Four bytes to copy
 625:Middlewares/tensorflow/third_party/cmsis_nn/Include/arm_nnsupportfunctions.h ****  */
 626:Middlewares/tensorflow/third_party/cmsis_nn/Include/arm_nnsupportfunctions.h **** __STATIC_FORCEINLINE void arm_nn_write_s8x4_ia(int8_t **in, int32_t value)
 627:Middlewares/tensorflow/third_party/cmsis_nn/Include/arm_nnsupportfunctions.h **** {
 628:Middlewares/tensorflow/third_party/cmsis_nn/Include/arm_nnsupportfunctions.h ****     memcpy(*in, &value, 4);
 629:Middlewares/tensorflow/third_party/cmsis_nn/Include/arm_nnsupportfunctions.h ****     *in += 4;
 630:Middlewares/tensorflow/third_party/cmsis_nn/Include/arm_nnsupportfunctions.h **** }
 631:Middlewares/tensorflow/third_party/cmsis_nn/Include/arm_nnsupportfunctions.h **** 
 632:Middlewares/tensorflow/third_party/cmsis_nn/Include/arm_nnsupportfunctions.h **** /**
 633:Middlewares/tensorflow/third_party/cmsis_nn/Include/arm_nnsupportfunctions.h ****  * @brief           memset optimized for MVE
 634:Middlewares/tensorflow/third_party/cmsis_nn/Include/arm_nnsupportfunctions.h ****  * @param[in, out]  dst         Destination pointer
 635:Middlewares/tensorflow/third_party/cmsis_nn/Include/arm_nnsupportfunctions.h ****  * @param[in]       val         Value to set
 636:Middlewares/tensorflow/third_party/cmsis_nn/Include/arm_nnsupportfunctions.h ****  * @param[in]       block_size  Number of bytes to copy.
 637:Middlewares/tensorflow/third_party/cmsis_nn/Include/arm_nnsupportfunctions.h ****  *
 638:Middlewares/tensorflow/third_party/cmsis_nn/Include/arm_nnsupportfunctions.h ****  */
 639:Middlewares/tensorflow/third_party/cmsis_nn/Include/arm_nnsupportfunctions.h **** __STATIC_FORCEINLINE void arm_memset_s8(int8_t *dst, const int8_t val, uint32_t block_size)
 640:Middlewares/tensorflow/third_party/cmsis_nn/Include/arm_nnsupportfunctions.h **** {
 641:Middlewares/tensorflow/third_party/cmsis_nn/Include/arm_nnsupportfunctions.h **** #if defined(ARM_MATH_MVEI)
 642:Middlewares/tensorflow/third_party/cmsis_nn/Include/arm_nnsupportfunctions.h ****     __asm volatile("   vdup.8                  q0, %[set_val]             \n"
 643:Middlewares/tensorflow/third_party/cmsis_nn/Include/arm_nnsupportfunctions.h ****                    "   wlstp.8                 lr, %[cnt], 1f             \n"
 644:Middlewares/tensorflow/third_party/cmsis_nn/Include/arm_nnsupportfunctions.h ****                    "2:                                                    \n"
 645:Middlewares/tensorflow/third_party/cmsis_nn/Include/arm_nnsupportfunctions.h ****                    "   vstrb.8                 q0, [%[in]], #16            \n"
 646:Middlewares/tensorflow/third_party/cmsis_nn/Include/arm_nnsupportfunctions.h ****                    "   letp                    lr, 2b                     \n"
 647:Middlewares/tensorflow/third_party/cmsis_nn/Include/arm_nnsupportfunctions.h ****                    "1:                                                    \n"
 648:Middlewares/tensorflow/third_party/cmsis_nn/Include/arm_nnsupportfunctions.h ****                    : [in] "+r"(dst)
 649:Middlewares/tensorflow/third_party/cmsis_nn/Include/arm_nnsupportfunctions.h ****                    : [cnt] "r"(block_size), [set_val] "r"(val)
 650:Middlewares/tensorflow/third_party/cmsis_nn/Include/arm_nnsupportfunctions.h ****                    : "q0", "memory", "r14");
 651:Middlewares/tensorflow/third_party/cmsis_nn/Include/arm_nnsupportfunctions.h **** #else
 652:Middlewares/tensorflow/third_party/cmsis_nn/Include/arm_nnsupportfunctions.h ****     memset(dst, val, block_size);
 653:Middlewares/tensorflow/third_party/cmsis_nn/Include/arm_nnsupportfunctions.h **** #endif
 654:Middlewares/tensorflow/third_party/cmsis_nn/Include/arm_nnsupportfunctions.h **** }
 655:Middlewares/tensorflow/third_party/cmsis_nn/Include/arm_nnsupportfunctions.h **** 
 656:Middlewares/tensorflow/third_party/cmsis_nn/Include/arm_nnsupportfunctions.h **** #if defined(ARM_MATH_DSP)
 657:Middlewares/tensorflow/third_party/cmsis_nn/Include/arm_nnsupportfunctions.h **** 
 658:Middlewares/tensorflow/third_party/cmsis_nn/Include/arm_nnsupportfunctions.h **** /**
 659:Middlewares/tensorflow/third_party/cmsis_nn/Include/arm_nnsupportfunctions.h ****  * @brief read and expand one s8 word into two s16 words
 660:Middlewares/tensorflow/third_party/cmsis_nn/Include/arm_nnsupportfunctions.h ****  */
 661:Middlewares/tensorflow/third_party/cmsis_nn/Include/arm_nnsupportfunctions.h **** 
 662:Middlewares/tensorflow/third_party/cmsis_nn/Include/arm_nnsupportfunctions.h **** __STATIC_FORCEINLINE const int8_t *read_and_pad(const int8_t *source, int32_t *out1, int32_t *out2)
 663:Middlewares/tensorflow/third_party/cmsis_nn/Include/arm_nnsupportfunctions.h **** {
 664:Middlewares/tensorflow/third_party/cmsis_nn/Include/arm_nnsupportfunctions.h ****     int32_t inA = arm_nn_read_s8x4_ia(&source);
 665:Middlewares/tensorflow/third_party/cmsis_nn/Include/arm_nnsupportfunctions.h ****     int32_t inAbuf1 = SXTB16_RORn((uint32_t)inA, 8);
 666:Middlewares/tensorflow/third_party/cmsis_nn/Include/arm_nnsupportfunctions.h ****     int32_t inAbuf2 = SXTB16(inA);
 667:Middlewares/tensorflow/third_party/cmsis_nn/Include/arm_nnsupportfunctions.h **** 
 668:Middlewares/tensorflow/third_party/cmsis_nn/Include/arm_nnsupportfunctions.h ****     #ifndef ARM_MATH_BIG_ENDIAN
 669:Middlewares/tensorflow/third_party/cmsis_nn/Include/arm_nnsupportfunctions.h ****     *out2 = (int32_t)(PKHTB(inAbuf1, inAbuf2, 16));
ARM GAS  /tmp/ccFCOfgV.s 			page 22


 670:Middlewares/tensorflow/third_party/cmsis_nn/Include/arm_nnsupportfunctions.h ****     *out1 = (int32_t)(PKHBT(inAbuf2, inAbuf1, 16));
 671:Middlewares/tensorflow/third_party/cmsis_nn/Include/arm_nnsupportfunctions.h ****     #else
 672:Middlewares/tensorflow/third_party/cmsis_nn/Include/arm_nnsupportfunctions.h ****     *out1 = (int32_t)(PKHTB(inAbuf1, inAbuf2, 16));
 673:Middlewares/tensorflow/third_party/cmsis_nn/Include/arm_nnsupportfunctions.h ****     *out2 = (int32_t)(PKHBT(inAbuf2, inAbuf1, 16));
 674:Middlewares/tensorflow/third_party/cmsis_nn/Include/arm_nnsupportfunctions.h ****     #endif
 675:Middlewares/tensorflow/third_party/cmsis_nn/Include/arm_nnsupportfunctions.h **** 
 676:Middlewares/tensorflow/third_party/cmsis_nn/Include/arm_nnsupportfunctions.h ****     return source;
 677:Middlewares/tensorflow/third_party/cmsis_nn/Include/arm_nnsupportfunctions.h **** }
 678:Middlewares/tensorflow/third_party/cmsis_nn/Include/arm_nnsupportfunctions.h **** 
 679:Middlewares/tensorflow/third_party/cmsis_nn/Include/arm_nnsupportfunctions.h **** /**
 680:Middlewares/tensorflow/third_party/cmsis_nn/Include/arm_nnsupportfunctions.h ****  * @brief read and expand one s8 word into two s16 words with reordering
 681:Middlewares/tensorflow/third_party/cmsis_nn/Include/arm_nnsupportfunctions.h ****  */
 682:Middlewares/tensorflow/third_party/cmsis_nn/Include/arm_nnsupportfunctions.h **** 
 683:Middlewares/tensorflow/third_party/cmsis_nn/Include/arm_nnsupportfunctions.h **** __STATIC_FORCEINLINE const int8_t *read_and_pad_reordered(const int8_t *source, int32_t *out1, int3
 684:Middlewares/tensorflow/third_party/cmsis_nn/Include/arm_nnsupportfunctions.h **** {
 685:Middlewares/tensorflow/third_party/cmsis_nn/Include/arm_nnsupportfunctions.h ****     int32_t inA = arm_nn_read_s8x4_ia(&source);
 686:Middlewares/tensorflow/third_party/cmsis_nn/Include/arm_nnsupportfunctions.h ****     #ifndef ARM_MATH_BIG_ENDIAN
 687:Middlewares/tensorflow/third_party/cmsis_nn/Include/arm_nnsupportfunctions.h ****     *out2 = SXTB16(ROR((uint32_t)inA, 8));
 688:Middlewares/tensorflow/third_party/cmsis_nn/Include/arm_nnsupportfunctions.h ****     *out1 = SXTB16(inA);
 689:Middlewares/tensorflow/third_party/cmsis_nn/Include/arm_nnsupportfunctions.h ****     #else
 690:Middlewares/tensorflow/third_party/cmsis_nn/Include/arm_nnsupportfunctions.h ****     *out1 = SXTB16(ROR((uint32_t)inA, 8));
 691:Middlewares/tensorflow/third_party/cmsis_nn/Include/arm_nnsupportfunctions.h ****     *out2 = SXTB16(inA);
 692:Middlewares/tensorflow/third_party/cmsis_nn/Include/arm_nnsupportfunctions.h ****     #endif
 693:Middlewares/tensorflow/third_party/cmsis_nn/Include/arm_nnsupportfunctions.h **** 
 694:Middlewares/tensorflow/third_party/cmsis_nn/Include/arm_nnsupportfunctions.h ****     return source;
 695:Middlewares/tensorflow/third_party/cmsis_nn/Include/arm_nnsupportfunctions.h **** }
 696:Middlewares/tensorflow/third_party/cmsis_nn/Include/arm_nnsupportfunctions.h **** 
 697:Middlewares/tensorflow/third_party/cmsis_nn/Include/arm_nnsupportfunctions.h **** #endif
 698:Middlewares/tensorflow/third_party/cmsis_nn/Include/arm_nnsupportfunctions.h **** 
 699:Middlewares/tensorflow/third_party/cmsis_nn/Include/arm_nnsupportfunctions.h **** /**
 700:Middlewares/tensorflow/third_party/cmsis_nn/Include/arm_nnsupportfunctions.h ****  * @brief Matrix-multiplication function for convolution with per-channel requantization.
 701:Middlewares/tensorflow/third_party/cmsis_nn/Include/arm_nnsupportfunctions.h ****  * @param[in]       input_a     pointer to operand A
 702:Middlewares/tensorflow/third_party/cmsis_nn/Include/arm_nnsupportfunctions.h ****  * @param[in]       input_b     pointer to operand B, always consists of 2 vectors.
 703:Middlewares/tensorflow/third_party/cmsis_nn/Include/arm_nnsupportfunctions.h ****  * @param[in]       output_ch   number of rows of A
 704:Middlewares/tensorflow/third_party/cmsis_nn/Include/arm_nnsupportfunctions.h ****  * @param[in]       out_shift  pointer to per output channel requantization shift parameter.
 705:Middlewares/tensorflow/third_party/cmsis_nn/Include/arm_nnsupportfunctions.h ****  * @param[in]       out_mult   pointer to per output channel requantization multiplier parameter.
 706:Middlewares/tensorflow/third_party/cmsis_nn/Include/arm_nnsupportfunctions.h ****  * @param[in]       out_offset      output tensor offset.
 707:Middlewares/tensorflow/third_party/cmsis_nn/Include/arm_nnsupportfunctions.h ****  * @param[in]       activation_min   minimum value to clamp the output to. Range : int8
 708:Middlewares/tensorflow/third_party/cmsis_nn/Include/arm_nnsupportfunctions.h ****  * @param[in]       activation_max   maximum value to clamp the output to. Range : int8
 709:Middlewares/tensorflow/third_party/cmsis_nn/Include/arm_nnsupportfunctions.h ****  * @param[in]       num_col_a   number of columns of A
 710:Middlewares/tensorflow/third_party/cmsis_nn/Include/arm_nnsupportfunctions.h ****  * @param[in]       output_bias per output channel bias. Range : int32
 711:Middlewares/tensorflow/third_party/cmsis_nn/Include/arm_nnsupportfunctions.h ****  * @param[in,out]   out_0       pointer to output
 712:Middlewares/tensorflow/third_party/cmsis_nn/Include/arm_nnsupportfunctions.h ****  * @return     The function returns one of the two
 713:Middlewares/tensorflow/third_party/cmsis_nn/Include/arm_nnsupportfunctions.h ****  *              1. The incremented output pointer for a successful operation or
 714:Middlewares/tensorflow/third_party/cmsis_nn/Include/arm_nnsupportfunctions.h ****  *              2. NULL if implementation is not available.
 715:Middlewares/tensorflow/third_party/cmsis_nn/Include/arm_nnsupportfunctions.h ****  *
 716:Middlewares/tensorflow/third_party/cmsis_nn/Include/arm_nnsupportfunctions.h ****  * @details   This function does the matrix multiplication of weight matrix for all output channels
 717:Middlewares/tensorflow/third_party/cmsis_nn/Include/arm_nnsupportfunctions.h ****  *            with 2 columns from im2col and produces two elements/output_channel. The outputs are
 718:Middlewares/tensorflow/third_party/cmsis_nn/Include/arm_nnsupportfunctions.h ****  *            clamped in the range provided by activation min and max.
 719:Middlewares/tensorflow/third_party/cmsis_nn/Include/arm_nnsupportfunctions.h ****  *            Supported framework: TensorFlow Lite micro.
 720:Middlewares/tensorflow/third_party/cmsis_nn/Include/arm_nnsupportfunctions.h ****  */
 721:Middlewares/tensorflow/third_party/cmsis_nn/Include/arm_nnsupportfunctions.h **** int8_t *arm_nn_mat_mult_kernel_s8_s16(const int8_t *input_a,
 722:Middlewares/tensorflow/third_party/cmsis_nn/Include/arm_nnsupportfunctions.h ****                                       const int16_t *input_b,
 723:Middlewares/tensorflow/third_party/cmsis_nn/Include/arm_nnsupportfunctions.h ****                                       const uint16_t output_ch,
 724:Middlewares/tensorflow/third_party/cmsis_nn/Include/arm_nnsupportfunctions.h ****                                       const int32_t *out_shift,
 725:Middlewares/tensorflow/third_party/cmsis_nn/Include/arm_nnsupportfunctions.h ****                                       const int32_t *out_mult,
 726:Middlewares/tensorflow/third_party/cmsis_nn/Include/arm_nnsupportfunctions.h ****                                       const int32_t out_offset,
ARM GAS  /tmp/ccFCOfgV.s 			page 23


 727:Middlewares/tensorflow/third_party/cmsis_nn/Include/arm_nnsupportfunctions.h ****                                       const int16_t activation_min,
 728:Middlewares/tensorflow/third_party/cmsis_nn/Include/arm_nnsupportfunctions.h ****                                       const int16_t activation_max,
 729:Middlewares/tensorflow/third_party/cmsis_nn/Include/arm_nnsupportfunctions.h ****                                       const uint16_t num_col_a,
 730:Middlewares/tensorflow/third_party/cmsis_nn/Include/arm_nnsupportfunctions.h ****                                       const int32_t *const output_bias,
 731:Middlewares/tensorflow/third_party/cmsis_nn/Include/arm_nnsupportfunctions.h ****                                       int8_t *out_0);
 732:Middlewares/tensorflow/third_party/cmsis_nn/Include/arm_nnsupportfunctions.h **** 
 733:Middlewares/tensorflow/third_party/cmsis_nn/Include/arm_nnsupportfunctions.h **** /**
 734:Middlewares/tensorflow/third_party/cmsis_nn/Include/arm_nnsupportfunctions.h ****  * @brief Common softmax function for s8 input and s8 or s16 output
 735:Middlewares/tensorflow/third_party/cmsis_nn/Include/arm_nnsupportfunctions.h ****  * @param[in]  input          Pointer to the input tensor
 736:Middlewares/tensorflow/third_party/cmsis_nn/Include/arm_nnsupportfunctions.h ****  * @param[in]  num_rows       Number of rows in the input tensor
 737:Middlewares/tensorflow/third_party/cmsis_nn/Include/arm_nnsupportfunctions.h ****  * @param[in]  row_size       Number of elements in each input row
 738:Middlewares/tensorflow/third_party/cmsis_nn/Include/arm_nnsupportfunctions.h ****  * @param[in]  mult           Input quantization multiplier
 739:Middlewares/tensorflow/third_party/cmsis_nn/Include/arm_nnsupportfunctions.h ****  * @param[in]  shift          Input quantization shift within the range [0, 31]
 740:Middlewares/tensorflow/third_party/cmsis_nn/Include/arm_nnsupportfunctions.h ****  * @param[in]  diff_min       Minimum difference with max in row. Used to check if
 741:Middlewares/tensorflow/third_party/cmsis_nn/Include/arm_nnsupportfunctions.h ****  *                            the quantized exponential operation can be performed
 742:Middlewares/tensorflow/third_party/cmsis_nn/Include/arm_nnsupportfunctions.h ****  * @param[in]  int16_output   Indicating s8 output if 0 else s16 output
 743:Middlewares/tensorflow/third_party/cmsis_nn/Include/arm_nnsupportfunctions.h ****  * @param[out] output         Pointer to the output tensor
 744:Middlewares/tensorflow/third_party/cmsis_nn/Include/arm_nnsupportfunctions.h ****  *
 745:Middlewares/tensorflow/third_party/cmsis_nn/Include/arm_nnsupportfunctions.h ****  * @note Supported framework: TensorFlow Lite micro (bit-accurate)
 746:Middlewares/tensorflow/third_party/cmsis_nn/Include/arm_nnsupportfunctions.h ****  *
 747:Middlewares/tensorflow/third_party/cmsis_nn/Include/arm_nnsupportfunctions.h ****  */
 748:Middlewares/tensorflow/third_party/cmsis_nn/Include/arm_nnsupportfunctions.h **** void arm_nn_softmax_common_s8(const int8_t *input,
 749:Middlewares/tensorflow/third_party/cmsis_nn/Include/arm_nnsupportfunctions.h ****                               const int32_t num_rows,
 750:Middlewares/tensorflow/third_party/cmsis_nn/Include/arm_nnsupportfunctions.h ****                               const int32_t row_size,
 751:Middlewares/tensorflow/third_party/cmsis_nn/Include/arm_nnsupportfunctions.h ****                               const int32_t mult,
 752:Middlewares/tensorflow/third_party/cmsis_nn/Include/arm_nnsupportfunctions.h ****                               const int32_t shift,
 753:Middlewares/tensorflow/third_party/cmsis_nn/Include/arm_nnsupportfunctions.h ****                               const int32_t diff_min,
 754:Middlewares/tensorflow/third_party/cmsis_nn/Include/arm_nnsupportfunctions.h ****                               const bool int16_output,
 755:Middlewares/tensorflow/third_party/cmsis_nn/Include/arm_nnsupportfunctions.h ****                               void *output);
 756:Middlewares/tensorflow/third_party/cmsis_nn/Include/arm_nnsupportfunctions.h **** 
 757:Middlewares/tensorflow/third_party/cmsis_nn/Include/arm_nnsupportfunctions.h **** /**
 758:Middlewares/tensorflow/third_party/cmsis_nn/Include/arm_nnsupportfunctions.h ****  * @brief macro for adding rounding offset
 759:Middlewares/tensorflow/third_party/cmsis_nn/Include/arm_nnsupportfunctions.h ****  */
 760:Middlewares/tensorflow/third_party/cmsis_nn/Include/arm_nnsupportfunctions.h **** #ifndef ARM_NN_TRUNCATE
 761:Middlewares/tensorflow/third_party/cmsis_nn/Include/arm_nnsupportfunctions.h ****     #define NN_ROUND(out_shift) ((0x1 << out_shift) >> 1)
 762:Middlewares/tensorflow/third_party/cmsis_nn/Include/arm_nnsupportfunctions.h **** #else
 763:Middlewares/tensorflow/third_party/cmsis_nn/Include/arm_nnsupportfunctions.h ****     #define NN_ROUND(out_shift) 0
 764:Middlewares/tensorflow/third_party/cmsis_nn/Include/arm_nnsupportfunctions.h **** #endif
 765:Middlewares/tensorflow/third_party/cmsis_nn/Include/arm_nnsupportfunctions.h **** 
 766:Middlewares/tensorflow/third_party/cmsis_nn/Include/arm_nnsupportfunctions.h **** // Macros for shortening quantization functions' names and avoid long lines
 767:Middlewares/tensorflow/third_party/cmsis_nn/Include/arm_nnsupportfunctions.h **** #define MUL_SAT(a, b) arm_nn_doubling_high_mult((a), (b))
 768:Middlewares/tensorflow/third_party/cmsis_nn/Include/arm_nnsupportfunctions.h **** #define MUL_SAT_MVE(a, b) arm_doubling_high_mult_mve_32x4((a), (b))
 769:Middlewares/tensorflow/third_party/cmsis_nn/Include/arm_nnsupportfunctions.h **** #define MUL_POW2(a, b) arm_nn_mult_by_power_of_two((a), (b))
 770:Middlewares/tensorflow/third_party/cmsis_nn/Include/arm_nnsupportfunctions.h **** 
 771:Middlewares/tensorflow/third_party/cmsis_nn/Include/arm_nnsupportfunctions.h **** #define DIV_POW2(a, b) arm_nn_divide_by_power_of_two((a), (b))
 772:Middlewares/tensorflow/third_party/cmsis_nn/Include/arm_nnsupportfunctions.h **** #define DIV_POW2_MVE(a, b) arm_divide_by_power_of_two_mve((a), (b))
 773:Middlewares/tensorflow/third_party/cmsis_nn/Include/arm_nnsupportfunctions.h **** 
 774:Middlewares/tensorflow/third_party/cmsis_nn/Include/arm_nnsupportfunctions.h **** #define EXP_ON_NEG(x) arm_nn_exp_on_negative_values((x))
 775:Middlewares/tensorflow/third_party/cmsis_nn/Include/arm_nnsupportfunctions.h **** #define ONE_OVER1(x) arm_nn_one_over_one_plus_x_for_x_in_0_1((x))
 776:Middlewares/tensorflow/third_party/cmsis_nn/Include/arm_nnsupportfunctions.h **** 
 777:Middlewares/tensorflow/third_party/cmsis_nn/Include/arm_nnsupportfunctions.h **** /**
 778:Middlewares/tensorflow/third_party/cmsis_nn/Include/arm_nnsupportfunctions.h ****  * @brief           Saturating doubling high multiply. Result matches
 779:Middlewares/tensorflow/third_party/cmsis_nn/Include/arm_nnsupportfunctions.h ****  *                  NEON instruction VQRDMULH.
 780:Middlewares/tensorflow/third_party/cmsis_nn/Include/arm_nnsupportfunctions.h ****  * @param[in]       m1        Multiplicand. Range: {NN_Q31_MIN, NN_Q31_MAX}
 781:Middlewares/tensorflow/third_party/cmsis_nn/Include/arm_nnsupportfunctions.h ****  * @param[in]       m2        Multiplier. Range: {NN_Q31_MIN, NN_Q31_MAX}
 782:Middlewares/tensorflow/third_party/cmsis_nn/Include/arm_nnsupportfunctions.h ****  * @return          Result of multiplication.
 783:Middlewares/tensorflow/third_party/cmsis_nn/Include/arm_nnsupportfunctions.h ****  *
ARM GAS  /tmp/ccFCOfgV.s 			page 24


 784:Middlewares/tensorflow/third_party/cmsis_nn/Include/arm_nnsupportfunctions.h ****  */
 785:Middlewares/tensorflow/third_party/cmsis_nn/Include/arm_nnsupportfunctions.h **** __STATIC_FORCEINLINE int32_t arm_nn_doubling_high_mult(const int32_t m1, const int32_t m2)
 786:Middlewares/tensorflow/third_party/cmsis_nn/Include/arm_nnsupportfunctions.h **** {
 787:Middlewares/tensorflow/third_party/cmsis_nn/Include/arm_nnsupportfunctions.h ****     int32_t result = 0;
 788:Middlewares/tensorflow/third_party/cmsis_nn/Include/arm_nnsupportfunctions.h ****     // Rounding offset to add for a right shift of 31
 789:Middlewares/tensorflow/third_party/cmsis_nn/Include/arm_nnsupportfunctions.h ****     int64_t mult = 1 << 30;
 790:Middlewares/tensorflow/third_party/cmsis_nn/Include/arm_nnsupportfunctions.h **** 
 791:Middlewares/tensorflow/third_party/cmsis_nn/Include/arm_nnsupportfunctions.h ****     if ((m1 < 0) ^ (m2 < 0))
 792:Middlewares/tensorflow/third_party/cmsis_nn/Include/arm_nnsupportfunctions.h ****     {
 793:Middlewares/tensorflow/third_party/cmsis_nn/Include/arm_nnsupportfunctions.h ****         mult = 1 - mult;
 794:Middlewares/tensorflow/third_party/cmsis_nn/Include/arm_nnsupportfunctions.h ****     }
 795:Middlewares/tensorflow/third_party/cmsis_nn/Include/arm_nnsupportfunctions.h ****     // Gets resolved as a SMLAL instruction
 796:Middlewares/tensorflow/third_party/cmsis_nn/Include/arm_nnsupportfunctions.h ****     mult = mult + (int64_t)m1 * m2;
 797:Middlewares/tensorflow/third_party/cmsis_nn/Include/arm_nnsupportfunctions.h **** 
 798:Middlewares/tensorflow/third_party/cmsis_nn/Include/arm_nnsupportfunctions.h ****     // Utilize all of the upper 32 bits. This is the doubling step
 799:Middlewares/tensorflow/third_party/cmsis_nn/Include/arm_nnsupportfunctions.h ****     // as well.
 800:Middlewares/tensorflow/third_party/cmsis_nn/Include/arm_nnsupportfunctions.h ****     result = (int32_t)(mult / (1ll << 31));
 801:Middlewares/tensorflow/third_party/cmsis_nn/Include/arm_nnsupportfunctions.h **** 
 802:Middlewares/tensorflow/third_party/cmsis_nn/Include/arm_nnsupportfunctions.h ****     if ((m1 == m2) && (m1 == (int32_t)NN_Q31_MIN))
 803:Middlewares/tensorflow/third_party/cmsis_nn/Include/arm_nnsupportfunctions.h ****     {
 804:Middlewares/tensorflow/third_party/cmsis_nn/Include/arm_nnsupportfunctions.h ****         result = NN_Q31_MAX;
 805:Middlewares/tensorflow/third_party/cmsis_nn/Include/arm_nnsupportfunctions.h ****     }
 806:Middlewares/tensorflow/third_party/cmsis_nn/Include/arm_nnsupportfunctions.h ****     return result;
 807:Middlewares/tensorflow/third_party/cmsis_nn/Include/arm_nnsupportfunctions.h **** }
 808:Middlewares/tensorflow/third_party/cmsis_nn/Include/arm_nnsupportfunctions.h **** 
 809:Middlewares/tensorflow/third_party/cmsis_nn/Include/arm_nnsupportfunctions.h **** /**
 810:Middlewares/tensorflow/third_party/cmsis_nn/Include/arm_nnsupportfunctions.h ****  * @brief           Doubling high multiply without saturation. This is intended
 811:Middlewares/tensorflow/third_party/cmsis_nn/Include/arm_nnsupportfunctions.h ****  *                  for requantization where the scale is a positive integer
 812:Middlewares/tensorflow/third_party/cmsis_nn/Include/arm_nnsupportfunctions.h ****  *
 813:Middlewares/tensorflow/third_party/cmsis_nn/Include/arm_nnsupportfunctions.h ****  * @param[in]       m1        Multiplicand. Range: {NN_Q31_MIN, NN_Q31_MAX}
 814:Middlewares/tensorflow/third_party/cmsis_nn/Include/arm_nnsupportfunctions.h ****  * @param[in]       m2        Multiplier Range: {NN_Q31_MIN, NN_Q31_MAX}
 815:Middlewares/tensorflow/third_party/cmsis_nn/Include/arm_nnsupportfunctions.h ****  * @return          Result of multiplication.
 816:Middlewares/tensorflow/third_party/cmsis_nn/Include/arm_nnsupportfunctions.h ****  * @note            The result of this matches that of neon instruction
 817:Middlewares/tensorflow/third_party/cmsis_nn/Include/arm_nnsupportfunctions.h ****  *                  VQRDMULH for m1 in range {NN_Q31_MIN, NN_Q31_MAX} and m2 in
 818:Middlewares/tensorflow/third_party/cmsis_nn/Include/arm_nnsupportfunctions.h ****  *                  range {NN_Q31_MIN + 1, NN_Q31_MAX}. Saturation occurs when
 819:Middlewares/tensorflow/third_party/cmsis_nn/Include/arm_nnsupportfunctions.h ****  *                  m1 equals m2 equals NN_Q31_MIN and that is not handled by
 820:Middlewares/tensorflow/third_party/cmsis_nn/Include/arm_nnsupportfunctions.h ****  *                  this function.
 821:Middlewares/tensorflow/third_party/cmsis_nn/Include/arm_nnsupportfunctions.h ****  *
 822:Middlewares/tensorflow/third_party/cmsis_nn/Include/arm_nnsupportfunctions.h ****  */
 823:Middlewares/tensorflow/third_party/cmsis_nn/Include/arm_nnsupportfunctions.h **** __STATIC_FORCEINLINE int32_t arm_nn_doubling_high_mult_no_sat(const int32_t m1, const int32_t m2)
 824:Middlewares/tensorflow/third_party/cmsis_nn/Include/arm_nnsupportfunctions.h **** {
 825:Middlewares/tensorflow/third_party/cmsis_nn/Include/arm_nnsupportfunctions.h ****     int32_t result = 0;
 826:Middlewares/tensorflow/third_party/cmsis_nn/Include/arm_nnsupportfunctions.h ****     union arm_nn_long_long mult;
 827:Middlewares/tensorflow/third_party/cmsis_nn/Include/arm_nnsupportfunctions.h **** 
 828:Middlewares/tensorflow/third_party/cmsis_nn/Include/arm_nnsupportfunctions.h ****     // Rounding offset to add for a right shift of 31
 829:Middlewares/tensorflow/third_party/cmsis_nn/Include/arm_nnsupportfunctions.h ****     mult.word.low = 1 << 30;
 830:Middlewares/tensorflow/third_party/cmsis_nn/Include/arm_nnsupportfunctions.h ****     mult.word.high = 0;
 831:Middlewares/tensorflow/third_party/cmsis_nn/Include/arm_nnsupportfunctions.h **** 
 832:Middlewares/tensorflow/third_party/cmsis_nn/Include/arm_nnsupportfunctions.h ****     // Gets resolved as a SMLAL instruction
 833:Middlewares/tensorflow/third_party/cmsis_nn/Include/arm_nnsupportfunctions.h ****     mult.long_long = mult.long_long + (int64_t)m1 * m2;
 834:Middlewares/tensorflow/third_party/cmsis_nn/Include/arm_nnsupportfunctions.h **** 
 835:Middlewares/tensorflow/third_party/cmsis_nn/Include/arm_nnsupportfunctions.h ****     // Utilize all of the upper 32 bits. This is the doubling step
 836:Middlewares/tensorflow/third_party/cmsis_nn/Include/arm_nnsupportfunctions.h ****     // as well.
 837:Middlewares/tensorflow/third_party/cmsis_nn/Include/arm_nnsupportfunctions.h ****     result = (int32_t)(mult.long_long >> 31);
 838:Middlewares/tensorflow/third_party/cmsis_nn/Include/arm_nnsupportfunctions.h **** 
 839:Middlewares/tensorflow/third_party/cmsis_nn/Include/arm_nnsupportfunctions.h ****     return result;
 840:Middlewares/tensorflow/third_party/cmsis_nn/Include/arm_nnsupportfunctions.h **** }
ARM GAS  /tmp/ccFCOfgV.s 			page 25


 841:Middlewares/tensorflow/third_party/cmsis_nn/Include/arm_nnsupportfunctions.h **** 
 842:Middlewares/tensorflow/third_party/cmsis_nn/Include/arm_nnsupportfunctions.h **** /**
 843:Middlewares/tensorflow/third_party/cmsis_nn/Include/arm_nnsupportfunctions.h ****  * @brief           Rounding divide by power of two.
 844:Middlewares/tensorflow/third_party/cmsis_nn/Include/arm_nnsupportfunctions.h ****  * @param[in]       dividend - Dividend
 845:Middlewares/tensorflow/third_party/cmsis_nn/Include/arm_nnsupportfunctions.h ****  * @param[in]       exponent - Divisor = power(2, exponent)
 846:Middlewares/tensorflow/third_party/cmsis_nn/Include/arm_nnsupportfunctions.h ****  *                             Range: [0, 31]
 847:Middlewares/tensorflow/third_party/cmsis_nn/Include/arm_nnsupportfunctions.h ****  * @return          Rounded result of division. Midpoint is rounded away from zero.
 848:Middlewares/tensorflow/third_party/cmsis_nn/Include/arm_nnsupportfunctions.h ****  *
 849:Middlewares/tensorflow/third_party/cmsis_nn/Include/arm_nnsupportfunctions.h ****  */
 850:Middlewares/tensorflow/third_party/cmsis_nn/Include/arm_nnsupportfunctions.h **** __STATIC_FORCEINLINE int32_t arm_nn_divide_by_power_of_two(const int32_t dividend, const int32_t ex
 851:Middlewares/tensorflow/third_party/cmsis_nn/Include/arm_nnsupportfunctions.h **** {
 852:Middlewares/tensorflow/third_party/cmsis_nn/Include/arm_nnsupportfunctions.h ****     int32_t result = 0;
 853:Middlewares/tensorflow/third_party/cmsis_nn/Include/arm_nnsupportfunctions.h ****     const int32_t remainder_mask = (1 << exponent) - 1;
 854:Middlewares/tensorflow/third_party/cmsis_nn/Include/arm_nnsupportfunctions.h ****     int32_t remainder = remainder_mask & dividend;
 855:Middlewares/tensorflow/third_party/cmsis_nn/Include/arm_nnsupportfunctions.h **** 
 856:Middlewares/tensorflow/third_party/cmsis_nn/Include/arm_nnsupportfunctions.h ****     // Basic division
 857:Middlewares/tensorflow/third_party/cmsis_nn/Include/arm_nnsupportfunctions.h ****     result = dividend >> exponent;
 858:Middlewares/tensorflow/third_party/cmsis_nn/Include/arm_nnsupportfunctions.h **** 
 859:Middlewares/tensorflow/third_party/cmsis_nn/Include/arm_nnsupportfunctions.h ****     // Adjust 'result' for rounding (mid point away from zero)
 860:Middlewares/tensorflow/third_party/cmsis_nn/Include/arm_nnsupportfunctions.h ****     int32_t threshold = remainder_mask >> 1;
 861:Middlewares/tensorflow/third_party/cmsis_nn/Include/arm_nnsupportfunctions.h ****     if (result < 0)
 862:Middlewares/tensorflow/third_party/cmsis_nn/Include/arm_nnsupportfunctions.h ****     {
 863:Middlewares/tensorflow/third_party/cmsis_nn/Include/arm_nnsupportfunctions.h ****         threshold++;
 864:Middlewares/tensorflow/third_party/cmsis_nn/Include/arm_nnsupportfunctions.h ****     }
 865:Middlewares/tensorflow/third_party/cmsis_nn/Include/arm_nnsupportfunctions.h ****     if (remainder > threshold)
 866:Middlewares/tensorflow/third_party/cmsis_nn/Include/arm_nnsupportfunctions.h ****     {
 867:Middlewares/tensorflow/third_party/cmsis_nn/Include/arm_nnsupportfunctions.h ****         result++;
 868:Middlewares/tensorflow/third_party/cmsis_nn/Include/arm_nnsupportfunctions.h ****     }
 869:Middlewares/tensorflow/third_party/cmsis_nn/Include/arm_nnsupportfunctions.h **** 
 870:Middlewares/tensorflow/third_party/cmsis_nn/Include/arm_nnsupportfunctions.h ****     return result;
 871:Middlewares/tensorflow/third_party/cmsis_nn/Include/arm_nnsupportfunctions.h **** }
 872:Middlewares/tensorflow/third_party/cmsis_nn/Include/arm_nnsupportfunctions.h **** 
 873:Middlewares/tensorflow/third_party/cmsis_nn/Include/arm_nnsupportfunctions.h **** /**
 874:Middlewares/tensorflow/third_party/cmsis_nn/Include/arm_nnsupportfunctions.h ****  * @brief           Requantize a given value.
 875:Middlewares/tensorflow/third_party/cmsis_nn/Include/arm_nnsupportfunctions.h ****  * @param[in]       val         Value to be requantized
 876:Middlewares/tensorflow/third_party/cmsis_nn/Include/arm_nnsupportfunctions.h ****  * @param[in]       multiplier  multiplier. Range {NN_Q31_MIN + 1, Q32_MAX}
 877:Middlewares/tensorflow/third_party/cmsis_nn/Include/arm_nnsupportfunctions.h ****  * @param[in]       shift       left or right shift for 'val * multiplier'
 878:Middlewares/tensorflow/third_party/cmsis_nn/Include/arm_nnsupportfunctions.h ****  *
 879:Middlewares/tensorflow/third_party/cmsis_nn/Include/arm_nnsupportfunctions.h ****  * @return          Returns (val * multiplier)/(2 ^ shift)
 880:Middlewares/tensorflow/third_party/cmsis_nn/Include/arm_nnsupportfunctions.h ****  *
 881:Middlewares/tensorflow/third_party/cmsis_nn/Include/arm_nnsupportfunctions.h ****  */
 882:Middlewares/tensorflow/third_party/cmsis_nn/Include/arm_nnsupportfunctions.h **** __STATIC_FORCEINLINE int32_t arm_nn_requantize(const int32_t val, const int32_t multiplier, const i
 883:Middlewares/tensorflow/third_party/cmsis_nn/Include/arm_nnsupportfunctions.h **** {
 884:Middlewares/tensorflow/third_party/cmsis_nn/Include/arm_nnsupportfunctions.h **** #ifdef CMSIS_NN_USE_SINGLE_ROUNDING
 885:Middlewares/tensorflow/third_party/cmsis_nn/Include/arm_nnsupportfunctions.h ****     const int64_t total_shift = 31 - shift;
 886:Middlewares/tensorflow/third_party/cmsis_nn/Include/arm_nnsupportfunctions.h ****     const int64_t new_val = val * (int64_t)multiplier;
 887:Middlewares/tensorflow/third_party/cmsis_nn/Include/arm_nnsupportfunctions.h **** 
 888:Middlewares/tensorflow/third_party/cmsis_nn/Include/arm_nnsupportfunctions.h ****     int32_t result = new_val >> (total_shift - 1);
 889:Middlewares/tensorflow/third_party/cmsis_nn/Include/arm_nnsupportfunctions.h ****     result = (result + 1) >> 1;
 890:Middlewares/tensorflow/third_party/cmsis_nn/Include/arm_nnsupportfunctions.h **** 
 891:Middlewares/tensorflow/third_party/cmsis_nn/Include/arm_nnsupportfunctions.h ****     return result;
 892:Middlewares/tensorflow/third_party/cmsis_nn/Include/arm_nnsupportfunctions.h **** #else
 893:Middlewares/tensorflow/third_party/cmsis_nn/Include/arm_nnsupportfunctions.h ****     return arm_nn_divide_by_power_of_two(arm_nn_doubling_high_mult_no_sat(val * (1 << LEFT_SHIFT(sh
 894:Middlewares/tensorflow/third_party/cmsis_nn/Include/arm_nnsupportfunctions.h ****                                          RIGHT_SHIFT(shift));
 895:Middlewares/tensorflow/third_party/cmsis_nn/Include/arm_nnsupportfunctions.h **** #endif
 896:Middlewares/tensorflow/third_party/cmsis_nn/Include/arm_nnsupportfunctions.h **** }
 897:Middlewares/tensorflow/third_party/cmsis_nn/Include/arm_nnsupportfunctions.h **** 
ARM GAS  /tmp/ccFCOfgV.s 			page 26


 898:Middlewares/tensorflow/third_party/cmsis_nn/Include/arm_nnsupportfunctions.h **** /**
 899:Middlewares/tensorflow/third_party/cmsis_nn/Include/arm_nnsupportfunctions.h ****  * @brief           Requantize a given 64 bit value.
 900:Middlewares/tensorflow/third_party/cmsis_nn/Include/arm_nnsupportfunctions.h ****  * @param[in]       val                 Value to be requantized in the range {-(1<<47)} to {(1<<47)
 901:Middlewares/tensorflow/third_party/cmsis_nn/Include/arm_nnsupportfunctions.h ****  * @param[in]       reduced_multiplier  Reduced multiplier in the range {NN_Q31_MIN + 1, Q32_MAX} t
 902:Middlewares/tensorflow/third_party/cmsis_nn/Include/arm_nnsupportfunctions.h ****  * Q16_MAX}
 903:Middlewares/tensorflow/third_party/cmsis_nn/Include/arm_nnsupportfunctions.h ****  * @param[in]       shift               Left or right shift for 'val * multiplier' in the range {-3
 904:Middlewares/tensorflow/third_party/cmsis_nn/Include/arm_nnsupportfunctions.h ****  *
 905:Middlewares/tensorflow/third_party/cmsis_nn/Include/arm_nnsupportfunctions.h ****  * @return          Returns (val * multiplier)/(2 ^ shift)
 906:Middlewares/tensorflow/third_party/cmsis_nn/Include/arm_nnsupportfunctions.h ****  *
 907:Middlewares/tensorflow/third_party/cmsis_nn/Include/arm_nnsupportfunctions.h ****  */
 908:Middlewares/tensorflow/third_party/cmsis_nn/Include/arm_nnsupportfunctions.h **** __STATIC_FORCEINLINE int32_t arm_nn_requantize_s64(const int64_t val,
 909:Middlewares/tensorflow/third_party/cmsis_nn/Include/arm_nnsupportfunctions.h ****                                                    const int32_t reduced_multiplier,
 910:Middlewares/tensorflow/third_party/cmsis_nn/Include/arm_nnsupportfunctions.h ****                                                    const int32_t shift)
 911:Middlewares/tensorflow/third_party/cmsis_nn/Include/arm_nnsupportfunctions.h **** {
 912:Middlewares/tensorflow/third_party/cmsis_nn/Include/arm_nnsupportfunctions.h ****     const int64_t new_val = val * reduced_multiplier;
 913:Middlewares/tensorflow/third_party/cmsis_nn/Include/arm_nnsupportfunctions.h **** 
 914:Middlewares/tensorflow/third_party/cmsis_nn/Include/arm_nnsupportfunctions.h ****     int32_t result = new_val >> (14 - shift); // 64->32 bit reduction
 915:Middlewares/tensorflow/third_party/cmsis_nn/Include/arm_nnsupportfunctions.h ****     result = (result + 1) >> 1;               // Last shift position and insert round
 916:Middlewares/tensorflow/third_party/cmsis_nn/Include/arm_nnsupportfunctions.h **** 
 917:Middlewares/tensorflow/third_party/cmsis_nn/Include/arm_nnsupportfunctions.h ****     return result;
 918:Middlewares/tensorflow/third_party/cmsis_nn/Include/arm_nnsupportfunctions.h **** }
 919:Middlewares/tensorflow/third_party/cmsis_nn/Include/arm_nnsupportfunctions.h **** 
 920:Middlewares/tensorflow/third_party/cmsis_nn/Include/arm_nnsupportfunctions.h **** /**
 921:Middlewares/tensorflow/third_party/cmsis_nn/Include/arm_nnsupportfunctions.h ****  * @brief           memcpy optimized for MVE
 922:Middlewares/tensorflow/third_party/cmsis_nn/Include/arm_nnsupportfunctions.h ****  * @param[in, out]  dst         Destination pointer
 923:Middlewares/tensorflow/third_party/cmsis_nn/Include/arm_nnsupportfunctions.h ****  * @param[in]       src         Source pointer.
 924:Middlewares/tensorflow/third_party/cmsis_nn/Include/arm_nnsupportfunctions.h ****  * @param[in]       block_size  Number of bytes to copy.
 925:Middlewares/tensorflow/third_party/cmsis_nn/Include/arm_nnsupportfunctions.h ****  *
 926:Middlewares/tensorflow/third_party/cmsis_nn/Include/arm_nnsupportfunctions.h ****  */
 927:Middlewares/tensorflow/third_party/cmsis_nn/Include/arm_nnsupportfunctions.h **** __STATIC_FORCEINLINE void arm_memcpy_s8(int8_t *__RESTRICT dst, const int8_t *__RESTRICT src, uint3
 928:Middlewares/tensorflow/third_party/cmsis_nn/Include/arm_nnsupportfunctions.h **** {
 929:Middlewares/tensorflow/third_party/cmsis_nn/Include/arm_nnsupportfunctions.h **** #if defined(ARM_MATH_MVEI)
 930:Middlewares/tensorflow/third_party/cmsis_nn/Include/arm_nnsupportfunctions.h ****     __asm volatile("   wlstp.8                 lr, %[cnt], 1f             \n"
 931:Middlewares/tensorflow/third_party/cmsis_nn/Include/arm_nnsupportfunctions.h ****                    "2:                                                    \n"
 932:Middlewares/tensorflow/third_party/cmsis_nn/Include/arm_nnsupportfunctions.h ****                    "   vldrb.8                 q0, [%[in]], #16            \n"
 933:Middlewares/tensorflow/third_party/cmsis_nn/Include/arm_nnsupportfunctions.h ****                    "   vstrb.8                 q0, [%[out]], #16           \n"
 934:Middlewares/tensorflow/third_party/cmsis_nn/Include/arm_nnsupportfunctions.h ****                    "   letp                    lr, 2b                     \n"
 935:Middlewares/tensorflow/third_party/cmsis_nn/Include/arm_nnsupportfunctions.h ****                    "1:                                                    \n"
 936:Middlewares/tensorflow/third_party/cmsis_nn/Include/arm_nnsupportfunctions.h ****                    : [in] "+r"(src), [out] "+r"(dst)
 937:Middlewares/tensorflow/third_party/cmsis_nn/Include/arm_nnsupportfunctions.h ****                    : [cnt] "r"(block_size)
 938:Middlewares/tensorflow/third_party/cmsis_nn/Include/arm_nnsupportfunctions.h ****                    : "q0", "memory", "r14");
 939:Middlewares/tensorflow/third_party/cmsis_nn/Include/arm_nnsupportfunctions.h **** #else
 940:Middlewares/tensorflow/third_party/cmsis_nn/Include/arm_nnsupportfunctions.h ****     memcpy(dst, src, block_size);
 941:Middlewares/tensorflow/third_party/cmsis_nn/Include/arm_nnsupportfunctions.h **** #endif
 942:Middlewares/tensorflow/third_party/cmsis_nn/Include/arm_nnsupportfunctions.h **** }
 943:Middlewares/tensorflow/third_party/cmsis_nn/Include/arm_nnsupportfunctions.h **** 
 944:Middlewares/tensorflow/third_party/cmsis_nn/Include/arm_nnsupportfunctions.h **** /**
 945:Middlewares/tensorflow/third_party/cmsis_nn/Include/arm_nnsupportfunctions.h ****  * @brief           memcpy wrapper for int16
 946:Middlewares/tensorflow/third_party/cmsis_nn/Include/arm_nnsupportfunctions.h ****  * @param[in, out]  dst         Destination pointer
 947:Middlewares/tensorflow/third_party/cmsis_nn/Include/arm_nnsupportfunctions.h ****  * @param[in]       src         Source pointer.
 948:Middlewares/tensorflow/third_party/cmsis_nn/Include/arm_nnsupportfunctions.h ****  * @param[in]       block_size  Number of bytes to copy.
 949:Middlewares/tensorflow/third_party/cmsis_nn/Include/arm_nnsupportfunctions.h ****  *
 950:Middlewares/tensorflow/third_party/cmsis_nn/Include/arm_nnsupportfunctions.h ****  */
 951:Middlewares/tensorflow/third_party/cmsis_nn/Include/arm_nnsupportfunctions.h **** __STATIC_FORCEINLINE void arm_memcpy_q15(int16_t *__RESTRICT dst, const int16_t *__RESTRICT src, ui
 952:Middlewares/tensorflow/third_party/cmsis_nn/Include/arm_nnsupportfunctions.h **** {
 953:Middlewares/tensorflow/third_party/cmsis_nn/Include/arm_nnsupportfunctions.h ****     memcpy(dst, src, block_size);
 954:Middlewares/tensorflow/third_party/cmsis_nn/Include/arm_nnsupportfunctions.h **** }
ARM GAS  /tmp/ccFCOfgV.s 			page 27


 955:Middlewares/tensorflow/third_party/cmsis_nn/Include/arm_nnsupportfunctions.h **** 
 956:Middlewares/tensorflow/third_party/cmsis_nn/Include/arm_nnsupportfunctions.h **** #if defined(ARM_MATH_MVEI)
 957:Middlewares/tensorflow/third_party/cmsis_nn/Include/arm_nnsupportfunctions.h **** /**
 958:Middlewares/tensorflow/third_party/cmsis_nn/Include/arm_nnsupportfunctions.h ****  * @brief           Vector saturating doubling high multiply returning high half.
 959:Middlewares/tensorflow/third_party/cmsis_nn/Include/arm_nnsupportfunctions.h ****  * @param[in]       m1        Multiplicand
 960:Middlewares/tensorflow/third_party/cmsis_nn/Include/arm_nnsupportfunctions.h ****  * @param[in]       m2        Multiplier
 961:Middlewares/tensorflow/third_party/cmsis_nn/Include/arm_nnsupportfunctions.h ****  * @return          Result of multiplication.
 962:Middlewares/tensorflow/third_party/cmsis_nn/Include/arm_nnsupportfunctions.h ****  *
 963:Middlewares/tensorflow/third_party/cmsis_nn/Include/arm_nnsupportfunctions.h ****  */
 964:Middlewares/tensorflow/third_party/cmsis_nn/Include/arm_nnsupportfunctions.h **** __STATIC_FORCEINLINE int32x4_t arm_doubling_high_mult_mve(const int32x4_t m1, const int32_t m2)
 965:Middlewares/tensorflow/third_party/cmsis_nn/Include/arm_nnsupportfunctions.h **** {
 966:Middlewares/tensorflow/third_party/cmsis_nn/Include/arm_nnsupportfunctions.h ****     return vqrdmulhq_n_s32(m1, m2);
 967:Middlewares/tensorflow/third_party/cmsis_nn/Include/arm_nnsupportfunctions.h **** }
 968:Middlewares/tensorflow/third_party/cmsis_nn/Include/arm_nnsupportfunctions.h **** 
 969:Middlewares/tensorflow/third_party/cmsis_nn/Include/arm_nnsupportfunctions.h **** /**
 970:Middlewares/tensorflow/third_party/cmsis_nn/Include/arm_nnsupportfunctions.h ****  * @brief           Vector rounding divide by power of two.
 971:Middlewares/tensorflow/third_party/cmsis_nn/Include/arm_nnsupportfunctions.h ****  * @param[in]       dividend - Dividend vector
 972:Middlewares/tensorflow/third_party/cmsis_nn/Include/arm_nnsupportfunctions.h ****  * @param[in]       exponent - Divisor = power(2, exponent)
 973:Middlewares/tensorflow/third_party/cmsis_nn/Include/arm_nnsupportfunctions.h ****  *                             Range: [0, 31]
 974:Middlewares/tensorflow/third_party/cmsis_nn/Include/arm_nnsupportfunctions.h ****  * @return          Rounded result of division. Midpoint is rounded away from zero.
 975:Middlewares/tensorflow/third_party/cmsis_nn/Include/arm_nnsupportfunctions.h ****  *
 976:Middlewares/tensorflow/third_party/cmsis_nn/Include/arm_nnsupportfunctions.h ****  */
 977:Middlewares/tensorflow/third_party/cmsis_nn/Include/arm_nnsupportfunctions.h **** __STATIC_FORCEINLINE int32x4_t arm_divide_by_power_of_two_mve(const int32x4_t dividend, const int32
 978:Middlewares/tensorflow/third_party/cmsis_nn/Include/arm_nnsupportfunctions.h **** {
 979:Middlewares/tensorflow/third_party/cmsis_nn/Include/arm_nnsupportfunctions.h ****     const int32x4_t shift = vdupq_n_s32(-exponent);
 980:Middlewares/tensorflow/third_party/cmsis_nn/Include/arm_nnsupportfunctions.h ****     const int32x4_t fixup = vshrq_n_s32(vandq_s32(dividend, shift), 31);
 981:Middlewares/tensorflow/third_party/cmsis_nn/Include/arm_nnsupportfunctions.h ****     const int32x4_t fixed_up_dividend = vqaddq_s32(dividend, fixup);
 982:Middlewares/tensorflow/third_party/cmsis_nn/Include/arm_nnsupportfunctions.h ****     return vrshlq_s32(fixed_up_dividend, shift);
 983:Middlewares/tensorflow/third_party/cmsis_nn/Include/arm_nnsupportfunctions.h **** }
 984:Middlewares/tensorflow/third_party/cmsis_nn/Include/arm_nnsupportfunctions.h **** 
 985:Middlewares/tensorflow/third_party/cmsis_nn/Include/arm_nnsupportfunctions.h **** /**
 986:Middlewares/tensorflow/third_party/cmsis_nn/Include/arm_nnsupportfunctions.h ****  * @brief           Requantize a given vector.
 987:Middlewares/tensorflow/third_party/cmsis_nn/Include/arm_nnsupportfunctions.h ****  * @param[in]       val         Vector to be requantized
 988:Middlewares/tensorflow/third_party/cmsis_nn/Include/arm_nnsupportfunctions.h ****  * @param[in]       multiplier  multiplier
 989:Middlewares/tensorflow/third_party/cmsis_nn/Include/arm_nnsupportfunctions.h ****  * @param[in]       shift       shift
 990:Middlewares/tensorflow/third_party/cmsis_nn/Include/arm_nnsupportfunctions.h ****  *
 991:Middlewares/tensorflow/third_party/cmsis_nn/Include/arm_nnsupportfunctions.h ****  * @return          Returns (val * multiplier)/(2 ^ shift)
 992:Middlewares/tensorflow/third_party/cmsis_nn/Include/arm_nnsupportfunctions.h ****  *
 993:Middlewares/tensorflow/third_party/cmsis_nn/Include/arm_nnsupportfunctions.h ****  */
 994:Middlewares/tensorflow/third_party/cmsis_nn/Include/arm_nnsupportfunctions.h **** __STATIC_FORCEINLINE int32x4_t arm_requantize_mve(const int32x4_t val, const int32_t multiplier, co
 995:Middlewares/tensorflow/third_party/cmsis_nn/Include/arm_nnsupportfunctions.h **** {
 996:Middlewares/tensorflow/third_party/cmsis_nn/Include/arm_nnsupportfunctions.h ****     #ifdef CMSIS_NN_USE_SINGLE_ROUNDING
 997:Middlewares/tensorflow/third_party/cmsis_nn/Include/arm_nnsupportfunctions.h ****     const int right_shift = MIN(-1, shift);
 998:Middlewares/tensorflow/third_party/cmsis_nn/Include/arm_nnsupportfunctions.h ****     const int left_shift = shift - right_shift;
 999:Middlewares/tensorflow/third_party/cmsis_nn/Include/arm_nnsupportfunctions.h **** 
1000:Middlewares/tensorflow/third_party/cmsis_nn/Include/arm_nnsupportfunctions.h ****     const int32x4_t left_shift_dup = vdupq_n_s32(left_shift);
1001:Middlewares/tensorflow/third_party/cmsis_nn/Include/arm_nnsupportfunctions.h ****     const int32x4_t right_shift_dup = vdupq_n_s32(right_shift);
1002:Middlewares/tensorflow/third_party/cmsis_nn/Include/arm_nnsupportfunctions.h **** 
1003:Middlewares/tensorflow/third_party/cmsis_nn/Include/arm_nnsupportfunctions.h ****     int32x4_t result = vqdmulhq_n_s32(vshlq_s32(val, left_shift_dup), multiplier);
1004:Middlewares/tensorflow/third_party/cmsis_nn/Include/arm_nnsupportfunctions.h ****     result = vrshlq_s32(result, right_shift_dup);
1005:Middlewares/tensorflow/third_party/cmsis_nn/Include/arm_nnsupportfunctions.h **** 
1006:Middlewares/tensorflow/third_party/cmsis_nn/Include/arm_nnsupportfunctions.h ****     return result;
1007:Middlewares/tensorflow/third_party/cmsis_nn/Include/arm_nnsupportfunctions.h ****     #else
1008:Middlewares/tensorflow/third_party/cmsis_nn/Include/arm_nnsupportfunctions.h ****     return arm_divide_by_power_of_two_mve(
1009:Middlewares/tensorflow/third_party/cmsis_nn/Include/arm_nnsupportfunctions.h ****         arm_doubling_high_mult_mve(vshlq_s32(val, vdupq_n_s32(LEFT_SHIFT(shift))), multiplier), RIG
1010:Middlewares/tensorflow/third_party/cmsis_nn/Include/arm_nnsupportfunctions.h ****     #endif
1011:Middlewares/tensorflow/third_party/cmsis_nn/Include/arm_nnsupportfunctions.h **** }
ARM GAS  /tmp/ccFCOfgV.s 			page 28


1012:Middlewares/tensorflow/third_party/cmsis_nn/Include/arm_nnsupportfunctions.h **** 
1013:Middlewares/tensorflow/third_party/cmsis_nn/Include/arm_nnsupportfunctions.h **** __STATIC_FORCEINLINE int32x4_t arm_doubling_high_mult_mve_32x4(const int32x4_t m1, const int32x4_t 
1014:Middlewares/tensorflow/third_party/cmsis_nn/Include/arm_nnsupportfunctions.h **** {
1015:Middlewares/tensorflow/third_party/cmsis_nn/Include/arm_nnsupportfunctions.h ****     return vqrdmulhq_s32(m1, m2);
1016:Middlewares/tensorflow/third_party/cmsis_nn/Include/arm_nnsupportfunctions.h **** }
1017:Middlewares/tensorflow/third_party/cmsis_nn/Include/arm_nnsupportfunctions.h **** 
1018:Middlewares/tensorflow/third_party/cmsis_nn/Include/arm_nnsupportfunctions.h **** __STATIC_FORCEINLINE int32x4_t arm_divide_by_power_of_two_mve_32x4(const int32x4_t dividend, const 
1019:Middlewares/tensorflow/third_party/cmsis_nn/Include/arm_nnsupportfunctions.h **** {
1020:Middlewares/tensorflow/third_party/cmsis_nn/Include/arm_nnsupportfunctions.h ****     const int32x4_t shift = -exponent;
1021:Middlewares/tensorflow/third_party/cmsis_nn/Include/arm_nnsupportfunctions.h ****     const int32x4_t fixup = vshrq_n_s32(vandq_s32(dividend, shift), 31);
1022:Middlewares/tensorflow/third_party/cmsis_nn/Include/arm_nnsupportfunctions.h ****     const int32x4_t fixed_up_dividend = vqaddq_s32(dividend, fixup);
1023:Middlewares/tensorflow/third_party/cmsis_nn/Include/arm_nnsupportfunctions.h ****     return vrshlq_s32(fixed_up_dividend, shift);
1024:Middlewares/tensorflow/third_party/cmsis_nn/Include/arm_nnsupportfunctions.h **** }
1025:Middlewares/tensorflow/third_party/cmsis_nn/Include/arm_nnsupportfunctions.h **** 
1026:Middlewares/tensorflow/third_party/cmsis_nn/Include/arm_nnsupportfunctions.h **** __STATIC_FORCEINLINE int32x4_t arm_requantize_mve_32x4(const int32x4_t val,
1027:Middlewares/tensorflow/third_party/cmsis_nn/Include/arm_nnsupportfunctions.h ****                                                        const int32x4_t multiplier,
1028:Middlewares/tensorflow/third_party/cmsis_nn/Include/arm_nnsupportfunctions.h ****                                                        const int32x4_t shift)
1029:Middlewares/tensorflow/third_party/cmsis_nn/Include/arm_nnsupportfunctions.h **** {
1030:Middlewares/tensorflow/third_party/cmsis_nn/Include/arm_nnsupportfunctions.h ****     #ifdef CMSIS_NN_USE_SINGLE_ROUNDING
1031:Middlewares/tensorflow/third_party/cmsis_nn/Include/arm_nnsupportfunctions.h ****     const int32x4_t right_shift = vminq_s32(vdupq_n_s32(-1), shift);
1032:Middlewares/tensorflow/third_party/cmsis_nn/Include/arm_nnsupportfunctions.h ****     const int32x4_t left_shift = vqsubq_s32(shift, right_shift);
1033:Middlewares/tensorflow/third_party/cmsis_nn/Include/arm_nnsupportfunctions.h **** 
1034:Middlewares/tensorflow/third_party/cmsis_nn/Include/arm_nnsupportfunctions.h ****     int32x4_t result = vqdmulhq_s32(vshlq_s32(val, left_shift), multiplier);
1035:Middlewares/tensorflow/third_party/cmsis_nn/Include/arm_nnsupportfunctions.h ****     result = vrshlq_s32(result, right_shift);
1036:Middlewares/tensorflow/third_party/cmsis_nn/Include/arm_nnsupportfunctions.h **** 
1037:Middlewares/tensorflow/third_party/cmsis_nn/Include/arm_nnsupportfunctions.h ****     return result;
1038:Middlewares/tensorflow/third_party/cmsis_nn/Include/arm_nnsupportfunctions.h ****     #else
1039:Middlewares/tensorflow/third_party/cmsis_nn/Include/arm_nnsupportfunctions.h ****     const int32x4_t zz = vdupq_n_s32(0);
1040:Middlewares/tensorflow/third_party/cmsis_nn/Include/arm_nnsupportfunctions.h ****     const mve_pred16_t p = vcmpgtq_n_s32(shift, 0);
1041:Middlewares/tensorflow/third_party/cmsis_nn/Include/arm_nnsupportfunctions.h **** 
1042:Middlewares/tensorflow/third_party/cmsis_nn/Include/arm_nnsupportfunctions.h ****     const int32x4_t left_shift = vpselq_s32(shift, zz, p);
1043:Middlewares/tensorflow/third_party/cmsis_nn/Include/arm_nnsupportfunctions.h ****     const int32x4_t right_shift = -vpselq_s32(zz, shift, p);
1044:Middlewares/tensorflow/third_party/cmsis_nn/Include/arm_nnsupportfunctions.h **** 
1045:Middlewares/tensorflow/third_party/cmsis_nn/Include/arm_nnsupportfunctions.h ****     return arm_divide_by_power_of_two_mve_32x4(arm_doubling_high_mult_mve_32x4(vshlq_s32(val, left_
1046:Middlewares/tensorflow/third_party/cmsis_nn/Include/arm_nnsupportfunctions.h ****                                                right_shift);
1047:Middlewares/tensorflow/third_party/cmsis_nn/Include/arm_nnsupportfunctions.h ****     #endif
1048:Middlewares/tensorflow/third_party/cmsis_nn/Include/arm_nnsupportfunctions.h **** }
1049:Middlewares/tensorflow/third_party/cmsis_nn/Include/arm_nnsupportfunctions.h **** #endif
1050:Middlewares/tensorflow/third_party/cmsis_nn/Include/arm_nnsupportfunctions.h **** 
1051:Middlewares/tensorflow/third_party/cmsis_nn/Include/arm_nnsupportfunctions.h **** // @note The following functions are used only for softmax layer, scaled bits = 5 assumed
1052:Middlewares/tensorflow/third_party/cmsis_nn/Include/arm_nnsupportfunctions.h **** 
1053:Middlewares/tensorflow/third_party/cmsis_nn/Include/arm_nnsupportfunctions.h **** __STATIC_FORCEINLINE int32_t arm_nn_exp_on_negative_values(int32_t val)
1054:Middlewares/tensorflow/third_party/cmsis_nn/Include/arm_nnsupportfunctions.h **** {
1055:Middlewares/tensorflow/third_party/cmsis_nn/Include/arm_nnsupportfunctions.h ****     int32_t mask = 0;
1056:Middlewares/tensorflow/third_party/cmsis_nn/Include/arm_nnsupportfunctions.h ****     int32_t shift = 24;
1057:Middlewares/tensorflow/third_party/cmsis_nn/Include/arm_nnsupportfunctions.h **** 
1058:Middlewares/tensorflow/third_party/cmsis_nn/Include/arm_nnsupportfunctions.h ****     const int32_t val_mod_minus_quarter = (val & ((1 << shift) - 1)) - (1 << shift);
1059:Middlewares/tensorflow/third_party/cmsis_nn/Include/arm_nnsupportfunctions.h ****     const int32_t remainder = val_mod_minus_quarter - val;
1060:Middlewares/tensorflow/third_party/cmsis_nn/Include/arm_nnsupportfunctions.h ****     const int32_t x = (val_mod_minus_quarter << 5) + (1 << 28);
1061:Middlewares/tensorflow/third_party/cmsis_nn/Include/arm_nnsupportfunctions.h ****     const int32_t x2 = MUL_SAT(x, x);
1062:Middlewares/tensorflow/third_party/cmsis_nn/Include/arm_nnsupportfunctions.h **** 
1063:Middlewares/tensorflow/third_party/cmsis_nn/Include/arm_nnsupportfunctions.h ****     int32_t result = 1895147668 +
1064:Middlewares/tensorflow/third_party/cmsis_nn/Include/arm_nnsupportfunctions.h ****         MUL_SAT(1895147668, x + DIV_POW2(MUL_SAT(DIV_POW2(MUL_SAT(x2, x2), 2) + MUL_SAT(x2, x), 715
1065:Middlewares/tensorflow/third_party/cmsis_nn/Include/arm_nnsupportfunctions.h **** 
1066:Middlewares/tensorflow/third_party/cmsis_nn/Include/arm_nnsupportfunctions.h **** #define SELECT_IF_NON_ZERO(x)                                                                      
1067:Middlewares/tensorflow/third_party/cmsis_nn/Include/arm_nnsupportfunctions.h ****     {                                                                                              
1068:Middlewares/tensorflow/third_party/cmsis_nn/Include/arm_nnsupportfunctions.h ****         mask = MASK_IF_NON_ZERO(remainder & (1 << shift++));                                       
ARM GAS  /tmp/ccFCOfgV.s 			page 29


1069:Middlewares/tensorflow/third_party/cmsis_nn/Include/arm_nnsupportfunctions.h ****         result = SELECT_USING_MASK(mask, MUL_SAT(result, x), result);                              
1070:Middlewares/tensorflow/third_party/cmsis_nn/Include/arm_nnsupportfunctions.h ****     }
1071:Middlewares/tensorflow/third_party/cmsis_nn/Include/arm_nnsupportfunctions.h **** 
1072:Middlewares/tensorflow/third_party/cmsis_nn/Include/arm_nnsupportfunctions.h ****     SELECT_IF_NON_ZERO(1672461947)
1073:Middlewares/tensorflow/third_party/cmsis_nn/Include/arm_nnsupportfunctions.h ****     SELECT_IF_NON_ZERO(1302514674)
1074:Middlewares/tensorflow/third_party/cmsis_nn/Include/arm_nnsupportfunctions.h ****     SELECT_IF_NON_ZERO(790015084)
1075:Middlewares/tensorflow/third_party/cmsis_nn/Include/arm_nnsupportfunctions.h ****     SELECT_IF_NON_ZERO(290630308)
1076:Middlewares/tensorflow/third_party/cmsis_nn/Include/arm_nnsupportfunctions.h ****     SELECT_IF_NON_ZERO(39332535)
1077:Middlewares/tensorflow/third_party/cmsis_nn/Include/arm_nnsupportfunctions.h ****     SELECT_IF_NON_ZERO(720401)
1078:Middlewares/tensorflow/third_party/cmsis_nn/Include/arm_nnsupportfunctions.h ****     SELECT_IF_NON_ZERO(242)
1079:Middlewares/tensorflow/third_party/cmsis_nn/Include/arm_nnsupportfunctions.h **** 
1080:Middlewares/tensorflow/third_party/cmsis_nn/Include/arm_nnsupportfunctions.h **** #undef SELECT_IF_NON_ZERO
1081:Middlewares/tensorflow/third_party/cmsis_nn/Include/arm_nnsupportfunctions.h **** 
1082:Middlewares/tensorflow/third_party/cmsis_nn/Include/arm_nnsupportfunctions.h ****     mask = MASK_IF_ZERO(val);
1083:Middlewares/tensorflow/third_party/cmsis_nn/Include/arm_nnsupportfunctions.h ****     return SELECT_USING_MASK(mask, NN_Q31_MAX, result);
1084:Middlewares/tensorflow/third_party/cmsis_nn/Include/arm_nnsupportfunctions.h **** }
1085:Middlewares/tensorflow/third_party/cmsis_nn/Include/arm_nnsupportfunctions.h **** 
1086:Middlewares/tensorflow/third_party/cmsis_nn/Include/arm_nnsupportfunctions.h **** __STATIC_FORCEINLINE int32_t arm_nn_mult_by_power_of_two(const int32_t val, const int32_t exp)
1087:Middlewares/tensorflow/third_party/cmsis_nn/Include/arm_nnsupportfunctions.h **** {
1088:Middlewares/tensorflow/third_party/cmsis_nn/Include/arm_nnsupportfunctions.h ****     const int32_t thresh = ((1 << (31 - exp)) - 1);
1089:Middlewares/tensorflow/third_party/cmsis_nn/Include/arm_nnsupportfunctions.h ****     int32_t result = val << exp;
1090:Middlewares/tensorflow/third_party/cmsis_nn/Include/arm_nnsupportfunctions.h ****     result = SELECT_USING_MASK(MASK_IF_NON_ZERO(val > thresh), NN_Q31_MAX, result);
1091:Middlewares/tensorflow/third_party/cmsis_nn/Include/arm_nnsupportfunctions.h ****     result = SELECT_USING_MASK(MASK_IF_NON_ZERO(val < -thresh), NN_Q31_MIN, result);
1092:Middlewares/tensorflow/third_party/cmsis_nn/Include/arm_nnsupportfunctions.h ****     return result;
1093:Middlewares/tensorflow/third_party/cmsis_nn/Include/arm_nnsupportfunctions.h **** }
1094:Middlewares/tensorflow/third_party/cmsis_nn/Include/arm_nnsupportfunctions.h **** 
1095:Middlewares/tensorflow/third_party/cmsis_nn/Include/arm_nnsupportfunctions.h **** __STATIC_FORCEINLINE int32_t arm_nn_one_over_one_plus_x_for_x_in_0_1(int32_t val)
1096:Middlewares/tensorflow/third_party/cmsis_nn/Include/arm_nnsupportfunctions.h **** {
1097:Middlewares/tensorflow/third_party/cmsis_nn/Include/arm_nnsupportfunctions.h ****     const int64_t sum = (int64_t)val + (int64_t)NN_Q31_MAX;
1098:Middlewares/tensorflow/third_party/cmsis_nn/Include/arm_nnsupportfunctions.h ****     const int32_t half_denominator = (int32_t)((sum + (sum >= 0 ? 1 : -1)) / 2L);
1099:Middlewares/tensorflow/third_party/cmsis_nn/Include/arm_nnsupportfunctions.h ****     int32_t x = 1515870810 + MUL_SAT(half_denominator, -1010580540);
1100:Middlewares/tensorflow/third_party/cmsis_nn/Include/arm_nnsupportfunctions.h **** 
1101:Middlewares/tensorflow/third_party/cmsis_nn/Include/arm_nnsupportfunctions.h ****     const int32_t shift = (1 << 29);
1102:Middlewares/tensorflow/third_party/cmsis_nn/Include/arm_nnsupportfunctions.h ****     x += MUL_POW2(MUL_SAT(x, shift - MUL_SAT(half_denominator, x)), 2);
1103:Middlewares/tensorflow/third_party/cmsis_nn/Include/arm_nnsupportfunctions.h ****     x += MUL_POW2(MUL_SAT(x, shift - MUL_SAT(half_denominator, x)), 2);
1104:Middlewares/tensorflow/third_party/cmsis_nn/Include/arm_nnsupportfunctions.h ****     x += MUL_POW2(MUL_SAT(x, shift - MUL_SAT(half_denominator, x)), 2);
1105:Middlewares/tensorflow/third_party/cmsis_nn/Include/arm_nnsupportfunctions.h **** 
1106:Middlewares/tensorflow/third_party/cmsis_nn/Include/arm_nnsupportfunctions.h ****     return MUL_POW2(x, 1);
1107:Middlewares/tensorflow/third_party/cmsis_nn/Include/arm_nnsupportfunctions.h **** }
1108:Middlewares/tensorflow/third_party/cmsis_nn/Include/arm_nnsupportfunctions.h **** 
1109:Middlewares/tensorflow/third_party/cmsis_nn/Include/arm_nnsupportfunctions.h **** /**
1110:Middlewares/tensorflow/third_party/cmsis_nn/Include/arm_nnsupportfunctions.h ****   @brief         Write 2 s16 elements and post increment pointer.
1111:Middlewares/tensorflow/third_party/cmsis_nn/Include/arm_nnsupportfunctions.h ****   @param[in]     dest_q15  Pointer to pointer that holds address of destination.
1112:Middlewares/tensorflow/third_party/cmsis_nn/Include/arm_nnsupportfunctions.h ****   @param[in]     src_q31   Input value to be written.
1113:Middlewares/tensorflow/third_party/cmsis_nn/Include/arm_nnsupportfunctions.h ****  */
1114:Middlewares/tensorflow/third_party/cmsis_nn/Include/arm_nnsupportfunctions.h **** __STATIC_FORCEINLINE void arm_nn_write_q15x2_ia(int16_t **dest_q15, int32_t src_q31)
 170              		.loc 2 1114 27 view .LVU54
 171              	.LBB29:
1115:Middlewares/tensorflow/third_party/cmsis_nn/Include/arm_nnsupportfunctions.h **** {
1116:Middlewares/tensorflow/third_party/cmsis_nn/Include/arm_nnsupportfunctions.h ****     int32_t val = src_q31;
 172              		.loc 2 1116 5 view .LVU55
1117:Middlewares/tensorflow/third_party/cmsis_nn/Include/arm_nnsupportfunctions.h **** 
1118:Middlewares/tensorflow/third_party/cmsis_nn/Include/arm_nnsupportfunctions.h ****     memcpy(*dest_q15, &val, 4);
 173              		.loc 2 1118 5 view .LVU56
 174 0024 0C60     		str	r4, [r1]	@ unaligned
 175              	.LVL10:
1119:Middlewares/tensorflow/third_party/cmsis_nn/Include/arm_nnsupportfunctions.h ****     *dest_q15 += 2;
ARM GAS  /tmp/ccFCOfgV.s 			page 30


 176              		.loc 2 1119 5 view .LVU57
 177              		.loc 2 1119 5 is_stmt 0 view .LVU58
 178              	.LBE29:
 179              	.LBE28:
  90:Middlewares/tensorflow/third_party/cmsis_nn/Source/NNSupportFunctions/arm_q7_to_q15_with_offset.c ****         arm_nn_write_q15x2_ia(&dst, out_q15x2_2);
 180              		.loc 1 90 9 is_stmt 1 view .LVU59
 181              	.LBB30:
 182              	.LBI30:
1114:Middlewares/tensorflow/third_party/cmsis_nn/Include/arm_nnsupportfunctions.h **** {
 183              		.loc 2 1114 27 view .LVU60
 184              	.LBB31:
1116:Middlewares/tensorflow/third_party/cmsis_nn/Include/arm_nnsupportfunctions.h **** 
 185              		.loc 2 1116 5 view .LVU61
1118:Middlewares/tensorflow/third_party/cmsis_nn/Include/arm_nnsupportfunctions.h ****     *dest_q15 += 2;
 186              		.loc 2 1118 5 view .LVU62
 187 0026 C1F804C0 		str	ip, [r1, #4]	@ unaligned
 188              		.loc 2 1119 5 view .LVU63
 189              		.loc 2 1119 15 is_stmt 0 view .LVU64
 190 002a 0831     		adds	r1, r1, #8
 191              	.LVL11:
 192              		.loc 2 1119 15 view .LVU65
 193              	.LBE31:
 194              	.LBE30:
  91:Middlewares/tensorflow/third_party/cmsis_nn/Source/NNSupportFunctions/arm_q7_to_q15_with_offset.c **** 
  92:Middlewares/tensorflow/third_party/cmsis_nn/Source/NNSupportFunctions/arm_q7_to_q15_with_offset.c ****         block_cnt--;
 195              		.loc 1 92 9 is_stmt 1 view .LVU66
 196              		.loc 1 92 18 is_stmt 0 view .LVU67
 197 002c 013E     		subs	r6, r6, #1
 198              	.LVL12:
 199              		.loc 1 92 18 view .LVU68
 200 002e EBE7     		b	.L2
 201              	.LVL13:
 202              	.L7:
  93:Middlewares/tensorflow/third_party/cmsis_nn/Source/NNSupportFunctions/arm_q7_to_q15_with_offset.c ****     }
  94:Middlewares/tensorflow/third_party/cmsis_nn/Source/NNSupportFunctions/arm_q7_to_q15_with_offset.c ****     /* Handle left over samples */
  95:Middlewares/tensorflow/third_party/cmsis_nn/Source/NNSupportFunctions/arm_q7_to_q15_with_offset.c ****     block_cnt = block_size % 0x4;
 203              		.loc 1 95 5 is_stmt 1 view .LVU69
 204              		.loc 1 95 15 is_stmt 0 view .LVU70
 205 0030 02F00304 		and	r4, r2, #3
 206              	.LVL14:
  96:Middlewares/tensorflow/third_party/cmsis_nn/Source/NNSupportFunctions/arm_q7_to_q15_with_offset.c **** 
  97:Middlewares/tensorflow/third_party/cmsis_nn/Source/NNSupportFunctions/arm_q7_to_q15_with_offset.c **** #else
  98:Middlewares/tensorflow/third_party/cmsis_nn/Source/NNSupportFunctions/arm_q7_to_q15_with_offset.c ****     /* Run the below code for Cortex-M0 */
  99:Middlewares/tensorflow/third_party/cmsis_nn/Source/NNSupportFunctions/arm_q7_to_q15_with_offset.c ****     /* Loop over block_size number of values */
 100:Middlewares/tensorflow/third_party/cmsis_nn/Source/NNSupportFunctions/arm_q7_to_q15_with_offset.c ****     block_cnt = block_size;
 101:Middlewares/tensorflow/third_party/cmsis_nn/Source/NNSupportFunctions/arm_q7_to_q15_with_offset.c **** #endif
 102:Middlewares/tensorflow/third_party/cmsis_nn/Source/NNSupportFunctions/arm_q7_to_q15_with_offset.c **** 
 103:Middlewares/tensorflow/third_party/cmsis_nn/Source/NNSupportFunctions/arm_q7_to_q15_with_offset.c ****     while (block_cnt > 0)
 207              		.loc 1 103 5 is_stmt 1 view .LVU71
 208              		.loc 1 103 11 is_stmt 0 view .LVU72
 209 0034 06E0     		b	.L4
 210              	.LVL15:
 211              	.L5:
 104:Middlewares/tensorflow/third_party/cmsis_nn/Source/NNSupportFunctions/arm_q7_to_q15_with_offset.c ****     {
 105:Middlewares/tensorflow/third_party/cmsis_nn/Source/NNSupportFunctions/arm_q7_to_q15_with_offset.c ****         *dst++ = (int16_t)*src++ + offset;
 212              		.loc 1 105 9 is_stmt 1 view .LVU73
 213              		.loc 1 105 27 is_stmt 0 view .LVU74
ARM GAS  /tmp/ccFCOfgV.s 			page 31


 214 0036 10F9012B 		ldrsb	r2, [r0], #1
 215              	.LVL16:
 216              		.loc 1 105 34 view .LVU75
 217 003a 13FA82F2 		uxtah	r2, r3, r2
 218              		.loc 1 105 16 view .LVU76
 219 003e 21F8022B 		strh	r2, [r1], #2	@ movhi
 220              	.LVL17:
 106:Middlewares/tensorflow/third_party/cmsis_nn/Source/NNSupportFunctions/arm_q7_to_q15_with_offset.c **** 
 107:Middlewares/tensorflow/third_party/cmsis_nn/Source/NNSupportFunctions/arm_q7_to_q15_with_offset.c ****         /* Decrement the loop counter */
 108:Middlewares/tensorflow/third_party/cmsis_nn/Source/NNSupportFunctions/arm_q7_to_q15_with_offset.c ****         block_cnt--;
 221              		.loc 1 108 9 is_stmt 1 view .LVU77
 222              		.loc 1 108 18 is_stmt 0 view .LVU78
 223 0042 013C     		subs	r4, r4, #1
 224              	.LVL18:
 225              	.L4:
 103:Middlewares/tensorflow/third_party/cmsis_nn/Source/NNSupportFunctions/arm_q7_to_q15_with_offset.c ****     {
 226              		.loc 1 103 11 is_stmt 1 view .LVU79
 227 0044 002C     		cmp	r4, #0
 228 0046 F6DC     		bgt	.L5
 109:Middlewares/tensorflow/third_party/cmsis_nn/Source/NNSupportFunctions/arm_q7_to_q15_with_offset.c ****     }
 110:Middlewares/tensorflow/third_party/cmsis_nn/Source/NNSupportFunctions/arm_q7_to_q15_with_offset.c **** }
 229              		.loc 1 110 1 is_stmt 0 view .LVU80
 230 0048 F0BC     		pop	{r4, r5, r6, r7}
 231              	.LCFI1:
 232              		.cfi_restore 7
 233              		.cfi_restore 6
 234              		.cfi_restore 5
 235              		.cfi_restore 4
 236              		.cfi_def_cfa_offset 0
 237              	.LVL19:
 238              		.loc 1 110 1 view .LVU81
 239 004a 7047     		bx	lr
 240              		.cfi_endproc
 241              	.LFE47:
 243              		.text
 244              	.Letext0:
 245              		.file 4 "/usr/lib/gcc/arm-none-eabi/9.2.1/include/stdint.h"
 246              		.file 5 "/usr/lib/gcc/arm-none-eabi/9.2.1/include/stddef.h"
 247              		.file 6 "/usr/include/newlib/sys/_types.h"
 248              		.file 7 "/usr/include/newlib/sys/reent.h"
 249              		.file 8 "/usr/include/newlib/sys/lock.h"
ARM GAS  /tmp/ccFCOfgV.s 			page 32

