ARM GAS  /tmp/ccAIjnab.s 			page 1


   1              		.cpu cortex-m4
   2              		.eabi_attribute 27, 1
   3              		.eabi_attribute 28, 1
   4              		.eabi_attribute 20, 1
   5              		.eabi_attribute 21, 1
   6              		.eabi_attribute 23, 3
   7              		.eabi_attribute 24, 1
   8              		.eabi_attribute 25, 1
   9              		.eabi_attribute 26, 1
  10              		.eabi_attribute 30, 1
  11              		.eabi_attribute 34, 1
  12              		.eabi_attribute 18, 4
  13              		.file	"arm_nn_lstm_update_output_s8_s16.c"
  14              		.text
  15              	.Ltext0:
  16              		.cfi_sections	.debug_frame
  17              		.section	.text.arm_nn_lstm_update_output_s8_s16,"ax",%progbits
  18              		.align	1
  19              		.global	arm_nn_lstm_update_output_s8_s16
  20              		.arch armv7e-m
  21              		.syntax unified
  22              		.thumb
  23              		.thumb_func
  24              		.fpu fpv4-sp-d16
  26              	arm_nn_lstm_update_output_s8_s16:
  27              	.LVL0:
  28              	.LFB47:
  29              		.file 1 "Middlewares/tensorflow/third_party/cmsis_nn/Source/NNSupportFunctions/arm_nn_lstm_update_
   1:Middlewares/tensorflow/third_party/cmsis_nn/Source/NNSupportFunctions/arm_nn_lstm_update_output_s8_s16.c **** /*
   2:Middlewares/tensorflow/third_party/cmsis_nn/Source/NNSupportFunctions/arm_nn_lstm_update_output_s8_s16.c ****  * SPDX-FileCopyrightText: Copyright 2022-2023 Arm Limited and/or its affiliates <open-source-offic
   3:Middlewares/tensorflow/third_party/cmsis_nn/Source/NNSupportFunctions/arm_nn_lstm_update_output_s8_s16.c ****  *
   4:Middlewares/tensorflow/third_party/cmsis_nn/Source/NNSupportFunctions/arm_nn_lstm_update_output_s8_s16.c ****  * SPDX-License-Identifier: Apache-2.0
   5:Middlewares/tensorflow/third_party/cmsis_nn/Source/NNSupportFunctions/arm_nn_lstm_update_output_s8_s16.c ****  *
   6:Middlewares/tensorflow/third_party/cmsis_nn/Source/NNSupportFunctions/arm_nn_lstm_update_output_s8_s16.c ****  * Licensed under the Apache License, Version 2.0 (the License); you may
   7:Middlewares/tensorflow/third_party/cmsis_nn/Source/NNSupportFunctions/arm_nn_lstm_update_output_s8_s16.c ****  * not use this file except in compliance with the License.
   8:Middlewares/tensorflow/third_party/cmsis_nn/Source/NNSupportFunctions/arm_nn_lstm_update_output_s8_s16.c ****  * You may obtain a copy of the License at
   9:Middlewares/tensorflow/third_party/cmsis_nn/Source/NNSupportFunctions/arm_nn_lstm_update_output_s8_s16.c ****  *
  10:Middlewares/tensorflow/third_party/cmsis_nn/Source/NNSupportFunctions/arm_nn_lstm_update_output_s8_s16.c ****  * www.apache.org/licenses/LICENSE-2.0
  11:Middlewares/tensorflow/third_party/cmsis_nn/Source/NNSupportFunctions/arm_nn_lstm_update_output_s8_s16.c ****  *
  12:Middlewares/tensorflow/third_party/cmsis_nn/Source/NNSupportFunctions/arm_nn_lstm_update_output_s8_s16.c ****  * Unless required by applicable law or agreed to in writing, software
  13:Middlewares/tensorflow/third_party/cmsis_nn/Source/NNSupportFunctions/arm_nn_lstm_update_output_s8_s16.c ****  * distributed under the License is distributed on an AS IS BASIS, WITHOUT
  14:Middlewares/tensorflow/third_party/cmsis_nn/Source/NNSupportFunctions/arm_nn_lstm_update_output_s8_s16.c ****  * WARRANTIES OR CONDITIONS OF ANY KIND, either express or implied.
  15:Middlewares/tensorflow/third_party/cmsis_nn/Source/NNSupportFunctions/arm_nn_lstm_update_output_s8_s16.c ****  * See the License for the specific language governing permissions and
  16:Middlewares/tensorflow/third_party/cmsis_nn/Source/NNSupportFunctions/arm_nn_lstm_update_output_s8_s16.c ****  * limitations under the License.
  17:Middlewares/tensorflow/third_party/cmsis_nn/Source/NNSupportFunctions/arm_nn_lstm_update_output_s8_s16.c ****  */
  18:Middlewares/tensorflow/third_party/cmsis_nn/Source/NNSupportFunctions/arm_nn_lstm_update_output_s8_s16.c **** 
  19:Middlewares/tensorflow/third_party/cmsis_nn/Source/NNSupportFunctions/arm_nn_lstm_update_output_s8_s16.c **** /* ----------------------------------------------------------------------
  20:Middlewares/tensorflow/third_party/cmsis_nn/Source/NNSupportFunctions/arm_nn_lstm_update_output_s8_s16.c ****  * Project:      CMSIS NN Library
  21:Middlewares/tensorflow/third_party/cmsis_nn/Source/NNSupportFunctions/arm_nn_lstm_update_output_s8_s16.c ****  * Title:        arm_nn_lstm_update_output_s8_s16.c
  22:Middlewares/tensorflow/third_party/cmsis_nn/Source/NNSupportFunctions/arm_nn_lstm_update_output_s8_s16.c ****  * Description:  Update output gate for an incremental step of LSTM function.
  23:Middlewares/tensorflow/third_party/cmsis_nn/Source/NNSupportFunctions/arm_nn_lstm_update_output_s8_s16.c ****  *
  24:Middlewares/tensorflow/third_party/cmsis_nn/Source/NNSupportFunctions/arm_nn_lstm_update_output_s8_s16.c ****  * $Date:        13 Februari 2023
  25:Middlewares/tensorflow/third_party/cmsis_nn/Source/NNSupportFunctions/arm_nn_lstm_update_output_s8_s16.c ****  * $Revision:    V.2.0.0
  26:Middlewares/tensorflow/third_party/cmsis_nn/Source/NNSupportFunctions/arm_nn_lstm_update_output_s8_s16.c ****  *
  27:Middlewares/tensorflow/third_party/cmsis_nn/Source/NNSupportFunctions/arm_nn_lstm_update_output_s8_s16.c ****  * Target :  Arm(R) M-Profile Architecture
  28:Middlewares/tensorflow/third_party/cmsis_nn/Source/NNSupportFunctions/arm_nn_lstm_update_output_s8_s16.c ****  *
  29:Middlewares/tensorflow/third_party/cmsis_nn/Source/NNSupportFunctions/arm_nn_lstm_update_output_s8_s16.c ****  * -------------------------------------------------------------------- */
ARM GAS  /tmp/ccAIjnab.s 			page 2


  30:Middlewares/tensorflow/third_party/cmsis_nn/Source/NNSupportFunctions/arm_nn_lstm_update_output_s8_s16.c **** 
  31:Middlewares/tensorflow/third_party/cmsis_nn/Source/NNSupportFunctions/arm_nn_lstm_update_output_s8_s16.c **** #include "arm_nnfunctions.h"
  32:Middlewares/tensorflow/third_party/cmsis_nn/Source/NNSupportFunctions/arm_nn_lstm_update_output_s8_s16.c **** #include "arm_nnsupportfunctions.h"
  33:Middlewares/tensorflow/third_party/cmsis_nn/Source/NNSupportFunctions/arm_nn_lstm_update_output_s8_s16.c **** 
  34:Middlewares/tensorflow/third_party/cmsis_nn/Source/NNSupportFunctions/arm_nn_lstm_update_output_s8_s16.c **** /**
  35:Middlewares/tensorflow/third_party/cmsis_nn/Source/NNSupportFunctions/arm_nn_lstm_update_output_s8_s16.c ****  * @ingroup groupSupport
  36:Middlewares/tensorflow/third_party/cmsis_nn/Source/NNSupportFunctions/arm_nn_lstm_update_output_s8_s16.c ****  */
  37:Middlewares/tensorflow/third_party/cmsis_nn/Source/NNSupportFunctions/arm_nn_lstm_update_output_s8_s16.c **** 
  38:Middlewares/tensorflow/third_party/cmsis_nn/Source/NNSupportFunctions/arm_nn_lstm_update_output_s8_s16.c **** /**
  39:Middlewares/tensorflow/third_party/cmsis_nn/Source/NNSupportFunctions/arm_nn_lstm_update_output_s8_s16.c ****  * @addtogroup supportLSTM
  40:Middlewares/tensorflow/third_party/cmsis_nn/Source/NNSupportFunctions/arm_nn_lstm_update_output_s8_s16.c ****  * @{
  41:Middlewares/tensorflow/third_party/cmsis_nn/Source/NNSupportFunctions/arm_nn_lstm_update_output_s8_s16.c ****  */
  42:Middlewares/tensorflow/third_party/cmsis_nn/Source/NNSupportFunctions/arm_nn_lstm_update_output_s8_s16.c **** 
  43:Middlewares/tensorflow/third_party/cmsis_nn/Source/NNSupportFunctions/arm_nn_lstm_update_output_s8_s16.c **** /*
  44:Middlewares/tensorflow/third_party/cmsis_nn/Source/NNSupportFunctions/arm_nn_lstm_update_output_s8_s16.c ****  * Calculate the output state tensor of an LSTM step, s8 input/output and s16 weight version.
  45:Middlewares/tensorflow/third_party/cmsis_nn/Source/NNSupportFunctions/arm_nn_lstm_update_output_s8_s16.c ****  * Refer to header files for details
  46:Middlewares/tensorflow/third_party/cmsis_nn/Source/NNSupportFunctions/arm_nn_lstm_update_output_s8_s16.c ****  */
  47:Middlewares/tensorflow/third_party/cmsis_nn/Source/NNSupportFunctions/arm_nn_lstm_update_output_s8_s16.c **** void arm_nn_lstm_update_output_s8_s16(const int n_batch,
  48:Middlewares/tensorflow/third_party/cmsis_nn/Source/NNSupportFunctions/arm_nn_lstm_update_output_s8_s16.c ****                                       const int n_cell,
  49:Middlewares/tensorflow/third_party/cmsis_nn/Source/NNSupportFunctions/arm_nn_lstm_update_output_s8_s16.c ****                                       int16_t *cell_state,
  50:Middlewares/tensorflow/third_party/cmsis_nn/Source/NNSupportFunctions/arm_nn_lstm_update_output_s8_s16.c ****                                       const int32_t cell_state_scale,
  51:Middlewares/tensorflow/third_party/cmsis_nn/Source/NNSupportFunctions/arm_nn_lstm_update_output_s8_s16.c ****                                       const int16_t *output_gate,
  52:Middlewares/tensorflow/third_party/cmsis_nn/Source/NNSupportFunctions/arm_nn_lstm_update_output_s8_s16.c ****                                       const cmsis_nn_scaling hidden_scaling,
  53:Middlewares/tensorflow/third_party/cmsis_nn/Source/NNSupportFunctions/arm_nn_lstm_update_output_s8_s16.c ****                                       const int32_t hidden_offset,
  54:Middlewares/tensorflow/third_party/cmsis_nn/Source/NNSupportFunctions/arm_nn_lstm_update_output_s8_s16.c ****                                       int8_t *output_state,
  55:Middlewares/tensorflow/third_party/cmsis_nn/Source/NNSupportFunctions/arm_nn_lstm_update_output_s8_s16.c ****                                       int16_t *cell_gate_scratch)
  56:Middlewares/tensorflow/third_party/cmsis_nn/Source/NNSupportFunctions/arm_nn_lstm_update_output_s8_s16.c **** {
  30              		.loc 1 56 1 view -0
  31              		.cfi_startproc
  32              		@ args = 24, pretend = 0, frame = 0
  33              		@ frame_needed = 0, uses_anonymous_args = 0
  34              		.loc 1 56 1 is_stmt 0 view .LVU1
  35 0000 F0B5     		push	{r4, r5, r6, r7, lr}
  36              	.LCFI0:
  37              		.cfi_def_cfa_offset 20
  38              		.cfi_offset 4, -20
  39              		.cfi_offset 5, -16
  40              		.cfi_offset 6, -12
  41              		.cfi_offset 7, -8
  42              		.cfi_offset 14, -4
  43 0002 85B0     		sub	sp, sp, #20
  44              	.LCFI1:
  45              		.cfi_def_cfa_offset 40
  46 0004 1546     		mov	r5, r2
  47 0006 0F9F     		ldr	r7, [sp, #60]
  57:Middlewares/tensorflow/third_party/cmsis_nn/Source/NNSupportFunctions/arm_nn_lstm_update_output_s8_s16.c ****     const int32_t size = n_batch * n_cell;
  48              		.loc 1 57 5 is_stmt 1 view .LVU2
  49              		.loc 1 57 19 is_stmt 0 view .LVU3
  50 0008 01FB00F6 		mul	r6, r1, r0
  51              	.LVL1:
  58:Middlewares/tensorflow/third_party/cmsis_nn/Source/NNSupportFunctions/arm_nn_lstm_update_output_s8_s16.c **** 
  59:Middlewares/tensorflow/third_party/cmsis_nn/Source/NNSupportFunctions/arm_nn_lstm_update_output_s8_s16.c ****     int32_t tanh_input_left_shift = (15 + cell_state_scale) - 3;
  52              		.loc 1 59 5 is_stmt 1 view .LVU4
  60:Middlewares/tensorflow/third_party/cmsis_nn/Source/NNSupportFunctions/arm_nn_lstm_update_output_s8_s16.c ****     if (tanh_input_left_shift < 0)
  53              		.loc 1 60 5 view .LVU5
  54              		.loc 1 60 8 is_stmt 0 view .LVU6
  55 000c 13F10C02 		adds	r2, r3, #12
ARM GAS  /tmp/ccAIjnab.s 			page 3


  56              	.LVL2:
  57              		.loc 1 60 8 view .LVU7
  58 0010 14D4     		bmi	.L6
  59              	.LVL3:
  60              	.L2:
  61:Middlewares/tensorflow/third_party/cmsis_nn/Source/NNSupportFunctions/arm_nn_lstm_update_output_s8_s16.c ****     {
  62:Middlewares/tensorflow/third_party/cmsis_nn/Source/NNSupportFunctions/arm_nn_lstm_update_output_s8_s16.c ****         tanh_input_left_shift = -tanh_input_left_shift;
  63:Middlewares/tensorflow/third_party/cmsis_nn/Source/NNSupportFunctions/arm_nn_lstm_update_output_s8_s16.c ****         for (int32_t i = 0; i < size; i++)
  64:Middlewares/tensorflow/third_party/cmsis_nn/Source/NNSupportFunctions/arm_nn_lstm_update_output_s8_s16.c ****         {
  65:Middlewares/tensorflow/third_party/cmsis_nn/Source/NNSupportFunctions/arm_nn_lstm_update_output_s8_s16.c ****             cell_state[i] = cell_state[i] >> tanh_input_left_shift;
  66:Middlewares/tensorflow/third_party/cmsis_nn/Source/NNSupportFunctions/arm_nn_lstm_update_output_s8_s16.c ****         }
  67:Middlewares/tensorflow/third_party/cmsis_nn/Source/NNSupportFunctions/arm_nn_lstm_update_output_s8_s16.c ****         tanh_input_left_shift = 0;
  68:Middlewares/tensorflow/third_party/cmsis_nn/Source/NNSupportFunctions/arm_nn_lstm_update_output_s8_s16.c ****     }
  69:Middlewares/tensorflow/third_party/cmsis_nn/Source/NNSupportFunctions/arm_nn_lstm_update_output_s8_s16.c ****     arm_nn_activation_s16(cell_state, cell_gate_scratch, size, tanh_input_left_shift, ARM_TANH);
  61              		.loc 1 69 5 is_stmt 1 view .LVU8
  62 0012 0123     		movs	r3, #1
  63 0014 0093     		str	r3, [sp]
  64 0016 93B2     		uxth	r3, r2
  65 0018 B2B2     		uxth	r2, r6
  66              	.LVL4:
  67              		.loc 1 69 5 is_stmt 0 view .LVU9
  68 001a 3946     		mov	r1, r7
  69              	.LVL5:
  70              		.loc 1 69 5 view .LVU10
  71 001c 2846     		mov	r0, r5
  72              	.LVL6:
  73              		.loc 1 69 5 view .LVU11
  74 001e FFF7FEFF 		bl	arm_nn_activation_s16
  75              	.LVL7:
  70:Middlewares/tensorflow/third_party/cmsis_nn/Source/NNSupportFunctions/arm_nn_lstm_update_output_s8_s16.c **** 
  71:Middlewares/tensorflow/third_party/cmsis_nn/Source/NNSupportFunctions/arm_nn_lstm_update_output_s8_s16.c ****     arm_elementwise_mul_s16_s8(output_gate,
  76              		.loc 1 71 5 is_stmt 1 view .LVU12
  77 0022 0296     		str	r6, [sp, #8]
  78 0024 0C9B     		ldr	r3, [sp, #48]
  79 0026 0193     		str	r3, [sp, #4]
  80 0028 0B9B     		ldr	r3, [sp, #44]
  81 002a 0093     		str	r3, [sp]
  82 002c 0D9B     		ldr	r3, [sp, #52]
  83 002e 0E9A     		ldr	r2, [sp, #56]
  84 0030 3946     		mov	r1, r7
  85 0032 0A98     		ldr	r0, [sp, #40]
  86 0034 FFF7FEFF 		bl	arm_elementwise_mul_s16_s8
  87              	.LVL8:
  72:Middlewares/tensorflow/third_party/cmsis_nn/Source/NNSupportFunctions/arm_nn_lstm_update_output_s8_s16.c ****                                cell_gate_scratch,
  73:Middlewares/tensorflow/third_party/cmsis_nn/Source/NNSupportFunctions/arm_nn_lstm_update_output_s8_s16.c ****                                output_state,
  74:Middlewares/tensorflow/third_party/cmsis_nn/Source/NNSupportFunctions/arm_nn_lstm_update_output_s8_s16.c ****                                hidden_offset,
  75:Middlewares/tensorflow/third_party/cmsis_nn/Source/NNSupportFunctions/arm_nn_lstm_update_output_s8_s16.c ****                                hidden_scaling.multiplier,
  76:Middlewares/tensorflow/third_party/cmsis_nn/Source/NNSupportFunctions/arm_nn_lstm_update_output_s8_s16.c ****                                hidden_scaling.shift,
  77:Middlewares/tensorflow/third_party/cmsis_nn/Source/NNSupportFunctions/arm_nn_lstm_update_output_s8_s16.c ****                                size);
  78:Middlewares/tensorflow/third_party/cmsis_nn/Source/NNSupportFunctions/arm_nn_lstm_update_output_s8_s16.c **** }
  88              		.loc 1 78 1 is_stmt 0 view .LVU13
  89 0038 05B0     		add	sp, sp, #20
  90              	.LCFI2:
  91              		.cfi_remember_state
  92              		.cfi_def_cfa_offset 20
  93              		@ sp needed
  94 003a F0BD     		pop	{r4, r5, r6, r7, pc}
ARM GAS  /tmp/ccAIjnab.s 			page 4


  95              	.LVL9:
  96              	.L6:
  97              	.LCFI3:
  98              		.cfi_restore_state
  62:Middlewares/tensorflow/third_party/cmsis_nn/Source/NNSupportFunctions/arm_nn_lstm_update_output_s8_s16.c ****         for (int32_t i = 0; i < size; i++)
  99              		.loc 1 62 9 is_stmt 1 view .LVU14
  62:Middlewares/tensorflow/third_party/cmsis_nn/Source/NNSupportFunctions/arm_nn_lstm_update_output_s8_s16.c ****         for (int32_t i = 0; i < size; i++)
 100              		.loc 1 62 31 is_stmt 0 view .LVU15
 101 003c 6FF00B02 		mvn	r2, #11
 102              	.LVL10:
  62:Middlewares/tensorflow/third_party/cmsis_nn/Source/NNSupportFunctions/arm_nn_lstm_update_output_s8_s16.c ****         for (int32_t i = 0; i < size; i++)
 103              		.loc 1 62 31 view .LVU16
 104 0040 D21A     		subs	r2, r2, r3
 105              	.LVL11:
  63:Middlewares/tensorflow/third_party/cmsis_nn/Source/NNSupportFunctions/arm_nn_lstm_update_output_s8_s16.c ****         {
 106              		.loc 1 63 9 is_stmt 1 view .LVU17
 107              	.LBB2:
  63:Middlewares/tensorflow/third_party/cmsis_nn/Source/NNSupportFunctions/arm_nn_lstm_update_output_s8_s16.c ****         {
 108              		.loc 1 63 14 view .LVU18
  63:Middlewares/tensorflow/third_party/cmsis_nn/Source/NNSupportFunctions/arm_nn_lstm_update_output_s8_s16.c ****         {
 109              		.loc 1 63 22 is_stmt 0 view .LVU19
 110 0042 0023     		movs	r3, #0
 111              	.LVL12:
  63:Middlewares/tensorflow/third_party/cmsis_nn/Source/NNSupportFunctions/arm_nn_lstm_update_output_s8_s16.c ****         {
 112              		.loc 1 63 9 view .LVU20
 113 0044 05E0     		b	.L3
 114              	.LVL13:
 115              	.L4:
  65:Middlewares/tensorflow/third_party/cmsis_nn/Source/NNSupportFunctions/arm_nn_lstm_update_output_s8_s16.c ****         }
 116              		.loc 1 65 13 is_stmt 1 discriminator 3 view .LVU21
  65:Middlewares/tensorflow/third_party/cmsis_nn/Source/NNSupportFunctions/arm_nn_lstm_update_output_s8_s16.c ****         }
 117              		.loc 1 65 39 is_stmt 0 discriminator 3 view .LVU22
 118 0046 35F91340 		ldrsh	r4, [r5, r3, lsl #1]
  65:Middlewares/tensorflow/third_party/cmsis_nn/Source/NNSupportFunctions/arm_nn_lstm_update_output_s8_s16.c ****         }
 119              		.loc 1 65 43 discriminator 3 view .LVU23
 120 004a 1441     		asrs	r4, r4, r2
  65:Middlewares/tensorflow/third_party/cmsis_nn/Source/NNSupportFunctions/arm_nn_lstm_update_output_s8_s16.c ****         }
 121              		.loc 1 65 27 discriminator 3 view .LVU24
 122 004c 25F81340 		strh	r4, [r5, r3, lsl #1]	@ movhi
  63:Middlewares/tensorflow/third_party/cmsis_nn/Source/NNSupportFunctions/arm_nn_lstm_update_output_s8_s16.c ****         {
 123              		.loc 1 63 39 is_stmt 1 discriminator 3 view .LVU25
  63:Middlewares/tensorflow/third_party/cmsis_nn/Source/NNSupportFunctions/arm_nn_lstm_update_output_s8_s16.c ****         {
 124              		.loc 1 63 40 is_stmt 0 discriminator 3 view .LVU26
 125 0050 0133     		adds	r3, r3, #1
 126              	.LVL14:
 127              	.L3:
  63:Middlewares/tensorflow/third_party/cmsis_nn/Source/NNSupportFunctions/arm_nn_lstm_update_output_s8_s16.c ****         {
 128              		.loc 1 63 29 is_stmt 1 discriminator 1 view .LVU27
  63:Middlewares/tensorflow/third_party/cmsis_nn/Source/NNSupportFunctions/arm_nn_lstm_update_output_s8_s16.c ****         {
 129              		.loc 1 63 9 is_stmt 0 discriminator 1 view .LVU28
 130 0052 B342     		cmp	r3, r6
 131 0054 F7DB     		blt	.L4
 132              	.LBE2:
  67:Middlewares/tensorflow/third_party/cmsis_nn/Source/NNSupportFunctions/arm_nn_lstm_update_output_s8_s16.c ****     }
 133              		.loc 1 67 31 view .LVU29
 134 0056 0022     		movs	r2, #0
 135              	.LVL15:
ARM GAS  /tmp/ccAIjnab.s 			page 5


  67:Middlewares/tensorflow/third_party/cmsis_nn/Source/NNSupportFunctions/arm_nn_lstm_update_output_s8_s16.c ****     }
 136              		.loc 1 67 31 view .LVU30
 137 0058 DBE7     		b	.L2
 138              		.cfi_endproc
 139              	.LFE47:
 141              		.text
 142              	.Letext0:
 143              		.file 2 "/usr/lib/gcc/arm-none-eabi/9.2.1/include/stdint.h"
 144              		.file 3 "/usr/lib/gcc/arm-none-eabi/9.2.1/include/stddef.h"
 145              		.file 4 "/usr/include/newlib/sys/_types.h"
 146              		.file 5 "/usr/include/newlib/sys/reent.h"
 147              		.file 6 "/usr/include/newlib/sys/lock.h"
 148              		.file 7 "Middlewares/tensorflow/third_party/cmsis_nn/Include/arm_nn_types.h"
 149              		.file 8 "Middlewares/tensorflow/third_party/cmsis_nn/Include/arm_nnfunctions.h"
 150              		.file 9 "Middlewares/tensorflow/third_party/cmsis_nn/Include/arm_nnsupportfunctions.h"
ARM GAS  /tmp/ccAIjnab.s 			page 6

