ARM GAS  /tmp/ccLiBJQj.s 			page 1


   1              		.cpu cortex-m4
   2              		.eabi_attribute 27, 1
   3              		.eabi_attribute 28, 1
   4              		.eabi_attribute 20, 1
   5              		.eabi_attribute 21, 1
   6              		.eabi_attribute 23, 3
   7              		.eabi_attribute 24, 1
   8              		.eabi_attribute 25, 1
   9              		.eabi_attribute 26, 1
  10              		.eabi_attribute 30, 1
  11              		.eabi_attribute 34, 1
  12              		.eabi_attribute 18, 4
  13              		.file	"arm_nn_softmax_common_s8.c"
  14              		.text
  15              	.Ltext0:
  16              		.cfi_sections	.debug_frame
  17              		.section	.text.arm_nn_softmax_common_s8,"ax",%progbits
  18              		.align	1
  19              		.global	arm_nn_softmax_common_s8
  20              		.arch armv7e-m
  21              		.syntax unified
  22              		.thumb
  23              		.thumb_func
  24              		.fpu fpv4-sp-d16
  26              	arm_nn_softmax_common_s8:
  27              	.LVL0:
  28              	.LFB47:
  29              		.file 1 "Middlewares/tensorflow/third_party/cmsis_nn/Source/SoftmaxFunctions/arm_nn_softmax_common
   1:Middlewares/tensorflow/third_party/cmsis_nn/Source/SoftmaxFunctions/arm_nn_softmax_common_s8.c **** /*
   2:Middlewares/tensorflow/third_party/cmsis_nn/Source/SoftmaxFunctions/arm_nn_softmax_common_s8.c ****  * SPDX-FileCopyrightText: Copyright 2022-2023 Arm Limited and/or its affiliates <open-source-offic
   3:Middlewares/tensorflow/third_party/cmsis_nn/Source/SoftmaxFunctions/arm_nn_softmax_common_s8.c ****  *
   4:Middlewares/tensorflow/third_party/cmsis_nn/Source/SoftmaxFunctions/arm_nn_softmax_common_s8.c ****  * SPDX-License-Identifier: Apache-2.0
   5:Middlewares/tensorflow/third_party/cmsis_nn/Source/SoftmaxFunctions/arm_nn_softmax_common_s8.c ****  *
   6:Middlewares/tensorflow/third_party/cmsis_nn/Source/SoftmaxFunctions/arm_nn_softmax_common_s8.c ****  * Licensed under the Apache License, Version 2.0 (the License); you may
   7:Middlewares/tensorflow/third_party/cmsis_nn/Source/SoftmaxFunctions/arm_nn_softmax_common_s8.c ****  * not use this file except in compliance with the License.
   8:Middlewares/tensorflow/third_party/cmsis_nn/Source/SoftmaxFunctions/arm_nn_softmax_common_s8.c ****  * You may obtain a copy of the License at
   9:Middlewares/tensorflow/third_party/cmsis_nn/Source/SoftmaxFunctions/arm_nn_softmax_common_s8.c ****  *
  10:Middlewares/tensorflow/third_party/cmsis_nn/Source/SoftmaxFunctions/arm_nn_softmax_common_s8.c ****  * www.apache.org/licenses/LICENSE-2.0
  11:Middlewares/tensorflow/third_party/cmsis_nn/Source/SoftmaxFunctions/arm_nn_softmax_common_s8.c ****  *
  12:Middlewares/tensorflow/third_party/cmsis_nn/Source/SoftmaxFunctions/arm_nn_softmax_common_s8.c ****  * Unless required by applicable law or agreed to in writing, software
  13:Middlewares/tensorflow/third_party/cmsis_nn/Source/SoftmaxFunctions/arm_nn_softmax_common_s8.c ****  * distributed under the License is distributed on an AS IS BASIS, WITHOUT
  14:Middlewares/tensorflow/third_party/cmsis_nn/Source/SoftmaxFunctions/arm_nn_softmax_common_s8.c ****  * WARRANTIES OR CONDITIONS OF ANY KIND, either express or implied.
  15:Middlewares/tensorflow/third_party/cmsis_nn/Source/SoftmaxFunctions/arm_nn_softmax_common_s8.c ****  * See the License for the specific language governing permissions and
  16:Middlewares/tensorflow/third_party/cmsis_nn/Source/SoftmaxFunctions/arm_nn_softmax_common_s8.c ****  * limitations under the License.
  17:Middlewares/tensorflow/third_party/cmsis_nn/Source/SoftmaxFunctions/arm_nn_softmax_common_s8.c ****  */
  18:Middlewares/tensorflow/third_party/cmsis_nn/Source/SoftmaxFunctions/arm_nn_softmax_common_s8.c **** 
  19:Middlewares/tensorflow/third_party/cmsis_nn/Source/SoftmaxFunctions/arm_nn_softmax_common_s8.c **** /* ----------------------------------------------------------------------
  20:Middlewares/tensorflow/third_party/cmsis_nn/Source/SoftmaxFunctions/arm_nn_softmax_common_s8.c ****  * Project:      CMSIS NN Library
  21:Middlewares/tensorflow/third_party/cmsis_nn/Source/SoftmaxFunctions/arm_nn_softmax_common_s8.c ****  * Title:        arm_nn_softmax_common_s8.c
  22:Middlewares/tensorflow/third_party/cmsis_nn/Source/SoftmaxFunctions/arm_nn_softmax_common_s8.c ****  * Description:  Softmax with s8 input and output of s8 or s16.
  23:Middlewares/tensorflow/third_party/cmsis_nn/Source/SoftmaxFunctions/arm_nn_softmax_common_s8.c ****  *
  24:Middlewares/tensorflow/third_party/cmsis_nn/Source/SoftmaxFunctions/arm_nn_softmax_common_s8.c ****  * $Date:        5 January 2023
  25:Middlewares/tensorflow/third_party/cmsis_nn/Source/SoftmaxFunctions/arm_nn_softmax_common_s8.c ****  * $Revision:    V.1.1.0
  26:Middlewares/tensorflow/third_party/cmsis_nn/Source/SoftmaxFunctions/arm_nn_softmax_common_s8.c ****  *
  27:Middlewares/tensorflow/third_party/cmsis_nn/Source/SoftmaxFunctions/arm_nn_softmax_common_s8.c ****  * Target :  Arm(R) M-Profile Architecture
  28:Middlewares/tensorflow/third_party/cmsis_nn/Source/SoftmaxFunctions/arm_nn_softmax_common_s8.c ****  * -------------------------------------------------------------------- */
  29:Middlewares/tensorflow/third_party/cmsis_nn/Source/SoftmaxFunctions/arm_nn_softmax_common_s8.c **** 
ARM GAS  /tmp/ccLiBJQj.s 			page 2


  30:Middlewares/tensorflow/third_party/cmsis_nn/Source/SoftmaxFunctions/arm_nn_softmax_common_s8.c **** #include "arm_nnsupportfunctions.h"
  31:Middlewares/tensorflow/third_party/cmsis_nn/Source/SoftmaxFunctions/arm_nn_softmax_common_s8.c **** 
  32:Middlewares/tensorflow/third_party/cmsis_nn/Source/SoftmaxFunctions/arm_nn_softmax_common_s8.c **** #define ACCUM_BITS 12
  33:Middlewares/tensorflow/third_party/cmsis_nn/Source/SoftmaxFunctions/arm_nn_softmax_common_s8.c **** 
  34:Middlewares/tensorflow/third_party/cmsis_nn/Source/SoftmaxFunctions/arm_nn_softmax_common_s8.c **** /**
  35:Middlewares/tensorflow/third_party/cmsis_nn/Source/SoftmaxFunctions/arm_nn_softmax_common_s8.c ****  * @ingroup groupSupport
  36:Middlewares/tensorflow/third_party/cmsis_nn/Source/SoftmaxFunctions/arm_nn_softmax_common_s8.c ****  */
  37:Middlewares/tensorflow/third_party/cmsis_nn/Source/SoftmaxFunctions/arm_nn_softmax_common_s8.c **** 
  38:Middlewares/tensorflow/third_party/cmsis_nn/Source/SoftmaxFunctions/arm_nn_softmax_common_s8.c **** /**
  39:Middlewares/tensorflow/third_party/cmsis_nn/Source/SoftmaxFunctions/arm_nn_softmax_common_s8.c ****  * @defgroup supportSoftmax Softmax
  40:Middlewares/tensorflow/third_party/cmsis_nn/Source/SoftmaxFunctions/arm_nn_softmax_common_s8.c ****  *
  41:Middlewares/tensorflow/third_party/cmsis_nn/Source/SoftmaxFunctions/arm_nn_softmax_common_s8.c ****  * Support functions for Softmax
  42:Middlewares/tensorflow/third_party/cmsis_nn/Source/SoftmaxFunctions/arm_nn_softmax_common_s8.c ****  *
  43:Middlewares/tensorflow/third_party/cmsis_nn/Source/SoftmaxFunctions/arm_nn_softmax_common_s8.c ****  */
  44:Middlewares/tensorflow/third_party/cmsis_nn/Source/SoftmaxFunctions/arm_nn_softmax_common_s8.c **** 
  45:Middlewares/tensorflow/third_party/cmsis_nn/Source/SoftmaxFunctions/arm_nn_softmax_common_s8.c **** /**
  46:Middlewares/tensorflow/third_party/cmsis_nn/Source/SoftmaxFunctions/arm_nn_softmax_common_s8.c ****  * @addtogroup supportSoftmax
  47:Middlewares/tensorflow/third_party/cmsis_nn/Source/SoftmaxFunctions/arm_nn_softmax_common_s8.c ****  * @{
  48:Middlewares/tensorflow/third_party/cmsis_nn/Source/SoftmaxFunctions/arm_nn_softmax_common_s8.c ****  */
  49:Middlewares/tensorflow/third_party/cmsis_nn/Source/SoftmaxFunctions/arm_nn_softmax_common_s8.c **** 
  50:Middlewares/tensorflow/third_party/cmsis_nn/Source/SoftmaxFunctions/arm_nn_softmax_common_s8.c **** /*
  51:Middlewares/tensorflow/third_party/cmsis_nn/Source/SoftmaxFunctions/arm_nn_softmax_common_s8.c ****  * Softmax function with s8 input and output of s8 or s16.
  52:Middlewares/tensorflow/third_party/cmsis_nn/Source/SoftmaxFunctions/arm_nn_softmax_common_s8.c ****  *
  53:Middlewares/tensorflow/third_party/cmsis_nn/Source/SoftmaxFunctions/arm_nn_softmax_common_s8.c ****  * Refer header file for details.
  54:Middlewares/tensorflow/third_party/cmsis_nn/Source/SoftmaxFunctions/arm_nn_softmax_common_s8.c ****  *
  55:Middlewares/tensorflow/third_party/cmsis_nn/Source/SoftmaxFunctions/arm_nn_softmax_common_s8.c ****  */
  56:Middlewares/tensorflow/third_party/cmsis_nn/Source/SoftmaxFunctions/arm_nn_softmax_common_s8.c **** void arm_nn_softmax_common_s8(const int8_t *input,
  57:Middlewares/tensorflow/third_party/cmsis_nn/Source/SoftmaxFunctions/arm_nn_softmax_common_s8.c ****                               const int32_t num_rows,
  58:Middlewares/tensorflow/third_party/cmsis_nn/Source/SoftmaxFunctions/arm_nn_softmax_common_s8.c ****                               const int32_t row_size,
  59:Middlewares/tensorflow/third_party/cmsis_nn/Source/SoftmaxFunctions/arm_nn_softmax_common_s8.c ****                               const int32_t mult,
  60:Middlewares/tensorflow/third_party/cmsis_nn/Source/SoftmaxFunctions/arm_nn_softmax_common_s8.c ****                               const int32_t shift,
  61:Middlewares/tensorflow/third_party/cmsis_nn/Source/SoftmaxFunctions/arm_nn_softmax_common_s8.c ****                               const int32_t diff_min,
  62:Middlewares/tensorflow/third_party/cmsis_nn/Source/SoftmaxFunctions/arm_nn_softmax_common_s8.c ****                               const bool int16_output,
  63:Middlewares/tensorflow/third_party/cmsis_nn/Source/SoftmaxFunctions/arm_nn_softmax_common_s8.c ****                               void *output)
  64:Middlewares/tensorflow/third_party/cmsis_nn/Source/SoftmaxFunctions/arm_nn_softmax_common_s8.c **** {
  30              		.loc 1 64 1 view -0
  31              		.cfi_startproc
  32              		@ args = 16, pretend = 0, frame = 440
  33              		@ frame_needed = 0, uses_anonymous_args = 0
  34              		.loc 1 64 1 is_stmt 0 view .LVU1
  35 0000 2DE9F04F 		push	{r4, r5, r6, r7, r8, r9, r10, fp, lr}
  36              	.LCFI0:
  37              		.cfi_def_cfa_offset 36
  38              		.cfi_offset 4, -36
  39              		.cfi_offset 5, -32
  40              		.cfi_offset 6, -28
  41              		.cfi_offset 7, -24
  42              		.cfi_offset 8, -20
  43              		.cfi_offset 9, -16
  44              		.cfi_offset 10, -12
  45              		.cfi_offset 11, -8
  46              		.cfi_offset 14, -4
  47 0004 EFB0     		sub	sp, sp, #444
  48              	.LCFI1:
  49              		.cfi_def_cfa_offset 480
  50 0006 0290     		str	r0, [sp, #8]
  51 0008 6C91     		str	r1, [sp, #432]
ARM GAS  /tmp/ccLiBJQj.s 			page 3


  52 000a 0192     		str	r2, [sp, #4]
  53 000c 9C46     		mov	ip, r3
  54 000e 9DF8E831 		ldrb	r3, [sp, #488]	@ zero_extendqisi2
  55              	.LVL1:
  56              		.loc 1 64 1 view .LVU2
  57 0012 6D93     		str	r3, [sp, #436]
  65:Middlewares/tensorflow/third_party/cmsis_nn/Source/SoftmaxFunctions/arm_nn_softmax_common_s8.c ****     const int32_t mask = (1 << shift);
  58              		.loc 1 65 5 is_stmt 1 view .LVU3
  59              	.LVL2:
  66:Middlewares/tensorflow/third_party/cmsis_nn/Source/SoftmaxFunctions/arm_nn_softmax_common_s8.c **** 
  67:Middlewares/tensorflow/third_party/cmsis_nn/Source/SoftmaxFunctions/arm_nn_softmax_common_s8.c ****     int32_t col = 0;
  60              		.loc 1 67 5 view .LVU4
  68:Middlewares/tensorflow/third_party/cmsis_nn/Source/SoftmaxFunctions/arm_nn_softmax_common_s8.c ****     int32_t row_idx;
  61              		.loc 1 68 5 view .LVU5
  69:Middlewares/tensorflow/third_party/cmsis_nn/Source/SoftmaxFunctions/arm_nn_softmax_common_s8.c **** 
  70:Middlewares/tensorflow/third_party/cmsis_nn/Source/SoftmaxFunctions/arm_nn_softmax_common_s8.c ****     for (row_idx = 0; row_idx < num_rows; ++row_idx)
  62              		.loc 1 70 5 view .LVU6
  63              		.loc 1 70 18 is_stmt 0 view .LVU7
  64 0014 0023     		movs	r3, #0
  65 0016 6A93     		str	r3, [sp, #424]
  66 0018 E346     		mov	fp, ip
  67              		.loc 1 70 5 view .LVU8
  68 001a 01F00CBD 		b	.L2
  69              	.LVL3:
  70              	.L456:
  71              		.loc 1 70 5 view .LVU9
  72 001e 0392     		str	r2, [sp, #12]
  73              	.LBB189:
  71:Middlewares/tensorflow/third_party/cmsis_nn/Source/SoftmaxFunctions/arm_nn_softmax_common_s8.c ****     {
  72:Middlewares/tensorflow/third_party/cmsis_nn/Source/SoftmaxFunctions/arm_nn_softmax_common_s8.c ****         // Find the maximum value in order to ensure numerical stability
  73:Middlewares/tensorflow/third_party/cmsis_nn/Source/SoftmaxFunctions/arm_nn_softmax_common_s8.c ****         int8_t max = *input;
  74:Middlewares/tensorflow/third_party/cmsis_nn/Source/SoftmaxFunctions/arm_nn_softmax_common_s8.c **** 
  75:Middlewares/tensorflow/third_party/cmsis_nn/Source/SoftmaxFunctions/arm_nn_softmax_common_s8.c ****         for (col = 1; col < row_size; ++col)
  76:Middlewares/tensorflow/third_party/cmsis_nn/Source/SoftmaxFunctions/arm_nn_softmax_common_s8.c ****         {
  77:Middlewares/tensorflow/third_party/cmsis_nn/Source/SoftmaxFunctions/arm_nn_softmax_common_s8.c ****             max = MAX(max, input[col]);
  78:Middlewares/tensorflow/third_party/cmsis_nn/Source/SoftmaxFunctions/arm_nn_softmax_common_s8.c ****         }
  79:Middlewares/tensorflow/third_party/cmsis_nn/Source/SoftmaxFunctions/arm_nn_softmax_common_s8.c **** 
  80:Middlewares/tensorflow/third_party/cmsis_nn/Source/SoftmaxFunctions/arm_nn_softmax_common_s8.c ****         int32_t diff = 0;
  81:Middlewares/tensorflow/third_party/cmsis_nn/Source/SoftmaxFunctions/arm_nn_softmax_common_s8.c ****         int32_t sum = 0;
  74              		.loc 1 81 17 view .LVU10
  75 0020 4FF0000A 		mov	r10, #0
  82:Middlewares/tensorflow/third_party/cmsis_nn/Source/SoftmaxFunctions/arm_nn_softmax_common_s8.c **** 
  83:Middlewares/tensorflow/third_party/cmsis_nn/Source/SoftmaxFunctions/arm_nn_softmax_common_s8.c ****         for (col = 0; col < row_size; ++col)
  76              		.loc 1 83 18 view .LVU11
  77 0024 D046     		mov	r8, r10
  78 0026 CDF860A1 		str	r10, [sp, #352]
  79 002a EEE0     		b	.L5
  80              	.LVL4:
  81              	.L325:
  82              	.LBB190:
  83              	.LBB191:
  84              		.file 2 "Middlewares/tensorflow/third_party/cmsis_nn/Include/arm_nnsupportfunctions.h"
   1:Middlewares/tensorflow/third_party/cmsis_nn/Include/arm_nnsupportfunctions.h **** /*
   2:Middlewares/tensorflow/third_party/cmsis_nn/Include/arm_nnsupportfunctions.h ****  * SPDX-FileCopyrightText: Copyright 2010-2023 Arm Limited and/or its affiliates <open-source-offic
   3:Middlewares/tensorflow/third_party/cmsis_nn/Include/arm_nnsupportfunctions.h ****  *
   4:Middlewares/tensorflow/third_party/cmsis_nn/Include/arm_nnsupportfunctions.h ****  * SPDX-License-Identifier: Apache-2.0
   5:Middlewares/tensorflow/third_party/cmsis_nn/Include/arm_nnsupportfunctions.h ****  *
ARM GAS  /tmp/ccLiBJQj.s 			page 4


   6:Middlewares/tensorflow/third_party/cmsis_nn/Include/arm_nnsupportfunctions.h ****  * Licensed under the Apache License, Version 2.0 (the License); you may
   7:Middlewares/tensorflow/third_party/cmsis_nn/Include/arm_nnsupportfunctions.h ****  * not use this file except in compliance with the License.
   8:Middlewares/tensorflow/third_party/cmsis_nn/Include/arm_nnsupportfunctions.h ****  * You may obtain a copy of the License at
   9:Middlewares/tensorflow/third_party/cmsis_nn/Include/arm_nnsupportfunctions.h ****  *
  10:Middlewares/tensorflow/third_party/cmsis_nn/Include/arm_nnsupportfunctions.h ****  * www.apache.org/licenses/LICENSE-2.0
  11:Middlewares/tensorflow/third_party/cmsis_nn/Include/arm_nnsupportfunctions.h ****  *
  12:Middlewares/tensorflow/third_party/cmsis_nn/Include/arm_nnsupportfunctions.h ****  * Unless required by applicable law or agreed to in writing, software
  13:Middlewares/tensorflow/third_party/cmsis_nn/Include/arm_nnsupportfunctions.h ****  * distributed under the License is distributed on an AS IS BASIS, WITHOUT
  14:Middlewares/tensorflow/third_party/cmsis_nn/Include/arm_nnsupportfunctions.h ****  * WARRANTIES OR CONDITIONS OF ANY KIND, either express or implied.
  15:Middlewares/tensorflow/third_party/cmsis_nn/Include/arm_nnsupportfunctions.h ****  * See the License for the specific language governing permissions and
  16:Middlewares/tensorflow/third_party/cmsis_nn/Include/arm_nnsupportfunctions.h ****  * limitations under the License.
  17:Middlewares/tensorflow/third_party/cmsis_nn/Include/arm_nnsupportfunctions.h ****  */
  18:Middlewares/tensorflow/third_party/cmsis_nn/Include/arm_nnsupportfunctions.h **** 
  19:Middlewares/tensorflow/third_party/cmsis_nn/Include/arm_nnsupportfunctions.h **** /* ----------------------------------------------------------------------
  20:Middlewares/tensorflow/third_party/cmsis_nn/Include/arm_nnsupportfunctions.h ****  * Project:      CMSIS NN Library
  21:Middlewares/tensorflow/third_party/cmsis_nn/Include/arm_nnsupportfunctions.h ****  * Title:        arm_nnsupportfunctions.h
  22:Middlewares/tensorflow/third_party/cmsis_nn/Include/arm_nnsupportfunctions.h ****  * Description:  Public header file of support functions for CMSIS NN Library
  23:Middlewares/tensorflow/third_party/cmsis_nn/Include/arm_nnsupportfunctions.h ****  *
  24:Middlewares/tensorflow/third_party/cmsis_nn/Include/arm_nnsupportfunctions.h ****  * $Date:        13 Februari 2023
  25:Middlewares/tensorflow/third_party/cmsis_nn/Include/arm_nnsupportfunctions.h ****  * $Revision:    V.15.0.0
  26:Middlewares/tensorflow/third_party/cmsis_nn/Include/arm_nnsupportfunctions.h ****  *
  27:Middlewares/tensorflow/third_party/cmsis_nn/Include/arm_nnsupportfunctions.h ****  * Target :  Arm(R) M-Profile Architecture
  28:Middlewares/tensorflow/third_party/cmsis_nn/Include/arm_nnsupportfunctions.h ****  * -------------------------------------------------------------------- */
  29:Middlewares/tensorflow/third_party/cmsis_nn/Include/arm_nnsupportfunctions.h **** 
  30:Middlewares/tensorflow/third_party/cmsis_nn/Include/arm_nnsupportfunctions.h **** #ifndef _ARM_NNSUPPORTFUNCTIONS_H_
  31:Middlewares/tensorflow/third_party/cmsis_nn/Include/arm_nnsupportfunctions.h **** #define _ARM_NNSUPPORTFUNCTIONS_H_
  32:Middlewares/tensorflow/third_party/cmsis_nn/Include/arm_nnsupportfunctions.h **** 
  33:Middlewares/tensorflow/third_party/cmsis_nn/Include/arm_nnsupportfunctions.h **** #include "Internal/arm_nn_compiler.h"
  34:Middlewares/tensorflow/third_party/cmsis_nn/Include/arm_nnsupportfunctions.h **** #include "arm_nn_math_types.h"
  35:Middlewares/tensorflow/third_party/cmsis_nn/Include/arm_nnsupportfunctions.h **** #include "arm_nn_types.h"
  36:Middlewares/tensorflow/third_party/cmsis_nn/Include/arm_nnsupportfunctions.h **** 
  37:Middlewares/tensorflow/third_party/cmsis_nn/Include/arm_nnsupportfunctions.h **** #include <stdbool.h>
  38:Middlewares/tensorflow/third_party/cmsis_nn/Include/arm_nnsupportfunctions.h **** 
  39:Middlewares/tensorflow/third_party/cmsis_nn/Include/arm_nnsupportfunctions.h **** #ifdef __cplusplus
  40:Middlewares/tensorflow/third_party/cmsis_nn/Include/arm_nnsupportfunctions.h **** extern "C" {
  41:Middlewares/tensorflow/third_party/cmsis_nn/Include/arm_nnsupportfunctions.h **** #endif
  42:Middlewares/tensorflow/third_party/cmsis_nn/Include/arm_nnsupportfunctions.h **** 
  43:Middlewares/tensorflow/third_party/cmsis_nn/Include/arm_nnsupportfunctions.h **** #define USE_FAST_DW_CONV_S16_FUNCTION(dw_conv_params, filter_dims, input_dims)                     
  44:Middlewares/tensorflow/third_party/cmsis_nn/Include/arm_nnsupportfunctions.h ****     (dw_conv_params->ch_mult == 1 && dw_conv_params->dilation.w == 1 && dw_conv_params->dilation.h 
  45:Middlewares/tensorflow/third_party/cmsis_nn/Include/arm_nnsupportfunctions.h ****      filter_dims->w * filter_dims->h < 512)
  46:Middlewares/tensorflow/third_party/cmsis_nn/Include/arm_nnsupportfunctions.h **** 
  47:Middlewares/tensorflow/third_party/cmsis_nn/Include/arm_nnsupportfunctions.h **** #define LEFT_SHIFT(_shift) (_shift > 0 ? _shift : 0)
  48:Middlewares/tensorflow/third_party/cmsis_nn/Include/arm_nnsupportfunctions.h **** #define RIGHT_SHIFT(_shift) (_shift > 0 ? 0 : -_shift)
  49:Middlewares/tensorflow/third_party/cmsis_nn/Include/arm_nnsupportfunctions.h **** #define MASK_IF_ZERO(x) (x) == 0 ? ~0 : 0
  50:Middlewares/tensorflow/third_party/cmsis_nn/Include/arm_nnsupportfunctions.h **** #define MASK_IF_NON_ZERO(x) (x) != 0 ? ~0 : 0
  51:Middlewares/tensorflow/third_party/cmsis_nn/Include/arm_nnsupportfunctions.h **** #define SELECT_USING_MASK(mask, a, b) ((mask) & (a)) ^ (~(mask) & (b))
  52:Middlewares/tensorflow/third_party/cmsis_nn/Include/arm_nnsupportfunctions.h **** 
  53:Middlewares/tensorflow/third_party/cmsis_nn/Include/arm_nnsupportfunctions.h **** #define MAX(A, B) ((A) > (B) ? (A) : (B))
  54:Middlewares/tensorflow/third_party/cmsis_nn/Include/arm_nnsupportfunctions.h **** #define MIN(A, B) ((A) < (B) ? (A) : (B))
  55:Middlewares/tensorflow/third_party/cmsis_nn/Include/arm_nnsupportfunctions.h **** #define CLAMP(x, h, l) MAX(MIN((x), (h)), (l))
  56:Middlewares/tensorflow/third_party/cmsis_nn/Include/arm_nnsupportfunctions.h **** #define REDUCE_MULTIPLIER(_mult) ((_mult < 0x7FFF0000) ? ((_mult + (1 << 15)) >> 16) : 0x7FFF)
  57:Middlewares/tensorflow/third_party/cmsis_nn/Include/arm_nnsupportfunctions.h **** 
  58:Middlewares/tensorflow/third_party/cmsis_nn/Include/arm_nnsupportfunctions.h **** // Number of channels processed in a block for DW Conv(MVE)
  59:Middlewares/tensorflow/third_party/cmsis_nn/Include/arm_nnsupportfunctions.h **** // Requirement: Greater than 0 & less than 128
  60:Middlewares/tensorflow/third_party/cmsis_nn/Include/arm_nnsupportfunctions.h **** // This can be fine tuned to match number of input channels for best performance.
  61:Middlewares/tensorflow/third_party/cmsis_nn/Include/arm_nnsupportfunctions.h **** // A layer with lower number of channels than CH_IN_BLOCK_MVE will result in higher
  62:Middlewares/tensorflow/third_party/cmsis_nn/Include/arm_nnsupportfunctions.h **** // scratch buffer usage and a layer with higher number of channels than CH_IN_BLOCK_MVE
ARM GAS  /tmp/ccLiBJQj.s 			page 5


  63:Middlewares/tensorflow/third_party/cmsis_nn/Include/arm_nnsupportfunctions.h **** // will result in lower scratch buffer usage.
  64:Middlewares/tensorflow/third_party/cmsis_nn/Include/arm_nnsupportfunctions.h **** #define CH_IN_BLOCK_MVE (124)
  65:Middlewares/tensorflow/third_party/cmsis_nn/Include/arm_nnsupportfunctions.h **** 
  66:Middlewares/tensorflow/third_party/cmsis_nn/Include/arm_nnsupportfunctions.h **** /**
  67:Middlewares/tensorflow/third_party/cmsis_nn/Include/arm_nnsupportfunctions.h ****  * @brief definition to pack four 8 bit values.
  68:Middlewares/tensorflow/third_party/cmsis_nn/Include/arm_nnsupportfunctions.h ****  */
  69:Middlewares/tensorflow/third_party/cmsis_nn/Include/arm_nnsupportfunctions.h **** #define PACK_S8x4_32x1(v0, v1, v2, v3)                                                             
  70:Middlewares/tensorflow/third_party/cmsis_nn/Include/arm_nnsupportfunctions.h ****     ((((int32_t)(v0) << 0) & (int32_t)0x000000FF) | (((int32_t)(v1) << 8) & (int32_t)0x0000FF00) | 
  71:Middlewares/tensorflow/third_party/cmsis_nn/Include/arm_nnsupportfunctions.h ****      (((int32_t)(v2) << 16) & (int32_t)0x00FF0000) | (((int32_t)(v3) << 24) & (int32_t)0xFF000000))
  72:Middlewares/tensorflow/third_party/cmsis_nn/Include/arm_nnsupportfunctions.h **** 
  73:Middlewares/tensorflow/third_party/cmsis_nn/Include/arm_nnsupportfunctions.h **** /**
  74:Middlewares/tensorflow/third_party/cmsis_nn/Include/arm_nnsupportfunctions.h ****  * @brief definition to pack two 16 bit values.
  75:Middlewares/tensorflow/third_party/cmsis_nn/Include/arm_nnsupportfunctions.h ****  */
  76:Middlewares/tensorflow/third_party/cmsis_nn/Include/arm_nnsupportfunctions.h **** #define PACK_Q15x2_32x1(v0, v1) (((int32_t)v0 & (int32_t)0xFFFF) | ((int32_t)v1 << 16))
  77:Middlewares/tensorflow/third_party/cmsis_nn/Include/arm_nnsupportfunctions.h **** 
  78:Middlewares/tensorflow/third_party/cmsis_nn/Include/arm_nnsupportfunctions.h **** /**
  79:Middlewares/tensorflow/third_party/cmsis_nn/Include/arm_nnsupportfunctions.h ****  * @brief Union for SIMD access of q31/s16/s8 types
  80:Middlewares/tensorflow/third_party/cmsis_nn/Include/arm_nnsupportfunctions.h ****  */
  81:Middlewares/tensorflow/third_party/cmsis_nn/Include/arm_nnsupportfunctions.h **** union arm_nnword
  82:Middlewares/tensorflow/third_party/cmsis_nn/Include/arm_nnsupportfunctions.h **** {
  83:Middlewares/tensorflow/third_party/cmsis_nn/Include/arm_nnsupportfunctions.h ****     int32_t word;
  84:Middlewares/tensorflow/third_party/cmsis_nn/Include/arm_nnsupportfunctions.h ****     /**< q31 type */
  85:Middlewares/tensorflow/third_party/cmsis_nn/Include/arm_nnsupportfunctions.h ****     int16_t half_words[2];
  86:Middlewares/tensorflow/third_party/cmsis_nn/Include/arm_nnsupportfunctions.h ****     /**< s16 type */
  87:Middlewares/tensorflow/third_party/cmsis_nn/Include/arm_nnsupportfunctions.h ****     int8_t bytes[4];
  88:Middlewares/tensorflow/third_party/cmsis_nn/Include/arm_nnsupportfunctions.h ****     /**< s8 type */
  89:Middlewares/tensorflow/third_party/cmsis_nn/Include/arm_nnsupportfunctions.h **** };
  90:Middlewares/tensorflow/third_party/cmsis_nn/Include/arm_nnsupportfunctions.h **** 
  91:Middlewares/tensorflow/third_party/cmsis_nn/Include/arm_nnsupportfunctions.h **** /**
  92:Middlewares/tensorflow/third_party/cmsis_nn/Include/arm_nnsupportfunctions.h ****  * @brief Union for data type long long
  93:Middlewares/tensorflow/third_party/cmsis_nn/Include/arm_nnsupportfunctions.h ****  */
  94:Middlewares/tensorflow/third_party/cmsis_nn/Include/arm_nnsupportfunctions.h **** struct arm_nn_double
  95:Middlewares/tensorflow/third_party/cmsis_nn/Include/arm_nnsupportfunctions.h **** {
  96:Middlewares/tensorflow/third_party/cmsis_nn/Include/arm_nnsupportfunctions.h ****     uint32_t low;
  97:Middlewares/tensorflow/third_party/cmsis_nn/Include/arm_nnsupportfunctions.h ****     int32_t high;
  98:Middlewares/tensorflow/third_party/cmsis_nn/Include/arm_nnsupportfunctions.h **** };
  99:Middlewares/tensorflow/third_party/cmsis_nn/Include/arm_nnsupportfunctions.h **** 
 100:Middlewares/tensorflow/third_party/cmsis_nn/Include/arm_nnsupportfunctions.h **** union arm_nn_long_long
 101:Middlewares/tensorflow/third_party/cmsis_nn/Include/arm_nnsupportfunctions.h **** {
 102:Middlewares/tensorflow/third_party/cmsis_nn/Include/arm_nnsupportfunctions.h ****     int64_t long_long;
 103:Middlewares/tensorflow/third_party/cmsis_nn/Include/arm_nnsupportfunctions.h ****     struct arm_nn_double word;
 104:Middlewares/tensorflow/third_party/cmsis_nn/Include/arm_nnsupportfunctions.h **** };
 105:Middlewares/tensorflow/third_party/cmsis_nn/Include/arm_nnsupportfunctions.h **** 
 106:Middlewares/tensorflow/third_party/cmsis_nn/Include/arm_nnsupportfunctions.h **** /**
 107:Middlewares/tensorflow/third_party/cmsis_nn/Include/arm_nnsupportfunctions.h ****  * @defgroup groupSupport Private
 108:Middlewares/tensorflow/third_party/cmsis_nn/Include/arm_nnsupportfunctions.h ****  *
 109:Middlewares/tensorflow/third_party/cmsis_nn/Include/arm_nnsupportfunctions.h ****  * Internal Support functions. Not intended to be called direclty by a CMSIS-NN user.
 110:Middlewares/tensorflow/third_party/cmsis_nn/Include/arm_nnsupportfunctions.h ****  *
 111:Middlewares/tensorflow/third_party/cmsis_nn/Include/arm_nnsupportfunctions.h ****  */
 112:Middlewares/tensorflow/third_party/cmsis_nn/Include/arm_nnsupportfunctions.h **** 
 113:Middlewares/tensorflow/third_party/cmsis_nn/Include/arm_nnsupportfunctions.h **** /**
 114:Middlewares/tensorflow/third_party/cmsis_nn/Include/arm_nnsupportfunctions.h ****  * @defgroup supportConversion Data Conversion
 115:Middlewares/tensorflow/third_party/cmsis_nn/Include/arm_nnsupportfunctions.h ****  *
 116:Middlewares/tensorflow/third_party/cmsis_nn/Include/arm_nnsupportfunctions.h ****  * Perform data type conversion in-between neural network operations
 117:Middlewares/tensorflow/third_party/cmsis_nn/Include/arm_nnsupportfunctions.h ****  *
 118:Middlewares/tensorflow/third_party/cmsis_nn/Include/arm_nnsupportfunctions.h ****  */
 119:Middlewares/tensorflow/third_party/cmsis_nn/Include/arm_nnsupportfunctions.h **** 
ARM GAS  /tmp/ccLiBJQj.s 			page 6


 120:Middlewares/tensorflow/third_party/cmsis_nn/Include/arm_nnsupportfunctions.h **** /**
 121:Middlewares/tensorflow/third_party/cmsis_nn/Include/arm_nnsupportfunctions.h ****  * @brief Converts the elements from a s8 vector to a s16 vector with an added offset
 122:Middlewares/tensorflow/third_party/cmsis_nn/Include/arm_nnsupportfunctions.h ****  * @param[in]    src        pointer to the s8 input vector
 123:Middlewares/tensorflow/third_party/cmsis_nn/Include/arm_nnsupportfunctions.h ****  * @param[out]   dst        pointer to the s16 output vector
 124:Middlewares/tensorflow/third_party/cmsis_nn/Include/arm_nnsupportfunctions.h ****  * @param[in]    block_size length of the input vector
 125:Middlewares/tensorflow/third_party/cmsis_nn/Include/arm_nnsupportfunctions.h ****  * @param[in]    offset     s8 offset to be added to each input vector element.
 126:Middlewares/tensorflow/third_party/cmsis_nn/Include/arm_nnsupportfunctions.h ****  *
 127:Middlewares/tensorflow/third_party/cmsis_nn/Include/arm_nnsupportfunctions.h ****  * \par Description:
 128:Middlewares/tensorflow/third_party/cmsis_nn/Include/arm_nnsupportfunctions.h ****  *
 129:Middlewares/tensorflow/third_party/cmsis_nn/Include/arm_nnsupportfunctions.h ****  * The equation used for the conversion process is:
 130:Middlewares/tensorflow/third_party/cmsis_nn/Include/arm_nnsupportfunctions.h ****  *
 131:Middlewares/tensorflow/third_party/cmsis_nn/Include/arm_nnsupportfunctions.h ****  * <pre>
 132:Middlewares/tensorflow/third_party/cmsis_nn/Include/arm_nnsupportfunctions.h ****  *  dst[n] = (int16_t) src[n] + offset;   0 <= n < block_size.
 133:Middlewares/tensorflow/third_party/cmsis_nn/Include/arm_nnsupportfunctions.h ****  * </pre>
 134:Middlewares/tensorflow/third_party/cmsis_nn/Include/arm_nnsupportfunctions.h ****  *
 135:Middlewares/tensorflow/third_party/cmsis_nn/Include/arm_nnsupportfunctions.h ****  */
 136:Middlewares/tensorflow/third_party/cmsis_nn/Include/arm_nnsupportfunctions.h **** void arm_q7_to_q15_with_offset(const int8_t *src, int16_t *dst, uint32_t block_size, int16_t offset
 137:Middlewares/tensorflow/third_party/cmsis_nn/Include/arm_nnsupportfunctions.h **** 
 138:Middlewares/tensorflow/third_party/cmsis_nn/Include/arm_nnsupportfunctions.h **** /**
 139:Middlewares/tensorflow/third_party/cmsis_nn/Include/arm_nnsupportfunctions.h ****  * @brief Depthwise conv on an im2col buffer where the input channel equals output channel.
 140:Middlewares/tensorflow/third_party/cmsis_nn/Include/arm_nnsupportfunctions.h ****  * @param[in]    row     pointer to row
 141:Middlewares/tensorflow/third_party/cmsis_nn/Include/arm_nnsupportfunctions.h ****  * @param[in]    col     pointer to im2col buffer, always consists of 2 columns.
 142:Middlewares/tensorflow/third_party/cmsis_nn/Include/arm_nnsupportfunctions.h ****  * @param[in]    num_ch   number of channels
 143:Middlewares/tensorflow/third_party/cmsis_nn/Include/arm_nnsupportfunctions.h ****  * @param[in]    out_shift  pointer to per output channel requantization shift parameter.
 144:Middlewares/tensorflow/third_party/cmsis_nn/Include/arm_nnsupportfunctions.h ****  * @param[in]    out_mult   pointer to per output channel requantization multiplier parameter.
 145:Middlewares/tensorflow/third_party/cmsis_nn/Include/arm_nnsupportfunctions.h ****  * @param[in]    out_offset      output tensor offset.
 146:Middlewares/tensorflow/third_party/cmsis_nn/Include/arm_nnsupportfunctions.h ****  * @param[in]    activation_min   minimum value to clamp the output to. Range : int8
 147:Middlewares/tensorflow/third_party/cmsis_nn/Include/arm_nnsupportfunctions.h ****  * @param[in]    activation_max   maximum value to clamp the output to. Range : int8
 148:Middlewares/tensorflow/third_party/cmsis_nn/Include/arm_nnsupportfunctions.h ****  * @param[in]    kernel_size   number of elements in one column.
 149:Middlewares/tensorflow/third_party/cmsis_nn/Include/arm_nnsupportfunctions.h ****  * @param[in]    output_bias per output channel bias. Range : int32
 150:Middlewares/tensorflow/third_party/cmsis_nn/Include/arm_nnsupportfunctions.h ****  * @param[out]   out         pointer to output
 151:Middlewares/tensorflow/third_party/cmsis_nn/Include/arm_nnsupportfunctions.h ****  * @return     The function returns one of the two
 152:Middlewares/tensorflow/third_party/cmsis_nn/Include/arm_nnsupportfunctions.h ****  *              1. The incremented output pointer for a successful operation or
 153:Middlewares/tensorflow/third_party/cmsis_nn/Include/arm_nnsupportfunctions.h ****  *              2. NULL if implementation is not available.
 154:Middlewares/tensorflow/third_party/cmsis_nn/Include/arm_nnsupportfunctions.h ****  *
 155:Middlewares/tensorflow/third_party/cmsis_nn/Include/arm_nnsupportfunctions.h ****  * @details     Supported framework: TensorFlow Lite micro.
 156:Middlewares/tensorflow/third_party/cmsis_nn/Include/arm_nnsupportfunctions.h ****  */
 157:Middlewares/tensorflow/third_party/cmsis_nn/Include/arm_nnsupportfunctions.h **** int8_t *arm_nn_depthwise_conv_s8_core(const int8_t *row,
 158:Middlewares/tensorflow/third_party/cmsis_nn/Include/arm_nnsupportfunctions.h ****                                       const int16_t *col,
 159:Middlewares/tensorflow/third_party/cmsis_nn/Include/arm_nnsupportfunctions.h ****                                       const uint16_t num_ch,
 160:Middlewares/tensorflow/third_party/cmsis_nn/Include/arm_nnsupportfunctions.h ****                                       const int32_t *out_shift,
 161:Middlewares/tensorflow/third_party/cmsis_nn/Include/arm_nnsupportfunctions.h ****                                       const int32_t *out_mult,
 162:Middlewares/tensorflow/third_party/cmsis_nn/Include/arm_nnsupportfunctions.h ****                                       const int32_t out_offset,
 163:Middlewares/tensorflow/third_party/cmsis_nn/Include/arm_nnsupportfunctions.h ****                                       const int32_t activation_min,
 164:Middlewares/tensorflow/third_party/cmsis_nn/Include/arm_nnsupportfunctions.h ****                                       const int32_t activation_max,
 165:Middlewares/tensorflow/third_party/cmsis_nn/Include/arm_nnsupportfunctions.h ****                                       const uint16_t kernel_size,
 166:Middlewares/tensorflow/third_party/cmsis_nn/Include/arm_nnsupportfunctions.h ****                                       const int32_t *const output_bias,
 167:Middlewares/tensorflow/third_party/cmsis_nn/Include/arm_nnsupportfunctions.h ****                                       int8_t *out);
 168:Middlewares/tensorflow/third_party/cmsis_nn/Include/arm_nnsupportfunctions.h **** 
 169:Middlewares/tensorflow/third_party/cmsis_nn/Include/arm_nnsupportfunctions.h **** /**
 170:Middlewares/tensorflow/third_party/cmsis_nn/Include/arm_nnsupportfunctions.h ****  * @brief General Matrix-multiplication function with per-channel requantization.
 171:Middlewares/tensorflow/third_party/cmsis_nn/Include/arm_nnsupportfunctions.h ****  * @param[in]       input_row    pointer to row operand
 172:Middlewares/tensorflow/third_party/cmsis_nn/Include/arm_nnsupportfunctions.h ****  * @param[in]       input_col    pointer to col operand
 173:Middlewares/tensorflow/third_party/cmsis_nn/Include/arm_nnsupportfunctions.h ****  * @param[in]       output_ch    number of rows of input_row
 174:Middlewares/tensorflow/third_party/cmsis_nn/Include/arm_nnsupportfunctions.h ****  * @param[in]       col_batches  number of column batches. Range: 1 to 4
 175:Middlewares/tensorflow/third_party/cmsis_nn/Include/arm_nnsupportfunctions.h ****  * @param[in]       output_shift  pointer to per output channel requantization shift parameter.
 176:Middlewares/tensorflow/third_party/cmsis_nn/Include/arm_nnsupportfunctions.h ****  * @param[in]       output_mult   pointer to per output channel requantization multiplier parameter
ARM GAS  /tmp/ccLiBJQj.s 			page 7


 177:Middlewares/tensorflow/third_party/cmsis_nn/Include/arm_nnsupportfunctions.h ****  * @param[in]       out_offset    output tensor offset.
 178:Middlewares/tensorflow/third_party/cmsis_nn/Include/arm_nnsupportfunctions.h ****  * @param[in]       col_offset    input tensor(col) offset.
 179:Middlewares/tensorflow/third_party/cmsis_nn/Include/arm_nnsupportfunctions.h ****  * @param[in]       row_offset    kernel offset(row). Not used.
 180:Middlewares/tensorflow/third_party/cmsis_nn/Include/arm_nnsupportfunctions.h ****  * @param[in]       out_activation_min   minimum value to clamp the output to. Range : int8
 181:Middlewares/tensorflow/third_party/cmsis_nn/Include/arm_nnsupportfunctions.h ****  * @param[in]       out_activation_max   maximum value to clamp the output to. Range : int8
 182:Middlewares/tensorflow/third_party/cmsis_nn/Include/arm_nnsupportfunctions.h ****  * @param[in]       row_len       number of elements in each row
 183:Middlewares/tensorflow/third_party/cmsis_nn/Include/arm_nnsupportfunctions.h ****  * @param[in]       bias          per output channel bias. Range : int32
 184:Middlewares/tensorflow/third_party/cmsis_nn/Include/arm_nnsupportfunctions.h ****  * @param[in,out]   out           pointer to output
 185:Middlewares/tensorflow/third_party/cmsis_nn/Include/arm_nnsupportfunctions.h ****  * @return     The function returns one of the two
 186:Middlewares/tensorflow/third_party/cmsis_nn/Include/arm_nnsupportfunctions.h ****  *              1. The incremented output pointer for a successful operation or
 187:Middlewares/tensorflow/third_party/cmsis_nn/Include/arm_nnsupportfunctions.h ****  *              2. NULL if implementation is not available.
 188:Middlewares/tensorflow/third_party/cmsis_nn/Include/arm_nnsupportfunctions.h ****  *
 189:Middlewares/tensorflow/third_party/cmsis_nn/Include/arm_nnsupportfunctions.h ****  * @details   Supported framework: TensorFlow Lite
 190:Middlewares/tensorflow/third_party/cmsis_nn/Include/arm_nnsupportfunctions.h ****  */
 191:Middlewares/tensorflow/third_party/cmsis_nn/Include/arm_nnsupportfunctions.h **** int8_t *arm_nn_mat_mult_s8(const int8_t *input_row,
 192:Middlewares/tensorflow/third_party/cmsis_nn/Include/arm_nnsupportfunctions.h ****                            const int8_t *input_col,
 193:Middlewares/tensorflow/third_party/cmsis_nn/Include/arm_nnsupportfunctions.h ****                            const uint16_t output_ch,
 194:Middlewares/tensorflow/third_party/cmsis_nn/Include/arm_nnsupportfunctions.h ****                            const uint16_t col_batches,
 195:Middlewares/tensorflow/third_party/cmsis_nn/Include/arm_nnsupportfunctions.h ****                            const int32_t *output_shift,
 196:Middlewares/tensorflow/third_party/cmsis_nn/Include/arm_nnsupportfunctions.h ****                            const int32_t *output_mult,
 197:Middlewares/tensorflow/third_party/cmsis_nn/Include/arm_nnsupportfunctions.h ****                            const int32_t out_offset,
 198:Middlewares/tensorflow/third_party/cmsis_nn/Include/arm_nnsupportfunctions.h ****                            const int32_t col_offset,
 199:Middlewares/tensorflow/third_party/cmsis_nn/Include/arm_nnsupportfunctions.h ****                            const int32_t row_offset,
 200:Middlewares/tensorflow/third_party/cmsis_nn/Include/arm_nnsupportfunctions.h ****                            const int16_t out_activation_min,
 201:Middlewares/tensorflow/third_party/cmsis_nn/Include/arm_nnsupportfunctions.h ****                            const int16_t out_activation_max,
 202:Middlewares/tensorflow/third_party/cmsis_nn/Include/arm_nnsupportfunctions.h ****                            const uint16_t row_len,
 203:Middlewares/tensorflow/third_party/cmsis_nn/Include/arm_nnsupportfunctions.h ****                            const int32_t *const bias,
 204:Middlewares/tensorflow/third_party/cmsis_nn/Include/arm_nnsupportfunctions.h ****                            int8_t *out);
 205:Middlewares/tensorflow/third_party/cmsis_nn/Include/arm_nnsupportfunctions.h **** /**
 206:Middlewares/tensorflow/third_party/cmsis_nn/Include/arm_nnsupportfunctions.h ****  * @brief Matrix-multiplication function for convolution with per-channel requantization for 16 bit
 207:Middlewares/tensorflow/third_party/cmsis_nn/Include/arm_nnsupportfunctions.h ****  * @param[in]       input_a     pointer to operand A
 208:Middlewares/tensorflow/third_party/cmsis_nn/Include/arm_nnsupportfunctions.h ****  * @param[in]       input_b     pointer to operand B, always consists of 2 vectors.
 209:Middlewares/tensorflow/third_party/cmsis_nn/Include/arm_nnsupportfunctions.h ****  * @param[in]       output_ch   number of rows of A
 210:Middlewares/tensorflow/third_party/cmsis_nn/Include/arm_nnsupportfunctions.h ****  * @param[in]       out_shift  pointer to per output channel requantization shift parameter.
 211:Middlewares/tensorflow/third_party/cmsis_nn/Include/arm_nnsupportfunctions.h ****  * @param[in]       out_mult   pointer to per output channel requantization multiplier parameter.
 212:Middlewares/tensorflow/third_party/cmsis_nn/Include/arm_nnsupportfunctions.h ****  * @param[in]       activation_min   minimum value to clamp the output to. Range : int16
 213:Middlewares/tensorflow/third_party/cmsis_nn/Include/arm_nnsupportfunctions.h ****  * @param[in]       activation_max   maximum value to clamp the output to. Range : int16
 214:Middlewares/tensorflow/third_party/cmsis_nn/Include/arm_nnsupportfunctions.h ****  * @param[in]       num_col_a   number of columns of A
 215:Middlewares/tensorflow/third_party/cmsis_nn/Include/arm_nnsupportfunctions.h ****  * @param[in]       output_bias per output channel bias. Range : int64
 216:Middlewares/tensorflow/third_party/cmsis_nn/Include/arm_nnsupportfunctions.h ****  * @param[in,out]   out_0       pointer to output
 217:Middlewares/tensorflow/third_party/cmsis_nn/Include/arm_nnsupportfunctions.h ****  * @return     The function returns one of the two
 218:Middlewares/tensorflow/third_party/cmsis_nn/Include/arm_nnsupportfunctions.h ****  *              1. The incremented output pointer for a successful operation or
 219:Middlewares/tensorflow/third_party/cmsis_nn/Include/arm_nnsupportfunctions.h ****  *              2. NULL if implementation is not available.
 220:Middlewares/tensorflow/third_party/cmsis_nn/Include/arm_nnsupportfunctions.h ****  *
 221:Middlewares/tensorflow/third_party/cmsis_nn/Include/arm_nnsupportfunctions.h ****  * @details   This function does the matrix multiplication of weight matrix for all output channels
 222:Middlewares/tensorflow/third_party/cmsis_nn/Include/arm_nnsupportfunctions.h ****  *            with 2 columns from im2col and produces two elements/output_channel. The outputs are
 223:Middlewares/tensorflow/third_party/cmsis_nn/Include/arm_nnsupportfunctions.h ****  *            clamped in the range provided by activation min and max.
 224:Middlewares/tensorflow/third_party/cmsis_nn/Include/arm_nnsupportfunctions.h ****  *            Supported framework: TensorFlow Lite micro.
 225:Middlewares/tensorflow/third_party/cmsis_nn/Include/arm_nnsupportfunctions.h ****  */
 226:Middlewares/tensorflow/third_party/cmsis_nn/Include/arm_nnsupportfunctions.h **** int16_t *arm_nn_mat_mult_kernel_s16(const int8_t *input_a,
 227:Middlewares/tensorflow/third_party/cmsis_nn/Include/arm_nnsupportfunctions.h ****                                     const int16_t *input_b,
 228:Middlewares/tensorflow/third_party/cmsis_nn/Include/arm_nnsupportfunctions.h ****                                     const int32_t output_ch,
 229:Middlewares/tensorflow/third_party/cmsis_nn/Include/arm_nnsupportfunctions.h ****                                     const int32_t *out_shift,
 230:Middlewares/tensorflow/third_party/cmsis_nn/Include/arm_nnsupportfunctions.h ****                                     const int32_t *out_mult,
 231:Middlewares/tensorflow/third_party/cmsis_nn/Include/arm_nnsupportfunctions.h ****                                     const int16_t activation_min,
 232:Middlewares/tensorflow/third_party/cmsis_nn/Include/arm_nnsupportfunctions.h ****                                     const int16_t activation_max,
 233:Middlewares/tensorflow/third_party/cmsis_nn/Include/arm_nnsupportfunctions.h ****                                     const int32_t num_col_a,
ARM GAS  /tmp/ccLiBJQj.s 			page 8


 234:Middlewares/tensorflow/third_party/cmsis_nn/Include/arm_nnsupportfunctions.h ****                                     const int64_t *const output_bias,
 235:Middlewares/tensorflow/third_party/cmsis_nn/Include/arm_nnsupportfunctions.h ****                                     int16_t *out_0);
 236:Middlewares/tensorflow/third_party/cmsis_nn/Include/arm_nnsupportfunctions.h **** 
 237:Middlewares/tensorflow/third_party/cmsis_nn/Include/arm_nnsupportfunctions.h **** /**
 238:Middlewares/tensorflow/third_party/cmsis_nn/Include/arm_nnsupportfunctions.h ****  * @brief General Vector by Matrix multiplication with requantization and storage of result.
 239:Middlewares/tensorflow/third_party/cmsis_nn/Include/arm_nnsupportfunctions.h ****  * @param[in]       row_elements          number of row elements
 240:Middlewares/tensorflow/third_party/cmsis_nn/Include/arm_nnsupportfunctions.h ****  * @param[in]       skipped_row_elements  number of row elements skipped due to padding.
 241:Middlewares/tensorflow/third_party/cmsis_nn/Include/arm_nnsupportfunctions.h ****  *                                        row_elements + skipped_row_elements = (kernel_x * kernel_
 242:Middlewares/tensorflow/third_party/cmsis_nn/Include/arm_nnsupportfunctions.h ****  * @param[in]       row_base_ref          pointer to row operand
 243:Middlewares/tensorflow/third_party/cmsis_nn/Include/arm_nnsupportfunctions.h ****  * @param[in]       col_base_ref          pointer to col operand
 244:Middlewares/tensorflow/third_party/cmsis_nn/Include/arm_nnsupportfunctions.h ****  * @param[out]      out_ch                Number of output channels
 245:Middlewares/tensorflow/third_party/cmsis_nn/Include/arm_nnsupportfunctions.h ****  * @param[in]       conv_params           Pointer to convolution parameters like offsets and activa
 246:Middlewares/tensorflow/third_party/cmsis_nn/Include/arm_nnsupportfunctions.h ****  * @param[in]       quant_params          Pointer to per-channel quantization parameters
 247:Middlewares/tensorflow/third_party/cmsis_nn/Include/arm_nnsupportfunctions.h ****  * @param[in]       bias                  Pointer to optional per-channel bias
 248:Middlewares/tensorflow/third_party/cmsis_nn/Include/arm_nnsupportfunctions.h ****  * @param[out]      output                Pointer to output where int8 results are stored.
 249:Middlewares/tensorflow/third_party/cmsis_nn/Include/arm_nnsupportfunctions.h ****  * @return     The function performs matrix(row_base_ref) multiplication with vector(col_base_ref) 
 250:Middlewares/tensorflow/third_party/cmsis_nn/Include/arm_nnsupportfunctions.h ****  *             scaled result is stored in memory.
 251:Middlewares/tensorflow/third_party/cmsis_nn/Include/arm_nnsupportfunctions.h ****  *
 252:Middlewares/tensorflow/third_party/cmsis_nn/Include/arm_nnsupportfunctions.h ****  * @details Pseudo-code
 253:Middlewares/tensorflow/third_party/cmsis_nn/Include/arm_nnsupportfunctions.h ****  *      *output = 0
 254:Middlewares/tensorflow/third_party/cmsis_nn/Include/arm_nnsupportfunctions.h ****  *      sum_col = 0
 255:Middlewares/tensorflow/third_party/cmsis_nn/Include/arm_nnsupportfunctions.h ****  *      for (j = 0; j < out_ch; j++)
 256:Middlewares/tensorflow/third_party/cmsis_nn/Include/arm_nnsupportfunctions.h ****  *      for (i = 0; i < row_elements; i++)
 257:Middlewares/tensorflow/third_party/cmsis_nn/Include/arm_nnsupportfunctions.h ****  *          *output += row_base_ref[i] * col_base_ref[i]
 258:Middlewares/tensorflow/third_party/cmsis_nn/Include/arm_nnsupportfunctions.h ****  *          sum_col += col_base_ref[i]
 259:Middlewares/tensorflow/third_party/cmsis_nn/Include/arm_nnsupportfunctions.h ****  *      scale sum_col using quant_params and bias
 260:Middlewares/tensorflow/third_party/cmsis_nn/Include/arm_nnsupportfunctions.h ****  *      store result in 'output'
 261:Middlewares/tensorflow/third_party/cmsis_nn/Include/arm_nnsupportfunctions.h ****  *
 262:Middlewares/tensorflow/third_party/cmsis_nn/Include/arm_nnsupportfunctions.h ****  *
 263:Middlewares/tensorflow/third_party/cmsis_nn/Include/arm_nnsupportfunctions.h ****  */
 264:Middlewares/tensorflow/third_party/cmsis_nn/Include/arm_nnsupportfunctions.h **** arm_cmsis_nn_status arm_nn_mat_mul_core_1x_s8(int32_t row_elements,
 265:Middlewares/tensorflow/third_party/cmsis_nn/Include/arm_nnsupportfunctions.h ****                                               const int32_t skipped_row_elements,
 266:Middlewares/tensorflow/third_party/cmsis_nn/Include/arm_nnsupportfunctions.h ****                                               const int8_t *row_base_ref,
 267:Middlewares/tensorflow/third_party/cmsis_nn/Include/arm_nnsupportfunctions.h ****                                               const int8_t *col_base_ref,
 268:Middlewares/tensorflow/third_party/cmsis_nn/Include/arm_nnsupportfunctions.h ****                                               const int32_t out_ch,
 269:Middlewares/tensorflow/third_party/cmsis_nn/Include/arm_nnsupportfunctions.h ****                                               const cmsis_nn_conv_params *conv_params,
 270:Middlewares/tensorflow/third_party/cmsis_nn/Include/arm_nnsupportfunctions.h ****                                               const cmsis_nn_per_channel_quant_params *quant_params
 271:Middlewares/tensorflow/third_party/cmsis_nn/Include/arm_nnsupportfunctions.h ****                                               const int32_t *bias,
 272:Middlewares/tensorflow/third_party/cmsis_nn/Include/arm_nnsupportfunctions.h ****                                               int8_t *output);
 273:Middlewares/tensorflow/third_party/cmsis_nn/Include/arm_nnsupportfunctions.h **** 
 274:Middlewares/tensorflow/third_party/cmsis_nn/Include/arm_nnsupportfunctions.h **** /**
 275:Middlewares/tensorflow/third_party/cmsis_nn/Include/arm_nnsupportfunctions.h ****  * @brief Matrix-multiplication with requantization & activation function for four rows and one col
 276:Middlewares/tensorflow/third_party/cmsis_nn/Include/arm_nnsupportfunctions.h ****  * @param[in]       row_elements  number of row elements
 277:Middlewares/tensorflow/third_party/cmsis_nn/Include/arm_nnsupportfunctions.h ****  * @param[in]       offset        offset between rows. Can be the same as row_elements.
 278:Middlewares/tensorflow/third_party/cmsis_nn/Include/arm_nnsupportfunctions.h ****  *                                For e.g, in a 1x1 conv scenario with stride as 1.
 279:Middlewares/tensorflow/third_party/cmsis_nn/Include/arm_nnsupportfunctions.h ****  * @param[in]       row_base      pointer to row operand
 280:Middlewares/tensorflow/third_party/cmsis_nn/Include/arm_nnsupportfunctions.h ****  * @param[in]       col_base      pointer to col operand
 281:Middlewares/tensorflow/third_party/cmsis_nn/Include/arm_nnsupportfunctions.h ****  * @param[in]       out_ch        Number of output channels
 282:Middlewares/tensorflow/third_party/cmsis_nn/Include/arm_nnsupportfunctions.h ****  * @param[in]       conv_params   Pointer to convolution parameters like offsets and activation val
 283:Middlewares/tensorflow/third_party/cmsis_nn/Include/arm_nnsupportfunctions.h ****  * @param[in]       quant_params  Pointer to per-channel quantization parameters
 284:Middlewares/tensorflow/third_party/cmsis_nn/Include/arm_nnsupportfunctions.h ****  * @param[in]       bias          Pointer to per-channel bias
 285:Middlewares/tensorflow/third_party/cmsis_nn/Include/arm_nnsupportfunctions.h ****  * @param[out]      output        Pointer to output where int8 results are stored.
 286:Middlewares/tensorflow/third_party/cmsis_nn/Include/arm_nnsupportfunctions.h ****  *
 287:Middlewares/tensorflow/third_party/cmsis_nn/Include/arm_nnsupportfunctions.h ****  * @return     The function returns the updated output pointer or NULL if implementation is not ava
 288:Middlewares/tensorflow/third_party/cmsis_nn/Include/arm_nnsupportfunctions.h ****  *
 289:Middlewares/tensorflow/third_party/cmsis_nn/Include/arm_nnsupportfunctions.h ****  * @details Compliant to TFLM int8 specification. MVE implementation only
 290:Middlewares/tensorflow/third_party/cmsis_nn/Include/arm_nnsupportfunctions.h ****  */
ARM GAS  /tmp/ccLiBJQj.s 			page 9


 291:Middlewares/tensorflow/third_party/cmsis_nn/Include/arm_nnsupportfunctions.h **** int8_t *arm_nn_mat_mul_core_4x_s8(const int32_t row_elements,
 292:Middlewares/tensorflow/third_party/cmsis_nn/Include/arm_nnsupportfunctions.h ****                                   const int32_t offset,
 293:Middlewares/tensorflow/third_party/cmsis_nn/Include/arm_nnsupportfunctions.h ****                                   const int8_t *row_base,
 294:Middlewares/tensorflow/third_party/cmsis_nn/Include/arm_nnsupportfunctions.h ****                                   const int8_t *col_base,
 295:Middlewares/tensorflow/third_party/cmsis_nn/Include/arm_nnsupportfunctions.h ****                                   const int32_t out_ch,
 296:Middlewares/tensorflow/third_party/cmsis_nn/Include/arm_nnsupportfunctions.h ****                                   const cmsis_nn_conv_params *conv_params,
 297:Middlewares/tensorflow/third_party/cmsis_nn/Include/arm_nnsupportfunctions.h ****                                   const cmsis_nn_per_channel_quant_params *quant_params,
 298:Middlewares/tensorflow/third_party/cmsis_nn/Include/arm_nnsupportfunctions.h ****                                   const int32_t *bias,
 299:Middlewares/tensorflow/third_party/cmsis_nn/Include/arm_nnsupportfunctions.h ****                                   int8_t *output);
 300:Middlewares/tensorflow/third_party/cmsis_nn/Include/arm_nnsupportfunctions.h **** 
 301:Middlewares/tensorflow/third_party/cmsis_nn/Include/arm_nnsupportfunctions.h **** /**
 302:Middlewares/tensorflow/third_party/cmsis_nn/Include/arm_nnsupportfunctions.h ****  * @brief General Matrix-multiplication function with per-channel requantization.
 303:Middlewares/tensorflow/third_party/cmsis_nn/Include/arm_nnsupportfunctions.h ****  *        This function assumes:
 304:Middlewares/tensorflow/third_party/cmsis_nn/Include/arm_nnsupportfunctions.h ****  *        - LHS input matrix NOT transposed (nt)
 305:Middlewares/tensorflow/third_party/cmsis_nn/Include/arm_nnsupportfunctions.h ****  *        - RHS input matrix transposed (t)
 306:Middlewares/tensorflow/third_party/cmsis_nn/Include/arm_nnsupportfunctions.h ****  *
 307:Middlewares/tensorflow/third_party/cmsis_nn/Include/arm_nnsupportfunctions.h ****  *  @note This operation also performs the broadcast bias addition before the requantization
 308:Middlewares/tensorflow/third_party/cmsis_nn/Include/arm_nnsupportfunctions.h ****  *
 309:Middlewares/tensorflow/third_party/cmsis_nn/Include/arm_nnsupportfunctions.h ****  * @param[in]  lhs                Pointer to the LHS input matrix
 310:Middlewares/tensorflow/third_party/cmsis_nn/Include/arm_nnsupportfunctions.h ****  * @param[in]  rhs                Pointer to the RHS input matrix
 311:Middlewares/tensorflow/third_party/cmsis_nn/Include/arm_nnsupportfunctions.h ****  * @param[in]  bias               Pointer to the bias vector. The length of this vector is equal to
 312:Middlewares/tensorflow/third_party/cmsis_nn/Include/arm_nnsupportfunctions.h ****  * output columns (or RHS input rows)
 313:Middlewares/tensorflow/third_party/cmsis_nn/Include/arm_nnsupportfunctions.h ****  * @param[out] dst                Pointer to the output matrix with "m" rows and "n" columns
 314:Middlewares/tensorflow/third_party/cmsis_nn/Include/arm_nnsupportfunctions.h ****  * @param[in]  dst_multipliers    Pointer to the multipliers vector needed for the per-channel requ
 315:Middlewares/tensorflow/third_party/cmsis_nn/Include/arm_nnsupportfunctions.h ****  *                                The length of this vector is equal to the number of output column
 316:Middlewares/tensorflow/third_party/cmsis_nn/Include/arm_nnsupportfunctions.h ****  * rows)
 317:Middlewares/tensorflow/third_party/cmsis_nn/Include/arm_nnsupportfunctions.h ****  * @param[in]  dst_shifts         Pointer to the shifts vector needed for the per-channel requantiz
 318:Middlewares/tensorflow/third_party/cmsis_nn/Include/arm_nnsupportfunctions.h ****  * of this vector is equal to the number of output columns (or RHS input rows)
 319:Middlewares/tensorflow/third_party/cmsis_nn/Include/arm_nnsupportfunctions.h ****  * @param[in]  lhs_rows           Number of LHS input rows
 320:Middlewares/tensorflow/third_party/cmsis_nn/Include/arm_nnsupportfunctions.h ****  * @param[in]  rhs_rows           Number of RHS input rows
 321:Middlewares/tensorflow/third_party/cmsis_nn/Include/arm_nnsupportfunctions.h ****  * @param[in]  rhs_cols           Number of LHS/RHS input columns
 322:Middlewares/tensorflow/third_party/cmsis_nn/Include/arm_nnsupportfunctions.h ****  * @param[in]  lhs_offset         Offset to be applied to the LHS input value
 323:Middlewares/tensorflow/third_party/cmsis_nn/Include/arm_nnsupportfunctions.h ****  * @param[in]  dst_offset         Offset to be applied the output result
 324:Middlewares/tensorflow/third_party/cmsis_nn/Include/arm_nnsupportfunctions.h ****  * @param[in]  activation_min     Minimum value to clamp down the output. Range : int8
 325:Middlewares/tensorflow/third_party/cmsis_nn/Include/arm_nnsupportfunctions.h ****  * @param[in]  activation_max     Maximum value to clamp up the output. Range : int8
 326:Middlewares/tensorflow/third_party/cmsis_nn/Include/arm_nnsupportfunctions.h ****  * @param[in]  rhs_cols_offset    Offset between input columns. Used to handle non-unity strides
 327:Middlewares/tensorflow/third_party/cmsis_nn/Include/arm_nnsupportfunctions.h ****  *                                Expected value : x * rhs_cols, where x >= 1
 328:Middlewares/tensorflow/third_party/cmsis_nn/Include/arm_nnsupportfunctions.h ****  *
 329:Middlewares/tensorflow/third_party/cmsis_nn/Include/arm_nnsupportfunctions.h ****  * @return     The function returns <code>ARM_CMSIS_NN_SUCCESS</code>
 330:Middlewares/tensorflow/third_party/cmsis_nn/Include/arm_nnsupportfunctions.h ****  *
 331:Middlewares/tensorflow/third_party/cmsis_nn/Include/arm_nnsupportfunctions.h ****  */
 332:Middlewares/tensorflow/third_party/cmsis_nn/Include/arm_nnsupportfunctions.h **** arm_cmsis_nn_status arm_nn_mat_mult_nt_t_s8(const int8_t *lhs,
 333:Middlewares/tensorflow/third_party/cmsis_nn/Include/arm_nnsupportfunctions.h ****                                             const int8_t *rhs,
 334:Middlewares/tensorflow/third_party/cmsis_nn/Include/arm_nnsupportfunctions.h ****                                             const int32_t *bias,
 335:Middlewares/tensorflow/third_party/cmsis_nn/Include/arm_nnsupportfunctions.h ****                                             int8_t *dst,
 336:Middlewares/tensorflow/third_party/cmsis_nn/Include/arm_nnsupportfunctions.h ****                                             const int32_t *dst_multipliers,
 337:Middlewares/tensorflow/third_party/cmsis_nn/Include/arm_nnsupportfunctions.h ****                                             const int32_t *dst_shifts,
 338:Middlewares/tensorflow/third_party/cmsis_nn/Include/arm_nnsupportfunctions.h ****                                             const int32_t lhs_rows,
 339:Middlewares/tensorflow/third_party/cmsis_nn/Include/arm_nnsupportfunctions.h ****                                             const int32_t rhs_rows,
 340:Middlewares/tensorflow/third_party/cmsis_nn/Include/arm_nnsupportfunctions.h ****                                             const int32_t rhs_cols,
 341:Middlewares/tensorflow/third_party/cmsis_nn/Include/arm_nnsupportfunctions.h ****                                             const int32_t lhs_offset,
 342:Middlewares/tensorflow/third_party/cmsis_nn/Include/arm_nnsupportfunctions.h ****                                             const int32_t dst_offset,
 343:Middlewares/tensorflow/third_party/cmsis_nn/Include/arm_nnsupportfunctions.h ****                                             const int32_t activation_min,
 344:Middlewares/tensorflow/third_party/cmsis_nn/Include/arm_nnsupportfunctions.h ****                                             const int32_t activation_max,
 345:Middlewares/tensorflow/third_party/cmsis_nn/Include/arm_nnsupportfunctions.h ****                                             const int32_t rhs_cols_offset);
 346:Middlewares/tensorflow/third_party/cmsis_nn/Include/arm_nnsupportfunctions.h **** 
 347:Middlewares/tensorflow/third_party/cmsis_nn/Include/arm_nnsupportfunctions.h **** /**
ARM GAS  /tmp/ccLiBJQj.s 			page 10


 348:Middlewares/tensorflow/third_party/cmsis_nn/Include/arm_nnsupportfunctions.h ****  * @brief s8 Vector by Matrix (transposed) multiplication
 349:Middlewares/tensorflow/third_party/cmsis_nn/Include/arm_nnsupportfunctions.h ****  *
 350:Middlewares/tensorflow/third_party/cmsis_nn/Include/arm_nnsupportfunctions.h ****  * @param[in]      lhs             Input left-hand side vector
 351:Middlewares/tensorflow/third_party/cmsis_nn/Include/arm_nnsupportfunctions.h ****  * @param[in]      rhs             Input right-hand side matrix (transposed)
 352:Middlewares/tensorflow/third_party/cmsis_nn/Include/arm_nnsupportfunctions.h ****  * @param[in]      bias            Input bias
 353:Middlewares/tensorflow/third_party/cmsis_nn/Include/arm_nnsupportfunctions.h ****  * @param[out]     dst             Output vector
 354:Middlewares/tensorflow/third_party/cmsis_nn/Include/arm_nnsupportfunctions.h ****  * @param[in]      lhs_offset      Offset to be added to the input values of the left-hand side vec
 355:Middlewares/tensorflow/third_party/cmsis_nn/Include/arm_nnsupportfunctions.h ****  *                                 Range: -127 to 128
 356:Middlewares/tensorflow/third_party/cmsis_nn/Include/arm_nnsupportfunctions.h ****  * @param[in]      dst_offset      Offset to be added to the output values. Range: -127 to 128
 357:Middlewares/tensorflow/third_party/cmsis_nn/Include/arm_nnsupportfunctions.h ****  * @param[in]      dst_multiplier  Output multiplier
 358:Middlewares/tensorflow/third_party/cmsis_nn/Include/arm_nnsupportfunctions.h ****  * @param[in]      dst_shift       Output shift
 359:Middlewares/tensorflow/third_party/cmsis_nn/Include/arm_nnsupportfunctions.h ****  * @param[in]      rhs_cols        Number of columns in the right-hand side input matrix
 360:Middlewares/tensorflow/third_party/cmsis_nn/Include/arm_nnsupportfunctions.h ****  * @param[in]      rhs_rows        Number of rows in the right-hand side input matrix
 361:Middlewares/tensorflow/third_party/cmsis_nn/Include/arm_nnsupportfunctions.h ****  * @param[in]      activation_min  Minimum value to clamp the output to. Range: int8
 362:Middlewares/tensorflow/third_party/cmsis_nn/Include/arm_nnsupportfunctions.h ****  * @param[in]      activation_max  Maximum value to clamp the output to. Range: int8
 363:Middlewares/tensorflow/third_party/cmsis_nn/Include/arm_nnsupportfunctions.h ****  * @param[in]      address_offset  Memory position offset for dst. First output is stored at 'dst',
 364:Middlewares/tensorflow/third_party/cmsis_nn/Include/arm_nnsupportfunctions.h ****  *                                 second at 'dst + address_offset' and so on. Default value is typ
 365:Middlewares/tensorflow/third_party/cmsis_nn/Include/arm_nnsupportfunctions.h ****  *
 366:Middlewares/tensorflow/third_party/cmsis_nn/Include/arm_nnsupportfunctions.h ****  * @return         The function returns <code>ARM_CMSIS_NN_SUCCESS</code>
 367:Middlewares/tensorflow/third_party/cmsis_nn/Include/arm_nnsupportfunctions.h ****  *
 368:Middlewares/tensorflow/third_party/cmsis_nn/Include/arm_nnsupportfunctions.h ****  */
 369:Middlewares/tensorflow/third_party/cmsis_nn/Include/arm_nnsupportfunctions.h **** arm_cmsis_nn_status arm_nn_vec_mat_mult_t_s8(const int8_t *lhs,
 370:Middlewares/tensorflow/third_party/cmsis_nn/Include/arm_nnsupportfunctions.h ****                                              const int8_t *rhs,
 371:Middlewares/tensorflow/third_party/cmsis_nn/Include/arm_nnsupportfunctions.h ****                                              const int32_t *bias,
 372:Middlewares/tensorflow/third_party/cmsis_nn/Include/arm_nnsupportfunctions.h ****                                              int8_t *dst,
 373:Middlewares/tensorflow/third_party/cmsis_nn/Include/arm_nnsupportfunctions.h ****                                              const int32_t lhs_offset,
 374:Middlewares/tensorflow/third_party/cmsis_nn/Include/arm_nnsupportfunctions.h ****                                              const int32_t dst_offset,
 375:Middlewares/tensorflow/third_party/cmsis_nn/Include/arm_nnsupportfunctions.h ****                                              const int32_t dst_multiplier,
 376:Middlewares/tensorflow/third_party/cmsis_nn/Include/arm_nnsupportfunctions.h ****                                              const int32_t dst_shift,
 377:Middlewares/tensorflow/third_party/cmsis_nn/Include/arm_nnsupportfunctions.h ****                                              const int32_t rhs_cols,
 378:Middlewares/tensorflow/third_party/cmsis_nn/Include/arm_nnsupportfunctions.h ****                                              const int32_t rhs_rows,
 379:Middlewares/tensorflow/third_party/cmsis_nn/Include/arm_nnsupportfunctions.h ****                                              const int32_t activation_min,
 380:Middlewares/tensorflow/third_party/cmsis_nn/Include/arm_nnsupportfunctions.h ****                                              const int32_t activation_max,
 381:Middlewares/tensorflow/third_party/cmsis_nn/Include/arm_nnsupportfunctions.h ****                                              const int32_t address_offset);
 382:Middlewares/tensorflow/third_party/cmsis_nn/Include/arm_nnsupportfunctions.h **** 
 383:Middlewares/tensorflow/third_party/cmsis_nn/Include/arm_nnsupportfunctions.h **** /**
 384:Middlewares/tensorflow/third_party/cmsis_nn/Include/arm_nnsupportfunctions.h ****  * @brief s16 Vector by Matrix (transposed) multiplication
 385:Middlewares/tensorflow/third_party/cmsis_nn/Include/arm_nnsupportfunctions.h ****  *
 386:Middlewares/tensorflow/third_party/cmsis_nn/Include/arm_nnsupportfunctions.h ****  * @param[in]      lhs             Input left-hand side vector
 387:Middlewares/tensorflow/third_party/cmsis_nn/Include/arm_nnsupportfunctions.h ****  * @param[in]      rhs             Input right-hand side matrix (transposed)
 388:Middlewares/tensorflow/third_party/cmsis_nn/Include/arm_nnsupportfunctions.h ****  * @param[in]      bias            Input bias
 389:Middlewares/tensorflow/third_party/cmsis_nn/Include/arm_nnsupportfunctions.h ****  * @param[out]     dst             Output vector
 390:Middlewares/tensorflow/third_party/cmsis_nn/Include/arm_nnsupportfunctions.h ****  * @param[in]      dst_multiplier  Output multiplier
 391:Middlewares/tensorflow/third_party/cmsis_nn/Include/arm_nnsupportfunctions.h ****  * @param[in]      dst_shift       Output shift
 392:Middlewares/tensorflow/third_party/cmsis_nn/Include/arm_nnsupportfunctions.h ****  * @param[in]      rhs_cols        Number of columns in the right-hand side input matrix
 393:Middlewares/tensorflow/third_party/cmsis_nn/Include/arm_nnsupportfunctions.h ****  * @param[in]      rhs_rows        Number of rows in the right-hand side input matrix
 394:Middlewares/tensorflow/third_party/cmsis_nn/Include/arm_nnsupportfunctions.h ****  * @param[in]      activation_min  Minimum value to clamp the output to. Range: int16
 395:Middlewares/tensorflow/third_party/cmsis_nn/Include/arm_nnsupportfunctions.h ****  * @param[in]      activation_max  Maximum value to clamp the output to. Range: int16
 396:Middlewares/tensorflow/third_party/cmsis_nn/Include/arm_nnsupportfunctions.h ****  *
 397:Middlewares/tensorflow/third_party/cmsis_nn/Include/arm_nnsupportfunctions.h ****  * @return         The function returns <code>ARM_CMSIS_NN_SUCCESS</code>
 398:Middlewares/tensorflow/third_party/cmsis_nn/Include/arm_nnsupportfunctions.h ****  *
 399:Middlewares/tensorflow/third_party/cmsis_nn/Include/arm_nnsupportfunctions.h ****  */
 400:Middlewares/tensorflow/third_party/cmsis_nn/Include/arm_nnsupportfunctions.h **** arm_cmsis_nn_status arm_nn_vec_mat_mult_t_s16(const int16_t *lhs,
 401:Middlewares/tensorflow/third_party/cmsis_nn/Include/arm_nnsupportfunctions.h ****                                               const int8_t *rhs,
 402:Middlewares/tensorflow/third_party/cmsis_nn/Include/arm_nnsupportfunctions.h ****                                               const int64_t *bias,
 403:Middlewares/tensorflow/third_party/cmsis_nn/Include/arm_nnsupportfunctions.h ****                                               int16_t *dst,
 404:Middlewares/tensorflow/third_party/cmsis_nn/Include/arm_nnsupportfunctions.h ****                                               const int32_t dst_multiplier,
ARM GAS  /tmp/ccLiBJQj.s 			page 11


 405:Middlewares/tensorflow/third_party/cmsis_nn/Include/arm_nnsupportfunctions.h ****                                               const int32_t dst_shift,
 406:Middlewares/tensorflow/third_party/cmsis_nn/Include/arm_nnsupportfunctions.h ****                                               const int32_t rhs_cols,
 407:Middlewares/tensorflow/third_party/cmsis_nn/Include/arm_nnsupportfunctions.h ****                                               const int32_t rhs_rows,
 408:Middlewares/tensorflow/third_party/cmsis_nn/Include/arm_nnsupportfunctions.h ****                                               const int32_t activation_min,
 409:Middlewares/tensorflow/third_party/cmsis_nn/Include/arm_nnsupportfunctions.h ****                                               const int32_t activation_max);
 410:Middlewares/tensorflow/third_party/cmsis_nn/Include/arm_nnsupportfunctions.h **** 
 411:Middlewares/tensorflow/third_party/cmsis_nn/Include/arm_nnsupportfunctions.h **** /**
 412:Middlewares/tensorflow/third_party/cmsis_nn/Include/arm_nnsupportfunctions.h ****  * @brief s8 Vector by Matrix (transposed) multiplication with s16 output
 413:Middlewares/tensorflow/third_party/cmsis_nn/Include/arm_nnsupportfunctions.h ****  *
 414:Middlewares/tensorflow/third_party/cmsis_nn/Include/arm_nnsupportfunctions.h ****  * @param[in]      lhs             Input left-hand side vector
 415:Middlewares/tensorflow/third_party/cmsis_nn/Include/arm_nnsupportfunctions.h ****  * @param[in]      rhs             Input right-hand side matrix (transposed)
 416:Middlewares/tensorflow/third_party/cmsis_nn/Include/arm_nnsupportfunctions.h ****  * @param[out]     dst             Output vector
 417:Middlewares/tensorflow/third_party/cmsis_nn/Include/arm_nnsupportfunctions.h ****  * @param[in]      lhs_offset      Offset to be added to the input values of the left-hand side
 418:Middlewares/tensorflow/third_party/cmsis_nn/Include/arm_nnsupportfunctions.h ****  *                                 vector. Range: -127 to 128
 419:Middlewares/tensorflow/third_party/cmsis_nn/Include/arm_nnsupportfunctions.h ****  * @param[in]      scatter_offset  Address offset for dst. First output is stored at 'dst', the
 420:Middlewares/tensorflow/third_party/cmsis_nn/Include/arm_nnsupportfunctions.h ****  *                                 second at 'dst + scatter_offset' and so on.
 421:Middlewares/tensorflow/third_party/cmsis_nn/Include/arm_nnsupportfunctions.h ****  * @param[in]      dst_multiplier  Output multiplier
 422:Middlewares/tensorflow/third_party/cmsis_nn/Include/arm_nnsupportfunctions.h ****  * @param[in]      dst_shift       Output shift
 423:Middlewares/tensorflow/third_party/cmsis_nn/Include/arm_nnsupportfunctions.h ****  * @param[in]      rhs_cols        Number of columns in the right-hand side input matrix
 424:Middlewares/tensorflow/third_party/cmsis_nn/Include/arm_nnsupportfunctions.h ****  * @param[in]      rhs_rows        Number of rows in the right-hand side input matrix
 425:Middlewares/tensorflow/third_party/cmsis_nn/Include/arm_nnsupportfunctions.h ****  * @param[in]      activation_min  Minimum value to clamp the output to. Range: int16
 426:Middlewares/tensorflow/third_party/cmsis_nn/Include/arm_nnsupportfunctions.h ****  * @param[in]      activation_max  Maximum value to clamp the output to. Range: int16
 427:Middlewares/tensorflow/third_party/cmsis_nn/Include/arm_nnsupportfunctions.h ****  *
 428:Middlewares/tensorflow/third_party/cmsis_nn/Include/arm_nnsupportfunctions.h ****  * @return         The function returns <code>ARM_CMSIS_NN_SUCCESS</code>
 429:Middlewares/tensorflow/third_party/cmsis_nn/Include/arm_nnsupportfunctions.h ****  *
 430:Middlewares/tensorflow/third_party/cmsis_nn/Include/arm_nnsupportfunctions.h ****  */
 431:Middlewares/tensorflow/third_party/cmsis_nn/Include/arm_nnsupportfunctions.h **** arm_cmsis_nn_status arm_nn_vec_mat_mult_t_svdf_s8(const int8_t *lhs,
 432:Middlewares/tensorflow/third_party/cmsis_nn/Include/arm_nnsupportfunctions.h ****                                                   const int8_t *rhs,
 433:Middlewares/tensorflow/third_party/cmsis_nn/Include/arm_nnsupportfunctions.h ****                                                   int16_t *dst,
 434:Middlewares/tensorflow/third_party/cmsis_nn/Include/arm_nnsupportfunctions.h ****                                                   const int32_t lhs_offset,
 435:Middlewares/tensorflow/third_party/cmsis_nn/Include/arm_nnsupportfunctions.h ****                                                   const int32_t scatter_offset,
 436:Middlewares/tensorflow/third_party/cmsis_nn/Include/arm_nnsupportfunctions.h ****                                                   const int32_t dst_multiplier,
 437:Middlewares/tensorflow/third_party/cmsis_nn/Include/arm_nnsupportfunctions.h ****                                                   const int32_t dst_shift,
 438:Middlewares/tensorflow/third_party/cmsis_nn/Include/arm_nnsupportfunctions.h ****                                                   const int32_t rhs_cols,
 439:Middlewares/tensorflow/third_party/cmsis_nn/Include/arm_nnsupportfunctions.h ****                                                   const int32_t rhs_rows,
 440:Middlewares/tensorflow/third_party/cmsis_nn/Include/arm_nnsupportfunctions.h ****                                                   const int32_t activation_min,
 441:Middlewares/tensorflow/third_party/cmsis_nn/Include/arm_nnsupportfunctions.h ****                                                   const int32_t activation_max);
 442:Middlewares/tensorflow/third_party/cmsis_nn/Include/arm_nnsupportfunctions.h **** 
 443:Middlewares/tensorflow/third_party/cmsis_nn/Include/arm_nnsupportfunctions.h **** /**
 444:Middlewares/tensorflow/third_party/cmsis_nn/Include/arm_nnsupportfunctions.h ****  * @brief Depthwise convolution of transposed rhs matrix with 4 lhs matrices. To be used in padded 
 445:Middlewares/tensorflow/third_party/cmsis_nn/Include/arm_nnsupportfunctions.h ****  *        the padding is -lhs_offset(Range: int8). Dimensions are the same for lhs and rhs.
 446:Middlewares/tensorflow/third_party/cmsis_nn/Include/arm_nnsupportfunctions.h ****  *
 447:Middlewares/tensorflow/third_party/cmsis_nn/Include/arm_nnsupportfunctions.h ****  * @param[in]      lhs             Input left-hand side matrix
 448:Middlewares/tensorflow/third_party/cmsis_nn/Include/arm_nnsupportfunctions.h ****  * @param[in]      rhs             Input right-hand side matrix (transposed)
 449:Middlewares/tensorflow/third_party/cmsis_nn/Include/arm_nnsupportfunctions.h ****  * @param[in]      lhs_offset      LHS matrix offset(input offset). Range: -127 to 128
 450:Middlewares/tensorflow/third_party/cmsis_nn/Include/arm_nnsupportfunctions.h ****  * @param[in]      active_ch       Subset of total_ch processed
 451:Middlewares/tensorflow/third_party/cmsis_nn/Include/arm_nnsupportfunctions.h ****  * @param[in]      total_ch        Number of channels in LHS/RHS
 452:Middlewares/tensorflow/third_party/cmsis_nn/Include/arm_nnsupportfunctions.h ****  * @param[in]      out_shift       Per channel output shift. Length of vector is equal to number of
 453:Middlewares/tensorflow/third_party/cmsis_nn/Include/arm_nnsupportfunctions.h ****  * @param[in]      out_mult        Per channel output multiplier. Length of vector is equal to numb
 454:Middlewares/tensorflow/third_party/cmsis_nn/Include/arm_nnsupportfunctions.h ****  * @param[in]      out_offset      Offset to be added to the output values. Range: -127 to 128
 455:Middlewares/tensorflow/third_party/cmsis_nn/Include/arm_nnsupportfunctions.h ****  * @param[in]      activation_min  Minimum value to clamp the output to. Range: int8
 456:Middlewares/tensorflow/third_party/cmsis_nn/Include/arm_nnsupportfunctions.h ****  * @param[in]      activation_max  Maximum value to clamp the output to. Range: int8
 457:Middlewares/tensorflow/third_party/cmsis_nn/Include/arm_nnsupportfunctions.h ****  * @param[in]       row_x_col       (row_dimension * col_dimension) of LHS/RHS matrix
 458:Middlewares/tensorflow/third_party/cmsis_nn/Include/arm_nnsupportfunctions.h ****  * @param[in]      output_bias     Per channel output bias. Length of vector is equal to number of 
 459:Middlewares/tensorflow/third_party/cmsis_nn/Include/arm_nnsupportfunctions.h ****  * @param[in]      out             Output pointer
 460:Middlewares/tensorflow/third_party/cmsis_nn/Include/arm_nnsupportfunctions.h ****  *
 461:Middlewares/tensorflow/third_party/cmsis_nn/Include/arm_nnsupportfunctions.h ****  * @return         The function returns one of the two
ARM GAS  /tmp/ccLiBJQj.s 			page 12


 462:Middlewares/tensorflow/third_party/cmsis_nn/Include/arm_nnsupportfunctions.h ****  *                  - Updated output pointer if an implementation is available
 463:Middlewares/tensorflow/third_party/cmsis_nn/Include/arm_nnsupportfunctions.h ****  *                  - NULL if no implementation is available.
 464:Middlewares/tensorflow/third_party/cmsis_nn/Include/arm_nnsupportfunctions.h ****  *
 465:Middlewares/tensorflow/third_party/cmsis_nn/Include/arm_nnsupportfunctions.h ****  * @note           If number of channels is not a multiple of 4, upto 3 elements outside the bounda
 466:Middlewares/tensorflow/third_party/cmsis_nn/Include/arm_nnsupportfunctions.h ****  * out for the following.
 467:Middlewares/tensorflow/third_party/cmsis_nn/Include/arm_nnsupportfunctions.h ****  *                  - Output shift
 468:Middlewares/tensorflow/third_party/cmsis_nn/Include/arm_nnsupportfunctions.h ****  *                  - Output multiplier
 469:Middlewares/tensorflow/third_party/cmsis_nn/Include/arm_nnsupportfunctions.h ****  *                  - Output bias
 470:Middlewares/tensorflow/third_party/cmsis_nn/Include/arm_nnsupportfunctions.h ****  *                  - rhs
 471:Middlewares/tensorflow/third_party/cmsis_nn/Include/arm_nnsupportfunctions.h ****  */
 472:Middlewares/tensorflow/third_party/cmsis_nn/Include/arm_nnsupportfunctions.h **** arm_cmsis_nn_status arm_nn_depthwise_conv_nt_t_padded_s8(const int8_t *lhs,
 473:Middlewares/tensorflow/third_party/cmsis_nn/Include/arm_nnsupportfunctions.h ****                                                          const int8_t *rhs,
 474:Middlewares/tensorflow/third_party/cmsis_nn/Include/arm_nnsupportfunctions.h ****                                                          const int32_t lhs_offset,
 475:Middlewares/tensorflow/third_party/cmsis_nn/Include/arm_nnsupportfunctions.h ****                                                          const int32_t active_ch,
 476:Middlewares/tensorflow/third_party/cmsis_nn/Include/arm_nnsupportfunctions.h ****                                                          const int32_t total_ch,
 477:Middlewares/tensorflow/third_party/cmsis_nn/Include/arm_nnsupportfunctions.h ****                                                          const int32_t *out_shift,
 478:Middlewares/tensorflow/third_party/cmsis_nn/Include/arm_nnsupportfunctions.h ****                                                          const int32_t *out_mult,
 479:Middlewares/tensorflow/third_party/cmsis_nn/Include/arm_nnsupportfunctions.h ****                                                          const int32_t out_offset,
 480:Middlewares/tensorflow/third_party/cmsis_nn/Include/arm_nnsupportfunctions.h ****                                                          const int32_t activation_min,
 481:Middlewares/tensorflow/third_party/cmsis_nn/Include/arm_nnsupportfunctions.h ****                                                          const int32_t activation_max,
 482:Middlewares/tensorflow/third_party/cmsis_nn/Include/arm_nnsupportfunctions.h ****                                                          const uint16_t row_x_col,
 483:Middlewares/tensorflow/third_party/cmsis_nn/Include/arm_nnsupportfunctions.h ****                                                          const int32_t *const output_bias,
 484:Middlewares/tensorflow/third_party/cmsis_nn/Include/arm_nnsupportfunctions.h ****                                                          int8_t *out);
 485:Middlewares/tensorflow/third_party/cmsis_nn/Include/arm_nnsupportfunctions.h **** 
 486:Middlewares/tensorflow/third_party/cmsis_nn/Include/arm_nnsupportfunctions.h **** /**
 487:Middlewares/tensorflow/third_party/cmsis_nn/Include/arm_nnsupportfunctions.h ****  * @brief Depthwise convolution of transposed rhs matrix with 4 lhs matrices. To be used in non-pad
 488:Middlewares/tensorflow/third_party/cmsis_nn/Include/arm_nnsupportfunctions.h ****  *        Dimensions are the same for lhs and rhs.
 489:Middlewares/tensorflow/third_party/cmsis_nn/Include/arm_nnsupportfunctions.h ****  *
 490:Middlewares/tensorflow/third_party/cmsis_nn/Include/arm_nnsupportfunctions.h ****  * @param[in]      lhs             Input left-hand side matrix
 491:Middlewares/tensorflow/third_party/cmsis_nn/Include/arm_nnsupportfunctions.h ****  * @param[in]      rhs             Input right-hand side matrix (transposed)
 492:Middlewares/tensorflow/third_party/cmsis_nn/Include/arm_nnsupportfunctions.h ****  * @param[in]      lhs_offset      LHS matrix offset(input offset). Range: -127 to 128
 493:Middlewares/tensorflow/third_party/cmsis_nn/Include/arm_nnsupportfunctions.h ****  * @param[in]      active_ch       Subset of total_ch processed
 494:Middlewares/tensorflow/third_party/cmsis_nn/Include/arm_nnsupportfunctions.h ****  * @param[in]      total_ch        Number of channels in LHS/RHS
 495:Middlewares/tensorflow/third_party/cmsis_nn/Include/arm_nnsupportfunctions.h ****  * @param[in]      out_shift       Per channel output shift. Length of vector is equal to number of
 496:Middlewares/tensorflow/third_party/cmsis_nn/Include/arm_nnsupportfunctions.h ****  * @param[in]      out_mult        Per channel output multiplier. Length of vector is equal to numb
 497:Middlewares/tensorflow/third_party/cmsis_nn/Include/arm_nnsupportfunctions.h ****  * @param[in]      out_offset      Offset to be added to the output values. Range: -127 to 128
 498:Middlewares/tensorflow/third_party/cmsis_nn/Include/arm_nnsupportfunctions.h ****  * @param[in]      activation_min  Minimum value to clamp the output to. Range: int8
 499:Middlewares/tensorflow/third_party/cmsis_nn/Include/arm_nnsupportfunctions.h ****  * @param[in]      activation_max  Maximum value to clamp the output to. Range: int8
 500:Middlewares/tensorflow/third_party/cmsis_nn/Include/arm_nnsupportfunctions.h ****  * @param[in]       row_x_col       (row_dimension * col_dimension) of LHS/RHS matrix
 501:Middlewares/tensorflow/third_party/cmsis_nn/Include/arm_nnsupportfunctions.h ****  * @param[in]      output_bias     Per channel output bias. Length of vector is equal to number of 
 502:Middlewares/tensorflow/third_party/cmsis_nn/Include/arm_nnsupportfunctions.h ****  * @param[in]      out             Output pointer
 503:Middlewares/tensorflow/third_party/cmsis_nn/Include/arm_nnsupportfunctions.h ****  *
 504:Middlewares/tensorflow/third_party/cmsis_nn/Include/arm_nnsupportfunctions.h ****  * @return         The function returns one of the two
 505:Middlewares/tensorflow/third_party/cmsis_nn/Include/arm_nnsupportfunctions.h ****  *                  - Updated output pointer if an implementation is available
 506:Middlewares/tensorflow/third_party/cmsis_nn/Include/arm_nnsupportfunctions.h ****  *                  - NULL if no implementation is available.
 507:Middlewares/tensorflow/third_party/cmsis_nn/Include/arm_nnsupportfunctions.h ****  *
 508:Middlewares/tensorflow/third_party/cmsis_nn/Include/arm_nnsupportfunctions.h ****  * @note           If number of channels is not a multiple of 4, upto 3 elements outside the bounda
 509:Middlewares/tensorflow/third_party/cmsis_nn/Include/arm_nnsupportfunctions.h ****  * out for the following.
 510:Middlewares/tensorflow/third_party/cmsis_nn/Include/arm_nnsupportfunctions.h ****  *                  - Output shift
 511:Middlewares/tensorflow/third_party/cmsis_nn/Include/arm_nnsupportfunctions.h ****  *                  - Output multiplier
 512:Middlewares/tensorflow/third_party/cmsis_nn/Include/arm_nnsupportfunctions.h ****  *                  - Output bias
 513:Middlewares/tensorflow/third_party/cmsis_nn/Include/arm_nnsupportfunctions.h ****  *                  - rhs
 514:Middlewares/tensorflow/third_party/cmsis_nn/Include/arm_nnsupportfunctions.h ****  */
 515:Middlewares/tensorflow/third_party/cmsis_nn/Include/arm_nnsupportfunctions.h **** arm_cmsis_nn_status arm_nn_depthwise_conv_nt_t_s8(const int8_t *lhs,
 516:Middlewares/tensorflow/third_party/cmsis_nn/Include/arm_nnsupportfunctions.h ****                                                   const int8_t *rhs,
 517:Middlewares/tensorflow/third_party/cmsis_nn/Include/arm_nnsupportfunctions.h ****                                                   const int32_t lhs_offset,
 518:Middlewares/tensorflow/third_party/cmsis_nn/Include/arm_nnsupportfunctions.h ****                                                   const int32_t active_ch,
ARM GAS  /tmp/ccLiBJQj.s 			page 13


 519:Middlewares/tensorflow/third_party/cmsis_nn/Include/arm_nnsupportfunctions.h ****                                                   const int32_t total_ch,
 520:Middlewares/tensorflow/third_party/cmsis_nn/Include/arm_nnsupportfunctions.h ****                                                   const int32_t *out_shift,
 521:Middlewares/tensorflow/third_party/cmsis_nn/Include/arm_nnsupportfunctions.h ****                                                   const int32_t *out_mult,
 522:Middlewares/tensorflow/third_party/cmsis_nn/Include/arm_nnsupportfunctions.h ****                                                   const int32_t out_offset,
 523:Middlewares/tensorflow/third_party/cmsis_nn/Include/arm_nnsupportfunctions.h ****                                                   const int32_t activation_min,
 524:Middlewares/tensorflow/third_party/cmsis_nn/Include/arm_nnsupportfunctions.h ****                                                   const int32_t activation_max,
 525:Middlewares/tensorflow/third_party/cmsis_nn/Include/arm_nnsupportfunctions.h ****                                                   const uint16_t row_x_col,
 526:Middlewares/tensorflow/third_party/cmsis_nn/Include/arm_nnsupportfunctions.h ****                                                   const int32_t *const output_bias,
 527:Middlewares/tensorflow/third_party/cmsis_nn/Include/arm_nnsupportfunctions.h ****                                                   int8_t *out);
 528:Middlewares/tensorflow/third_party/cmsis_nn/Include/arm_nnsupportfunctions.h **** 
 529:Middlewares/tensorflow/third_party/cmsis_nn/Include/arm_nnsupportfunctions.h **** /**
 530:Middlewares/tensorflow/third_party/cmsis_nn/Include/arm_nnsupportfunctions.h ****  * @brief Depthwise convolution of transposed rhs matrix with 4 lhs matrices. To be used in non-pad
 531:Middlewares/tensorflow/third_party/cmsis_nn/Include/arm_nnsupportfunctions.h ****  *        Dimensions are the same for lhs and rhs.
 532:Middlewares/tensorflow/third_party/cmsis_nn/Include/arm_nnsupportfunctions.h ****  *
 533:Middlewares/tensorflow/third_party/cmsis_nn/Include/arm_nnsupportfunctions.h ****  * @param[in]      lhs             Input left-hand side matrix
 534:Middlewares/tensorflow/third_party/cmsis_nn/Include/arm_nnsupportfunctions.h ****  * @param[in]      rhs             Input right-hand side matrix (transposed)
 535:Middlewares/tensorflow/third_party/cmsis_nn/Include/arm_nnsupportfunctions.h ****  * @param[in]      num_ch          Number of channels in LHS/RHS
 536:Middlewares/tensorflow/third_party/cmsis_nn/Include/arm_nnsupportfunctions.h ****  * @param[in]      out_shift       Per channel output shift. Length of vector is equal to number of
 537:Middlewares/tensorflow/third_party/cmsis_nn/Include/arm_nnsupportfunctions.h ****  * @param[in]      out_mult        Per channel output multiplier. Length of vector is equal to numb
 538:Middlewares/tensorflow/third_party/cmsis_nn/Include/arm_nnsupportfunctions.h ****  * @param[in]      activation_min  Minimum value to clamp the output to. Range: int8
 539:Middlewares/tensorflow/third_party/cmsis_nn/Include/arm_nnsupportfunctions.h ****  * @param[in]      activation_max  Maximum value to clamp the output to. Range: int8
 540:Middlewares/tensorflow/third_party/cmsis_nn/Include/arm_nnsupportfunctions.h ****  * @param[in]       row_x_col       (row_dimension * col_dimension) of LHS/RHS matrix
 541:Middlewares/tensorflow/third_party/cmsis_nn/Include/arm_nnsupportfunctions.h ****  * @param[in]      output_bias     Per channel output bias. Length of vector is equal to number of 
 542:Middlewares/tensorflow/third_party/cmsis_nn/Include/arm_nnsupportfunctions.h ****  * @param[in]      out             Output pointer
 543:Middlewares/tensorflow/third_party/cmsis_nn/Include/arm_nnsupportfunctions.h ****  *
 544:Middlewares/tensorflow/third_party/cmsis_nn/Include/arm_nnsupportfunctions.h ****  * @return         The function returns one of the two
 545:Middlewares/tensorflow/third_party/cmsis_nn/Include/arm_nnsupportfunctions.h ****  *                  - Updated output pointer if an implementation is available
 546:Middlewares/tensorflow/third_party/cmsis_nn/Include/arm_nnsupportfunctions.h ****  *                  - NULL if no implementation is available.
 547:Middlewares/tensorflow/third_party/cmsis_nn/Include/arm_nnsupportfunctions.h ****  *
 548:Middlewares/tensorflow/third_party/cmsis_nn/Include/arm_nnsupportfunctions.h ****  * @note           If number of channels is not a multiple of 4, upto 3 elements outside the bounda
 549:Middlewares/tensorflow/third_party/cmsis_nn/Include/arm_nnsupportfunctions.h ****  * out for the following.
 550:Middlewares/tensorflow/third_party/cmsis_nn/Include/arm_nnsupportfunctions.h ****  *                  - Output shift
 551:Middlewares/tensorflow/third_party/cmsis_nn/Include/arm_nnsupportfunctions.h ****  *                  - Output multiplier
 552:Middlewares/tensorflow/third_party/cmsis_nn/Include/arm_nnsupportfunctions.h ****  *                  - Output bias
 553:Middlewares/tensorflow/third_party/cmsis_nn/Include/arm_nnsupportfunctions.h ****  *                  - rhs
 554:Middlewares/tensorflow/third_party/cmsis_nn/Include/arm_nnsupportfunctions.h ****  */
 555:Middlewares/tensorflow/third_party/cmsis_nn/Include/arm_nnsupportfunctions.h **** int16_t *arm_nn_depthwise_conv_nt_t_s16(const int16_t *lhs,
 556:Middlewares/tensorflow/third_party/cmsis_nn/Include/arm_nnsupportfunctions.h ****                                         const int8_t *rhs,
 557:Middlewares/tensorflow/third_party/cmsis_nn/Include/arm_nnsupportfunctions.h ****                                         const uint16_t num_ch,
 558:Middlewares/tensorflow/third_party/cmsis_nn/Include/arm_nnsupportfunctions.h ****                                         const int32_t *out_shift,
 559:Middlewares/tensorflow/third_party/cmsis_nn/Include/arm_nnsupportfunctions.h ****                                         const int32_t *out_mult,
 560:Middlewares/tensorflow/third_party/cmsis_nn/Include/arm_nnsupportfunctions.h ****                                         const int32_t activation_min,
 561:Middlewares/tensorflow/third_party/cmsis_nn/Include/arm_nnsupportfunctions.h ****                                         const int32_t activation_max,
 562:Middlewares/tensorflow/third_party/cmsis_nn/Include/arm_nnsupportfunctions.h ****                                         const uint16_t row_x_col,
 563:Middlewares/tensorflow/third_party/cmsis_nn/Include/arm_nnsupportfunctions.h ****                                         const int64_t *const output_bias,
 564:Middlewares/tensorflow/third_party/cmsis_nn/Include/arm_nnsupportfunctions.h ****                                         int16_t *out);
 565:Middlewares/tensorflow/third_party/cmsis_nn/Include/arm_nnsupportfunctions.h **** 
 566:Middlewares/tensorflow/third_party/cmsis_nn/Include/arm_nnsupportfunctions.h **** /**
 567:Middlewares/tensorflow/third_party/cmsis_nn/Include/arm_nnsupportfunctions.h ****   @brief         Read 2 s16 elements and post increment pointer.
 568:Middlewares/tensorflow/third_party/cmsis_nn/Include/arm_nnsupportfunctions.h ****   @param[in]     in_q15   Pointer to pointer that holds address of input.
 569:Middlewares/tensorflow/third_party/cmsis_nn/Include/arm_nnsupportfunctions.h ****   @return        q31 value
 570:Middlewares/tensorflow/third_party/cmsis_nn/Include/arm_nnsupportfunctions.h ****  */
 571:Middlewares/tensorflow/third_party/cmsis_nn/Include/arm_nnsupportfunctions.h **** __STATIC_FORCEINLINE int32_t arm_nn_read_q15x2_ia(const int16_t **in_q15)
 572:Middlewares/tensorflow/third_party/cmsis_nn/Include/arm_nnsupportfunctions.h **** {
 573:Middlewares/tensorflow/third_party/cmsis_nn/Include/arm_nnsupportfunctions.h ****     int32_t val;
 574:Middlewares/tensorflow/third_party/cmsis_nn/Include/arm_nnsupportfunctions.h **** 
 575:Middlewares/tensorflow/third_party/cmsis_nn/Include/arm_nnsupportfunctions.h ****     memcpy(&val, *in_q15, 4);
ARM GAS  /tmp/ccLiBJQj.s 			page 14


 576:Middlewares/tensorflow/third_party/cmsis_nn/Include/arm_nnsupportfunctions.h ****     *in_q15 += 2;
 577:Middlewares/tensorflow/third_party/cmsis_nn/Include/arm_nnsupportfunctions.h **** 
 578:Middlewares/tensorflow/third_party/cmsis_nn/Include/arm_nnsupportfunctions.h ****     return (val);
 579:Middlewares/tensorflow/third_party/cmsis_nn/Include/arm_nnsupportfunctions.h **** }
 580:Middlewares/tensorflow/third_party/cmsis_nn/Include/arm_nnsupportfunctions.h **** 
 581:Middlewares/tensorflow/third_party/cmsis_nn/Include/arm_nnsupportfunctions.h **** /**
 582:Middlewares/tensorflow/third_party/cmsis_nn/Include/arm_nnsupportfunctions.h ****   @brief         Read 4 s8 from s8 pointer and post increment pointer.
 583:Middlewares/tensorflow/third_party/cmsis_nn/Include/arm_nnsupportfunctions.h ****   @param[in]     in_s8       Pointer to pointer that holds address of input.
 584:Middlewares/tensorflow/third_party/cmsis_nn/Include/arm_nnsupportfunctions.h ****   @return        q31 value
 585:Middlewares/tensorflow/third_party/cmsis_nn/Include/arm_nnsupportfunctions.h ****  */
 586:Middlewares/tensorflow/third_party/cmsis_nn/Include/arm_nnsupportfunctions.h **** __STATIC_FORCEINLINE int32_t arm_nn_read_s8x4_ia(const int8_t **in_s8)
 587:Middlewares/tensorflow/third_party/cmsis_nn/Include/arm_nnsupportfunctions.h **** {
 588:Middlewares/tensorflow/third_party/cmsis_nn/Include/arm_nnsupportfunctions.h ****     int32_t val;
 589:Middlewares/tensorflow/third_party/cmsis_nn/Include/arm_nnsupportfunctions.h ****     memcpy(&val, *in_s8, 4);
 590:Middlewares/tensorflow/third_party/cmsis_nn/Include/arm_nnsupportfunctions.h ****     *in_s8 += 4;
 591:Middlewares/tensorflow/third_party/cmsis_nn/Include/arm_nnsupportfunctions.h **** 
 592:Middlewares/tensorflow/third_party/cmsis_nn/Include/arm_nnsupportfunctions.h ****     return (val);
 593:Middlewares/tensorflow/third_party/cmsis_nn/Include/arm_nnsupportfunctions.h **** }
 594:Middlewares/tensorflow/third_party/cmsis_nn/Include/arm_nnsupportfunctions.h **** 
 595:Middlewares/tensorflow/third_party/cmsis_nn/Include/arm_nnsupportfunctions.h **** /**
 596:Middlewares/tensorflow/third_party/cmsis_nn/Include/arm_nnsupportfunctions.h ****   @brief         Read 2 int16 values from int16 pointer.
 597:Middlewares/tensorflow/third_party/cmsis_nn/Include/arm_nnsupportfunctions.h ****   @param[in]     in     pointer to address of input.
 598:Middlewares/tensorflow/third_party/cmsis_nn/Include/arm_nnsupportfunctions.h ****   @return        s32    value
 599:Middlewares/tensorflow/third_party/cmsis_nn/Include/arm_nnsupportfunctions.h ****  */
 600:Middlewares/tensorflow/third_party/cmsis_nn/Include/arm_nnsupportfunctions.h **** __STATIC_FORCEINLINE int32_t arm_nn_read_s16x2(const int16_t *in)
 601:Middlewares/tensorflow/third_party/cmsis_nn/Include/arm_nnsupportfunctions.h **** {
 602:Middlewares/tensorflow/third_party/cmsis_nn/Include/arm_nnsupportfunctions.h ****     int32_t val;
 603:Middlewares/tensorflow/third_party/cmsis_nn/Include/arm_nnsupportfunctions.h ****     memcpy(&val, in, 4);
 604:Middlewares/tensorflow/third_party/cmsis_nn/Include/arm_nnsupportfunctions.h **** 
 605:Middlewares/tensorflow/third_party/cmsis_nn/Include/arm_nnsupportfunctions.h ****     return (val);
 606:Middlewares/tensorflow/third_party/cmsis_nn/Include/arm_nnsupportfunctions.h **** }
 607:Middlewares/tensorflow/third_party/cmsis_nn/Include/arm_nnsupportfunctions.h **** 
 608:Middlewares/tensorflow/third_party/cmsis_nn/Include/arm_nnsupportfunctions.h **** /**
 609:Middlewares/tensorflow/third_party/cmsis_nn/Include/arm_nnsupportfunctions.h ****   @brief         Read 4 s8 values.
 610:Middlewares/tensorflow/third_party/cmsis_nn/Include/arm_nnsupportfunctions.h ****   @param[in]     in_s8       pointer to address of input.
 611:Middlewares/tensorflow/third_party/cmsis_nn/Include/arm_nnsupportfunctions.h ****   @return        s32 value
 612:Middlewares/tensorflow/third_party/cmsis_nn/Include/arm_nnsupportfunctions.h ****  */
 613:Middlewares/tensorflow/third_party/cmsis_nn/Include/arm_nnsupportfunctions.h **** __STATIC_FORCEINLINE int32_t arm_nn_read_s8x4(const int8_t *in_s8)
 614:Middlewares/tensorflow/third_party/cmsis_nn/Include/arm_nnsupportfunctions.h **** {
 615:Middlewares/tensorflow/third_party/cmsis_nn/Include/arm_nnsupportfunctions.h ****     int32_t val;
 616:Middlewares/tensorflow/third_party/cmsis_nn/Include/arm_nnsupportfunctions.h ****     memcpy(&val, in_s8, 4);
 617:Middlewares/tensorflow/third_party/cmsis_nn/Include/arm_nnsupportfunctions.h **** 
 618:Middlewares/tensorflow/third_party/cmsis_nn/Include/arm_nnsupportfunctions.h ****     return (val);
 619:Middlewares/tensorflow/third_party/cmsis_nn/Include/arm_nnsupportfunctions.h **** }
 620:Middlewares/tensorflow/third_party/cmsis_nn/Include/arm_nnsupportfunctions.h **** 
 621:Middlewares/tensorflow/third_party/cmsis_nn/Include/arm_nnsupportfunctions.h **** /**
 622:Middlewares/tensorflow/third_party/cmsis_nn/Include/arm_nnsupportfunctions.h ****   @brief         Write four s8 to s8 pointer and increment pointer afterwards.
 623:Middlewares/tensorflow/third_party/cmsis_nn/Include/arm_nnsupportfunctions.h ****   @param[in]     in       Double pointer to input value
 624:Middlewares/tensorflow/third_party/cmsis_nn/Include/arm_nnsupportfunctions.h ****   @param[in]     value    Four bytes to copy
 625:Middlewares/tensorflow/third_party/cmsis_nn/Include/arm_nnsupportfunctions.h ****  */
 626:Middlewares/tensorflow/third_party/cmsis_nn/Include/arm_nnsupportfunctions.h **** __STATIC_FORCEINLINE void arm_nn_write_s8x4_ia(int8_t **in, int32_t value)
 627:Middlewares/tensorflow/third_party/cmsis_nn/Include/arm_nnsupportfunctions.h **** {
 628:Middlewares/tensorflow/third_party/cmsis_nn/Include/arm_nnsupportfunctions.h ****     memcpy(*in, &value, 4);
 629:Middlewares/tensorflow/third_party/cmsis_nn/Include/arm_nnsupportfunctions.h ****     *in += 4;
 630:Middlewares/tensorflow/third_party/cmsis_nn/Include/arm_nnsupportfunctions.h **** }
 631:Middlewares/tensorflow/third_party/cmsis_nn/Include/arm_nnsupportfunctions.h **** 
 632:Middlewares/tensorflow/third_party/cmsis_nn/Include/arm_nnsupportfunctions.h **** /**
ARM GAS  /tmp/ccLiBJQj.s 			page 15


 633:Middlewares/tensorflow/third_party/cmsis_nn/Include/arm_nnsupportfunctions.h ****  * @brief           memset optimized for MVE
 634:Middlewares/tensorflow/third_party/cmsis_nn/Include/arm_nnsupportfunctions.h ****  * @param[in, out]  dst         Destination pointer
 635:Middlewares/tensorflow/third_party/cmsis_nn/Include/arm_nnsupportfunctions.h ****  * @param[in]       val         Value to set
 636:Middlewares/tensorflow/third_party/cmsis_nn/Include/arm_nnsupportfunctions.h ****  * @param[in]       block_size  Number of bytes to copy.
 637:Middlewares/tensorflow/third_party/cmsis_nn/Include/arm_nnsupportfunctions.h ****  *
 638:Middlewares/tensorflow/third_party/cmsis_nn/Include/arm_nnsupportfunctions.h ****  */
 639:Middlewares/tensorflow/third_party/cmsis_nn/Include/arm_nnsupportfunctions.h **** __STATIC_FORCEINLINE void arm_memset_s8(int8_t *dst, const int8_t val, uint32_t block_size)
 640:Middlewares/tensorflow/third_party/cmsis_nn/Include/arm_nnsupportfunctions.h **** {
 641:Middlewares/tensorflow/third_party/cmsis_nn/Include/arm_nnsupportfunctions.h **** #if defined(ARM_MATH_MVEI)
 642:Middlewares/tensorflow/third_party/cmsis_nn/Include/arm_nnsupportfunctions.h ****     __asm volatile("   vdup.8                  q0, %[set_val]             \n"
 643:Middlewares/tensorflow/third_party/cmsis_nn/Include/arm_nnsupportfunctions.h ****                    "   wlstp.8                 lr, %[cnt], 1f             \n"
 644:Middlewares/tensorflow/third_party/cmsis_nn/Include/arm_nnsupportfunctions.h ****                    "2:                                                    \n"
 645:Middlewares/tensorflow/third_party/cmsis_nn/Include/arm_nnsupportfunctions.h ****                    "   vstrb.8                 q0, [%[in]], #16            \n"
 646:Middlewares/tensorflow/third_party/cmsis_nn/Include/arm_nnsupportfunctions.h ****                    "   letp                    lr, 2b                     \n"
 647:Middlewares/tensorflow/third_party/cmsis_nn/Include/arm_nnsupportfunctions.h ****                    "1:                                                    \n"
 648:Middlewares/tensorflow/third_party/cmsis_nn/Include/arm_nnsupportfunctions.h ****                    : [in] "+r"(dst)
 649:Middlewares/tensorflow/third_party/cmsis_nn/Include/arm_nnsupportfunctions.h ****                    : [cnt] "r"(block_size), [set_val] "r"(val)
 650:Middlewares/tensorflow/third_party/cmsis_nn/Include/arm_nnsupportfunctions.h ****                    : "q0", "memory", "r14");
 651:Middlewares/tensorflow/third_party/cmsis_nn/Include/arm_nnsupportfunctions.h **** #else
 652:Middlewares/tensorflow/third_party/cmsis_nn/Include/arm_nnsupportfunctions.h ****     memset(dst, val, block_size);
 653:Middlewares/tensorflow/third_party/cmsis_nn/Include/arm_nnsupportfunctions.h **** #endif
 654:Middlewares/tensorflow/third_party/cmsis_nn/Include/arm_nnsupportfunctions.h **** }
 655:Middlewares/tensorflow/third_party/cmsis_nn/Include/arm_nnsupportfunctions.h **** 
 656:Middlewares/tensorflow/third_party/cmsis_nn/Include/arm_nnsupportfunctions.h **** #if defined(ARM_MATH_DSP)
 657:Middlewares/tensorflow/third_party/cmsis_nn/Include/arm_nnsupportfunctions.h **** 
 658:Middlewares/tensorflow/third_party/cmsis_nn/Include/arm_nnsupportfunctions.h **** /**
 659:Middlewares/tensorflow/third_party/cmsis_nn/Include/arm_nnsupportfunctions.h ****  * @brief read and expand one s8 word into two s16 words
 660:Middlewares/tensorflow/third_party/cmsis_nn/Include/arm_nnsupportfunctions.h ****  */
 661:Middlewares/tensorflow/third_party/cmsis_nn/Include/arm_nnsupportfunctions.h **** 
 662:Middlewares/tensorflow/third_party/cmsis_nn/Include/arm_nnsupportfunctions.h **** __STATIC_FORCEINLINE const int8_t *read_and_pad(const int8_t *source, int32_t *out1, int32_t *out2)
 663:Middlewares/tensorflow/third_party/cmsis_nn/Include/arm_nnsupportfunctions.h **** {
 664:Middlewares/tensorflow/third_party/cmsis_nn/Include/arm_nnsupportfunctions.h ****     int32_t inA = arm_nn_read_s8x4_ia(&source);
 665:Middlewares/tensorflow/third_party/cmsis_nn/Include/arm_nnsupportfunctions.h ****     int32_t inAbuf1 = SXTB16_RORn((uint32_t)inA, 8);
 666:Middlewares/tensorflow/third_party/cmsis_nn/Include/arm_nnsupportfunctions.h ****     int32_t inAbuf2 = SXTB16(inA);
 667:Middlewares/tensorflow/third_party/cmsis_nn/Include/arm_nnsupportfunctions.h **** 
 668:Middlewares/tensorflow/third_party/cmsis_nn/Include/arm_nnsupportfunctions.h ****     #ifndef ARM_MATH_BIG_ENDIAN
 669:Middlewares/tensorflow/third_party/cmsis_nn/Include/arm_nnsupportfunctions.h ****     *out2 = (int32_t)(PKHTB(inAbuf1, inAbuf2, 16));
 670:Middlewares/tensorflow/third_party/cmsis_nn/Include/arm_nnsupportfunctions.h ****     *out1 = (int32_t)(PKHBT(inAbuf2, inAbuf1, 16));
 671:Middlewares/tensorflow/third_party/cmsis_nn/Include/arm_nnsupportfunctions.h ****     #else
 672:Middlewares/tensorflow/third_party/cmsis_nn/Include/arm_nnsupportfunctions.h ****     *out1 = (int32_t)(PKHTB(inAbuf1, inAbuf2, 16));
 673:Middlewares/tensorflow/third_party/cmsis_nn/Include/arm_nnsupportfunctions.h ****     *out2 = (int32_t)(PKHBT(inAbuf2, inAbuf1, 16));
 674:Middlewares/tensorflow/third_party/cmsis_nn/Include/arm_nnsupportfunctions.h ****     #endif
 675:Middlewares/tensorflow/third_party/cmsis_nn/Include/arm_nnsupportfunctions.h **** 
 676:Middlewares/tensorflow/third_party/cmsis_nn/Include/arm_nnsupportfunctions.h ****     return source;
 677:Middlewares/tensorflow/third_party/cmsis_nn/Include/arm_nnsupportfunctions.h **** }
 678:Middlewares/tensorflow/third_party/cmsis_nn/Include/arm_nnsupportfunctions.h **** 
 679:Middlewares/tensorflow/third_party/cmsis_nn/Include/arm_nnsupportfunctions.h **** /**
 680:Middlewares/tensorflow/third_party/cmsis_nn/Include/arm_nnsupportfunctions.h ****  * @brief read and expand one s8 word into two s16 words with reordering
 681:Middlewares/tensorflow/third_party/cmsis_nn/Include/arm_nnsupportfunctions.h ****  */
 682:Middlewares/tensorflow/third_party/cmsis_nn/Include/arm_nnsupportfunctions.h **** 
 683:Middlewares/tensorflow/third_party/cmsis_nn/Include/arm_nnsupportfunctions.h **** __STATIC_FORCEINLINE const int8_t *read_and_pad_reordered(const int8_t *source, int32_t *out1, int3
 684:Middlewares/tensorflow/third_party/cmsis_nn/Include/arm_nnsupportfunctions.h **** {
 685:Middlewares/tensorflow/third_party/cmsis_nn/Include/arm_nnsupportfunctions.h ****     int32_t inA = arm_nn_read_s8x4_ia(&source);
 686:Middlewares/tensorflow/third_party/cmsis_nn/Include/arm_nnsupportfunctions.h ****     #ifndef ARM_MATH_BIG_ENDIAN
 687:Middlewares/tensorflow/third_party/cmsis_nn/Include/arm_nnsupportfunctions.h ****     *out2 = SXTB16(ROR((uint32_t)inA, 8));
 688:Middlewares/tensorflow/third_party/cmsis_nn/Include/arm_nnsupportfunctions.h ****     *out1 = SXTB16(inA);
 689:Middlewares/tensorflow/third_party/cmsis_nn/Include/arm_nnsupportfunctions.h ****     #else
ARM GAS  /tmp/ccLiBJQj.s 			page 16


 690:Middlewares/tensorflow/third_party/cmsis_nn/Include/arm_nnsupportfunctions.h ****     *out1 = SXTB16(ROR((uint32_t)inA, 8));
 691:Middlewares/tensorflow/third_party/cmsis_nn/Include/arm_nnsupportfunctions.h ****     *out2 = SXTB16(inA);
 692:Middlewares/tensorflow/third_party/cmsis_nn/Include/arm_nnsupportfunctions.h ****     #endif
 693:Middlewares/tensorflow/third_party/cmsis_nn/Include/arm_nnsupportfunctions.h **** 
 694:Middlewares/tensorflow/third_party/cmsis_nn/Include/arm_nnsupportfunctions.h ****     return source;
 695:Middlewares/tensorflow/third_party/cmsis_nn/Include/arm_nnsupportfunctions.h **** }
 696:Middlewares/tensorflow/third_party/cmsis_nn/Include/arm_nnsupportfunctions.h **** 
 697:Middlewares/tensorflow/third_party/cmsis_nn/Include/arm_nnsupportfunctions.h **** #endif
 698:Middlewares/tensorflow/third_party/cmsis_nn/Include/arm_nnsupportfunctions.h **** 
 699:Middlewares/tensorflow/third_party/cmsis_nn/Include/arm_nnsupportfunctions.h **** /**
 700:Middlewares/tensorflow/third_party/cmsis_nn/Include/arm_nnsupportfunctions.h ****  * @brief Matrix-multiplication function for convolution with per-channel requantization.
 701:Middlewares/tensorflow/third_party/cmsis_nn/Include/arm_nnsupportfunctions.h ****  * @param[in]       input_a     pointer to operand A
 702:Middlewares/tensorflow/third_party/cmsis_nn/Include/arm_nnsupportfunctions.h ****  * @param[in]       input_b     pointer to operand B, always consists of 2 vectors.
 703:Middlewares/tensorflow/third_party/cmsis_nn/Include/arm_nnsupportfunctions.h ****  * @param[in]       output_ch   number of rows of A
 704:Middlewares/tensorflow/third_party/cmsis_nn/Include/arm_nnsupportfunctions.h ****  * @param[in]       out_shift  pointer to per output channel requantization shift parameter.
 705:Middlewares/tensorflow/third_party/cmsis_nn/Include/arm_nnsupportfunctions.h ****  * @param[in]       out_mult   pointer to per output channel requantization multiplier parameter.
 706:Middlewares/tensorflow/third_party/cmsis_nn/Include/arm_nnsupportfunctions.h ****  * @param[in]       out_offset      output tensor offset.
 707:Middlewares/tensorflow/third_party/cmsis_nn/Include/arm_nnsupportfunctions.h ****  * @param[in]       activation_min   minimum value to clamp the output to. Range : int8
 708:Middlewares/tensorflow/third_party/cmsis_nn/Include/arm_nnsupportfunctions.h ****  * @param[in]       activation_max   maximum value to clamp the output to. Range : int8
 709:Middlewares/tensorflow/third_party/cmsis_nn/Include/arm_nnsupportfunctions.h ****  * @param[in]       num_col_a   number of columns of A
 710:Middlewares/tensorflow/third_party/cmsis_nn/Include/arm_nnsupportfunctions.h ****  * @param[in]       output_bias per output channel bias. Range : int32
 711:Middlewares/tensorflow/third_party/cmsis_nn/Include/arm_nnsupportfunctions.h ****  * @param[in,out]   out_0       pointer to output
 712:Middlewares/tensorflow/third_party/cmsis_nn/Include/arm_nnsupportfunctions.h ****  * @return     The function returns one of the two
 713:Middlewares/tensorflow/third_party/cmsis_nn/Include/arm_nnsupportfunctions.h ****  *              1. The incremented output pointer for a successful operation or
 714:Middlewares/tensorflow/third_party/cmsis_nn/Include/arm_nnsupportfunctions.h ****  *              2. NULL if implementation is not available.
 715:Middlewares/tensorflow/third_party/cmsis_nn/Include/arm_nnsupportfunctions.h ****  *
 716:Middlewares/tensorflow/third_party/cmsis_nn/Include/arm_nnsupportfunctions.h ****  * @details   This function does the matrix multiplication of weight matrix for all output channels
 717:Middlewares/tensorflow/third_party/cmsis_nn/Include/arm_nnsupportfunctions.h ****  *            with 2 columns from im2col and produces two elements/output_channel. The outputs are
 718:Middlewares/tensorflow/third_party/cmsis_nn/Include/arm_nnsupportfunctions.h ****  *            clamped in the range provided by activation min and max.
 719:Middlewares/tensorflow/third_party/cmsis_nn/Include/arm_nnsupportfunctions.h ****  *            Supported framework: TensorFlow Lite micro.
 720:Middlewares/tensorflow/third_party/cmsis_nn/Include/arm_nnsupportfunctions.h ****  */
 721:Middlewares/tensorflow/third_party/cmsis_nn/Include/arm_nnsupportfunctions.h **** int8_t *arm_nn_mat_mult_kernel_s8_s16(const int8_t *input_a,
 722:Middlewares/tensorflow/third_party/cmsis_nn/Include/arm_nnsupportfunctions.h ****                                       const int16_t *input_b,
 723:Middlewares/tensorflow/third_party/cmsis_nn/Include/arm_nnsupportfunctions.h ****                                       const uint16_t output_ch,
 724:Middlewares/tensorflow/third_party/cmsis_nn/Include/arm_nnsupportfunctions.h ****                                       const int32_t *out_shift,
 725:Middlewares/tensorflow/third_party/cmsis_nn/Include/arm_nnsupportfunctions.h ****                                       const int32_t *out_mult,
 726:Middlewares/tensorflow/third_party/cmsis_nn/Include/arm_nnsupportfunctions.h ****                                       const int32_t out_offset,
 727:Middlewares/tensorflow/third_party/cmsis_nn/Include/arm_nnsupportfunctions.h ****                                       const int16_t activation_min,
 728:Middlewares/tensorflow/third_party/cmsis_nn/Include/arm_nnsupportfunctions.h ****                                       const int16_t activation_max,
 729:Middlewares/tensorflow/third_party/cmsis_nn/Include/arm_nnsupportfunctions.h ****                                       const uint16_t num_col_a,
 730:Middlewares/tensorflow/third_party/cmsis_nn/Include/arm_nnsupportfunctions.h ****                                       const int32_t *const output_bias,
 731:Middlewares/tensorflow/third_party/cmsis_nn/Include/arm_nnsupportfunctions.h ****                                       int8_t *out_0);
 732:Middlewares/tensorflow/third_party/cmsis_nn/Include/arm_nnsupportfunctions.h **** 
 733:Middlewares/tensorflow/third_party/cmsis_nn/Include/arm_nnsupportfunctions.h **** /**
 734:Middlewares/tensorflow/third_party/cmsis_nn/Include/arm_nnsupportfunctions.h ****  * @brief Common softmax function for s8 input and s8 or s16 output
 735:Middlewares/tensorflow/third_party/cmsis_nn/Include/arm_nnsupportfunctions.h ****  * @param[in]  input          Pointer to the input tensor
 736:Middlewares/tensorflow/third_party/cmsis_nn/Include/arm_nnsupportfunctions.h ****  * @param[in]  num_rows       Number of rows in the input tensor
 737:Middlewares/tensorflow/third_party/cmsis_nn/Include/arm_nnsupportfunctions.h ****  * @param[in]  row_size       Number of elements in each input row
 738:Middlewares/tensorflow/third_party/cmsis_nn/Include/arm_nnsupportfunctions.h ****  * @param[in]  mult           Input quantization multiplier
 739:Middlewares/tensorflow/third_party/cmsis_nn/Include/arm_nnsupportfunctions.h ****  * @param[in]  shift          Input quantization shift within the range [0, 31]
 740:Middlewares/tensorflow/third_party/cmsis_nn/Include/arm_nnsupportfunctions.h ****  * @param[in]  diff_min       Minimum difference with max in row. Used to check if
 741:Middlewares/tensorflow/third_party/cmsis_nn/Include/arm_nnsupportfunctions.h ****  *                            the quantized exponential operation can be performed
 742:Middlewares/tensorflow/third_party/cmsis_nn/Include/arm_nnsupportfunctions.h ****  * @param[in]  int16_output   Indicating s8 output if 0 else s16 output
 743:Middlewares/tensorflow/third_party/cmsis_nn/Include/arm_nnsupportfunctions.h ****  * @param[out] output         Pointer to the output tensor
 744:Middlewares/tensorflow/third_party/cmsis_nn/Include/arm_nnsupportfunctions.h ****  *
 745:Middlewares/tensorflow/third_party/cmsis_nn/Include/arm_nnsupportfunctions.h ****  * @note Supported framework: TensorFlow Lite micro (bit-accurate)
 746:Middlewares/tensorflow/third_party/cmsis_nn/Include/arm_nnsupportfunctions.h ****  *
ARM GAS  /tmp/ccLiBJQj.s 			page 17


 747:Middlewares/tensorflow/third_party/cmsis_nn/Include/arm_nnsupportfunctions.h ****  */
 748:Middlewares/tensorflow/third_party/cmsis_nn/Include/arm_nnsupportfunctions.h **** void arm_nn_softmax_common_s8(const int8_t *input,
 749:Middlewares/tensorflow/third_party/cmsis_nn/Include/arm_nnsupportfunctions.h ****                               const int32_t num_rows,
 750:Middlewares/tensorflow/third_party/cmsis_nn/Include/arm_nnsupportfunctions.h ****                               const int32_t row_size,
 751:Middlewares/tensorflow/third_party/cmsis_nn/Include/arm_nnsupportfunctions.h ****                               const int32_t mult,
 752:Middlewares/tensorflow/third_party/cmsis_nn/Include/arm_nnsupportfunctions.h ****                               const int32_t shift,
 753:Middlewares/tensorflow/third_party/cmsis_nn/Include/arm_nnsupportfunctions.h ****                               const int32_t diff_min,
 754:Middlewares/tensorflow/third_party/cmsis_nn/Include/arm_nnsupportfunctions.h ****                               const bool int16_output,
 755:Middlewares/tensorflow/third_party/cmsis_nn/Include/arm_nnsupportfunctions.h ****                               void *output);
 756:Middlewares/tensorflow/third_party/cmsis_nn/Include/arm_nnsupportfunctions.h **** 
 757:Middlewares/tensorflow/third_party/cmsis_nn/Include/arm_nnsupportfunctions.h **** /**
 758:Middlewares/tensorflow/third_party/cmsis_nn/Include/arm_nnsupportfunctions.h ****  * @brief macro for adding rounding offset
 759:Middlewares/tensorflow/third_party/cmsis_nn/Include/arm_nnsupportfunctions.h ****  */
 760:Middlewares/tensorflow/third_party/cmsis_nn/Include/arm_nnsupportfunctions.h **** #ifndef ARM_NN_TRUNCATE
 761:Middlewares/tensorflow/third_party/cmsis_nn/Include/arm_nnsupportfunctions.h ****     #define NN_ROUND(out_shift) ((0x1 << out_shift) >> 1)
 762:Middlewares/tensorflow/third_party/cmsis_nn/Include/arm_nnsupportfunctions.h **** #else
 763:Middlewares/tensorflow/third_party/cmsis_nn/Include/arm_nnsupportfunctions.h ****     #define NN_ROUND(out_shift) 0
 764:Middlewares/tensorflow/third_party/cmsis_nn/Include/arm_nnsupportfunctions.h **** #endif
 765:Middlewares/tensorflow/third_party/cmsis_nn/Include/arm_nnsupportfunctions.h **** 
 766:Middlewares/tensorflow/third_party/cmsis_nn/Include/arm_nnsupportfunctions.h **** // Macros for shortening quantization functions' names and avoid long lines
 767:Middlewares/tensorflow/third_party/cmsis_nn/Include/arm_nnsupportfunctions.h **** #define MUL_SAT(a, b) arm_nn_doubling_high_mult((a), (b))
 768:Middlewares/tensorflow/third_party/cmsis_nn/Include/arm_nnsupportfunctions.h **** #define MUL_SAT_MVE(a, b) arm_doubling_high_mult_mve_32x4((a), (b))
 769:Middlewares/tensorflow/third_party/cmsis_nn/Include/arm_nnsupportfunctions.h **** #define MUL_POW2(a, b) arm_nn_mult_by_power_of_two((a), (b))
 770:Middlewares/tensorflow/third_party/cmsis_nn/Include/arm_nnsupportfunctions.h **** 
 771:Middlewares/tensorflow/third_party/cmsis_nn/Include/arm_nnsupportfunctions.h **** #define DIV_POW2(a, b) arm_nn_divide_by_power_of_two((a), (b))
 772:Middlewares/tensorflow/third_party/cmsis_nn/Include/arm_nnsupportfunctions.h **** #define DIV_POW2_MVE(a, b) arm_divide_by_power_of_two_mve((a), (b))
 773:Middlewares/tensorflow/third_party/cmsis_nn/Include/arm_nnsupportfunctions.h **** 
 774:Middlewares/tensorflow/third_party/cmsis_nn/Include/arm_nnsupportfunctions.h **** #define EXP_ON_NEG(x) arm_nn_exp_on_negative_values((x))
 775:Middlewares/tensorflow/third_party/cmsis_nn/Include/arm_nnsupportfunctions.h **** #define ONE_OVER1(x) arm_nn_one_over_one_plus_x_for_x_in_0_1((x))
 776:Middlewares/tensorflow/third_party/cmsis_nn/Include/arm_nnsupportfunctions.h **** 
 777:Middlewares/tensorflow/third_party/cmsis_nn/Include/arm_nnsupportfunctions.h **** /**
 778:Middlewares/tensorflow/third_party/cmsis_nn/Include/arm_nnsupportfunctions.h ****  * @brief           Saturating doubling high multiply. Result matches
 779:Middlewares/tensorflow/third_party/cmsis_nn/Include/arm_nnsupportfunctions.h ****  *                  NEON instruction VQRDMULH.
 780:Middlewares/tensorflow/third_party/cmsis_nn/Include/arm_nnsupportfunctions.h ****  * @param[in]       m1        Multiplicand. Range: {NN_Q31_MIN, NN_Q31_MAX}
 781:Middlewares/tensorflow/third_party/cmsis_nn/Include/arm_nnsupportfunctions.h ****  * @param[in]       m2        Multiplier. Range: {NN_Q31_MIN, NN_Q31_MAX}
 782:Middlewares/tensorflow/third_party/cmsis_nn/Include/arm_nnsupportfunctions.h ****  * @return          Result of multiplication.
 783:Middlewares/tensorflow/third_party/cmsis_nn/Include/arm_nnsupportfunctions.h ****  *
 784:Middlewares/tensorflow/third_party/cmsis_nn/Include/arm_nnsupportfunctions.h ****  */
 785:Middlewares/tensorflow/third_party/cmsis_nn/Include/arm_nnsupportfunctions.h **** __STATIC_FORCEINLINE int32_t arm_nn_doubling_high_mult(const int32_t m1, const int32_t m2)
 786:Middlewares/tensorflow/third_party/cmsis_nn/Include/arm_nnsupportfunctions.h **** {
 787:Middlewares/tensorflow/third_party/cmsis_nn/Include/arm_nnsupportfunctions.h ****     int32_t result = 0;
 788:Middlewares/tensorflow/third_party/cmsis_nn/Include/arm_nnsupportfunctions.h ****     // Rounding offset to add for a right shift of 31
 789:Middlewares/tensorflow/third_party/cmsis_nn/Include/arm_nnsupportfunctions.h ****     int64_t mult = 1 << 30;
  85              		.loc 2 789 13 view .LVU12
  86 002c 4FF08040 		mov	r0, #1073741824
  87 0030 0024     		movs	r4, #0
  88 0032 01E1     		b	.L7
  89              	.LVL5:
  90              	.L326:
 790:Middlewares/tensorflow/third_party/cmsis_nn/Include/arm_nnsupportfunctions.h **** 
 791:Middlewares/tensorflow/third_party/cmsis_nn/Include/arm_nnsupportfunctions.h ****     if ((m1 < 0) ^ (m2 < 0))
 792:Middlewares/tensorflow/third_party/cmsis_nn/Include/arm_nnsupportfunctions.h ****     {
 793:Middlewares/tensorflow/third_party/cmsis_nn/Include/arm_nnsupportfunctions.h ****         mult = 1 - mult;
 794:Middlewares/tensorflow/third_party/cmsis_nn/Include/arm_nnsupportfunctions.h ****     }
 795:Middlewares/tensorflow/third_party/cmsis_nn/Include/arm_nnsupportfunctions.h ****     // Gets resolved as a SMLAL instruction
 796:Middlewares/tensorflow/third_party/cmsis_nn/Include/arm_nnsupportfunctions.h ****     mult = mult + (int64_t)m1 * m2;
 797:Middlewares/tensorflow/third_party/cmsis_nn/Include/arm_nnsupportfunctions.h **** 
ARM GAS  /tmp/ccLiBJQj.s 			page 18


 798:Middlewares/tensorflow/third_party/cmsis_nn/Include/arm_nnsupportfunctions.h ****     // Utilize all of the upper 32 bits. This is the doubling step
 799:Middlewares/tensorflow/third_party/cmsis_nn/Include/arm_nnsupportfunctions.h ****     // as well.
 800:Middlewares/tensorflow/third_party/cmsis_nn/Include/arm_nnsupportfunctions.h ****     result = (int32_t)(mult / (1ll << 31));
  91              		.loc 2 800 29 view .LVU13
  92 0034 6FF00043 		mvn	r3, #-2147483648
  93 0038 E318     		adds	r3, r4, r3
  94 003a 4FF00009 		mov	r9, #0
  95 003e 45EB0909 		adc	r9, r5, r9
  96 0042 10E1     		b	.L8
  97              	.LVL6:
  98              	.L327:
 801:Middlewares/tensorflow/third_party/cmsis_nn/Include/arm_nnsupportfunctions.h **** 
 802:Middlewares/tensorflow/third_party/cmsis_nn/Include/arm_nnsupportfunctions.h ****     if ((m1 == m2) && (m1 == (int32_t)NN_Q31_MIN))
  99              		.loc 2 802 20 view .LVU14
 100 0044 B1F1004F 		cmp	r1, #-2147483648
 101 0048 40F01481 		bne	.L9
 803:Middlewares/tensorflow/third_party/cmsis_nn/Include/arm_nnsupportfunctions.h ****     {
 804:Middlewares/tensorflow/third_party/cmsis_nn/Include/arm_nnsupportfunctions.h ****         result = NN_Q31_MAX;
 102              		.loc 2 804 16 view .LVU15
 103 004c 6FF00043 		mvn	r3, #-2147483648
 104              	.LVL7:
 105              		.loc 2 804 16 view .LVU16
 106 0050 0493     		str	r3, [sp, #16]
 107              	.LVL8:
 108              		.loc 2 804 16 view .LVU17
 109 0052 0FE1     		b	.L9
 110              	.LVL9:
 111              	.L328:
 112              		.loc 2 804 16 view .LVU18
 113              	.LBE191:
 114              	.LBE190:
 115              	.LBB193:
 116              	.LBB194:
 117              	.LBB195:
 118              	.LBB196:
 800:Middlewares/tensorflow/third_party/cmsis_nn/Include/arm_nnsupportfunctions.h **** 
 119              		.loc 2 800 29 view .LVU19
 120 0054 6FF00040 		mvn	r0, #-2147483648
 121 0058 2018     		adds	r0, r4, r0
 122 005a 4FF00003 		mov	r3, #0
 123 005e 45EB0303 		adc	r3, r5, r3
 124 0062 27E1     		b	.L10
 125              	.LVL10:
 126              	.L329:
 800:Middlewares/tensorflow/third_party/cmsis_nn/Include/arm_nnsupportfunctions.h **** 
 127              		.loc 2 800 29 view .LVU20
 128              	.LBE196:
 129              	.LBE195:
 130              	.LBB198:
 131              	.LBB199:
 132 0064 6FF00040 		mvn	r0, #-2147483648
 133 0068 3018     		adds	r0, r6, r0
 134 006a 4FF00001 		mov	r1, #0
 135 006e 47EB010E 		adc	lr, r7, r1
 136 0072 3AE1     		b	.L11
 137              	.LVL11:
 138              	.L330:
ARM GAS  /tmp/ccLiBJQj.s 			page 19


 139              		.loc 2 804 16 view .LVU21
 140 0074 6FF00041 		mvn	r1, #-2147483648
 141              	.LVL12:
 142              		.loc 2 804 16 view .LVU22
 143 0078 3EE1     		b	.L12
 144              	.LVL13:
 145              	.L213:
 146              		.loc 2 804 16 view .LVU23
 147              	.LBE199:
 148              	.LBE198:
 149              	.LBB201:
 150              	.LBB202:
 805:Middlewares/tensorflow/third_party/cmsis_nn/Include/arm_nnsupportfunctions.h ****     }
 806:Middlewares/tensorflow/third_party/cmsis_nn/Include/arm_nnsupportfunctions.h ****     return result;
 807:Middlewares/tensorflow/third_party/cmsis_nn/Include/arm_nnsupportfunctions.h **** }
 808:Middlewares/tensorflow/third_party/cmsis_nn/Include/arm_nnsupportfunctions.h **** 
 809:Middlewares/tensorflow/third_party/cmsis_nn/Include/arm_nnsupportfunctions.h **** /**
 810:Middlewares/tensorflow/third_party/cmsis_nn/Include/arm_nnsupportfunctions.h ****  * @brief           Doubling high multiply without saturation. This is intended
 811:Middlewares/tensorflow/third_party/cmsis_nn/Include/arm_nnsupportfunctions.h ****  *                  for requantization where the scale is a positive integer
 812:Middlewares/tensorflow/third_party/cmsis_nn/Include/arm_nnsupportfunctions.h ****  *
 813:Middlewares/tensorflow/third_party/cmsis_nn/Include/arm_nnsupportfunctions.h ****  * @param[in]       m1        Multiplicand. Range: {NN_Q31_MIN, NN_Q31_MAX}
 814:Middlewares/tensorflow/third_party/cmsis_nn/Include/arm_nnsupportfunctions.h ****  * @param[in]       m2        Multiplier Range: {NN_Q31_MIN, NN_Q31_MAX}
 815:Middlewares/tensorflow/third_party/cmsis_nn/Include/arm_nnsupportfunctions.h ****  * @return          Result of multiplication.
 816:Middlewares/tensorflow/third_party/cmsis_nn/Include/arm_nnsupportfunctions.h ****  * @note            The result of this matches that of neon instruction
 817:Middlewares/tensorflow/third_party/cmsis_nn/Include/arm_nnsupportfunctions.h ****  *                  VQRDMULH for m1 in range {NN_Q31_MIN, NN_Q31_MAX} and m2 in
 818:Middlewares/tensorflow/third_party/cmsis_nn/Include/arm_nnsupportfunctions.h ****  *                  range {NN_Q31_MIN + 1, NN_Q31_MAX}. Saturation occurs when
 819:Middlewares/tensorflow/third_party/cmsis_nn/Include/arm_nnsupportfunctions.h ****  *                  m1 equals m2 equals NN_Q31_MIN and that is not handled by
 820:Middlewares/tensorflow/third_party/cmsis_nn/Include/arm_nnsupportfunctions.h ****  *                  this function.
 821:Middlewares/tensorflow/third_party/cmsis_nn/Include/arm_nnsupportfunctions.h ****  *
 822:Middlewares/tensorflow/third_party/cmsis_nn/Include/arm_nnsupportfunctions.h ****  */
 823:Middlewares/tensorflow/third_party/cmsis_nn/Include/arm_nnsupportfunctions.h **** __STATIC_FORCEINLINE int32_t arm_nn_doubling_high_mult_no_sat(const int32_t m1, const int32_t m2)
 824:Middlewares/tensorflow/third_party/cmsis_nn/Include/arm_nnsupportfunctions.h **** {
 825:Middlewares/tensorflow/third_party/cmsis_nn/Include/arm_nnsupportfunctions.h ****     int32_t result = 0;
 826:Middlewares/tensorflow/third_party/cmsis_nn/Include/arm_nnsupportfunctions.h ****     union arm_nn_long_long mult;
 827:Middlewares/tensorflow/third_party/cmsis_nn/Include/arm_nnsupportfunctions.h **** 
 828:Middlewares/tensorflow/third_party/cmsis_nn/Include/arm_nnsupportfunctions.h ****     // Rounding offset to add for a right shift of 31
 829:Middlewares/tensorflow/third_party/cmsis_nn/Include/arm_nnsupportfunctions.h ****     mult.word.low = 1 << 30;
 830:Middlewares/tensorflow/third_party/cmsis_nn/Include/arm_nnsupportfunctions.h ****     mult.word.high = 0;
 831:Middlewares/tensorflow/third_party/cmsis_nn/Include/arm_nnsupportfunctions.h **** 
 832:Middlewares/tensorflow/third_party/cmsis_nn/Include/arm_nnsupportfunctions.h ****     // Gets resolved as a SMLAL instruction
 833:Middlewares/tensorflow/third_party/cmsis_nn/Include/arm_nnsupportfunctions.h ****     mult.long_long = mult.long_long + (int64_t)m1 * m2;
 834:Middlewares/tensorflow/third_party/cmsis_nn/Include/arm_nnsupportfunctions.h **** 
 835:Middlewares/tensorflow/third_party/cmsis_nn/Include/arm_nnsupportfunctions.h ****     // Utilize all of the upper 32 bits. This is the doubling step
 836:Middlewares/tensorflow/third_party/cmsis_nn/Include/arm_nnsupportfunctions.h ****     // as well.
 837:Middlewares/tensorflow/third_party/cmsis_nn/Include/arm_nnsupportfunctions.h ****     result = (int32_t)(mult.long_long >> 31);
 838:Middlewares/tensorflow/third_party/cmsis_nn/Include/arm_nnsupportfunctions.h **** 
 839:Middlewares/tensorflow/third_party/cmsis_nn/Include/arm_nnsupportfunctions.h ****     return result;
 840:Middlewares/tensorflow/third_party/cmsis_nn/Include/arm_nnsupportfunctions.h **** }
 841:Middlewares/tensorflow/third_party/cmsis_nn/Include/arm_nnsupportfunctions.h **** 
 842:Middlewares/tensorflow/third_party/cmsis_nn/Include/arm_nnsupportfunctions.h **** /**
 843:Middlewares/tensorflow/third_party/cmsis_nn/Include/arm_nnsupportfunctions.h ****  * @brief           Rounding divide by power of two.
 844:Middlewares/tensorflow/third_party/cmsis_nn/Include/arm_nnsupportfunctions.h ****  * @param[in]       dividend - Dividend
 845:Middlewares/tensorflow/third_party/cmsis_nn/Include/arm_nnsupportfunctions.h ****  * @param[in]       exponent - Divisor = power(2, exponent)
 846:Middlewares/tensorflow/third_party/cmsis_nn/Include/arm_nnsupportfunctions.h ****  *                             Range: [0, 31]
 847:Middlewares/tensorflow/third_party/cmsis_nn/Include/arm_nnsupportfunctions.h ****  * @return          Rounded result of division. Midpoint is rounded away from zero.
 848:Middlewares/tensorflow/third_party/cmsis_nn/Include/arm_nnsupportfunctions.h ****  *
 849:Middlewares/tensorflow/third_party/cmsis_nn/Include/arm_nnsupportfunctions.h ****  */
ARM GAS  /tmp/ccLiBJQj.s 			page 20


 850:Middlewares/tensorflow/third_party/cmsis_nn/Include/arm_nnsupportfunctions.h **** __STATIC_FORCEINLINE int32_t arm_nn_divide_by_power_of_two(const int32_t dividend, const int32_t ex
 851:Middlewares/tensorflow/third_party/cmsis_nn/Include/arm_nnsupportfunctions.h **** {
 852:Middlewares/tensorflow/third_party/cmsis_nn/Include/arm_nnsupportfunctions.h ****     int32_t result = 0;
 853:Middlewares/tensorflow/third_party/cmsis_nn/Include/arm_nnsupportfunctions.h ****     const int32_t remainder_mask = (1 << exponent) - 1;
 854:Middlewares/tensorflow/third_party/cmsis_nn/Include/arm_nnsupportfunctions.h ****     int32_t remainder = remainder_mask & dividend;
 855:Middlewares/tensorflow/third_party/cmsis_nn/Include/arm_nnsupportfunctions.h **** 
 856:Middlewares/tensorflow/third_party/cmsis_nn/Include/arm_nnsupportfunctions.h ****     // Basic division
 857:Middlewares/tensorflow/third_party/cmsis_nn/Include/arm_nnsupportfunctions.h ****     result = dividend >> exponent;
 858:Middlewares/tensorflow/third_party/cmsis_nn/Include/arm_nnsupportfunctions.h **** 
 859:Middlewares/tensorflow/third_party/cmsis_nn/Include/arm_nnsupportfunctions.h ****     // Adjust 'result' for rounding (mid point away from zero)
 860:Middlewares/tensorflow/third_party/cmsis_nn/Include/arm_nnsupportfunctions.h ****     int32_t threshold = remainder_mask >> 1;
 861:Middlewares/tensorflow/third_party/cmsis_nn/Include/arm_nnsupportfunctions.h ****     if (result < 0)
 862:Middlewares/tensorflow/third_party/cmsis_nn/Include/arm_nnsupportfunctions.h ****     {
 863:Middlewares/tensorflow/third_party/cmsis_nn/Include/arm_nnsupportfunctions.h ****         threshold++;
 151              		.loc 2 863 18 view .LVU24
 152 007a 4FF0020E 		mov	lr, #2
 153 007e 42E1     		b	.L13
 154              	.LVL14:
 155              	.L331:
 156              		.loc 2 863 18 view .LVU25
 157              	.LBE202:
 158              	.LBE201:
 159              	.LBB204:
 160              	.LBB205:
 789:Middlewares/tensorflow/third_party/cmsis_nn/Include/arm_nnsupportfunctions.h **** 
 161              		.loc 2 789 13 view .LVU26
 162 0080 4FF08040 		mov	r0, #1073741824
 163 0084 4FF0000E 		mov	lr, #0
 164 0088 49E1     		b	.L15
 165              	.LVL15:
 166              	.L332:
 800:Middlewares/tensorflow/third_party/cmsis_nn/Include/arm_nnsupportfunctions.h **** 
 167              		.loc 2 800 29 view .LVU27
 168 008a 6FF00040 		mvn	r0, #-2147483648
 169 008e 2818     		adds	r0, r5, r0
 170 0090 4FF00006 		mov	r6, #0
 171 0094 4AEB0604 		adc	r4, r10, r6
 172 0098 57E1     		b	.L16
 173              	.LVL16:
 174              	.L333:
 802:Middlewares/tensorflow/third_party/cmsis_nn/Include/arm_nnsupportfunctions.h ****     {
 175              		.loc 2 802 20 view .LVU28
 176 009a B3F1004F 		cmp	r3, #-2147483648
 177 009e 40F05A81 		bne	.L17
 804:Middlewares/tensorflow/third_party/cmsis_nn/Include/arm_nnsupportfunctions.h ****     }
 178              		.loc 2 804 16 view .LVU29
 179 00a2 6FF00046 		mvn	r6, #-2147483648
 180              	.LVL17:
 804:Middlewares/tensorflow/third_party/cmsis_nn/Include/arm_nnsupportfunctions.h ****     }
 181              		.loc 2 804 16 view .LVU30
 182 00a6 56E1     		b	.L17
 183              	.LVL18:
 184              	.L334:
 804:Middlewares/tensorflow/third_party/cmsis_nn/Include/arm_nnsupportfunctions.h ****     }
 185              		.loc 2 804 16 view .LVU31
 186              	.LBE205:
 187              	.LBE204:
ARM GAS  /tmp/ccLiBJQj.s 			page 21


 188              	.LBB207:
 189              	.LBB208:
 789:Middlewares/tensorflow/third_party/cmsis_nn/Include/arm_nnsupportfunctions.h **** 
 190              		.loc 2 789 13 view .LVU32
 191 00a8 4FF08045 		mov	r5, #1073741824
 192 00ac 0024     		movs	r4, #0
 193 00ae 58E1     		b	.L18
 194              	.LVL19:
 195              	.L335:
 800:Middlewares/tensorflow/third_party/cmsis_nn/Include/arm_nnsupportfunctions.h **** 
 196              		.loc 2 800 29 view .LVU33
 197 00b0 6FF00040 		mvn	r0, #-2147483648
 198 00b4 2018     		adds	r0, r4, r0
 199 00b6 4FF00001 		mov	r1, #0
 200 00ba 45EB0101 		adc	r1, r5, r1
 201 00be 65E1     		b	.L19
 202              	.LVL20:
 203              	.L336:
 802:Middlewares/tensorflow/third_party/cmsis_nn/Include/arm_nnsupportfunctions.h ****     {
 204              		.loc 2 802 20 view .LVU34
 205 00c0 B6F1004F 		cmp	r6, #-2147483648
 206 00c4 40F06981 		bne	.L20
 804:Middlewares/tensorflow/third_party/cmsis_nn/Include/arm_nnsupportfunctions.h ****     }
 207              		.loc 2 804 16 view .LVU35
 208 00c8 6FF00040 		mvn	r0, #-2147483648
 209              	.LVL21:
 804:Middlewares/tensorflow/third_party/cmsis_nn/Include/arm_nnsupportfunctions.h ****     }
 210              		.loc 2 804 16 view .LVU36
 211 00cc 65E1     		b	.L20
 212              	.LVL22:
 213              	.L218:
 804:Middlewares/tensorflow/third_party/cmsis_nn/Include/arm_nnsupportfunctions.h ****     }
 214              		.loc 2 804 16 view .LVU37
 215              	.LBE208:
 216              	.LBE207:
 217              	.LBB210:
 218              	.LBB211:
 219              		.loc 2 863 18 view .LVU38
 220 00ce 0123     		movs	r3, #1
 221              	.LVL23:
 222              		.loc 2 863 18 view .LVU39
 223 00d0 6AE1     		b	.L21
 224              	.LVL24:
 225              	.L337:
 226              		.loc 2 863 18 view .LVU40
 227              	.LBE211:
 228              	.LBE210:
 229              	.LBB213:
 230              	.LBB214:
 789:Middlewares/tensorflow/third_party/cmsis_nn/Include/arm_nnsupportfunctions.h **** 
 231              		.loc 2 789 13 view .LVU41
 232 00d2 4FF08046 		mov	r6, #1073741824
 233 00d6 0027     		movs	r7, #0
 234 00d8 70E1     		b	.L23
 235              	.LVL25:
 236              	.L338:
 800:Middlewares/tensorflow/third_party/cmsis_nn/Include/arm_nnsupportfunctions.h **** 
ARM GAS  /tmp/ccLiBJQj.s 			page 22


 237              		.loc 2 800 29 view .LVU42
 238 00da 6FF00043 		mvn	r3, #-2147483648
 239 00de E318     		adds	r3, r4, r3
 240 00e0 4FF00001 		mov	r1, #0
 241 00e4 45EB0101 		adc	r1, r5, r1
 242 00e8 7DE1     		b	.L24
 243              	.LVL26:
 244              	.L339:
 800:Middlewares/tensorflow/third_party/cmsis_nn/Include/arm_nnsupportfunctions.h **** 
 245              		.loc 2 800 29 view .LVU43
 246              	.LBE214:
 247              	.LBE213:
 248              	.LBB216:
 249              	.LBB217:
 789:Middlewares/tensorflow/third_party/cmsis_nn/Include/arm_nnsupportfunctions.h **** 
 250              		.loc 2 789 13 view .LVU44
 251 00ea 4FF08047 		mov	r7, #1073741824
 252 00ee 4FF0000C 		mov	ip, #0
 253 00f2 88E1     		b	.L26
 254              	.LVL27:
 255              	.L340:
 800:Middlewares/tensorflow/third_party/cmsis_nn/Include/arm_nnsupportfunctions.h **** 
 256              		.loc 2 800 29 view .LVU45
 257 00f4 6FF00043 		mvn	r3, #-2147483648
 258 00f8 E318     		adds	r3, r4, r3
 259 00fa 4FF00001 		mov	r1, #0
 260 00fe 45EB0101 		adc	r1, r5, r1
 261 0102 94E1     		b	.L27
 262              	.LVL28:
 263              	.L341:
 800:Middlewares/tensorflow/third_party/cmsis_nn/Include/arm_nnsupportfunctions.h **** 
 264              		.loc 2 800 29 view .LVU46
 265              	.LBE217:
 266              	.LBE216:
 267              	.LBB219:
 268              	.LBB220:
 789:Middlewares/tensorflow/third_party/cmsis_nn/Include/arm_nnsupportfunctions.h **** 
 269              		.loc 2 789 13 view .LVU47
 270 0104 4FF08047 		mov	r7, #1073741824
 271 0108 4FF0000C 		mov	ip, #0
 272 010c A2E1     		b	.L29
 273              	.LVL29:
 274              	.L342:
 800:Middlewares/tensorflow/third_party/cmsis_nn/Include/arm_nnsupportfunctions.h **** 
 275              		.loc 2 800 29 view .LVU48
 276 010e 6FF00041 		mvn	r1, #-2147483648
 277 0112 6118     		adds	r1, r4, r1
 278 0114 4FF0000C 		mov	ip, #0
 279 0118 45EB0C0C 		adc	ip, r5, ip
 280 011c AEE1     		b	.L30
 281              	.LVL30:
 282              	.L343:
 802:Middlewares/tensorflow/third_party/cmsis_nn/Include/arm_nnsupportfunctions.h ****     {
 283              		.loc 2 802 20 view .LVU49
 284 011e B3F1004F 		cmp	r3, #-2147483648
 285 0122 40F0B281 		bne	.L31
 804:Middlewares/tensorflow/third_party/cmsis_nn/Include/arm_nnsupportfunctions.h ****     }
ARM GAS  /tmp/ccLiBJQj.s 			page 23


 286              		.loc 2 804 16 view .LVU50
 287 0126 6FF00041 		mvn	r1, #-2147483648
 288              	.LVL31:
 804:Middlewares/tensorflow/third_party/cmsis_nn/Include/arm_nnsupportfunctions.h ****     }
 289              		.loc 2 804 16 view .LVU51
 290 012a AEE1     		b	.L31
 291              	.LVL32:
 292              	.L344:
 804:Middlewares/tensorflow/third_party/cmsis_nn/Include/arm_nnsupportfunctions.h ****     }
 293              		.loc 2 804 16 view .LVU52
 294              	.LBE220:
 295              	.LBE219:
 296              	.LBB222:
 297              	.LBB223:
 789:Middlewares/tensorflow/third_party/cmsis_nn/Include/arm_nnsupportfunctions.h **** 
 298              		.loc 2 789 13 view .LVU53
 299 012c 4FF08046 		mov	r6, #1073741824
 300 0130 0027     		movs	r7, #0
 301 0132 BCE1     		b	.L33
 302              	.LVL33:
 303              	.L345:
 800:Middlewares/tensorflow/third_party/cmsis_nn/Include/arm_nnsupportfunctions.h **** 
 304              		.loc 2 800 29 view .LVU54
 305 0134 6FF00043 		mvn	r3, #-2147483648
 306 0138 E318     		adds	r3, r4, r3
 307 013a 4FF00007 		mov	r7, #0
 308 013e 45EB0707 		adc	r7, r5, r7
 309 0142 C9E1     		b	.L34
 310              	.LVL34:
 311              	.L346:
 802:Middlewares/tensorflow/third_party/cmsis_nn/Include/arm_nnsupportfunctions.h ****     {
 312              		.loc 2 802 20 view .LVU55
 313 0144 BCF1004F 		cmp	ip, #-2147483648
 314 0148 40F0CD81 		bne	.L35
 804:Middlewares/tensorflow/third_party/cmsis_nn/Include/arm_nnsupportfunctions.h ****     }
 315              		.loc 2 804 16 view .LVU56
 316 014c 6FF00043 		mvn	r3, #-2147483648
 317              	.LVL35:
 804:Middlewares/tensorflow/third_party/cmsis_nn/Include/arm_nnsupportfunctions.h ****     }
 318              		.loc 2 804 16 view .LVU57
 319 0150 C9E1     		b	.L35
 320              	.LVL36:
 321              	.L347:
 804:Middlewares/tensorflow/third_party/cmsis_nn/Include/arm_nnsupportfunctions.h ****     }
 322              		.loc 2 804 16 view .LVU58
 323              	.LBE223:
 324              	.LBE222:
 325              	.LBB225:
 326              	.LBB226:
 789:Middlewares/tensorflow/third_party/cmsis_nn/Include/arm_nnsupportfunctions.h **** 
 327              		.loc 2 789 13 view .LVU59
 328 0152 4FF08046 		mov	r6, #1073741824
 329 0156 4FF0000E 		mov	lr, #0
 330 015a D4E1     		b	.L37
 331              	.LVL37:
 332              	.L348:
 800:Middlewares/tensorflow/third_party/cmsis_nn/Include/arm_nnsupportfunctions.h **** 
ARM GAS  /tmp/ccLiBJQj.s 			page 24


 333              		.loc 2 800 29 view .LVU60
 334 015c 6FF00043 		mvn	r3, #-2147483648
 335 0160 E318     		adds	r3, r4, r3
 336 0162 4FF00006 		mov	r6, #0
 337 0166 45EB0606 		adc	r6, r5, r6
 338 016a E0E1     		b	.L38
 339              	.LVL38:
 340              	.L349:
 802:Middlewares/tensorflow/third_party/cmsis_nn/Include/arm_nnsupportfunctions.h ****     {
 341              		.loc 2 802 20 view .LVU61
 342 016c B7F1004F 		cmp	r7, #-2147483648
 343 0170 40F0E481 		bne	.L39
 804:Middlewares/tensorflow/third_party/cmsis_nn/Include/arm_nnsupportfunctions.h ****     }
 344              		.loc 2 804 16 view .LVU62
 345 0174 6FF00043 		mvn	r3, #-2147483648
 346              	.LVL39:
 804:Middlewares/tensorflow/third_party/cmsis_nn/Include/arm_nnsupportfunctions.h ****     }
 347              		.loc 2 804 16 view .LVU63
 348 0178 E0E1     		b	.L39
 349              	.LVL40:
 350              	.L350:
 804:Middlewares/tensorflow/third_party/cmsis_nn/Include/arm_nnsupportfunctions.h ****     }
 351              		.loc 2 804 16 view .LVU64
 352              	.LBE226:
 353              	.LBE225:
 354              	.LBB228:
 355              	.LBB229:
 789:Middlewares/tensorflow/third_party/cmsis_nn/Include/arm_nnsupportfunctions.h **** 
 356              		.loc 2 789 13 view .LVU65
 357 017a 4FF0804C 		mov	ip, #1073741824
 358 017e 4FF0000E 		mov	lr, #0
 359 0182 ECE1     		b	.L41
 360              	.LVL41:
 361              	.L351:
 800:Middlewares/tensorflow/third_party/cmsis_nn/Include/arm_nnsupportfunctions.h **** 
 362              		.loc 2 800 29 view .LVU66
 363 0184 6FF00043 		mvn	r3, #-2147483648
 364 0188 C318     		adds	r3, r0, r3
 365 018a 4FF00004 		mov	r4, #0
 366 018e 41EB0404 		adc	r4, r1, r4
 367 0192 F9E1     		b	.L42
 368              	.LVL42:
 369              	.L352:
 802:Middlewares/tensorflow/third_party/cmsis_nn/Include/arm_nnsupportfunctions.h ****     {
 370              		.loc 2 802 20 view .LVU67
 371 0194 B6F1004F 		cmp	r6, #-2147483648
 372 0198 40F00E82 		bne	.L43
 804:Middlewares/tensorflow/third_party/cmsis_nn/Include/arm_nnsupportfunctions.h ****     }
 373              		.loc 2 804 16 view .LVU68
 374 019c 6FF00043 		mvn	r3, #-2147483648
 375              	.LVL43:
 804:Middlewares/tensorflow/third_party/cmsis_nn/Include/arm_nnsupportfunctions.h ****     }
 376              		.loc 2 804 16 view .LVU69
 377 01a0 0AE2     		b	.L43
 378              	.LVL44:
 379              	.L353:
 804:Middlewares/tensorflow/third_party/cmsis_nn/Include/arm_nnsupportfunctions.h ****     }
ARM GAS  /tmp/ccLiBJQj.s 			page 25


 380              		.loc 2 804 16 view .LVU70
 381              	.LBE229:
 382              	.LBE228:
 383              	.LBB231:
 384              	.LBB232:
 789:Middlewares/tensorflow/third_party/cmsis_nn/Include/arm_nnsupportfunctions.h **** 
 385              		.loc 2 789 13 view .LVU71
 386 01a2 4FF0804C 		mov	ip, #1073741824
 387 01a6 4FF0000E 		mov	lr, #0
 388 01aa 15E2     		b	.L45
 389              	.LVL45:
 390              	.L354:
 800:Middlewares/tensorflow/third_party/cmsis_nn/Include/arm_nnsupportfunctions.h **** 
 391              		.loc 2 800 29 view .LVU72
 392 01ac 6FF00041 		mvn	r1, #-2147483648
 393 01b0 19EB0101 		adds	r1, r9, r1
 394 01b4 4FF00004 		mov	r4, #0
 395 01b8 5046     		mov	r0, r10
 396 01ba 40EB0404 		adc	r4, r0, r4
 397 01be 21E2     		b	.L46
 398              	.LVL46:
 399              	.L355:
 802:Middlewares/tensorflow/third_party/cmsis_nn/Include/arm_nnsupportfunctions.h ****     {
 400              		.loc 2 802 20 view .LVU73
 401 01c0 B3F1004F 		cmp	r3, #-2147483648
 402 01c4 40F02582 		bne	.L47
 804:Middlewares/tensorflow/third_party/cmsis_nn/Include/arm_nnsupportfunctions.h ****     }
 403              		.loc 2 804 16 view .LVU74
 404 01c8 6FF00041 		mvn	r1, #-2147483648
 405              	.LVL47:
 804:Middlewares/tensorflow/third_party/cmsis_nn/Include/arm_nnsupportfunctions.h ****     }
 406              		.loc 2 804 16 view .LVU75
 407 01cc 21E2     		b	.L47
 408              	.LVL48:
 409              	.L356:
 804:Middlewares/tensorflow/third_party/cmsis_nn/Include/arm_nnsupportfunctions.h ****     }
 410              		.loc 2 804 16 view .LVU76
 411              	.LBE232:
 412              	.LBE231:
 413              	.LBB234:
 414              	.LBB235:
 789:Middlewares/tensorflow/third_party/cmsis_nn/Include/arm_nnsupportfunctions.h **** 
 415              		.loc 2 789 13 view .LVU77
 416 01ce 4FF08047 		mov	r7, #1073741824
 417 01d2 4FF0000E 		mov	lr, #0
 418 01d6 2BE2     		b	.L49
 419              	.LVL49:
 420              	.L357:
 800:Middlewares/tensorflow/third_party/cmsis_nn/Include/arm_nnsupportfunctions.h **** 
 421              		.loc 2 800 29 view .LVU78
 422 01d8 6FF00043 		mvn	r3, #-2147483648
 423 01dc EB18     		adds	r3, r5, r3
 424 01de 4FF00001 		mov	r1, #0
 425 01e2 46EB0101 		adc	r1, r6, r1
 426 01e6 45E2     		b	.L50
 427              	.LVL50:
 428              	.L358:
ARM GAS  /tmp/ccLiBJQj.s 			page 26


 802:Middlewares/tensorflow/third_party/cmsis_nn/Include/arm_nnsupportfunctions.h ****     {
 429              		.loc 2 802 20 view .LVU79
 430 01e8 B4F1004F 		cmp	r4, #-2147483648
 431 01ec 40F04882 		bne	.L51
 804:Middlewares/tensorflow/third_party/cmsis_nn/Include/arm_nnsupportfunctions.h ****     }
 432              		.loc 2 804 16 view .LVU80
 433 01f0 6FF00043 		mvn	r3, #-2147483648
 434              	.LVL51:
 804:Middlewares/tensorflow/third_party/cmsis_nn/Include/arm_nnsupportfunctions.h ****     }
 435              		.loc 2 804 16 view .LVU81
 436 01f4 44E2     		b	.L51
 437              	.LVL52:
 438              	.L233:
 804:Middlewares/tensorflow/third_party/cmsis_nn/Include/arm_nnsupportfunctions.h ****     }
 439              		.loc 2 804 16 view .LVU82
 440              	.LBE235:
 441              	.LBE234:
 864:Middlewares/tensorflow/third_party/cmsis_nn/Include/arm_nnsupportfunctions.h ****     }
 865:Middlewares/tensorflow/third_party/cmsis_nn/Include/arm_nnsupportfunctions.h ****     if (remainder > threshold)
 866:Middlewares/tensorflow/third_party/cmsis_nn/Include/arm_nnsupportfunctions.h ****     {
 867:Middlewares/tensorflow/third_party/cmsis_nn/Include/arm_nnsupportfunctions.h ****         result++;
 868:Middlewares/tensorflow/third_party/cmsis_nn/Include/arm_nnsupportfunctions.h ****     }
 869:Middlewares/tensorflow/third_party/cmsis_nn/Include/arm_nnsupportfunctions.h **** 
 870:Middlewares/tensorflow/third_party/cmsis_nn/Include/arm_nnsupportfunctions.h ****     return result;
 871:Middlewares/tensorflow/third_party/cmsis_nn/Include/arm_nnsupportfunctions.h **** }
 872:Middlewares/tensorflow/third_party/cmsis_nn/Include/arm_nnsupportfunctions.h **** 
 873:Middlewares/tensorflow/third_party/cmsis_nn/Include/arm_nnsupportfunctions.h **** /**
 874:Middlewares/tensorflow/third_party/cmsis_nn/Include/arm_nnsupportfunctions.h ****  * @brief           Requantize a given value.
 875:Middlewares/tensorflow/third_party/cmsis_nn/Include/arm_nnsupportfunctions.h ****  * @param[in]       val         Value to be requantized
 876:Middlewares/tensorflow/third_party/cmsis_nn/Include/arm_nnsupportfunctions.h ****  * @param[in]       multiplier  multiplier. Range {NN_Q31_MIN + 1, Q32_MAX}
 877:Middlewares/tensorflow/third_party/cmsis_nn/Include/arm_nnsupportfunctions.h ****  * @param[in]       shift       left or right shift for 'val * multiplier'
 878:Middlewares/tensorflow/third_party/cmsis_nn/Include/arm_nnsupportfunctions.h ****  *
 879:Middlewares/tensorflow/third_party/cmsis_nn/Include/arm_nnsupportfunctions.h ****  * @return          Returns (val * multiplier)/(2 ^ shift)
 880:Middlewares/tensorflow/third_party/cmsis_nn/Include/arm_nnsupportfunctions.h ****  *
 881:Middlewares/tensorflow/third_party/cmsis_nn/Include/arm_nnsupportfunctions.h ****  */
 882:Middlewares/tensorflow/third_party/cmsis_nn/Include/arm_nnsupportfunctions.h **** __STATIC_FORCEINLINE int32_t arm_nn_requantize(const int32_t val, const int32_t multiplier, const i
 883:Middlewares/tensorflow/third_party/cmsis_nn/Include/arm_nnsupportfunctions.h **** {
 884:Middlewares/tensorflow/third_party/cmsis_nn/Include/arm_nnsupportfunctions.h **** #ifdef CMSIS_NN_USE_SINGLE_ROUNDING
 885:Middlewares/tensorflow/third_party/cmsis_nn/Include/arm_nnsupportfunctions.h ****     const int64_t total_shift = 31 - shift;
 886:Middlewares/tensorflow/third_party/cmsis_nn/Include/arm_nnsupportfunctions.h ****     const int64_t new_val = val * (int64_t)multiplier;
 887:Middlewares/tensorflow/third_party/cmsis_nn/Include/arm_nnsupportfunctions.h **** 
 888:Middlewares/tensorflow/third_party/cmsis_nn/Include/arm_nnsupportfunctions.h ****     int32_t result = new_val >> (total_shift - 1);
 889:Middlewares/tensorflow/third_party/cmsis_nn/Include/arm_nnsupportfunctions.h ****     result = (result + 1) >> 1;
 890:Middlewares/tensorflow/third_party/cmsis_nn/Include/arm_nnsupportfunctions.h **** 
 891:Middlewares/tensorflow/third_party/cmsis_nn/Include/arm_nnsupportfunctions.h ****     return result;
 892:Middlewares/tensorflow/third_party/cmsis_nn/Include/arm_nnsupportfunctions.h **** #else
 893:Middlewares/tensorflow/third_party/cmsis_nn/Include/arm_nnsupportfunctions.h ****     return arm_nn_divide_by_power_of_two(arm_nn_doubling_high_mult_no_sat(val * (1 << LEFT_SHIFT(sh
 894:Middlewares/tensorflow/third_party/cmsis_nn/Include/arm_nnsupportfunctions.h ****                                          RIGHT_SHIFT(shift));
 895:Middlewares/tensorflow/third_party/cmsis_nn/Include/arm_nnsupportfunctions.h **** #endif
 896:Middlewares/tensorflow/third_party/cmsis_nn/Include/arm_nnsupportfunctions.h **** }
 897:Middlewares/tensorflow/third_party/cmsis_nn/Include/arm_nnsupportfunctions.h **** 
 898:Middlewares/tensorflow/third_party/cmsis_nn/Include/arm_nnsupportfunctions.h **** /**
 899:Middlewares/tensorflow/third_party/cmsis_nn/Include/arm_nnsupportfunctions.h ****  * @brief           Requantize a given 64 bit value.
 900:Middlewares/tensorflow/third_party/cmsis_nn/Include/arm_nnsupportfunctions.h ****  * @param[in]       val                 Value to be requantized in the range {-(1<<47)} to {(1<<47)
 901:Middlewares/tensorflow/third_party/cmsis_nn/Include/arm_nnsupportfunctions.h ****  * @param[in]       reduced_multiplier  Reduced multiplier in the range {NN_Q31_MIN + 1, Q32_MAX} t
 902:Middlewares/tensorflow/third_party/cmsis_nn/Include/arm_nnsupportfunctions.h ****  * Q16_MAX}
 903:Middlewares/tensorflow/third_party/cmsis_nn/Include/arm_nnsupportfunctions.h ****  * @param[in]       shift               Left or right shift for 'val * multiplier' in the range {-3
ARM GAS  /tmp/ccLiBJQj.s 			page 27


 904:Middlewares/tensorflow/third_party/cmsis_nn/Include/arm_nnsupportfunctions.h ****  *
 905:Middlewares/tensorflow/third_party/cmsis_nn/Include/arm_nnsupportfunctions.h ****  * @return          Returns (val * multiplier)/(2 ^ shift)
 906:Middlewares/tensorflow/third_party/cmsis_nn/Include/arm_nnsupportfunctions.h ****  *
 907:Middlewares/tensorflow/third_party/cmsis_nn/Include/arm_nnsupportfunctions.h ****  */
 908:Middlewares/tensorflow/third_party/cmsis_nn/Include/arm_nnsupportfunctions.h **** __STATIC_FORCEINLINE int32_t arm_nn_requantize_s64(const int64_t val,
 909:Middlewares/tensorflow/third_party/cmsis_nn/Include/arm_nnsupportfunctions.h ****                                                    const int32_t reduced_multiplier,
 910:Middlewares/tensorflow/third_party/cmsis_nn/Include/arm_nnsupportfunctions.h ****                                                    const int32_t shift)
 911:Middlewares/tensorflow/third_party/cmsis_nn/Include/arm_nnsupportfunctions.h **** {
 912:Middlewares/tensorflow/third_party/cmsis_nn/Include/arm_nnsupportfunctions.h ****     const int64_t new_val = val * reduced_multiplier;
 913:Middlewares/tensorflow/third_party/cmsis_nn/Include/arm_nnsupportfunctions.h **** 
 914:Middlewares/tensorflow/third_party/cmsis_nn/Include/arm_nnsupportfunctions.h ****     int32_t result = new_val >> (14 - shift); // 64->32 bit reduction
 915:Middlewares/tensorflow/third_party/cmsis_nn/Include/arm_nnsupportfunctions.h ****     result = (result + 1) >> 1;               // Last shift position and insert round
 916:Middlewares/tensorflow/third_party/cmsis_nn/Include/arm_nnsupportfunctions.h **** 
 917:Middlewares/tensorflow/third_party/cmsis_nn/Include/arm_nnsupportfunctions.h ****     return result;
 918:Middlewares/tensorflow/third_party/cmsis_nn/Include/arm_nnsupportfunctions.h **** }
 919:Middlewares/tensorflow/third_party/cmsis_nn/Include/arm_nnsupportfunctions.h **** 
 920:Middlewares/tensorflow/third_party/cmsis_nn/Include/arm_nnsupportfunctions.h **** /**
 921:Middlewares/tensorflow/third_party/cmsis_nn/Include/arm_nnsupportfunctions.h ****  * @brief           memcpy optimized for MVE
 922:Middlewares/tensorflow/third_party/cmsis_nn/Include/arm_nnsupportfunctions.h ****  * @param[in, out]  dst         Destination pointer
 923:Middlewares/tensorflow/third_party/cmsis_nn/Include/arm_nnsupportfunctions.h ****  * @param[in]       src         Source pointer.
 924:Middlewares/tensorflow/third_party/cmsis_nn/Include/arm_nnsupportfunctions.h ****  * @param[in]       block_size  Number of bytes to copy.
 925:Middlewares/tensorflow/third_party/cmsis_nn/Include/arm_nnsupportfunctions.h ****  *
 926:Middlewares/tensorflow/third_party/cmsis_nn/Include/arm_nnsupportfunctions.h ****  */
 927:Middlewares/tensorflow/third_party/cmsis_nn/Include/arm_nnsupportfunctions.h **** __STATIC_FORCEINLINE void arm_memcpy_s8(int8_t *__RESTRICT dst, const int8_t *__RESTRICT src, uint3
 928:Middlewares/tensorflow/third_party/cmsis_nn/Include/arm_nnsupportfunctions.h **** {
 929:Middlewares/tensorflow/third_party/cmsis_nn/Include/arm_nnsupportfunctions.h **** #if defined(ARM_MATH_MVEI)
 930:Middlewares/tensorflow/third_party/cmsis_nn/Include/arm_nnsupportfunctions.h ****     __asm volatile("   wlstp.8                 lr, %[cnt], 1f             \n"
 931:Middlewares/tensorflow/third_party/cmsis_nn/Include/arm_nnsupportfunctions.h ****                    "2:                                                    \n"
 932:Middlewares/tensorflow/third_party/cmsis_nn/Include/arm_nnsupportfunctions.h ****                    "   vldrb.8                 q0, [%[in]], #16            \n"
 933:Middlewares/tensorflow/third_party/cmsis_nn/Include/arm_nnsupportfunctions.h ****                    "   vstrb.8                 q0, [%[out]], #16           \n"
 934:Middlewares/tensorflow/third_party/cmsis_nn/Include/arm_nnsupportfunctions.h ****                    "   letp                    lr, 2b                     \n"
 935:Middlewares/tensorflow/third_party/cmsis_nn/Include/arm_nnsupportfunctions.h ****                    "1:                                                    \n"
 936:Middlewares/tensorflow/third_party/cmsis_nn/Include/arm_nnsupportfunctions.h ****                    : [in] "+r"(src), [out] "+r"(dst)
 937:Middlewares/tensorflow/third_party/cmsis_nn/Include/arm_nnsupportfunctions.h ****                    : [cnt] "r"(block_size)
 938:Middlewares/tensorflow/third_party/cmsis_nn/Include/arm_nnsupportfunctions.h ****                    : "q0", "memory", "r14");
 939:Middlewares/tensorflow/third_party/cmsis_nn/Include/arm_nnsupportfunctions.h **** #else
 940:Middlewares/tensorflow/third_party/cmsis_nn/Include/arm_nnsupportfunctions.h ****     memcpy(dst, src, block_size);
 941:Middlewares/tensorflow/third_party/cmsis_nn/Include/arm_nnsupportfunctions.h **** #endif
 942:Middlewares/tensorflow/third_party/cmsis_nn/Include/arm_nnsupportfunctions.h **** }
 943:Middlewares/tensorflow/third_party/cmsis_nn/Include/arm_nnsupportfunctions.h **** 
 944:Middlewares/tensorflow/third_party/cmsis_nn/Include/arm_nnsupportfunctions.h **** /**
 945:Middlewares/tensorflow/third_party/cmsis_nn/Include/arm_nnsupportfunctions.h ****  * @brief           memcpy wrapper for int16
 946:Middlewares/tensorflow/third_party/cmsis_nn/Include/arm_nnsupportfunctions.h ****  * @param[in, out]  dst         Destination pointer
 947:Middlewares/tensorflow/third_party/cmsis_nn/Include/arm_nnsupportfunctions.h ****  * @param[in]       src         Source pointer.
 948:Middlewares/tensorflow/third_party/cmsis_nn/Include/arm_nnsupportfunctions.h ****  * @param[in]       block_size  Number of bytes to copy.
 949:Middlewares/tensorflow/third_party/cmsis_nn/Include/arm_nnsupportfunctions.h ****  *
 950:Middlewares/tensorflow/third_party/cmsis_nn/Include/arm_nnsupportfunctions.h ****  */
 951:Middlewares/tensorflow/third_party/cmsis_nn/Include/arm_nnsupportfunctions.h **** __STATIC_FORCEINLINE void arm_memcpy_q15(int16_t *__RESTRICT dst, const int16_t *__RESTRICT src, ui
 952:Middlewares/tensorflow/third_party/cmsis_nn/Include/arm_nnsupportfunctions.h **** {
 953:Middlewares/tensorflow/third_party/cmsis_nn/Include/arm_nnsupportfunctions.h ****     memcpy(dst, src, block_size);
 954:Middlewares/tensorflow/third_party/cmsis_nn/Include/arm_nnsupportfunctions.h **** }
 955:Middlewares/tensorflow/third_party/cmsis_nn/Include/arm_nnsupportfunctions.h **** 
 956:Middlewares/tensorflow/third_party/cmsis_nn/Include/arm_nnsupportfunctions.h **** #if defined(ARM_MATH_MVEI)
 957:Middlewares/tensorflow/third_party/cmsis_nn/Include/arm_nnsupportfunctions.h **** /**
 958:Middlewares/tensorflow/third_party/cmsis_nn/Include/arm_nnsupportfunctions.h ****  * @brief           Vector saturating doubling high multiply returning high half.
 959:Middlewares/tensorflow/third_party/cmsis_nn/Include/arm_nnsupportfunctions.h ****  * @param[in]       m1        Multiplicand
 960:Middlewares/tensorflow/third_party/cmsis_nn/Include/arm_nnsupportfunctions.h ****  * @param[in]       m2        Multiplier
ARM GAS  /tmp/ccLiBJQj.s 			page 28


 961:Middlewares/tensorflow/third_party/cmsis_nn/Include/arm_nnsupportfunctions.h ****  * @return          Result of multiplication.
 962:Middlewares/tensorflow/third_party/cmsis_nn/Include/arm_nnsupportfunctions.h ****  *
 963:Middlewares/tensorflow/third_party/cmsis_nn/Include/arm_nnsupportfunctions.h ****  */
 964:Middlewares/tensorflow/third_party/cmsis_nn/Include/arm_nnsupportfunctions.h **** __STATIC_FORCEINLINE int32x4_t arm_doubling_high_mult_mve(const int32x4_t m1, const int32_t m2)
 965:Middlewares/tensorflow/third_party/cmsis_nn/Include/arm_nnsupportfunctions.h **** {
 966:Middlewares/tensorflow/third_party/cmsis_nn/Include/arm_nnsupportfunctions.h ****     return vqrdmulhq_n_s32(m1, m2);
 967:Middlewares/tensorflow/third_party/cmsis_nn/Include/arm_nnsupportfunctions.h **** }
 968:Middlewares/tensorflow/third_party/cmsis_nn/Include/arm_nnsupportfunctions.h **** 
 969:Middlewares/tensorflow/third_party/cmsis_nn/Include/arm_nnsupportfunctions.h **** /**
 970:Middlewares/tensorflow/third_party/cmsis_nn/Include/arm_nnsupportfunctions.h ****  * @brief           Vector rounding divide by power of two.
 971:Middlewares/tensorflow/third_party/cmsis_nn/Include/arm_nnsupportfunctions.h ****  * @param[in]       dividend - Dividend vector
 972:Middlewares/tensorflow/third_party/cmsis_nn/Include/arm_nnsupportfunctions.h ****  * @param[in]       exponent - Divisor = power(2, exponent)
 973:Middlewares/tensorflow/third_party/cmsis_nn/Include/arm_nnsupportfunctions.h ****  *                             Range: [0, 31]
 974:Middlewares/tensorflow/third_party/cmsis_nn/Include/arm_nnsupportfunctions.h ****  * @return          Rounded result of division. Midpoint is rounded away from zero.
 975:Middlewares/tensorflow/third_party/cmsis_nn/Include/arm_nnsupportfunctions.h ****  *
 976:Middlewares/tensorflow/third_party/cmsis_nn/Include/arm_nnsupportfunctions.h ****  */
 977:Middlewares/tensorflow/third_party/cmsis_nn/Include/arm_nnsupportfunctions.h **** __STATIC_FORCEINLINE int32x4_t arm_divide_by_power_of_two_mve(const int32x4_t dividend, const int32
 978:Middlewares/tensorflow/third_party/cmsis_nn/Include/arm_nnsupportfunctions.h **** {
 979:Middlewares/tensorflow/third_party/cmsis_nn/Include/arm_nnsupportfunctions.h ****     const int32x4_t shift = vdupq_n_s32(-exponent);
 980:Middlewares/tensorflow/third_party/cmsis_nn/Include/arm_nnsupportfunctions.h ****     const int32x4_t fixup = vshrq_n_s32(vandq_s32(dividend, shift), 31);
 981:Middlewares/tensorflow/third_party/cmsis_nn/Include/arm_nnsupportfunctions.h ****     const int32x4_t fixed_up_dividend = vqaddq_s32(dividend, fixup);
 982:Middlewares/tensorflow/third_party/cmsis_nn/Include/arm_nnsupportfunctions.h ****     return vrshlq_s32(fixed_up_dividend, shift);
 983:Middlewares/tensorflow/third_party/cmsis_nn/Include/arm_nnsupportfunctions.h **** }
 984:Middlewares/tensorflow/third_party/cmsis_nn/Include/arm_nnsupportfunctions.h **** 
 985:Middlewares/tensorflow/third_party/cmsis_nn/Include/arm_nnsupportfunctions.h **** /**
 986:Middlewares/tensorflow/third_party/cmsis_nn/Include/arm_nnsupportfunctions.h ****  * @brief           Requantize a given vector.
 987:Middlewares/tensorflow/third_party/cmsis_nn/Include/arm_nnsupportfunctions.h ****  * @param[in]       val         Vector to be requantized
 988:Middlewares/tensorflow/third_party/cmsis_nn/Include/arm_nnsupportfunctions.h ****  * @param[in]       multiplier  multiplier
 989:Middlewares/tensorflow/third_party/cmsis_nn/Include/arm_nnsupportfunctions.h ****  * @param[in]       shift       shift
 990:Middlewares/tensorflow/third_party/cmsis_nn/Include/arm_nnsupportfunctions.h ****  *
 991:Middlewares/tensorflow/third_party/cmsis_nn/Include/arm_nnsupportfunctions.h ****  * @return          Returns (val * multiplier)/(2 ^ shift)
 992:Middlewares/tensorflow/third_party/cmsis_nn/Include/arm_nnsupportfunctions.h ****  *
 993:Middlewares/tensorflow/third_party/cmsis_nn/Include/arm_nnsupportfunctions.h ****  */
 994:Middlewares/tensorflow/third_party/cmsis_nn/Include/arm_nnsupportfunctions.h **** __STATIC_FORCEINLINE int32x4_t arm_requantize_mve(const int32x4_t val, const int32_t multiplier, co
 995:Middlewares/tensorflow/third_party/cmsis_nn/Include/arm_nnsupportfunctions.h **** {
 996:Middlewares/tensorflow/third_party/cmsis_nn/Include/arm_nnsupportfunctions.h ****     #ifdef CMSIS_NN_USE_SINGLE_ROUNDING
 997:Middlewares/tensorflow/third_party/cmsis_nn/Include/arm_nnsupportfunctions.h ****     const int right_shift = MIN(-1, shift);
 998:Middlewares/tensorflow/third_party/cmsis_nn/Include/arm_nnsupportfunctions.h ****     const int left_shift = shift - right_shift;
 999:Middlewares/tensorflow/third_party/cmsis_nn/Include/arm_nnsupportfunctions.h **** 
1000:Middlewares/tensorflow/third_party/cmsis_nn/Include/arm_nnsupportfunctions.h ****     const int32x4_t left_shift_dup = vdupq_n_s32(left_shift);
1001:Middlewares/tensorflow/third_party/cmsis_nn/Include/arm_nnsupportfunctions.h ****     const int32x4_t right_shift_dup = vdupq_n_s32(right_shift);
1002:Middlewares/tensorflow/third_party/cmsis_nn/Include/arm_nnsupportfunctions.h **** 
1003:Middlewares/tensorflow/third_party/cmsis_nn/Include/arm_nnsupportfunctions.h ****     int32x4_t result = vqdmulhq_n_s32(vshlq_s32(val, left_shift_dup), multiplier);
1004:Middlewares/tensorflow/third_party/cmsis_nn/Include/arm_nnsupportfunctions.h ****     result = vrshlq_s32(result, right_shift_dup);
1005:Middlewares/tensorflow/third_party/cmsis_nn/Include/arm_nnsupportfunctions.h **** 
1006:Middlewares/tensorflow/third_party/cmsis_nn/Include/arm_nnsupportfunctions.h ****     return result;
1007:Middlewares/tensorflow/third_party/cmsis_nn/Include/arm_nnsupportfunctions.h ****     #else
1008:Middlewares/tensorflow/third_party/cmsis_nn/Include/arm_nnsupportfunctions.h ****     return arm_divide_by_power_of_two_mve(
1009:Middlewares/tensorflow/third_party/cmsis_nn/Include/arm_nnsupportfunctions.h ****         arm_doubling_high_mult_mve(vshlq_s32(val, vdupq_n_s32(LEFT_SHIFT(shift))), multiplier), RIG
1010:Middlewares/tensorflow/third_party/cmsis_nn/Include/arm_nnsupportfunctions.h ****     #endif
1011:Middlewares/tensorflow/third_party/cmsis_nn/Include/arm_nnsupportfunctions.h **** }
1012:Middlewares/tensorflow/third_party/cmsis_nn/Include/arm_nnsupportfunctions.h **** 
1013:Middlewares/tensorflow/third_party/cmsis_nn/Include/arm_nnsupportfunctions.h **** __STATIC_FORCEINLINE int32x4_t arm_doubling_high_mult_mve_32x4(const int32x4_t m1, const int32x4_t 
1014:Middlewares/tensorflow/third_party/cmsis_nn/Include/arm_nnsupportfunctions.h **** {
1015:Middlewares/tensorflow/third_party/cmsis_nn/Include/arm_nnsupportfunctions.h ****     return vqrdmulhq_s32(m1, m2);
1016:Middlewares/tensorflow/third_party/cmsis_nn/Include/arm_nnsupportfunctions.h **** }
1017:Middlewares/tensorflow/third_party/cmsis_nn/Include/arm_nnsupportfunctions.h **** 
ARM GAS  /tmp/ccLiBJQj.s 			page 29


1018:Middlewares/tensorflow/third_party/cmsis_nn/Include/arm_nnsupportfunctions.h **** __STATIC_FORCEINLINE int32x4_t arm_divide_by_power_of_two_mve_32x4(const int32x4_t dividend, const 
1019:Middlewares/tensorflow/third_party/cmsis_nn/Include/arm_nnsupportfunctions.h **** {
1020:Middlewares/tensorflow/third_party/cmsis_nn/Include/arm_nnsupportfunctions.h ****     const int32x4_t shift = -exponent;
1021:Middlewares/tensorflow/third_party/cmsis_nn/Include/arm_nnsupportfunctions.h ****     const int32x4_t fixup = vshrq_n_s32(vandq_s32(dividend, shift), 31);
1022:Middlewares/tensorflow/third_party/cmsis_nn/Include/arm_nnsupportfunctions.h ****     const int32x4_t fixed_up_dividend = vqaddq_s32(dividend, fixup);
1023:Middlewares/tensorflow/third_party/cmsis_nn/Include/arm_nnsupportfunctions.h ****     return vrshlq_s32(fixed_up_dividend, shift);
1024:Middlewares/tensorflow/third_party/cmsis_nn/Include/arm_nnsupportfunctions.h **** }
1025:Middlewares/tensorflow/third_party/cmsis_nn/Include/arm_nnsupportfunctions.h **** 
1026:Middlewares/tensorflow/third_party/cmsis_nn/Include/arm_nnsupportfunctions.h **** __STATIC_FORCEINLINE int32x4_t arm_requantize_mve_32x4(const int32x4_t val,
1027:Middlewares/tensorflow/third_party/cmsis_nn/Include/arm_nnsupportfunctions.h ****                                                        const int32x4_t multiplier,
1028:Middlewares/tensorflow/third_party/cmsis_nn/Include/arm_nnsupportfunctions.h ****                                                        const int32x4_t shift)
1029:Middlewares/tensorflow/third_party/cmsis_nn/Include/arm_nnsupportfunctions.h **** {
1030:Middlewares/tensorflow/third_party/cmsis_nn/Include/arm_nnsupportfunctions.h ****     #ifdef CMSIS_NN_USE_SINGLE_ROUNDING
1031:Middlewares/tensorflow/third_party/cmsis_nn/Include/arm_nnsupportfunctions.h ****     const int32x4_t right_shift = vminq_s32(vdupq_n_s32(-1), shift);
1032:Middlewares/tensorflow/third_party/cmsis_nn/Include/arm_nnsupportfunctions.h ****     const int32x4_t left_shift = vqsubq_s32(shift, right_shift);
1033:Middlewares/tensorflow/third_party/cmsis_nn/Include/arm_nnsupportfunctions.h **** 
1034:Middlewares/tensorflow/third_party/cmsis_nn/Include/arm_nnsupportfunctions.h ****     int32x4_t result = vqdmulhq_s32(vshlq_s32(val, left_shift), multiplier);
1035:Middlewares/tensorflow/third_party/cmsis_nn/Include/arm_nnsupportfunctions.h ****     result = vrshlq_s32(result, right_shift);
1036:Middlewares/tensorflow/third_party/cmsis_nn/Include/arm_nnsupportfunctions.h **** 
1037:Middlewares/tensorflow/third_party/cmsis_nn/Include/arm_nnsupportfunctions.h ****     return result;
1038:Middlewares/tensorflow/third_party/cmsis_nn/Include/arm_nnsupportfunctions.h ****     #else
1039:Middlewares/tensorflow/third_party/cmsis_nn/Include/arm_nnsupportfunctions.h ****     const int32x4_t zz = vdupq_n_s32(0);
1040:Middlewares/tensorflow/third_party/cmsis_nn/Include/arm_nnsupportfunctions.h ****     const mve_pred16_t p = vcmpgtq_n_s32(shift, 0);
1041:Middlewares/tensorflow/third_party/cmsis_nn/Include/arm_nnsupportfunctions.h **** 
1042:Middlewares/tensorflow/third_party/cmsis_nn/Include/arm_nnsupportfunctions.h ****     const int32x4_t left_shift = vpselq_s32(shift, zz, p);
1043:Middlewares/tensorflow/third_party/cmsis_nn/Include/arm_nnsupportfunctions.h ****     const int32x4_t right_shift = -vpselq_s32(zz, shift, p);
1044:Middlewares/tensorflow/third_party/cmsis_nn/Include/arm_nnsupportfunctions.h **** 
1045:Middlewares/tensorflow/third_party/cmsis_nn/Include/arm_nnsupportfunctions.h ****     return arm_divide_by_power_of_two_mve_32x4(arm_doubling_high_mult_mve_32x4(vshlq_s32(val, left_
1046:Middlewares/tensorflow/third_party/cmsis_nn/Include/arm_nnsupportfunctions.h ****                                                right_shift);
1047:Middlewares/tensorflow/third_party/cmsis_nn/Include/arm_nnsupportfunctions.h ****     #endif
1048:Middlewares/tensorflow/third_party/cmsis_nn/Include/arm_nnsupportfunctions.h **** }
1049:Middlewares/tensorflow/third_party/cmsis_nn/Include/arm_nnsupportfunctions.h **** #endif
1050:Middlewares/tensorflow/third_party/cmsis_nn/Include/arm_nnsupportfunctions.h **** 
1051:Middlewares/tensorflow/third_party/cmsis_nn/Include/arm_nnsupportfunctions.h **** // @note The following functions are used only for softmax layer, scaled bits = 5 assumed
1052:Middlewares/tensorflow/third_party/cmsis_nn/Include/arm_nnsupportfunctions.h **** 
1053:Middlewares/tensorflow/third_party/cmsis_nn/Include/arm_nnsupportfunctions.h **** __STATIC_FORCEINLINE int32_t arm_nn_exp_on_negative_values(int32_t val)
1054:Middlewares/tensorflow/third_party/cmsis_nn/Include/arm_nnsupportfunctions.h **** {
1055:Middlewares/tensorflow/third_party/cmsis_nn/Include/arm_nnsupportfunctions.h ****     int32_t mask = 0;
1056:Middlewares/tensorflow/third_party/cmsis_nn/Include/arm_nnsupportfunctions.h ****     int32_t shift = 24;
1057:Middlewares/tensorflow/third_party/cmsis_nn/Include/arm_nnsupportfunctions.h **** 
1058:Middlewares/tensorflow/third_party/cmsis_nn/Include/arm_nnsupportfunctions.h ****     const int32_t val_mod_minus_quarter = (val & ((1 << shift) - 1)) - (1 << shift);
1059:Middlewares/tensorflow/third_party/cmsis_nn/Include/arm_nnsupportfunctions.h ****     const int32_t remainder = val_mod_minus_quarter - val;
1060:Middlewares/tensorflow/third_party/cmsis_nn/Include/arm_nnsupportfunctions.h ****     const int32_t x = (val_mod_minus_quarter << 5) + (1 << 28);
1061:Middlewares/tensorflow/third_party/cmsis_nn/Include/arm_nnsupportfunctions.h ****     const int32_t x2 = MUL_SAT(x, x);
1062:Middlewares/tensorflow/third_party/cmsis_nn/Include/arm_nnsupportfunctions.h **** 
1063:Middlewares/tensorflow/third_party/cmsis_nn/Include/arm_nnsupportfunctions.h ****     int32_t result = 1895147668 +
1064:Middlewares/tensorflow/third_party/cmsis_nn/Include/arm_nnsupportfunctions.h ****         MUL_SAT(1895147668, x + DIV_POW2(MUL_SAT(DIV_POW2(MUL_SAT(x2, x2), 2) + MUL_SAT(x2, x), 715
1065:Middlewares/tensorflow/third_party/cmsis_nn/Include/arm_nnsupportfunctions.h **** 
1066:Middlewares/tensorflow/third_party/cmsis_nn/Include/arm_nnsupportfunctions.h **** #define SELECT_IF_NON_ZERO(x)                                                                      
1067:Middlewares/tensorflow/third_party/cmsis_nn/Include/arm_nnsupportfunctions.h ****     {                                                                                              
1068:Middlewares/tensorflow/third_party/cmsis_nn/Include/arm_nnsupportfunctions.h ****         mask = MASK_IF_NON_ZERO(remainder & (1 << shift++));                                       
1069:Middlewares/tensorflow/third_party/cmsis_nn/Include/arm_nnsupportfunctions.h ****         result = SELECT_USING_MASK(mask, MUL_SAT(result, x), result);                              
1070:Middlewares/tensorflow/third_party/cmsis_nn/Include/arm_nnsupportfunctions.h ****     }
1071:Middlewares/tensorflow/third_party/cmsis_nn/Include/arm_nnsupportfunctions.h **** 
1072:Middlewares/tensorflow/third_party/cmsis_nn/Include/arm_nnsupportfunctions.h ****     SELECT_IF_NON_ZERO(1672461947)
1073:Middlewares/tensorflow/third_party/cmsis_nn/Include/arm_nnsupportfunctions.h ****     SELECT_IF_NON_ZERO(1302514674)
1074:Middlewares/tensorflow/third_party/cmsis_nn/Include/arm_nnsupportfunctions.h ****     SELECT_IF_NON_ZERO(790015084)
ARM GAS  /tmp/ccLiBJQj.s 			page 30


1075:Middlewares/tensorflow/third_party/cmsis_nn/Include/arm_nnsupportfunctions.h ****     SELECT_IF_NON_ZERO(290630308)
1076:Middlewares/tensorflow/third_party/cmsis_nn/Include/arm_nnsupportfunctions.h ****     SELECT_IF_NON_ZERO(39332535)
1077:Middlewares/tensorflow/third_party/cmsis_nn/Include/arm_nnsupportfunctions.h ****     SELECT_IF_NON_ZERO(720401)
1078:Middlewares/tensorflow/third_party/cmsis_nn/Include/arm_nnsupportfunctions.h ****     SELECT_IF_NON_ZERO(242)
1079:Middlewares/tensorflow/third_party/cmsis_nn/Include/arm_nnsupportfunctions.h **** 
1080:Middlewares/tensorflow/third_party/cmsis_nn/Include/arm_nnsupportfunctions.h **** #undef SELECT_IF_NON_ZERO
1081:Middlewares/tensorflow/third_party/cmsis_nn/Include/arm_nnsupportfunctions.h **** 
1082:Middlewares/tensorflow/third_party/cmsis_nn/Include/arm_nnsupportfunctions.h ****     mask = MASK_IF_ZERO(val);
 442              		.loc 2 1082 12 view .LVU83
 443 01f6 0021     		movs	r1, #0
 444 01f8 4CE2     		b	.L52
 445              	.LVL53:
 446              	.L234:
 447              		.loc 2 1082 12 view .LVU84
 448              	.LBE194:
 449              	.LBE193:
 450              	.LBB252:
 451              	.LBB253:
 863:Middlewares/tensorflow/third_party/cmsis_nn/Include/arm_nnsupportfunctions.h ****     }
 452              		.loc 2 863 18 view .LVU85
 453 01fa 4FF40061 		mov	r1, #2048
 454              	.LVL54:
 863:Middlewares/tensorflow/third_party/cmsis_nn/Include/arm_nnsupportfunctions.h ****     }
 455              		.loc 2 863 18 view .LVU86
 456 01fe 55E2     		b	.L53
 457              	.LVL55:
 458              	.L54:
 870:Middlewares/tensorflow/third_party/cmsis_nn/Include/arm_nnsupportfunctions.h **** }
 459              		.loc 2 870 5 is_stmt 1 view .LVU87
 870:Middlewares/tensorflow/third_party/cmsis_nn/Include/arm_nnsupportfunctions.h **** }
 460              		.loc 2 870 5 is_stmt 0 view .LVU88
 461              	.LBE253:
 462              	.LBE252:
  84:Middlewares/tensorflow/third_party/cmsis_nn/Source/SoftmaxFunctions/arm_nn_softmax_common_s8.c ****         {
  85:Middlewares/tensorflow/third_party/cmsis_nn/Source/SoftmaxFunctions/arm_nn_softmax_common_s8.c ****             diff = input[col] - max;
  86:Middlewares/tensorflow/third_party/cmsis_nn/Source/SoftmaxFunctions/arm_nn_softmax_common_s8.c ****             if (diff >= diff_min)
  87:Middlewares/tensorflow/third_party/cmsis_nn/Source/SoftmaxFunctions/arm_nn_softmax_common_s8.c ****             {
  88:Middlewares/tensorflow/third_party/cmsis_nn/Source/SoftmaxFunctions/arm_nn_softmax_common_s8.c ****                 sum += DIV_POW2(EXP_ON_NEG(MUL_SAT(diff * mask, mult)), ACCUM_BITS);
 463              		.loc 1 88 21 view .LVU89
 464 0200 589A     		ldr	r2, [sp, #352]
 465 0202 1A44     		add	r2, r2, r3
 466 0204 5892     		str	r2, [sp, #352]
 467              	.LVL56:
 468              	.L6:
  83:Middlewares/tensorflow/third_party/cmsis_nn/Source/SoftmaxFunctions/arm_nn_softmax_common_s8.c ****         {
 469              		.loc 1 83 39 is_stmt 1 discriminator 2 view .LVU90
 470 0206 08F10108 		add	r8, r8, #1
 471              	.LVL57:
 472              	.L5:
  83:Middlewares/tensorflow/third_party/cmsis_nn/Source/SoftmaxFunctions/arm_nn_softmax_common_s8.c ****         {
 473              		.loc 1 83 23 discriminator 1 view .LVU91
  83:Middlewares/tensorflow/third_party/cmsis_nn/Source/SoftmaxFunctions/arm_nn_softmax_common_s8.c ****         {
 474              		.loc 1 83 9 is_stmt 0 discriminator 1 view .LVU92
 475 020a 019B     		ldr	r3, [sp, #4]
 476 020c 9845     		cmp	r8, r3
 477 020e 80F25782 		bge	.L324
  85:Middlewares/tensorflow/third_party/cmsis_nn/Source/SoftmaxFunctions/arm_nn_softmax_common_s8.c ****             if (diff >= diff_min)
ARM GAS  /tmp/ccLiBJQj.s 			page 31


 478              		.loc 1 85 13 is_stmt 1 view .LVU93
  85:Middlewares/tensorflow/third_party/cmsis_nn/Source/SoftmaxFunctions/arm_nn_softmax_common_s8.c ****             if (diff >= diff_min)
 479              		.loc 1 85 25 is_stmt 0 view .LVU94
 480 0212 029B     		ldr	r3, [sp, #8]
 481 0214 13F90810 		ldrsb	r1, [r3, r8]
  85:Middlewares/tensorflow/third_party/cmsis_nn/Source/SoftmaxFunctions/arm_nn_softmax_common_s8.c ****             if (diff >= diff_min)
 482              		.loc 1 85 18 view .LVU95
 483 0218 039B     		ldr	r3, [sp, #12]
 484 021a C91A     		subs	r1, r1, r3
 485              	.LVL58:
  86:Middlewares/tensorflow/third_party/cmsis_nn/Source/SoftmaxFunctions/arm_nn_softmax_common_s8.c ****             {
 486              		.loc 1 86 13 is_stmt 1 view .LVU96
  86:Middlewares/tensorflow/third_party/cmsis_nn/Source/SoftmaxFunctions/arm_nn_softmax_common_s8.c ****             {
 487              		.loc 1 86 16 is_stmt 0 view .LVU97
 488 021c 799B     		ldr	r3, [sp, #484]
 489 021e 8B42     		cmp	r3, r1
 490 0220 F1DC     		bgt	.L6
 491              		.loc 1 88 17 is_stmt 1 view .LVU98
 492              		.loc 1 88 24 is_stmt 0 view .LVU99
 493 0222 789B     		ldr	r3, [sp, #480]
 494 0224 9940     		lsls	r1, r1, r3
 495              	.LVL59:
 496              	.LBB255:
 497              	.LBI190:
 785:Middlewares/tensorflow/third_party/cmsis_nn/Include/arm_nnsupportfunctions.h **** {
 498              		.loc 2 785 30 is_stmt 1 view .LVU100
 499              	.LBB192:
 787:Middlewares/tensorflow/third_party/cmsis_nn/Include/arm_nnsupportfunctions.h ****     // Rounding offset to add for a right shift of 31
 500              		.loc 2 787 5 view .LVU101
 789:Middlewares/tensorflow/third_party/cmsis_nn/Include/arm_nnsupportfunctions.h **** 
 501              		.loc 2 789 5 view .LVU102
 791:Middlewares/tensorflow/third_party/cmsis_nn/Include/arm_nnsupportfunctions.h ****     {
 502              		.loc 2 791 5 view .LVU103
 791:Middlewares/tensorflow/third_party/cmsis_nn/Include/arm_nnsupportfunctions.h ****     {
 503              		.loc 2 791 9 is_stmt 0 view .LVU104
 504 0226 4FEADB73 		lsr	r3, fp, #31
 791:Middlewares/tensorflow/third_party/cmsis_nn/Include/arm_nnsupportfunctions.h ****     {
 505              		.loc 2 791 8 view .LVU105
 506 022a B3EBD17F 		cmp	r3, r1, lsr #31
 507 022e 3FF4FDAE 		beq	.L325
 793:Middlewares/tensorflow/third_party/cmsis_nn/Include/arm_nnsupportfunctions.h ****     }
 508              		.loc 2 793 14 view .LVU106
 509 0232 D948     		ldr	r0, .L457
 510 0234 4FF0FF34 		mov	r4, #-1
 511              	.L7:
 512              	.LVL60:
 796:Middlewares/tensorflow/third_party/cmsis_nn/Include/arm_nnsupportfunctions.h **** 
 513              		.loc 2 796 5 is_stmt 1 view .LVU107
 796:Middlewares/tensorflow/third_party/cmsis_nn/Include/arm_nnsupportfunctions.h **** 
 514              		.loc 2 796 31 is_stmt 0 view .LVU108
 515 0238 CB17     		asrs	r3, r1, #31
 516 023a 0BFB03F5 		mul	r5, fp, r3
 517 023e 5A46     		mov	r2, fp
 518 0240 D317     		asrs	r3, r2, #31
 519 0242 01FB0355 		mla	r5, r1, r3, r5
 520 0246 ABFB0123 		umull	r2, r3, fp, r1
 521 024a 2B44     		add	r3, r3, r5
ARM GAS  /tmp/ccLiBJQj.s 			page 32


 796:Middlewares/tensorflow/third_party/cmsis_nn/Include/arm_nnsupportfunctions.h **** 
 522              		.loc 2 796 10 view .LVU109
 523 024c 1018     		adds	r0, r2, r0
 524              	.LVL61:
 796:Middlewares/tensorflow/third_party/cmsis_nn/Include/arm_nnsupportfunctions.h **** 
 525              		.loc 2 796 10 view .LVU110
 526 024e 1E90     		str	r0, [sp, #120]
 527 0250 6341     		adcs	r3, r3, r4
 528 0252 1F93     		str	r3, [sp, #124]
 529              	.LVL62:
 800:Middlewares/tensorflow/third_party/cmsis_nn/Include/arm_nnsupportfunctions.h **** 
 530              		.loc 2 800 5 is_stmt 1 view .LVU111
 800:Middlewares/tensorflow/third_party/cmsis_nn/Include/arm_nnsupportfunctions.h **** 
 531              		.loc 2 800 29 is_stmt 0 view .LVU112
 532 0254 DDE91E45 		ldrd	r4, [sp, #120]
 533 0258 2346     		mov	r3, r4
 534 025a A946     		mov	r9, r5
 535 025c 002C     		cmp	r4, #0
 536 025e 75F10002 		sbcs	r2, r5, #0
 537 0262 FFF6E7AE 		blt	.L326
 538              	.L8:
 539 0266 DB0F     		lsrs	r3, r3, #31
 800:Middlewares/tensorflow/third_party/cmsis_nn/Include/arm_nnsupportfunctions.h **** 
 540              		.loc 2 800 12 view .LVU113
 541 0268 43EA4903 		orr	r3, r3, r9, lsl #1
 542 026c 0493     		str	r3, [sp, #16]
 543              	.LVL63:
 802:Middlewares/tensorflow/third_party/cmsis_nn/Include/arm_nnsupportfunctions.h ****     {
 544              		.loc 2 802 5 is_stmt 1 view .LVU114
 802:Middlewares/tensorflow/third_party/cmsis_nn/Include/arm_nnsupportfunctions.h ****     {
 545              		.loc 2 802 8 is_stmt 0 view .LVU115
 546 026e 5945     		cmp	r1, fp
 547 0270 3FF4E8AE 		beq	.L327
 548              	.LVL64:
 549              	.L9:
 806:Middlewares/tensorflow/third_party/cmsis_nn/Include/arm_nnsupportfunctions.h **** }
 550              		.loc 2 806 5 is_stmt 1 view .LVU116
 806:Middlewares/tensorflow/third_party/cmsis_nn/Include/arm_nnsupportfunctions.h **** }
 551              		.loc 2 806 5 is_stmt 0 view .LVU117
 552              	.LBE192:
 553              	.LBE255:
 554              	.LBB256:
 555              	.LBI193:
1053:Middlewares/tensorflow/third_party/cmsis_nn/Include/arm_nnsupportfunctions.h **** {
 556              		.loc 2 1053 30 is_stmt 1 view .LVU118
 557              	.LBB251:
1055:Middlewares/tensorflow/third_party/cmsis_nn/Include/arm_nnsupportfunctions.h ****     int32_t shift = 24;
 558              		.loc 2 1055 5 view .LVU119
1056:Middlewares/tensorflow/third_party/cmsis_nn/Include/arm_nnsupportfunctions.h **** 
 559              		.loc 2 1056 5 view .LVU120
1058:Middlewares/tensorflow/third_party/cmsis_nn/Include/arm_nnsupportfunctions.h ****     const int32_t remainder = val_mod_minus_quarter - val;
 560              		.loc 2 1058 5 view .LVU121
1058:Middlewares/tensorflow/third_party/cmsis_nn/Include/arm_nnsupportfunctions.h ****     const int32_t remainder = val_mod_minus_quarter - val;
 561              		.loc 2 1058 19 is_stmt 0 view .LVU122
 562 0274 049B     		ldr	r3, [sp, #16]
 563 0276 43F07F4C 		orr	ip, r3, #-16777216
 564              	.LVL65:
ARM GAS  /tmp/ccLiBJQj.s 			page 33


1059:Middlewares/tensorflow/third_party/cmsis_nn/Include/arm_nnsupportfunctions.h ****     const int32_t x = (val_mod_minus_quarter << 5) + (1 << 28);
 565              		.loc 2 1059 5 is_stmt 1 view .LVU123
1059:Middlewares/tensorflow/third_party/cmsis_nn/Include/arm_nnsupportfunctions.h ****     const int32_t x = (val_mod_minus_quarter << 5) + (1 << 28);
 566              		.loc 2 1059 19 is_stmt 0 view .LVU124
 567 027a ACEB0302 		sub	r2, ip, r3
 568              	.LVL66:
1060:Middlewares/tensorflow/third_party/cmsis_nn/Include/arm_nnsupportfunctions.h ****     const int32_t x2 = MUL_SAT(x, x);
 569              		.loc 2 1060 5 is_stmt 1 view .LVU125
1060:Middlewares/tensorflow/third_party/cmsis_nn/Include/arm_nnsupportfunctions.h ****     const int32_t x2 = MUL_SAT(x, x);
 570              		.loc 2 1060 46 is_stmt 0 view .LVU126
 571 027e 4FEA4C1C 		lsl	ip, ip, #5
 572              	.LVL67:
1060:Middlewares/tensorflow/third_party/cmsis_nn/Include/arm_nnsupportfunctions.h ****     const int32_t x2 = MUL_SAT(x, x);
 573              		.loc 2 1060 19 view .LVU127
 574 0282 0CF1805C 		add	ip, ip, #268435456
 575              	.LVL68:
1061:Middlewares/tensorflow/third_party/cmsis_nn/Include/arm_nnsupportfunctions.h **** 
 576              		.loc 2 1061 5 is_stmt 1 view .LVU128
 577              	.LBB237:
 578              	.LBI195:
 785:Middlewares/tensorflow/third_party/cmsis_nn/Include/arm_nnsupportfunctions.h **** {
 579              		.loc 2 785 30 view .LVU129
 580              	.LBB197:
 787:Middlewares/tensorflow/third_party/cmsis_nn/Include/arm_nnsupportfunctions.h ****     // Rounding offset to add for a right shift of 31
 581              		.loc 2 787 5 view .LVU130
 789:Middlewares/tensorflow/third_party/cmsis_nn/Include/arm_nnsupportfunctions.h **** 
 582              		.loc 2 789 5 view .LVU131
 791:Middlewares/tensorflow/third_party/cmsis_nn/Include/arm_nnsupportfunctions.h ****     {
 583              		.loc 2 791 5 view .LVU132
 796:Middlewares/tensorflow/third_party/cmsis_nn/Include/arm_nnsupportfunctions.h **** 
 584              		.loc 2 796 5 view .LVU133
 796:Middlewares/tensorflow/third_party/cmsis_nn/Include/arm_nnsupportfunctions.h **** 
 585              		.loc 2 796 19 is_stmt 0 view .LVU134
 586 0286 4FEAEC7A 		asr	r10, ip, #31
 796:Middlewares/tensorflow/third_party/cmsis_nn/Include/arm_nnsupportfunctions.h **** 
 587              		.loc 2 796 31 view .LVU135
 588 028a 0CFB0AF3 		mul	r3, ip, r10
 589 028e ACFB0C01 		umull	r0, r1, ip, ip
 590 0292 01EB4301 		add	r1, r1, r3, lsl #1
 796:Middlewares/tensorflow/third_party/cmsis_nn/Include/arm_nnsupportfunctions.h **** 
 591              		.loc 2 796 10 view .LVU136
 592 0296 10F18043 		adds	r3, r0, #1073741824
 593 029a 0693     		str	r3, [sp, #24]
 594 029c 41F10003 		adc	r3, r1, #0
 595 02a0 0793     		str	r3, [sp, #28]
 596              	.LVL69:
 800:Middlewares/tensorflow/third_party/cmsis_nn/Include/arm_nnsupportfunctions.h **** 
 597              		.loc 2 800 5 is_stmt 1 view .LVU137
 800:Middlewares/tensorflow/third_party/cmsis_nn/Include/arm_nnsupportfunctions.h **** 
 598              		.loc 2 800 29 is_stmt 0 view .LVU138
 599 02a2 DDE90645 		ldrd	r4, [sp, #24]
 600 02a6 2046     		mov	r0, r4
 601 02a8 2B46     		mov	r3, r5
 602 02aa 002C     		cmp	r4, #0
 603 02ac 75F10001 		sbcs	r1, r5, #0
 604 02b0 FFF6D0AE 		blt	.L328
 605              	.L10:
ARM GAS  /tmp/ccLiBJQj.s 			page 34


 606 02b4 C00F     		lsrs	r0, r0, #31
 607 02b6 40EA4300 		orr	r0, r0, r3, lsl #1
 800:Middlewares/tensorflow/third_party/cmsis_nn/Include/arm_nnsupportfunctions.h **** 
 608              		.loc 2 800 12 view .LVU139
 609 02ba 0346     		mov	r3, r0
 610              	.LVL70:
 802:Middlewares/tensorflow/third_party/cmsis_nn/Include/arm_nnsupportfunctions.h ****     {
 611              		.loc 2 802 5 is_stmt 1 view .LVU140
 806:Middlewares/tensorflow/third_party/cmsis_nn/Include/arm_nnsupportfunctions.h **** }
 612              		.loc 2 806 5 view .LVU141
 806:Middlewares/tensorflow/third_party/cmsis_nn/Include/arm_nnsupportfunctions.h **** }
 613              		.loc 2 806 5 is_stmt 0 view .LVU142
 614              	.LBE197:
 615              	.LBE237:
1063:Middlewares/tensorflow/third_party/cmsis_nn/Include/arm_nnsupportfunctions.h ****         MUL_SAT(1895147668, x + DIV_POW2(MUL_SAT(DIV_POW2(MUL_SAT(x2, x2), 2) + MUL_SAT(x2, x), 715
 616              		.loc 2 1063 5 is_stmt 1 view .LVU143
 617              	.LBB238:
 618              	.LBI198:
 785:Middlewares/tensorflow/third_party/cmsis_nn/Include/arm_nnsupportfunctions.h **** {
 619              		.loc 2 785 30 view .LVU144
 620              	.LBB200:
 787:Middlewares/tensorflow/third_party/cmsis_nn/Include/arm_nnsupportfunctions.h ****     // Rounding offset to add for a right shift of 31
 621              		.loc 2 787 5 view .LVU145
 789:Middlewares/tensorflow/third_party/cmsis_nn/Include/arm_nnsupportfunctions.h **** 
 622              		.loc 2 789 5 view .LVU146
 791:Middlewares/tensorflow/third_party/cmsis_nn/Include/arm_nnsupportfunctions.h ****     {
 623              		.loc 2 791 5 view .LVU147
 796:Middlewares/tensorflow/third_party/cmsis_nn/Include/arm_nnsupportfunctions.h **** 
 624              		.loc 2 796 5 view .LVU148
 796:Middlewares/tensorflow/third_party/cmsis_nn/Include/arm_nnsupportfunctions.h **** 
 625              		.loc 2 796 19 is_stmt 0 view .LVU149
 626 02bc 0446     		mov	r4, r0
 627 02be C517     		asrs	r5, r0, #31
 796:Middlewares/tensorflow/third_party/cmsis_nn/Include/arm_nnsupportfunctions.h **** 
 628              		.loc 2 796 31 view .LVU150
 629 02c0 00FB05FE 		mul	lr, r0, r5
 630 02c4 A0FB0001 		umull	r0, r1, r0, r0
 631              	.LVL71:
 796:Middlewares/tensorflow/third_party/cmsis_nn/Include/arm_nnsupportfunctions.h **** 
 632              		.loc 2 796 31 view .LVU151
 633 02c8 01EB4E01 		add	r1, r1, lr, lsl #1
 796:Middlewares/tensorflow/third_party/cmsis_nn/Include/arm_nnsupportfunctions.h **** 
 634              		.loc 2 796 10 view .LVU152
 635 02cc 10F18046 		adds	r6, r0, #1073741824
 636 02d0 0896     		str	r6, [sp, #32]
 637 02d2 41F10001 		adc	r1, r1, #0
 638 02d6 0991     		str	r1, [sp, #36]
 639              	.LVL72:
 800:Middlewares/tensorflow/third_party/cmsis_nn/Include/arm_nnsupportfunctions.h **** 
 640              		.loc 2 800 5 is_stmt 1 view .LVU153
 800:Middlewares/tensorflow/third_party/cmsis_nn/Include/arm_nnsupportfunctions.h **** 
 641              		.loc 2 800 29 is_stmt 0 view .LVU154
 642 02d8 DDE90867 		ldrd	r6, [sp, #32]
 643 02dc 3046     		mov	r0, r6
 644 02de BE46     		mov	lr, r7
 645 02e0 002E     		cmp	r6, #0
 646 02e2 77F10001 		sbcs	r1, r7, #0
ARM GAS  /tmp/ccLiBJQj.s 			page 35


 647 02e6 FFF6BDAE 		blt	.L329
 648              	.L11:
 649 02ea C10F     		lsrs	r1, r0, #31
 800:Middlewares/tensorflow/third_party/cmsis_nn/Include/arm_nnsupportfunctions.h **** 
 650              		.loc 2 800 12 view .LVU155
 651 02ec 41EA4E01 		orr	r1, r1, lr, lsl #1
 652              	.LVL73:
 802:Middlewares/tensorflow/third_party/cmsis_nn/Include/arm_nnsupportfunctions.h ****     {
 653              		.loc 2 802 5 is_stmt 1 view .LVU156
 802:Middlewares/tensorflow/third_party/cmsis_nn/Include/arm_nnsupportfunctions.h ****     {
 654              		.loc 2 802 20 is_stmt 0 view .LVU157
 655 02f0 B3F1004F 		cmp	r3, #-2147483648
 656 02f4 3FF4BEAE 		beq	.L330
 657              	.LVL74:
 658              	.L12:
 806:Middlewares/tensorflow/third_party/cmsis_nn/Include/arm_nnsupportfunctions.h **** }
 659              		.loc 2 806 5 is_stmt 1 view .LVU158
 806:Middlewares/tensorflow/third_party/cmsis_nn/Include/arm_nnsupportfunctions.h **** }
 660              		.loc 2 806 5 is_stmt 0 view .LVU159
 661              	.LBE200:
 662              	.LBE238:
 663              	.LBB239:
 664              	.LBI201:
 850:Middlewares/tensorflow/third_party/cmsis_nn/Include/arm_nnsupportfunctions.h **** {
 665              		.loc 2 850 30 is_stmt 1 view .LVU160
 666              	.LBB203:
 852:Middlewares/tensorflow/third_party/cmsis_nn/Include/arm_nnsupportfunctions.h ****     const int32_t remainder_mask = (1 << exponent) - 1;
 667              		.loc 2 852 5 view .LVU161
 853:Middlewares/tensorflow/third_party/cmsis_nn/Include/arm_nnsupportfunctions.h ****     int32_t remainder = remainder_mask & dividend;
 668              		.loc 2 853 5 view .LVU162
 854:Middlewares/tensorflow/third_party/cmsis_nn/Include/arm_nnsupportfunctions.h **** 
 669              		.loc 2 854 5 view .LVU163
 854:Middlewares/tensorflow/third_party/cmsis_nn/Include/arm_nnsupportfunctions.h **** 
 670              		.loc 2 854 13 is_stmt 0 view .LVU164
 671 02f8 01F00300 		and	r0, r1, #3
 672              	.LVL75:
 857:Middlewares/tensorflow/third_party/cmsis_nn/Include/arm_nnsupportfunctions.h **** 
 673              		.loc 2 857 5 is_stmt 1 view .LVU165
 860:Middlewares/tensorflow/third_party/cmsis_nn/Include/arm_nnsupportfunctions.h ****     if (result < 0)
 674              		.loc 2 860 5 view .LVU166
 861:Middlewares/tensorflow/third_party/cmsis_nn/Include/arm_nnsupportfunctions.h ****     {
 675              		.loc 2 861 5 view .LVU167
 861:Middlewares/tensorflow/third_party/cmsis_nn/Include/arm_nnsupportfunctions.h ****     {
 676              		.loc 2 861 8 is_stmt 0 view .LVU168
 677 02fc 8910     		asrs	r1, r1, #2
 678              	.LVL76:
 861:Middlewares/tensorflow/third_party/cmsis_nn/Include/arm_nnsupportfunctions.h ****     {
 679              		.loc 2 861 8 view .LVU169
 680 02fe 3FF5BCAE 		bmi	.L213
 860:Middlewares/tensorflow/third_party/cmsis_nn/Include/arm_nnsupportfunctions.h ****     if (result < 0)
 681              		.loc 2 860 13 view .LVU170
 682 0302 4FF0010E 		mov	lr, #1
 683              	.L13:
 684              	.LVL77:
 865:Middlewares/tensorflow/third_party/cmsis_nn/Include/arm_nnsupportfunctions.h ****     {
 685              		.loc 2 865 5 is_stmt 1 view .LVU171
 865:Middlewares/tensorflow/third_party/cmsis_nn/Include/arm_nnsupportfunctions.h ****     {
ARM GAS  /tmp/ccLiBJQj.s 			page 36


 686              		.loc 2 865 8 is_stmt 0 view .LVU172
 687 0306 7045     		cmp	r0, lr
 688 0308 00DD     		ble	.L14
 867:Middlewares/tensorflow/third_party/cmsis_nn/Include/arm_nnsupportfunctions.h ****     }
 689              		.loc 2 867 9 is_stmt 1 view .LVU173
 867:Middlewares/tensorflow/third_party/cmsis_nn/Include/arm_nnsupportfunctions.h ****     }
 690              		.loc 2 867 15 is_stmt 0 view .LVU174
 691 030a 0131     		adds	r1, r1, #1
 692              	.LVL78:
 693              	.L14:
 870:Middlewares/tensorflow/third_party/cmsis_nn/Include/arm_nnsupportfunctions.h **** }
 694              		.loc 2 870 5 is_stmt 1 view .LVU175
 870:Middlewares/tensorflow/third_party/cmsis_nn/Include/arm_nnsupportfunctions.h **** }
 695              		.loc 2 870 5 is_stmt 0 view .LVU176
 696              	.LBE203:
 697              	.LBE239:
 698              	.LBB240:
 699              	.LBI204:
 785:Middlewares/tensorflow/third_party/cmsis_nn/Include/arm_nnsupportfunctions.h **** {
 700              		.loc 2 785 30 is_stmt 1 view .LVU177
 701              	.LBB206:
 787:Middlewares/tensorflow/third_party/cmsis_nn/Include/arm_nnsupportfunctions.h ****     // Rounding offset to add for a right shift of 31
 702              		.loc 2 787 5 view .LVU178
 789:Middlewares/tensorflow/third_party/cmsis_nn/Include/arm_nnsupportfunctions.h **** 
 703              		.loc 2 789 5 view .LVU179
 791:Middlewares/tensorflow/third_party/cmsis_nn/Include/arm_nnsupportfunctions.h ****     {
 704              		.loc 2 791 5 view .LVU180
 791:Middlewares/tensorflow/third_party/cmsis_nn/Include/arm_nnsupportfunctions.h ****     {
 705              		.loc 2 791 9 is_stmt 0 view .LVU181
 706 030c 4FEADC70 		lsr	r0, ip, #31
 791:Middlewares/tensorflow/third_party/cmsis_nn/Include/arm_nnsupportfunctions.h ****     {
 707              		.loc 2 791 8 view .LVU182
 708 0310 B0EBD37F 		cmp	r0, r3, lsr #31
 709 0314 3FF4B4AE 		beq	.L331
 793:Middlewares/tensorflow/third_party/cmsis_nn/Include/arm_nnsupportfunctions.h ****     }
 710              		.loc 2 793 14 view .LVU183
 711 0318 9F48     		ldr	r0, .L457
 712 031a 4FF0FF3E 		mov	lr, #-1
 713              	.L15:
 714              	.LVL79:
 796:Middlewares/tensorflow/third_party/cmsis_nn/Include/arm_nnsupportfunctions.h **** 
 715              		.loc 2 796 5 is_stmt 1 view .LVU184
 796:Middlewares/tensorflow/third_party/cmsis_nn/Include/arm_nnsupportfunctions.h **** 
 716              		.loc 2 796 31 is_stmt 0 view .LVU185
 717 031e 0CFB05F6 		mul	r6, ip, r5
 718 0322 04FB0A66 		mla	r6, r4, r10, r6
 719 0326 ACFB0445 		umull	r4, r5, ip, r4
 720 032a 3544     		add	r5, r5, r6
 796:Middlewares/tensorflow/third_party/cmsis_nn/Include/arm_nnsupportfunctions.h **** 
 721              		.loc 2 796 10 view .LVU186
 722 032c 2018     		adds	r0, r4, r0
 723              	.LVL80:
 796:Middlewares/tensorflow/third_party/cmsis_nn/Include/arm_nnsupportfunctions.h **** 
 724              		.loc 2 796 10 view .LVU187
 725 032e 0A90     		str	r0, [sp, #40]
 726 0330 45EB0E00 		adc	r0, r5, lr
 727 0334 0B90     		str	r0, [sp, #44]
ARM GAS  /tmp/ccLiBJQj.s 			page 37


 728              	.LVL81:
 800:Middlewares/tensorflow/third_party/cmsis_nn/Include/arm_nnsupportfunctions.h **** 
 729              		.loc 2 800 5 is_stmt 1 view .LVU188
 800:Middlewares/tensorflow/third_party/cmsis_nn/Include/arm_nnsupportfunctions.h **** 
 730              		.loc 2 800 29 is_stmt 0 view .LVU189
 731 0336 DDE90A56 		ldrd	r5, [sp, #40]
 732 033a 2846     		mov	r0, r5
 733 033c 3446     		mov	r4, r6
 734 033e B246     		mov	r10, r6
 735 0340 002D     		cmp	r5, #0
 736 0342 76F10007 		sbcs	r7, r6, #0
 737 0346 FFF6A0AE 		blt	.L332
 738              	.L16:
 739 034a C60F     		lsrs	r6, r0, #31
 800:Middlewares/tensorflow/third_party/cmsis_nn/Include/arm_nnsupportfunctions.h **** 
 740              		.loc 2 800 12 view .LVU190
 741 034c 46EA4406 		orr	r6, r6, r4, lsl #1
 742              	.LVL82:
 802:Middlewares/tensorflow/third_party/cmsis_nn/Include/arm_nnsupportfunctions.h ****     {
 743              		.loc 2 802 5 is_stmt 1 view .LVU191
 802:Middlewares/tensorflow/third_party/cmsis_nn/Include/arm_nnsupportfunctions.h ****     {
 744              		.loc 2 802 8 is_stmt 0 view .LVU192
 745 0350 9C45     		cmp	ip, r3
 746 0352 3FF4A2AE 		beq	.L333
 747              	.LVL83:
 748              	.L17:
 806:Middlewares/tensorflow/third_party/cmsis_nn/Include/arm_nnsupportfunctions.h **** }
 749              		.loc 2 806 5 is_stmt 1 view .LVU193
 806:Middlewares/tensorflow/third_party/cmsis_nn/Include/arm_nnsupportfunctions.h **** }
 750              		.loc 2 806 5 is_stmt 0 view .LVU194
 751              	.LBE206:
 752              	.LBE240:
 753              	.LBB241:
 754              	.LBI207:
 785:Middlewares/tensorflow/third_party/cmsis_nn/Include/arm_nnsupportfunctions.h **** {
 755              		.loc 2 785 30 is_stmt 1 view .LVU195
 756              	.LBB209:
 787:Middlewares/tensorflow/third_party/cmsis_nn/Include/arm_nnsupportfunctions.h ****     // Rounding offset to add for a right shift of 31
 757              		.loc 2 787 5 view .LVU196
 789:Middlewares/tensorflow/third_party/cmsis_nn/Include/arm_nnsupportfunctions.h **** 
 758              		.loc 2 789 5 view .LVU197
 791:Middlewares/tensorflow/third_party/cmsis_nn/Include/arm_nnsupportfunctions.h ****     {
 759              		.loc 2 791 5 view .LVU198
 791:Middlewares/tensorflow/third_party/cmsis_nn/Include/arm_nnsupportfunctions.h ****     {
 760              		.loc 2 791 8 is_stmt 0 view .LVU199
 761 0356 7618     		adds	r6, r6, r1
 762              	.LVL84:
 791:Middlewares/tensorflow/third_party/cmsis_nn/Include/arm_nnsupportfunctions.h ****     {
 763              		.loc 2 791 8 view .LVU200
 764 0358 7FF5A6AE 		bpl	.L334
 793:Middlewares/tensorflow/third_party/cmsis_nn/Include/arm_nnsupportfunctions.h ****     }
 765              		.loc 2 793 14 view .LVU201
 766 035c 8E4D     		ldr	r5, .L457
 767 035e 4FF0FF34 		mov	r4, #-1
 768              	.L18:
 769              	.LVL85:
 796:Middlewares/tensorflow/third_party/cmsis_nn/Include/arm_nnsupportfunctions.h **** 
ARM GAS  /tmp/ccLiBJQj.s 			page 38


 770              		.loc 2 796 5 is_stmt 1 view .LVU202
 796:Middlewares/tensorflow/third_party/cmsis_nn/Include/arm_nnsupportfunctions.h **** 
 771              		.loc 2 796 31 is_stmt 0 view .LVU203
 772 0362 8E4F     		ldr	r7, .L457+4
 773 0364 A6FB079A 		umull	r9, r10, r6, r7
 774 0368 F117     		asrs	r1, r6, #31
 775 036a 07FB01AA 		mla	r10, r7, r1, r10
 796:Middlewares/tensorflow/third_party/cmsis_nn/Include/arm_nnsupportfunctions.h **** 
 776              		.loc 2 796 10 view .LVU204
 777 036e 19EB0501 		adds	r1, r9, r5
 778 0372 0C91     		str	r1, [sp, #48]
 779 0374 4AEB0401 		adc	r1, r10, r4
 780 0378 0D91     		str	r1, [sp, #52]
 781              	.LVL86:
 800:Middlewares/tensorflow/third_party/cmsis_nn/Include/arm_nnsupportfunctions.h **** 
 782              		.loc 2 800 5 is_stmt 1 view .LVU205
 800:Middlewares/tensorflow/third_party/cmsis_nn/Include/arm_nnsupportfunctions.h **** 
 783              		.loc 2 800 29 is_stmt 0 view .LVU206
 784 037a DDE90C45 		ldrd	r4, [sp, #48]
 785 037e 2046     		mov	r0, r4
 786 0380 2946     		mov	r1, r5
 787 0382 002C     		cmp	r4, #0
 788 0384 75F10007 		sbcs	r7, r5, #0
 789 0388 FFF692AE 		blt	.L335
 790              	.L19:
 791 038c C00F     		lsrs	r0, r0, #31
 800:Middlewares/tensorflow/third_party/cmsis_nn/Include/arm_nnsupportfunctions.h **** 
 792              		.loc 2 800 12 view .LVU207
 793 038e 40EA4100 		orr	r0, r0, r1, lsl #1
 794              	.LVL87:
 802:Middlewares/tensorflow/third_party/cmsis_nn/Include/arm_nnsupportfunctions.h ****     {
 795              		.loc 2 802 5 is_stmt 1 view .LVU208
 802:Middlewares/tensorflow/third_party/cmsis_nn/Include/arm_nnsupportfunctions.h ****     {
 796              		.loc 2 802 8 is_stmt 0 view .LVU209
 797 0392 8249     		ldr	r1, .L457+4
 798 0394 8E42     		cmp	r6, r1
 799 0396 3FF493AE 		beq	.L336
 800              	.LVL88:
 801              	.L20:
 806:Middlewares/tensorflow/third_party/cmsis_nn/Include/arm_nnsupportfunctions.h **** }
 802              		.loc 2 806 5 is_stmt 1 view .LVU210
 806:Middlewares/tensorflow/third_party/cmsis_nn/Include/arm_nnsupportfunctions.h **** }
 803              		.loc 2 806 5 is_stmt 0 view .LVU211
 804              	.LBE209:
 805              	.LBE241:
1064:Middlewares/tensorflow/third_party/cmsis_nn/Include/arm_nnsupportfunctions.h **** 
 806              		.loc 2 1064 9 view .LVU212
 807 039a 1844     		add	r0, r0, r3
 808              	.LVL89:
 809              	.LBB242:
 810              	.LBI210:
 850:Middlewares/tensorflow/third_party/cmsis_nn/Include/arm_nnsupportfunctions.h **** {
 811              		.loc 2 850 30 is_stmt 1 view .LVU213
 812              	.LBB212:
 852:Middlewares/tensorflow/third_party/cmsis_nn/Include/arm_nnsupportfunctions.h ****     const int32_t remainder_mask = (1 << exponent) - 1;
 813              		.loc 2 852 5 view .LVU214
 853:Middlewares/tensorflow/third_party/cmsis_nn/Include/arm_nnsupportfunctions.h ****     int32_t remainder = remainder_mask & dividend;
ARM GAS  /tmp/ccLiBJQj.s 			page 39


 814              		.loc 2 853 5 view .LVU215
 854:Middlewares/tensorflow/third_party/cmsis_nn/Include/arm_nnsupportfunctions.h **** 
 815              		.loc 2 854 5 view .LVU216
 854:Middlewares/tensorflow/third_party/cmsis_nn/Include/arm_nnsupportfunctions.h **** 
 816              		.loc 2 854 13 is_stmt 0 view .LVU217
 817 039c 00F00101 		and	r1, r0, #1
 818              	.LVL90:
 857:Middlewares/tensorflow/third_party/cmsis_nn/Include/arm_nnsupportfunctions.h **** 
 819              		.loc 2 857 5 is_stmt 1 view .LVU218
 860:Middlewares/tensorflow/third_party/cmsis_nn/Include/arm_nnsupportfunctions.h ****     if (result < 0)
 820              		.loc 2 860 5 view .LVU219
 861:Middlewares/tensorflow/third_party/cmsis_nn/Include/arm_nnsupportfunctions.h ****     {
 821              		.loc 2 861 5 view .LVU220
 861:Middlewares/tensorflow/third_party/cmsis_nn/Include/arm_nnsupportfunctions.h ****     {
 822              		.loc 2 861 8 is_stmt 0 view .LVU221
 823 03a0 4010     		asrs	r0, r0, #1
 824              	.LVL91:
 861:Middlewares/tensorflow/third_party/cmsis_nn/Include/arm_nnsupportfunctions.h ****     {
 825              		.loc 2 861 8 view .LVU222
 826 03a2 3FF594AE 		bmi	.L218
 860:Middlewares/tensorflow/third_party/cmsis_nn/Include/arm_nnsupportfunctions.h ****     if (result < 0)
 827              		.loc 2 860 13 view .LVU223
 828 03a6 0023     		movs	r3, #0
 829              	.LVL92:
 830              	.L21:
 865:Middlewares/tensorflow/third_party/cmsis_nn/Include/arm_nnsupportfunctions.h ****     {
 831              		.loc 2 865 5 is_stmt 1 view .LVU224
 865:Middlewares/tensorflow/third_party/cmsis_nn/Include/arm_nnsupportfunctions.h ****     {
 832              		.loc 2 865 8 is_stmt 0 view .LVU225
 833 03a8 9942     		cmp	r1, r3
 834 03aa 00DD     		ble	.L22
 867:Middlewares/tensorflow/third_party/cmsis_nn/Include/arm_nnsupportfunctions.h ****     }
 835              		.loc 2 867 9 is_stmt 1 view .LVU226
 867:Middlewares/tensorflow/third_party/cmsis_nn/Include/arm_nnsupportfunctions.h ****     }
 836              		.loc 2 867 15 is_stmt 0 view .LVU227
 837 03ac 0130     		adds	r0, r0, #1
 838              	.LVL93:
 839              	.L22:
 870:Middlewares/tensorflow/third_party/cmsis_nn/Include/arm_nnsupportfunctions.h **** }
 840              		.loc 2 870 5 is_stmt 1 view .LVU228
 870:Middlewares/tensorflow/third_party/cmsis_nn/Include/arm_nnsupportfunctions.h **** }
 841              		.loc 2 870 5 is_stmt 0 view .LVU229
 842              	.LBE212:
 843              	.LBE242:
 844              	.LBB243:
 845              	.LBI213:
 785:Middlewares/tensorflow/third_party/cmsis_nn/Include/arm_nnsupportfunctions.h **** {
 846              		.loc 2 785 30 is_stmt 1 view .LVU230
 847              	.LBB215:
 787:Middlewares/tensorflow/third_party/cmsis_nn/Include/arm_nnsupportfunctions.h ****     // Rounding offset to add for a right shift of 31
 848              		.loc 2 787 5 view .LVU231
 789:Middlewares/tensorflow/third_party/cmsis_nn/Include/arm_nnsupportfunctions.h **** 
 849              		.loc 2 789 5 view .LVU232
 791:Middlewares/tensorflow/third_party/cmsis_nn/Include/arm_nnsupportfunctions.h ****     {
 850              		.loc 2 791 5 view .LVU233
 791:Middlewares/tensorflow/third_party/cmsis_nn/Include/arm_nnsupportfunctions.h ****     {
 851              		.loc 2 791 8 is_stmt 0 view .LVU234
ARM GAS  /tmp/ccLiBJQj.s 			page 40


 852 03ae 1CEB000C 		adds	ip, ip, r0
 853              	.LVL94:
 791:Middlewares/tensorflow/third_party/cmsis_nn/Include/arm_nnsupportfunctions.h ****     {
 854              		.loc 2 791 8 view .LVU235
 855 03b2 7FF58EAE 		bpl	.L337
 793:Middlewares/tensorflow/third_party/cmsis_nn/Include/arm_nnsupportfunctions.h ****     }
 856              		.loc 2 793 14 view .LVU236
 857 03b6 784E     		ldr	r6, .L457
 858 03b8 4FF0FF37 		mov	r7, #-1
 859              	.L23:
 860              	.LVL95:
 796:Middlewares/tensorflow/third_party/cmsis_nn/Include/arm_nnsupportfunctions.h **** 
 861              		.loc 2 796 5 is_stmt 1 view .LVU237
 796:Middlewares/tensorflow/third_party/cmsis_nn/Include/arm_nnsupportfunctions.h **** 
 862              		.loc 2 796 31 is_stmt 0 view .LVU238
 863 03bc 6446     		mov	r4, ip
 864 03be E517     		asrs	r5, r4, #31
 865 03c0 774B     		ldr	r3, .L457+8
 866 03c2 ACFB0301 		umull	r0, r1, ip, r3
 867 03c6 03FB0511 		mla	r1, r3, r5, r1
 796:Middlewares/tensorflow/third_party/cmsis_nn/Include/arm_nnsupportfunctions.h **** 
 868              		.loc 2 796 10 view .LVU239
 869 03ca 8319     		adds	r3, r0, r6
 870 03cc 0E93     		str	r3, [sp, #56]
 871 03ce 41EB0703 		adc	r3, r1, r7
 872 03d2 0F93     		str	r3, [sp, #60]
 873              	.LVL96:
 800:Middlewares/tensorflow/third_party/cmsis_nn/Include/arm_nnsupportfunctions.h **** 
 874              		.loc 2 800 5 is_stmt 1 view .LVU240
 800:Middlewares/tensorflow/third_party/cmsis_nn/Include/arm_nnsupportfunctions.h **** 
 875              		.loc 2 800 29 is_stmt 0 view .LVU241
 876 03d4 DDE90E45 		ldrd	r4, [sp, #56]
 877 03d8 2346     		mov	r3, r4
 878 03da 2946     		mov	r1, r5
 879 03dc 002C     		cmp	r4, #0
 880 03de 75F10000 		sbcs	r0, r5, #0
 881 03e2 FFF67AAE 		blt	.L338
 882              	.L24:
 883 03e6 DB0F     		lsrs	r3, r3, #31
 884 03e8 43EA4103 		orr	r3, r3, r1, lsl #1
 885              	.LVL97:
 802:Middlewares/tensorflow/third_party/cmsis_nn/Include/arm_nnsupportfunctions.h ****     {
 886              		.loc 2 802 5 is_stmt 1 view .LVU242
 806:Middlewares/tensorflow/third_party/cmsis_nn/Include/arm_nnsupportfunctions.h **** }
 887              		.loc 2 806 5 view .LVU243
 806:Middlewares/tensorflow/third_party/cmsis_nn/Include/arm_nnsupportfunctions.h **** }
 888              		.loc 2 806 5 is_stmt 0 view .LVU244
 889              	.LBE215:
 890              	.LBE243:
1063:Middlewares/tensorflow/third_party/cmsis_nn/Include/arm_nnsupportfunctions.h ****         MUL_SAT(1895147668, x + DIV_POW2(MUL_SAT(DIV_POW2(MUL_SAT(x2, x2), 2) + MUL_SAT(x2, x), 715
 891              		.loc 2 1063 13 view .LVU245
 892 03ec 6C4E     		ldr	r6, .L457+8
 893 03ee 1E44     		add	r6, r6, r3
 894              	.LVL98:
1072:Middlewares/tensorflow/third_party/cmsis_nn/Include/arm_nnsupportfunctions.h ****     SELECT_IF_NON_ZERO(1302514674)
 895              		.loc 2 1072 5 is_stmt 1 view .LVU246
1072:Middlewares/tensorflow/third_party/cmsis_nn/Include/arm_nnsupportfunctions.h ****     SELECT_IF_NON_ZERO(1302514674)
ARM GAS  /tmp/ccLiBJQj.s 			page 41


 896              		.loc 2 1072 5 is_stmt 0 view .LVU247
 897 03f0 12F0807E 		ands	lr, r2, #16777216
 898 03f4 01D0     		beq	.L25
 899 03f6 4FF0FF3E 		mov	lr, #-1
 900              	.L25:
 901              	.LVL99:
1072:Middlewares/tensorflow/third_party/cmsis_nn/Include/arm_nnsupportfunctions.h ****     SELECT_IF_NON_ZERO(1302514674)
 902              		.loc 2 1072 5 is_stmt 1 view .LVU248
 903              	.LBB244:
 904              	.LBI216:
 785:Middlewares/tensorflow/third_party/cmsis_nn/Include/arm_nnsupportfunctions.h **** {
 905              		.loc 2 785 30 view .LVU249
 906              	.LBB218:
 787:Middlewares/tensorflow/third_party/cmsis_nn/Include/arm_nnsupportfunctions.h ****     // Rounding offset to add for a right shift of 31
 907              		.loc 2 787 5 view .LVU250
 789:Middlewares/tensorflow/third_party/cmsis_nn/Include/arm_nnsupportfunctions.h **** 
 908              		.loc 2 789 5 view .LVU251
 791:Middlewares/tensorflow/third_party/cmsis_nn/Include/arm_nnsupportfunctions.h ****     {
 909              		.loc 2 791 5 view .LVU252
 791:Middlewares/tensorflow/third_party/cmsis_nn/Include/arm_nnsupportfunctions.h ****     {
 910              		.loc 2 791 8 is_stmt 0 view .LVU253
 911 03fa 002E     		cmp	r6, #0
 912 03fc BFF675AE 		bge	.L339
 793:Middlewares/tensorflow/third_party/cmsis_nn/Include/arm_nnsupportfunctions.h ****     }
 913              		.loc 2 793 14 view .LVU254
 914 0400 654F     		ldr	r7, .L457
 915 0402 4FF0FF3C 		mov	ip, #-1
 916              	.L26:
 917              	.LVL100:
 796:Middlewares/tensorflow/third_party/cmsis_nn/Include/arm_nnsupportfunctions.h **** 
 918              		.loc 2 796 5 is_stmt 1 view .LVU255
 796:Middlewares/tensorflow/third_party/cmsis_nn/Include/arm_nnsupportfunctions.h **** 
 919              		.loc 2 796 31 is_stmt 0 view .LVU256
 920 0406 674B     		ldr	r3, .L457+12
 921 0408 A6FB0301 		umull	r0, r1, r6, r3
 922 040c F517     		asrs	r5, r6, #31
 923 040e 03FB0511 		mla	r1, r3, r5, r1
 796:Middlewares/tensorflow/third_party/cmsis_nn/Include/arm_nnsupportfunctions.h **** 
 924              		.loc 2 796 10 view .LVU257
 925 0412 C319     		adds	r3, r0, r7
 926 0414 1093     		str	r3, [sp, #64]
 927 0416 41EB0C03 		adc	r3, r1, ip
 928 041a 1193     		str	r3, [sp, #68]
 929              	.LVL101:
 800:Middlewares/tensorflow/third_party/cmsis_nn/Include/arm_nnsupportfunctions.h **** 
 930              		.loc 2 800 5 is_stmt 1 view .LVU258
 800:Middlewares/tensorflow/third_party/cmsis_nn/Include/arm_nnsupportfunctions.h **** 
 931              		.loc 2 800 29 is_stmt 0 view .LVU259
 932 041c DDE91045 		ldrd	r4, [sp, #64]
 933 0420 2346     		mov	r3, r4
 934 0422 2946     		mov	r1, r5
 935 0424 002C     		cmp	r4, #0
 936 0426 75F10000 		sbcs	r0, r5, #0
 937 042a FFF663AE 		blt	.L340
 938              	.L27:
 939 042e DB0F     		lsrs	r3, r3, #31
 940 0430 43EA4103 		orr	r3, r3, r1, lsl #1
ARM GAS  /tmp/ccLiBJQj.s 			page 42


 941              	.LVL102:
 802:Middlewares/tensorflow/third_party/cmsis_nn/Include/arm_nnsupportfunctions.h ****     {
 942              		.loc 2 802 5 is_stmt 1 view .LVU260
 806:Middlewares/tensorflow/third_party/cmsis_nn/Include/arm_nnsupportfunctions.h **** }
 943              		.loc 2 806 5 view .LVU261
 806:Middlewares/tensorflow/third_party/cmsis_nn/Include/arm_nnsupportfunctions.h **** }
 944              		.loc 2 806 5 is_stmt 0 view .LVU262
 945              	.LBE218:
 946              	.LBE244:
1072:Middlewares/tensorflow/third_party/cmsis_nn/Include/arm_nnsupportfunctions.h ****     SELECT_IF_NON_ZERO(1302514674)
 947              		.loc 2 1072 5 view .LVU263
 948 0434 03EA0E03 		and	r3, r3, lr
 949 0438 26EA0E06 		bic	r6, r6, lr
 950              	.LVL103:
1072:Middlewares/tensorflow/third_party/cmsis_nn/Include/arm_nnsupportfunctions.h ****     SELECT_IF_NON_ZERO(1302514674)
 951              		.loc 2 1072 5 view .LVU264
 952 043c 7340     		eors	r3, r3, r6
 953              	.LVL104:
1073:Middlewares/tensorflow/third_party/cmsis_nn/Include/arm_nnsupportfunctions.h ****     SELECT_IF_NON_ZERO(790015084)
 954              		.loc 2 1073 5 is_stmt 1 view .LVU265
1073:Middlewares/tensorflow/third_party/cmsis_nn/Include/arm_nnsupportfunctions.h ****     SELECT_IF_NON_ZERO(790015084)
 955              		.loc 2 1073 5 is_stmt 0 view .LVU266
 956 043e 12F0007E 		ands	lr, r2, #33554432
 957              	.LVL105:
1073:Middlewares/tensorflow/third_party/cmsis_nn/Include/arm_nnsupportfunctions.h ****     SELECT_IF_NON_ZERO(790015084)
 958              		.loc 2 1073 5 view .LVU267
 959 0442 01D0     		beq	.L28
 960 0444 4FF0FF3E 		mov	lr, #-1
 961              	.L28:
 962              	.LVL106:
1073:Middlewares/tensorflow/third_party/cmsis_nn/Include/arm_nnsupportfunctions.h ****     SELECT_IF_NON_ZERO(790015084)
 963              		.loc 2 1073 5 is_stmt 1 view .LVU268
 964              	.LBB245:
 965              	.LBI219:
 785:Middlewares/tensorflow/third_party/cmsis_nn/Include/arm_nnsupportfunctions.h **** {
 966              		.loc 2 785 30 view .LVU269
 967              	.LBB221:
 787:Middlewares/tensorflow/third_party/cmsis_nn/Include/arm_nnsupportfunctions.h ****     // Rounding offset to add for a right shift of 31
 968              		.loc 2 787 5 view .LVU270
 789:Middlewares/tensorflow/third_party/cmsis_nn/Include/arm_nnsupportfunctions.h **** 
 969              		.loc 2 789 5 view .LVU271
 791:Middlewares/tensorflow/third_party/cmsis_nn/Include/arm_nnsupportfunctions.h ****     {
 970              		.loc 2 791 5 view .LVU272
 791:Middlewares/tensorflow/third_party/cmsis_nn/Include/arm_nnsupportfunctions.h ****     {
 971              		.loc 2 791 8 is_stmt 0 view .LVU273
 972 0448 002B     		cmp	r3, #0
 973 044a BFF65BAE 		bge	.L341
 793:Middlewares/tensorflow/third_party/cmsis_nn/Include/arm_nnsupportfunctions.h ****     }
 974              		.loc 2 793 14 view .LVU274
 975 044e 524F     		ldr	r7, .L457
 976 0450 4FF0FF3C 		mov	ip, #-1
 977              	.L29:
 978              	.LVL107:
 796:Middlewares/tensorflow/third_party/cmsis_nn/Include/arm_nnsupportfunctions.h **** 
 979              		.loc 2 796 5 is_stmt 1 view .LVU275
 796:Middlewares/tensorflow/third_party/cmsis_nn/Include/arm_nnsupportfunctions.h **** 
 980              		.loc 2 796 31 is_stmt 0 view .LVU276
ARM GAS  /tmp/ccLiBJQj.s 			page 43


 981 0454 544E     		ldr	r6, .L457+16
 982 0456 A3FB0601 		umull	r0, r1, r3, r6
 983 045a DD17     		asrs	r5, r3, #31
 984 045c 06FB0511 		mla	r1, r6, r5, r1
 796:Middlewares/tensorflow/third_party/cmsis_nn/Include/arm_nnsupportfunctions.h **** 
 985              		.loc 2 796 10 view .LVU277
 986 0460 C419     		adds	r4, r0, r7
 987 0462 1294     		str	r4, [sp, #72]
 988 0464 41EB0C01 		adc	r1, r1, ip
 989 0468 1391     		str	r1, [sp, #76]
 990              	.LVL108:
 800:Middlewares/tensorflow/third_party/cmsis_nn/Include/arm_nnsupportfunctions.h **** 
 991              		.loc 2 800 5 is_stmt 1 view .LVU278
 800:Middlewares/tensorflow/third_party/cmsis_nn/Include/arm_nnsupportfunctions.h **** 
 992              		.loc 2 800 29 is_stmt 0 view .LVU279
 993 046a DDE91245 		ldrd	r4, [sp, #72]
 994 046e 2146     		mov	r1, r4
 995 0470 AC46     		mov	ip, r5
 996 0472 002C     		cmp	r4, #0
 997 0474 75F10000 		sbcs	r0, r5, #0
 998 0478 FFF649AE 		blt	.L342
 999              	.L30:
 1000 047c C90F     		lsrs	r1, r1, #31
 800:Middlewares/tensorflow/third_party/cmsis_nn/Include/arm_nnsupportfunctions.h **** 
 1001              		.loc 2 800 12 view .LVU280
 1002 047e 41EA4C01 		orr	r1, r1, ip, lsl #1
 1003              	.LVL109:
 802:Middlewares/tensorflow/third_party/cmsis_nn/Include/arm_nnsupportfunctions.h ****     {
 1004              		.loc 2 802 5 is_stmt 1 view .LVU281
 802:Middlewares/tensorflow/third_party/cmsis_nn/Include/arm_nnsupportfunctions.h ****     {
 1005              		.loc 2 802 8 is_stmt 0 view .LVU282
 1006 0482 4948     		ldr	r0, .L457+16
 1007 0484 8342     		cmp	r3, r0
 1008 0486 3FF44AAE 		beq	.L343
 1009              	.LVL110:
 1010              	.L31:
 806:Middlewares/tensorflow/third_party/cmsis_nn/Include/arm_nnsupportfunctions.h **** }
 1011              		.loc 2 806 5 is_stmt 1 view .LVU283
 806:Middlewares/tensorflow/third_party/cmsis_nn/Include/arm_nnsupportfunctions.h **** }
 1012              		.loc 2 806 5 is_stmt 0 view .LVU284
 1013              	.LBE221:
 1014              	.LBE245:
1073:Middlewares/tensorflow/third_party/cmsis_nn/Include/arm_nnsupportfunctions.h ****     SELECT_IF_NON_ZERO(790015084)
 1015              		.loc 2 1073 5 view .LVU285
 1016 048a 0EEA0101 		and	r1, lr, r1
 1017 048e 23EA0E0C 		bic	ip, r3, lr
 1018 0492 81EA0C0C 		eor	ip, r1, ip
 1019              	.LVL111:
1074:Middlewares/tensorflow/third_party/cmsis_nn/Include/arm_nnsupportfunctions.h ****     SELECT_IF_NON_ZERO(290630308)
 1020              		.loc 2 1074 5 is_stmt 1 view .LVU286
1074:Middlewares/tensorflow/third_party/cmsis_nn/Include/arm_nnsupportfunctions.h ****     SELECT_IF_NON_ZERO(290630308)
 1021              		.loc 2 1074 5 is_stmt 0 view .LVU287
 1022 0496 12F0806E 		ands	lr, r2, #67108864
 1023              	.LVL112:
1074:Middlewares/tensorflow/third_party/cmsis_nn/Include/arm_nnsupportfunctions.h ****     SELECT_IF_NON_ZERO(290630308)
 1024              		.loc 2 1074 5 view .LVU288
 1025 049a 01D0     		beq	.L32
ARM GAS  /tmp/ccLiBJQj.s 			page 44


 1026 049c 4FF0FF3E 		mov	lr, #-1
 1027              	.L32:
 1028              	.LVL113:
1074:Middlewares/tensorflow/third_party/cmsis_nn/Include/arm_nnsupportfunctions.h ****     SELECT_IF_NON_ZERO(290630308)
 1029              		.loc 2 1074 5 is_stmt 1 view .LVU289
 1030              	.LBB246:
 1031              	.LBI222:
 785:Middlewares/tensorflow/third_party/cmsis_nn/Include/arm_nnsupportfunctions.h **** {
 1032              		.loc 2 785 30 view .LVU290
 1033              	.LBB224:
 787:Middlewares/tensorflow/third_party/cmsis_nn/Include/arm_nnsupportfunctions.h ****     // Rounding offset to add for a right shift of 31
 1034              		.loc 2 787 5 view .LVU291
 789:Middlewares/tensorflow/third_party/cmsis_nn/Include/arm_nnsupportfunctions.h **** 
 1035              		.loc 2 789 5 view .LVU292
 791:Middlewares/tensorflow/third_party/cmsis_nn/Include/arm_nnsupportfunctions.h ****     {
 1036              		.loc 2 791 5 view .LVU293
 791:Middlewares/tensorflow/third_party/cmsis_nn/Include/arm_nnsupportfunctions.h ****     {
 1037              		.loc 2 791 8 is_stmt 0 view .LVU294
 1038 04a0 BCF1000F 		cmp	ip, #0
 1039 04a4 BFF642AE 		bge	.L344
 793:Middlewares/tensorflow/third_party/cmsis_nn/Include/arm_nnsupportfunctions.h ****     }
 1040              		.loc 2 793 14 view .LVU295
 1041 04a8 3B4E     		ldr	r6, .L457
 1042 04aa 4FF0FF37 		mov	r7, #-1
 1043              	.L33:
 1044              	.LVL114:
 796:Middlewares/tensorflow/third_party/cmsis_nn/Include/arm_nnsupportfunctions.h **** 
 1045              		.loc 2 796 5 is_stmt 1 view .LVU296
 796:Middlewares/tensorflow/third_party/cmsis_nn/Include/arm_nnsupportfunctions.h **** 
 1046              		.loc 2 796 31 is_stmt 0 view .LVU297
 1047 04ae 3F4B     		ldr	r3, .L457+20
 1048 04b0 ACFB0301 		umull	r0, r1, ip, r3
 1049 04b4 6446     		mov	r4, ip
 1050 04b6 E517     		asrs	r5, r4, #31
 1051 04b8 03FB0511 		mla	r1, r3, r5, r1
 796:Middlewares/tensorflow/third_party/cmsis_nn/Include/arm_nnsupportfunctions.h **** 
 1052              		.loc 2 796 10 view .LVU298
 1053 04bc 8319     		adds	r3, r0, r6
 1054 04be 1493     		str	r3, [sp, #80]
 1055 04c0 41EB0703 		adc	r3, r1, r7
 1056 04c4 1593     		str	r3, [sp, #84]
 1057              	.LVL115:
 800:Middlewares/tensorflow/third_party/cmsis_nn/Include/arm_nnsupportfunctions.h **** 
 1058              		.loc 2 800 5 is_stmt 1 view .LVU299
 800:Middlewares/tensorflow/third_party/cmsis_nn/Include/arm_nnsupportfunctions.h **** 
 1059              		.loc 2 800 29 is_stmt 0 view .LVU300
 1060 04c6 DDE91445 		ldrd	r4, [sp, #80]
 1061 04ca 2346     		mov	r3, r4
 1062 04cc 2F46     		mov	r7, r5
 1063 04ce 002C     		cmp	r4, #0
 1064 04d0 75F10001 		sbcs	r1, r5, #0
 1065 04d4 FFF62EAE 		blt	.L345
 1066              	.L34:
 1067 04d8 DB0F     		lsrs	r3, r3, #31
 800:Middlewares/tensorflow/third_party/cmsis_nn/Include/arm_nnsupportfunctions.h **** 
 1068              		.loc 2 800 12 view .LVU301
 1069 04da 43EA4703 		orr	r3, r3, r7, lsl #1
ARM GAS  /tmp/ccLiBJQj.s 			page 45


 1070              	.LVL116:
 802:Middlewares/tensorflow/third_party/cmsis_nn/Include/arm_nnsupportfunctions.h ****     {
 1071              		.loc 2 802 5 is_stmt 1 view .LVU302
 802:Middlewares/tensorflow/third_party/cmsis_nn/Include/arm_nnsupportfunctions.h ****     {
 1072              		.loc 2 802 8 is_stmt 0 view .LVU303
 1073 04de 3349     		ldr	r1, .L457+20
 1074 04e0 8C45     		cmp	ip, r1
 1075 04e2 3FF42FAE 		beq	.L346
 1076              	.LVL117:
 1077              	.L35:
 806:Middlewares/tensorflow/third_party/cmsis_nn/Include/arm_nnsupportfunctions.h **** }
 1078              		.loc 2 806 5 is_stmt 1 view .LVU304
 806:Middlewares/tensorflow/third_party/cmsis_nn/Include/arm_nnsupportfunctions.h **** }
 1079              		.loc 2 806 5 is_stmt 0 view .LVU305
 1080              	.LBE224:
 1081              	.LBE246:
1074:Middlewares/tensorflow/third_party/cmsis_nn/Include/arm_nnsupportfunctions.h ****     SELECT_IF_NON_ZERO(290630308)
 1082              		.loc 2 1074 5 view .LVU306
 1083 04e6 0EEA0303 		and	r3, lr, r3
 1084 04ea 2CEA0E07 		bic	r7, ip, lr
 1085 04ee 5F40     		eors	r7, r7, r3
 1086              	.LVL118:
1075:Middlewares/tensorflow/third_party/cmsis_nn/Include/arm_nnsupportfunctions.h ****     SELECT_IF_NON_ZERO(39332535)
 1087              		.loc 2 1075 5 is_stmt 1 view .LVU307
1075:Middlewares/tensorflow/third_party/cmsis_nn/Include/arm_nnsupportfunctions.h ****     SELECT_IF_NON_ZERO(39332535)
 1088              		.loc 2 1075 5 is_stmt 0 view .LVU308
 1089 04f0 12F0006C 		ands	ip, r2, #134217728
 1090 04f4 01D0     		beq	.L36
 1091 04f6 4FF0FF3C 		mov	ip, #-1
 1092              	.L36:
 1093              	.LVL119:
1075:Middlewares/tensorflow/third_party/cmsis_nn/Include/arm_nnsupportfunctions.h ****     SELECT_IF_NON_ZERO(39332535)
 1094              		.loc 2 1075 5 is_stmt 1 view .LVU309
 1095              	.LBB247:
 1096              	.LBI225:
 785:Middlewares/tensorflow/third_party/cmsis_nn/Include/arm_nnsupportfunctions.h **** {
 1097              		.loc 2 785 30 view .LVU310
 1098              	.LBB227:
 787:Middlewares/tensorflow/third_party/cmsis_nn/Include/arm_nnsupportfunctions.h ****     // Rounding offset to add for a right shift of 31
 1099              		.loc 2 787 5 view .LVU311
 789:Middlewares/tensorflow/third_party/cmsis_nn/Include/arm_nnsupportfunctions.h **** 
 1100              		.loc 2 789 5 view .LVU312
 791:Middlewares/tensorflow/third_party/cmsis_nn/Include/arm_nnsupportfunctions.h ****     {
 1101              		.loc 2 791 5 view .LVU313
 791:Middlewares/tensorflow/third_party/cmsis_nn/Include/arm_nnsupportfunctions.h ****     {
 1102              		.loc 2 791 8 is_stmt 0 view .LVU314
 1103 04fa 002F     		cmp	r7, #0
 1104 04fc BFF629AE 		bge	.L347
 793:Middlewares/tensorflow/third_party/cmsis_nn/Include/arm_nnsupportfunctions.h ****     }
 1105              		.loc 2 793 14 view .LVU315
 1106 0500 254E     		ldr	r6, .L457
 1107 0502 4FF0FF3E 		mov	lr, #-1
 1108              	.L37:
 1109              	.LVL120:
 796:Middlewares/tensorflow/third_party/cmsis_nn/Include/arm_nnsupportfunctions.h **** 
 1110              		.loc 2 796 5 is_stmt 1 view .LVU316
 796:Middlewares/tensorflow/third_party/cmsis_nn/Include/arm_nnsupportfunctions.h **** 
ARM GAS  /tmp/ccLiBJQj.s 			page 46


 1111              		.loc 2 796 31 is_stmt 0 view .LVU317
 1112 0506 2A4B     		ldr	r3, .L457+24
 1113 0508 A7FB0301 		umull	r0, r1, r7, r3
 1114 050c FD17     		asrs	r5, r7, #31
 1115 050e 03FB0511 		mla	r1, r3, r5, r1
 796:Middlewares/tensorflow/third_party/cmsis_nn/Include/arm_nnsupportfunctions.h **** 
 1116              		.loc 2 796 10 view .LVU318
 1117 0512 8319     		adds	r3, r0, r6
 1118 0514 1693     		str	r3, [sp, #88]
 1119 0516 41EB0E03 		adc	r3, r1, lr
 1120 051a 1793     		str	r3, [sp, #92]
 1121              	.LVL121:
 800:Middlewares/tensorflow/third_party/cmsis_nn/Include/arm_nnsupportfunctions.h **** 
 1122              		.loc 2 800 5 is_stmt 1 view .LVU319
 800:Middlewares/tensorflow/third_party/cmsis_nn/Include/arm_nnsupportfunctions.h **** 
 1123              		.loc 2 800 29 is_stmt 0 view .LVU320
 1124 051c DDE91645 		ldrd	r4, [sp, #88]
 1125 0520 2346     		mov	r3, r4
 1126 0522 2E46     		mov	r6, r5
 1127 0524 002C     		cmp	r4, #0
 1128 0526 75F10001 		sbcs	r1, r5, #0
 1129 052a FFF617AE 		blt	.L348
 1130              	.L38:
 1131 052e DB0F     		lsrs	r3, r3, #31
 800:Middlewares/tensorflow/third_party/cmsis_nn/Include/arm_nnsupportfunctions.h **** 
 1132              		.loc 2 800 12 view .LVU321
 1133 0530 43EA4603 		orr	r3, r3, r6, lsl #1
 1134              	.LVL122:
 802:Middlewares/tensorflow/third_party/cmsis_nn/Include/arm_nnsupportfunctions.h ****     {
 1135              		.loc 2 802 5 is_stmt 1 view .LVU322
 802:Middlewares/tensorflow/third_party/cmsis_nn/Include/arm_nnsupportfunctions.h ****     {
 1136              		.loc 2 802 8 is_stmt 0 view .LVU323
 1137 0534 1E49     		ldr	r1, .L457+24
 1138 0536 8F42     		cmp	r7, r1
 1139 0538 3FF418AE 		beq	.L349
 1140              	.LVL123:
 1141              	.L39:
 806:Middlewares/tensorflow/third_party/cmsis_nn/Include/arm_nnsupportfunctions.h **** }
 1142              		.loc 2 806 5 is_stmt 1 view .LVU324
 806:Middlewares/tensorflow/third_party/cmsis_nn/Include/arm_nnsupportfunctions.h **** }
 1143              		.loc 2 806 5 is_stmt 0 view .LVU325
 1144              	.LBE227:
 1145              	.LBE247:
1075:Middlewares/tensorflow/third_party/cmsis_nn/Include/arm_nnsupportfunctions.h ****     SELECT_IF_NON_ZERO(39332535)
 1146              		.loc 2 1075 5 view .LVU326
 1147 053c 0CEA0303 		and	r3, ip, r3
 1148 0540 27EA0C06 		bic	r6, r7, ip
 1149 0544 5E40     		eors	r6, r6, r3
 1150              	.LVL124:
1076:Middlewares/tensorflow/third_party/cmsis_nn/Include/arm_nnsupportfunctions.h ****     SELECT_IF_NON_ZERO(720401)
 1151              		.loc 2 1076 5 is_stmt 1 view .LVU327
1076:Middlewares/tensorflow/third_party/cmsis_nn/Include/arm_nnsupportfunctions.h ****     SELECT_IF_NON_ZERO(720401)
 1152              		.loc 2 1076 5 is_stmt 0 view .LVU328
 1153 0546 12F08057 		ands	r7, r2, #268435456
 1154 054a 01D0     		beq	.L40
 1155 054c 4FF0FF37 		mov	r7, #-1
 1156              	.L40:
ARM GAS  /tmp/ccLiBJQj.s 			page 47


 1157              	.LVL125:
1076:Middlewares/tensorflow/third_party/cmsis_nn/Include/arm_nnsupportfunctions.h ****     SELECT_IF_NON_ZERO(720401)
 1158              		.loc 2 1076 5 is_stmt 1 view .LVU329
 1159              	.LBB248:
 1160              	.LBI228:
 785:Middlewares/tensorflow/third_party/cmsis_nn/Include/arm_nnsupportfunctions.h **** {
 1161              		.loc 2 785 30 view .LVU330
 1162              	.LBB230:
 787:Middlewares/tensorflow/third_party/cmsis_nn/Include/arm_nnsupportfunctions.h ****     // Rounding offset to add for a right shift of 31
 1163              		.loc 2 787 5 view .LVU331
 789:Middlewares/tensorflow/third_party/cmsis_nn/Include/arm_nnsupportfunctions.h **** 
 1164              		.loc 2 789 5 view .LVU332
 791:Middlewares/tensorflow/third_party/cmsis_nn/Include/arm_nnsupportfunctions.h ****     {
 1165              		.loc 2 791 5 view .LVU333
 791:Middlewares/tensorflow/third_party/cmsis_nn/Include/arm_nnsupportfunctions.h ****     {
 1166              		.loc 2 791 8 is_stmt 0 view .LVU334
 1167 0550 002E     		cmp	r6, #0
 1168 0552 BFF612AE 		bge	.L350
 793:Middlewares/tensorflow/third_party/cmsis_nn/Include/arm_nnsupportfunctions.h ****     }
 1169              		.loc 2 793 14 view .LVU335
 1170 0556 DFF840C0 		ldr	ip, .L457
 1171 055a 4FF0FF3E 		mov	lr, #-1
 1172              	.L41:
 1173              	.LVL126:
 796:Middlewares/tensorflow/third_party/cmsis_nn/Include/arm_nnsupportfunctions.h **** 
 1174              		.loc 2 796 5 is_stmt 1 view .LVU336
 796:Middlewares/tensorflow/third_party/cmsis_nn/Include/arm_nnsupportfunctions.h **** 
 1175              		.loc 2 796 31 is_stmt 0 view .LVU337
 1176 055e 154B     		ldr	r3, .L457+28
 1177 0560 A6FB0301 		umull	r0, r1, r6, r3
 1178 0564 F517     		asrs	r5, r6, #31
 1179 0566 03FB0511 		mla	r1, r3, r5, r1
 796:Middlewares/tensorflow/third_party/cmsis_nn/Include/arm_nnsupportfunctions.h **** 
 1180              		.loc 2 796 10 view .LVU338
 1181 056a 10EB0C03 		adds	r3, r0, ip
 1182 056e 1893     		str	r3, [sp, #96]
 1183 0570 41EB0E03 		adc	r3, r1, lr
 1184 0574 1993     		str	r3, [sp, #100]
 1185              	.LVL127:
 800:Middlewares/tensorflow/third_party/cmsis_nn/Include/arm_nnsupportfunctions.h **** 
 1186              		.loc 2 800 5 is_stmt 1 view .LVU339
 800:Middlewares/tensorflow/third_party/cmsis_nn/Include/arm_nnsupportfunctions.h **** 
 1187              		.loc 2 800 29 is_stmt 0 view .LVU340
 1188 0576 DDE91801 		ldrd	r0, [sp, #96]
 1189 057a 0346     		mov	r3, r0
 1190 057c 0C46     		mov	r4, r1
 1191 057e 0028     		cmp	r0, #0
 1192 0580 71F10005 		sbcs	r5, r1, #0
 1193 0584 FFF6FEAD 		blt	.L351
 1194              	.L42:
 1195 0588 DB0F     		lsrs	r3, r3, #31
 800:Middlewares/tensorflow/third_party/cmsis_nn/Include/arm_nnsupportfunctions.h **** 
 1196              		.loc 2 800 12 view .LVU341
 1197 058a 43EA4403 		orr	r3, r3, r4, lsl #1
 1198              	.LVL128:
 802:Middlewares/tensorflow/third_party/cmsis_nn/Include/arm_nnsupportfunctions.h ****     {
 1199              		.loc 2 802 5 is_stmt 1 view .LVU342
ARM GAS  /tmp/ccLiBJQj.s 			page 48


 802:Middlewares/tensorflow/third_party/cmsis_nn/Include/arm_nnsupportfunctions.h ****     {
 1200              		.loc 2 802 8 is_stmt 0 view .LVU343
 1201 058e 0949     		ldr	r1, .L457+28
 1202 0590 8E42     		cmp	r6, r1
 1203 0592 3FF4FFAD 		beq	.L352
 1204 0596 0FE0     		b	.L458
 1205              	.L459:
 1206              		.align	2
 1207              	.L457:
 1208 0598 010000C0 		.word	-1073741823
 1209 059c ABAAAA2A 		.word	715827883
 1210 05a0 94A8F570 		.word	1895147668
 1211 05a4 7BBEAF63 		.word	1672461947
 1212 05a8 F2CBA24D 		.word	1302514674
 1213 05ac 6CAC162F 		.word	790015084
 1214 05b0 A4AA5211 		.word	290630308
 1215 05b4 B72A5802 		.word	39332535
 1216              	.L458:
 1217              	.LVL129:
 1218              	.L43:
 806:Middlewares/tensorflow/third_party/cmsis_nn/Include/arm_nnsupportfunctions.h **** }
 1219              		.loc 2 806 5 is_stmt 1 view .LVU344
 806:Middlewares/tensorflow/third_party/cmsis_nn/Include/arm_nnsupportfunctions.h **** }
 1220              		.loc 2 806 5 is_stmt 0 view .LVU345
 1221              	.LBE230:
 1222              	.LBE248:
1076:Middlewares/tensorflow/third_party/cmsis_nn/Include/arm_nnsupportfunctions.h ****     SELECT_IF_NON_ZERO(720401)
 1223              		.loc 2 1076 5 view .LVU346
 1224 05b8 3B40     		ands	r3, r3, r7
 1225 05ba 26EA0706 		bic	r6, r6, r7
 1226              	.LVL130:
1076:Middlewares/tensorflow/third_party/cmsis_nn/Include/arm_nnsupportfunctions.h ****     SELECT_IF_NON_ZERO(720401)
 1227              		.loc 2 1076 5 view .LVU347
 1228 05be 7340     		eors	r3, r3, r6
 1229              	.LVL131:
1077:Middlewares/tensorflow/third_party/cmsis_nn/Include/arm_nnsupportfunctions.h ****     SELECT_IF_NON_ZERO(242)
 1230              		.loc 2 1077 5 is_stmt 1 view .LVU348
1077:Middlewares/tensorflow/third_party/cmsis_nn/Include/arm_nnsupportfunctions.h ****     SELECT_IF_NON_ZERO(242)
 1231              		.loc 2 1077 5 is_stmt 0 view .LVU349
 1232 05c0 12F00056 		ands	r6, r2, #536870912
 1233 05c4 01D0     		beq	.L44
 1234 05c6 4FF0FF36 		mov	r6, #-1
 1235              	.L44:
 1236              	.LVL132:
1077:Middlewares/tensorflow/third_party/cmsis_nn/Include/arm_nnsupportfunctions.h ****     SELECT_IF_NON_ZERO(242)
 1237              		.loc 2 1077 5 is_stmt 1 view .LVU350
 1238              	.LBB249:
 1239              	.LBI231:
 785:Middlewares/tensorflow/third_party/cmsis_nn/Include/arm_nnsupportfunctions.h **** {
 1240              		.loc 2 785 30 view .LVU351
 1241              	.LBB233:
 787:Middlewares/tensorflow/third_party/cmsis_nn/Include/arm_nnsupportfunctions.h ****     // Rounding offset to add for a right shift of 31
 1242              		.loc 2 787 5 view .LVU352
 789:Middlewares/tensorflow/third_party/cmsis_nn/Include/arm_nnsupportfunctions.h **** 
 1243              		.loc 2 789 5 view .LVU353
 791:Middlewares/tensorflow/third_party/cmsis_nn/Include/arm_nnsupportfunctions.h ****     {
 1244              		.loc 2 791 5 view .LVU354
ARM GAS  /tmp/ccLiBJQj.s 			page 49


 791:Middlewares/tensorflow/third_party/cmsis_nn/Include/arm_nnsupportfunctions.h ****     {
 1245              		.loc 2 791 8 is_stmt 0 view .LVU355
 1246 05ca 002B     		cmp	r3, #0
 1247 05cc BFF6E9AD 		bge	.L353
 793:Middlewares/tensorflow/third_party/cmsis_nn/Include/arm_nnsupportfunctions.h ****     }
 1248              		.loc 2 793 14 view .LVU356
 1249 05d0 DFF8E8C0 		ldr	ip, .L460+4
 1250 05d4 4FF0FF3E 		mov	lr, #-1
 1251              	.L45:
 1252              	.LVL133:
 796:Middlewares/tensorflow/third_party/cmsis_nn/Include/arm_nnsupportfunctions.h **** 
 1253              		.loc 2 796 5 is_stmt 1 view .LVU357
 796:Middlewares/tensorflow/third_party/cmsis_nn/Include/arm_nnsupportfunctions.h **** 
 1254              		.loc 2 796 31 is_stmt 0 view .LVU358
 1255 05d8 374F     		ldr	r7, .L460
 1256 05da A3FB0701 		umull	r0, r1, r3, r7
 1257 05de DD17     		asrs	r5, r3, #31
 1258 05e0 07FB0511 		mla	r1, r7, r5, r1
 796:Middlewares/tensorflow/third_party/cmsis_nn/Include/arm_nnsupportfunctions.h **** 
 1259              		.loc 2 796 10 view .LVU359
 1260 05e4 10EB0C04 		adds	r4, r0, ip
 1261 05e8 1A94     		str	r4, [sp, #104]
 1262 05ea 41EB0E01 		adc	r1, r1, lr
 1263 05ee 1B91     		str	r1, [sp, #108]
 1264              	.LVL134:
 800:Middlewares/tensorflow/third_party/cmsis_nn/Include/arm_nnsupportfunctions.h **** 
 1265              		.loc 2 800 5 is_stmt 1 view .LVU360
 800:Middlewares/tensorflow/third_party/cmsis_nn/Include/arm_nnsupportfunctions.h **** 
 1266              		.loc 2 800 29 is_stmt 0 view .LVU361
 1267 05f0 DDE91A9A 		ldrd	r9, [sp, #104]
 1268 05f4 4946     		mov	r1, r9
 1269 05f6 5446     		mov	r4, r10
 1270 05f8 B9F1000F 		cmp	r9, #0
 1271 05fc 7AF10000 		sbcs	r0, r10, #0
 1272 0600 FFF6D4AD 		blt	.L354
 1273              	.L46:
 1274 0604 C90F     		lsrs	r1, r1, #31
 800:Middlewares/tensorflow/third_party/cmsis_nn/Include/arm_nnsupportfunctions.h **** 
 1275              		.loc 2 800 12 view .LVU362
 1276 0606 41EA4401 		orr	r1, r1, r4, lsl #1
 1277              	.LVL135:
 802:Middlewares/tensorflow/third_party/cmsis_nn/Include/arm_nnsupportfunctions.h ****     {
 1278              		.loc 2 802 5 is_stmt 1 view .LVU363
 802:Middlewares/tensorflow/third_party/cmsis_nn/Include/arm_nnsupportfunctions.h ****     {
 1279              		.loc 2 802 8 is_stmt 0 view .LVU364
 1280 060a 2B48     		ldr	r0, .L460
 1281 060c 8342     		cmp	r3, r0
 1282 060e 3FF4D7AD 		beq	.L355
 1283              	.LVL136:
 1284              	.L47:
 806:Middlewares/tensorflow/third_party/cmsis_nn/Include/arm_nnsupportfunctions.h **** }
 1285              		.loc 2 806 5 is_stmt 1 view .LVU365
 806:Middlewares/tensorflow/third_party/cmsis_nn/Include/arm_nnsupportfunctions.h **** }
 1286              		.loc 2 806 5 is_stmt 0 view .LVU366
 1287              	.LBE233:
 1288              	.LBE249:
1077:Middlewares/tensorflow/third_party/cmsis_nn/Include/arm_nnsupportfunctions.h ****     SELECT_IF_NON_ZERO(242)
ARM GAS  /tmp/ccLiBJQj.s 			page 50


 1289              		.loc 2 1077 5 view .LVU367
 1290 0612 3140     		ands	r1, r1, r6
 1291 0614 23EA0604 		bic	r4, r3, r6
 1292 0618 4C40     		eors	r4, r4, r1
 1293              	.LVL137:
1078:Middlewares/tensorflow/third_party/cmsis_nn/Include/arm_nnsupportfunctions.h **** 
 1294              		.loc 2 1078 5 is_stmt 1 view .LVU368
1078:Middlewares/tensorflow/third_party/cmsis_nn/Include/arm_nnsupportfunctions.h **** 
 1295              		.loc 2 1078 5 is_stmt 0 view .LVU369
 1296 061a 12F08042 		ands	r2, r2, #1073741824
 1297              	.LVL138:
1078:Middlewares/tensorflow/third_party/cmsis_nn/Include/arm_nnsupportfunctions.h **** 
 1298              		.loc 2 1078 5 view .LVU370
 1299 061e 01D0     		beq	.L48
 1300 0620 4FF0FF32 		mov	r2, #-1
 1301              	.L48:
 1302              	.LVL139:
1078:Middlewares/tensorflow/third_party/cmsis_nn/Include/arm_nnsupportfunctions.h **** 
 1303              		.loc 2 1078 5 is_stmt 1 view .LVU371
 1304              	.LBB250:
 1305              	.LBI234:
 785:Middlewares/tensorflow/third_party/cmsis_nn/Include/arm_nnsupportfunctions.h **** {
 1306              		.loc 2 785 30 view .LVU372
 1307              	.LBB236:
 787:Middlewares/tensorflow/third_party/cmsis_nn/Include/arm_nnsupportfunctions.h ****     // Rounding offset to add for a right shift of 31
 1308              		.loc 2 787 5 view .LVU373
 789:Middlewares/tensorflow/third_party/cmsis_nn/Include/arm_nnsupportfunctions.h **** 
 1309              		.loc 2 789 5 view .LVU374
 791:Middlewares/tensorflow/third_party/cmsis_nn/Include/arm_nnsupportfunctions.h ****     {
 1310              		.loc 2 791 5 view .LVU375
 791:Middlewares/tensorflow/third_party/cmsis_nn/Include/arm_nnsupportfunctions.h ****     {
 1311              		.loc 2 791 8 is_stmt 0 view .LVU376
 1312 0624 002C     		cmp	r4, #0
 1313 0626 BFF6D2AD 		bge	.L356
 793:Middlewares/tensorflow/third_party/cmsis_nn/Include/arm_nnsupportfunctions.h ****     }
 1314              		.loc 2 793 14 view .LVU377
 1315 062a 244F     		ldr	r7, .L460+4
 1316 062c 4FF0FF3E 		mov	lr, #-1
 1317              	.L49:
 1318              	.LVL140:
 796:Middlewares/tensorflow/third_party/cmsis_nn/Include/arm_nnsupportfunctions.h **** 
 1319              		.loc 2 796 5 is_stmt 1 view .LVU378
 796:Middlewares/tensorflow/third_party/cmsis_nn/Include/arm_nnsupportfunctions.h **** 
 1320              		.loc 2 796 19 is_stmt 0 view .LVU379
 1321 0630 E117     		asrs	r1, r4, #31
 796:Middlewares/tensorflow/third_party/cmsis_nn/Include/arm_nnsupportfunctions.h **** 
 1322              		.loc 2 796 31 view .LVU380
 1323 0632 0E01     		lsls	r6, r1, #4
 1324 0634 2301     		lsls	r3, r4, #4
 1325 0636 46EA1475 		orr	r5, r6, r4, lsr #28
 1326 063a 1B1B     		subs	r3, r3, r4
 1327 063c 65EB0105 		sbc	r5, r5, r1
 1328 0640 EE00     		lsls	r6, r5, #3
 1329 0642 46EA5376 		orr	r6, r6, r3, lsr #29
 1330 0646 4FEAC30C 		lsl	ip, r3, #3
 1331 064a 3546     		mov	r5, r6
 1332 064c 1CEB0403 		adds	r3, ip, r4
ARM GAS  /tmp/ccLiBJQj.s 			page 51


 1333 0650 41EB0505 		adc	r5, r1, r5
 1334 0654 DB18     		adds	r3, r3, r3
 1335 0656 6D41     		adcs	r5, r5, r5
 796:Middlewares/tensorflow/third_party/cmsis_nn/Include/arm_nnsupportfunctions.h **** 
 1336              		.loc 2 796 10 view .LVU381
 1337 0658 DB19     		adds	r3, r3, r7
 1338 065a 1C93     		str	r3, [sp, #112]
 1339 065c 45EB0E03 		adc	r3, r5, lr
 1340 0660 1D93     		str	r3, [sp, #116]
 1341              	.LVL141:
 800:Middlewares/tensorflow/third_party/cmsis_nn/Include/arm_nnsupportfunctions.h **** 
 1342              		.loc 2 800 5 is_stmt 1 view .LVU382
 800:Middlewares/tensorflow/third_party/cmsis_nn/Include/arm_nnsupportfunctions.h **** 
 1343              		.loc 2 800 29 is_stmt 0 view .LVU383
 1344 0662 DDE91C56 		ldrd	r5, [sp, #112]
 1345 0666 2B46     		mov	r3, r5
 1346 0668 3146     		mov	r1, r6
 1347 066a 002D     		cmp	r5, #0
 1348 066c 76F10000 		sbcs	r0, r6, #0
 1349 0670 FFF6B2AD 		blt	.L357
 1350              	.L50:
 1351 0674 DB0F     		lsrs	r3, r3, #31
 800:Middlewares/tensorflow/third_party/cmsis_nn/Include/arm_nnsupportfunctions.h **** 
 1352              		.loc 2 800 12 view .LVU384
 1353 0676 43EA4103 		orr	r3, r3, r1, lsl #1
 1354              	.LVL142:
 802:Middlewares/tensorflow/third_party/cmsis_nn/Include/arm_nnsupportfunctions.h ****     {
 1355              		.loc 2 802 5 is_stmt 1 view .LVU385
 802:Middlewares/tensorflow/third_party/cmsis_nn/Include/arm_nnsupportfunctions.h ****     {
 1356              		.loc 2 802 8 is_stmt 0 view .LVU386
 1357 067a F22C     		cmp	r4, #242
 1358 067c 3FF4B4AD 		beq	.L358
 1359              	.LVL143:
 1360              	.L51:
 806:Middlewares/tensorflow/third_party/cmsis_nn/Include/arm_nnsupportfunctions.h **** }
 1361              		.loc 2 806 5 is_stmt 1 view .LVU387
 806:Middlewares/tensorflow/third_party/cmsis_nn/Include/arm_nnsupportfunctions.h **** }
 1362              		.loc 2 806 5 is_stmt 0 view .LVU388
 1363              	.LBE236:
 1364              	.LBE250:
1078:Middlewares/tensorflow/third_party/cmsis_nn/Include/arm_nnsupportfunctions.h **** 
 1365              		.loc 2 1078 5 view .LVU389
 1366 0680 1340     		ands	r3, r3, r2
 1367 0682 24EA0202 		bic	r2, r4, r2
 1368              	.LVL144:
1078:Middlewares/tensorflow/third_party/cmsis_nn/Include/arm_nnsupportfunctions.h **** 
 1369              		.loc 2 1078 5 view .LVU390
 1370 0686 5340     		eors	r3, r3, r2
 1371              	.LVL145:
 1372              		.loc 2 1082 5 is_stmt 1 view .LVU391
 1373              		.loc 2 1082 12 is_stmt 0 view .LVU392
 1374 0688 049A     		ldr	r2, [sp, #16]
 1375 068a 002A     		cmp	r2, #0
 1376 068c 7FF4B3AD 		bne	.L233
 1377 0690 4FF0FF31 		mov	r1, #-1
 1378              	.L52:
 1379              	.LVL146:
ARM GAS  /tmp/ccLiBJQj.s 			page 52


1083:Middlewares/tensorflow/third_party/cmsis_nn/Include/arm_nnsupportfunctions.h ****     return SELECT_USING_MASK(mask, NN_Q31_MAX, result);
 1380              		.loc 2 1083 5 is_stmt 1 view .LVU393
 1381              		.loc 2 1083 12 is_stmt 0 view .LVU394
 1382 0694 21F00040 		bic	r0, r1, #-2147483648
 1383 0698 C943     		mvns	r1, r1
 1384              	.LVL147:
 1385              		.loc 2 1083 12 view .LVU395
 1386 069a 0B40     		ands	r3, r3, r1
 1387              	.LVL148:
 1388              		.loc 2 1083 12 view .LVU396
 1389 069c 4340     		eors	r3, r3, r0
 1390              	.LVL149:
 1391              		.loc 2 1083 12 view .LVU397
 1392              	.LBE251:
 1393              	.LBE256:
 1394              	.LBB257:
 1395              	.LBI252:
 850:Middlewares/tensorflow/third_party/cmsis_nn/Include/arm_nnsupportfunctions.h **** {
 1396              		.loc 2 850 30 is_stmt 1 view .LVU398
 1397              	.LBB254:
 852:Middlewares/tensorflow/third_party/cmsis_nn/Include/arm_nnsupportfunctions.h ****     const int32_t remainder_mask = (1 << exponent) - 1;
 1398              		.loc 2 852 5 view .LVU399
 853:Middlewares/tensorflow/third_party/cmsis_nn/Include/arm_nnsupportfunctions.h ****     int32_t remainder = remainder_mask & dividend;
 1399              		.loc 2 853 5 view .LVU400
 854:Middlewares/tensorflow/third_party/cmsis_nn/Include/arm_nnsupportfunctions.h **** 
 1400              		.loc 2 854 5 view .LVU401
 854:Middlewares/tensorflow/third_party/cmsis_nn/Include/arm_nnsupportfunctions.h **** 
 1401              		.loc 2 854 13 is_stmt 0 view .LVU402
 1402 069e C3F30B02 		ubfx	r2, r3, #0, #12
 1403              	.LVL150:
 857:Middlewares/tensorflow/third_party/cmsis_nn/Include/arm_nnsupportfunctions.h **** 
 1404              		.loc 2 857 5 is_stmt 1 view .LVU403
 860:Middlewares/tensorflow/third_party/cmsis_nn/Include/arm_nnsupportfunctions.h ****     if (result < 0)
 1405              		.loc 2 860 5 view .LVU404
 861:Middlewares/tensorflow/third_party/cmsis_nn/Include/arm_nnsupportfunctions.h ****     {
 1406              		.loc 2 861 5 view .LVU405
 861:Middlewares/tensorflow/third_party/cmsis_nn/Include/arm_nnsupportfunctions.h ****     {
 1407              		.loc 2 861 8 is_stmt 0 view .LVU406
 1408 06a2 1B13     		asrs	r3, r3, #12
 1409              	.LVL151:
 861:Middlewares/tensorflow/third_party/cmsis_nn/Include/arm_nnsupportfunctions.h ****     {
 1410              		.loc 2 861 8 view .LVU407
 1411 06a4 3FF5A9AD 		bmi	.L234
 860:Middlewares/tensorflow/third_party/cmsis_nn/Include/arm_nnsupportfunctions.h ****     if (result < 0)
 1412              		.loc 2 860 13 view .LVU408
 1413 06a8 40F2FF71 		movw	r1, #2047
 1414              	.LVL152:
 1415              	.L53:
 865:Middlewares/tensorflow/third_party/cmsis_nn/Include/arm_nnsupportfunctions.h ****     {
 1416              		.loc 2 865 5 is_stmt 1 view .LVU409
 865:Middlewares/tensorflow/third_party/cmsis_nn/Include/arm_nnsupportfunctions.h ****     {
 1417              		.loc 2 865 8 is_stmt 0 view .LVU410
 1418 06ac 8A42     		cmp	r2, r1
 1419 06ae 7FF7A7AD 		ble	.L54
 867:Middlewares/tensorflow/third_party/cmsis_nn/Include/arm_nnsupportfunctions.h ****     }
 1420              		.loc 2 867 9 is_stmt 1 view .LVU411
 867:Middlewares/tensorflow/third_party/cmsis_nn/Include/arm_nnsupportfunctions.h ****     }
ARM GAS  /tmp/ccLiBJQj.s 			page 53


 1421              		.loc 2 867 15 is_stmt 0 view .LVU412
 1422 06b2 0133     		adds	r3, r3, #1
 1423              	.LVL153:
 867:Middlewares/tensorflow/third_party/cmsis_nn/Include/arm_nnsupportfunctions.h ****     }
 1424              		.loc 2 867 15 view .LVU413
 1425 06b4 A4E5     		b	.L54
 1426              	.L461:
 1427 06b6 00BF     		.align	2
 1428              	.L460:
 1429 06b8 11FE0A00 		.word	720401
 1430 06bc 010000C0 		.word	-1073741823
 1431              	.LVL154:
 1432              	.L324:
 867:Middlewares/tensorflow/third_party/cmsis_nn/Include/arm_nnsupportfunctions.h ****     }
 1433              		.loc 2 867 15 view .LVU414
 1434 06c0 DDF860A1 		ldr	r10, [sp, #352]
 1435              	.LBE254:
 1436              	.LBE257:
  89:Middlewares/tensorflow/third_party/cmsis_nn/Source/SoftmaxFunctions/arm_nn_softmax_common_s8.c ****             }
  90:Middlewares/tensorflow/third_party/cmsis_nn/Source/SoftmaxFunctions/arm_nn_softmax_common_s8.c ****         }
  91:Middlewares/tensorflow/third_party/cmsis_nn/Source/SoftmaxFunctions/arm_nn_softmax_common_s8.c **** 
  92:Middlewares/tensorflow/third_party/cmsis_nn/Source/SoftmaxFunctions/arm_nn_softmax_common_s8.c ****         const int32_t headroom = CLZ(sum);
 1437              		.loc 1 92 9 is_stmt 1 view .LVU415
 1438              	.LVL155:
 1439              	.LBB258:
 1440              	.LBI258:
 1441              		.file 3 "Middlewares/tensorflow/third_party/cmsis_nn/Include/Internal/arm_nn_compiler.h"
   1:Middlewares/tensorflow/third_party/cmsis_nn/Include/Internal/arm_nn_compiler.h **** /*
   2:Middlewares/tensorflow/third_party/cmsis_nn/Include/Internal/arm_nn_compiler.h ****  * SPDX-FileCopyrightText: Copyright 2023 Arm Limited and/or its affiliates <open-source-office@arm
   3:Middlewares/tensorflow/third_party/cmsis_nn/Include/Internal/arm_nn_compiler.h ****  *
   4:Middlewares/tensorflow/third_party/cmsis_nn/Include/Internal/arm_nn_compiler.h ****  * SPDX-License-Identifier: Apache-2.0
   5:Middlewares/tensorflow/third_party/cmsis_nn/Include/Internal/arm_nn_compiler.h ****  *
   6:Middlewares/tensorflow/third_party/cmsis_nn/Include/Internal/arm_nn_compiler.h ****  * Licensed under the Apache License, Version 2.0 (the License); you may
   7:Middlewares/tensorflow/third_party/cmsis_nn/Include/Internal/arm_nn_compiler.h ****  * not use this file except in compliance with the License.
   8:Middlewares/tensorflow/third_party/cmsis_nn/Include/Internal/arm_nn_compiler.h ****  * You may obtain a copy of the License at
   9:Middlewares/tensorflow/third_party/cmsis_nn/Include/Internal/arm_nn_compiler.h ****  *
  10:Middlewares/tensorflow/third_party/cmsis_nn/Include/Internal/arm_nn_compiler.h ****  * www.apache.org/licenses/LICENSE-2.0
  11:Middlewares/tensorflow/third_party/cmsis_nn/Include/Internal/arm_nn_compiler.h ****  *
