ARM GAS  /tmp/ccOcL3QG.s 			page 1


   1              		.cpu cortex-m4
   2              		.eabi_attribute 27, 1
   3              		.eabi_attribute 28, 1
   4              		.eabi_attribute 20, 1
   5              		.eabi_attribute 21, 1
   6              		.eabi_attribute 23, 3
   7              		.eabi_attribute 24, 1
   8              		.eabi_attribute 25, 1
   9              		.eabi_attribute 26, 1
  10              		.eabi_attribute 30, 1
  11              		.eabi_attribute 34, 1
  12              		.eabi_attribute 18, 4
  13              		.file	"arm_svdf_state_s16_s8.c"
  14              		.text
  15              	.Ltext0:
  16              		.cfi_sections	.debug_frame
  17              		.section	.text.arm_svdf_state_s16_s8,"ax",%progbits
  18              		.align	1
  19              		.global	arm_svdf_state_s16_s8
  20              		.arch armv7e-m
  21              		.syntax unified
  22              		.thumb
  23              		.thumb_func
  24              		.fpu fpv4-sp-d16
  26              	arm_svdf_state_s16_s8:
  27              	.LVL0:
  28              	.LFB47:
  29              		.file 1 "Middlewares/tensorflow/third_party/cmsis_nn/Source/SVDFunctions/arm_svdf_state_s16_s8.c"
   1:Middlewares/tensorflow/third_party/cmsis_nn/Source/SVDFunctions/arm_svdf_state_s16_s8.c **** /*
   2:Middlewares/tensorflow/third_party/cmsis_nn/Source/SVDFunctions/arm_svdf_state_s16_s8.c ****  * SPDX-FileCopyrightText: Copyright 2010-2023 Arm Limited and/or its affiliates <open-source-offic
   3:Middlewares/tensorflow/third_party/cmsis_nn/Source/SVDFunctions/arm_svdf_state_s16_s8.c ****  *
   4:Middlewares/tensorflow/third_party/cmsis_nn/Source/SVDFunctions/arm_svdf_state_s16_s8.c ****  * SPDX-License-Identifier: Apache-2.0
   5:Middlewares/tensorflow/third_party/cmsis_nn/Source/SVDFunctions/arm_svdf_state_s16_s8.c ****  *
   6:Middlewares/tensorflow/third_party/cmsis_nn/Source/SVDFunctions/arm_svdf_state_s16_s8.c ****  * Licensed under the Apache License, Version 2.0 (the License); you may
   7:Middlewares/tensorflow/third_party/cmsis_nn/Source/SVDFunctions/arm_svdf_state_s16_s8.c ****  * not use this file except in compliance with the License.
   8:Middlewares/tensorflow/third_party/cmsis_nn/Source/SVDFunctions/arm_svdf_state_s16_s8.c ****  * You may obtain a copy of the License at
   9:Middlewares/tensorflow/third_party/cmsis_nn/Source/SVDFunctions/arm_svdf_state_s16_s8.c ****  *
  10:Middlewares/tensorflow/third_party/cmsis_nn/Source/SVDFunctions/arm_svdf_state_s16_s8.c ****  * www.apache.org/licenses/LICENSE-2.0
  11:Middlewares/tensorflow/third_party/cmsis_nn/Source/SVDFunctions/arm_svdf_state_s16_s8.c ****  *
  12:Middlewares/tensorflow/third_party/cmsis_nn/Source/SVDFunctions/arm_svdf_state_s16_s8.c ****  * Unless required by applicable law or agreed to in writing, software
  13:Middlewares/tensorflow/third_party/cmsis_nn/Source/SVDFunctions/arm_svdf_state_s16_s8.c ****  * distributed under the License is distributed on an AS IS BASIS, WITHOUT
  14:Middlewares/tensorflow/third_party/cmsis_nn/Source/SVDFunctions/arm_svdf_state_s16_s8.c ****  * WARRANTIES OR CONDITIONS OF ANY KIND, either express or implied.
  15:Middlewares/tensorflow/third_party/cmsis_nn/Source/SVDFunctions/arm_svdf_state_s16_s8.c ****  * See the License for the specific language governing permissions and
  16:Middlewares/tensorflow/third_party/cmsis_nn/Source/SVDFunctions/arm_svdf_state_s16_s8.c ****  * limitations under the License.
  17:Middlewares/tensorflow/third_party/cmsis_nn/Source/SVDFunctions/arm_svdf_state_s16_s8.c ****  */
  18:Middlewares/tensorflow/third_party/cmsis_nn/Source/SVDFunctions/arm_svdf_state_s16_s8.c **** 
  19:Middlewares/tensorflow/third_party/cmsis_nn/Source/SVDFunctions/arm_svdf_state_s16_s8.c **** /* ----------------------------------------------------------------------
  20:Middlewares/tensorflow/third_party/cmsis_nn/Source/SVDFunctions/arm_svdf_state_s16_s8.c ****  * Project:      CMSIS NN Library
  21:Middlewares/tensorflow/third_party/cmsis_nn/Source/SVDFunctions/arm_svdf_state_s16_s8.c ****  * Title:        arm_svdf_s8.c
  22:Middlewares/tensorflow/third_party/cmsis_nn/Source/SVDFunctions/arm_svdf_state_s16_s8.c ****  * Description:  S8 basic SVDF layer function with s16 state tensor
  23:Middlewares/tensorflow/third_party/cmsis_nn/Source/SVDFunctions/arm_svdf_state_s16_s8.c ****  *
  24:Middlewares/tensorflow/third_party/cmsis_nn/Source/SVDFunctions/arm_svdf_state_s16_s8.c ****  * $Date:        5 January 2023
  25:Middlewares/tensorflow/third_party/cmsis_nn/Source/SVDFunctions/arm_svdf_state_s16_s8.c ****  * $Revision:    V.3.1.0
  26:Middlewares/tensorflow/third_party/cmsis_nn/Source/SVDFunctions/arm_svdf_state_s16_s8.c ****  *
  27:Middlewares/tensorflow/third_party/cmsis_nn/Source/SVDFunctions/arm_svdf_state_s16_s8.c ****  * Target :  Arm(R) M-Profile Architecture
  28:Middlewares/tensorflow/third_party/cmsis_nn/Source/SVDFunctions/arm_svdf_state_s16_s8.c ****  *
  29:Middlewares/tensorflow/third_party/cmsis_nn/Source/SVDFunctions/arm_svdf_state_s16_s8.c ****  * -------------------------------------------------------------------- */
ARM GAS  /tmp/ccOcL3QG.s 			page 2


  30:Middlewares/tensorflow/third_party/cmsis_nn/Source/SVDFunctions/arm_svdf_state_s16_s8.c **** 
  31:Middlewares/tensorflow/third_party/cmsis_nn/Source/SVDFunctions/arm_svdf_state_s16_s8.c **** #include "arm_nnfunctions.h"
  32:Middlewares/tensorflow/third_party/cmsis_nn/Source/SVDFunctions/arm_svdf_state_s16_s8.c **** #include "arm_nnsupportfunctions.h"
  33:Middlewares/tensorflow/third_party/cmsis_nn/Source/SVDFunctions/arm_svdf_state_s16_s8.c **** 
  34:Middlewares/tensorflow/third_party/cmsis_nn/Source/SVDFunctions/arm_svdf_state_s16_s8.c **** /**
  35:Middlewares/tensorflow/third_party/cmsis_nn/Source/SVDFunctions/arm_svdf_state_s16_s8.c ****  * @ingroup Public
  36:Middlewares/tensorflow/third_party/cmsis_nn/Source/SVDFunctions/arm_svdf_state_s16_s8.c ****  */
  37:Middlewares/tensorflow/third_party/cmsis_nn/Source/SVDFunctions/arm_svdf_state_s16_s8.c **** 
  38:Middlewares/tensorflow/third_party/cmsis_nn/Source/SVDFunctions/arm_svdf_state_s16_s8.c **** /**
  39:Middlewares/tensorflow/third_party/cmsis_nn/Source/SVDFunctions/arm_svdf_state_s16_s8.c ****  * @addtogroup SVDF
  40:Middlewares/tensorflow/third_party/cmsis_nn/Source/SVDFunctions/arm_svdf_state_s16_s8.c ****  * @{
  41:Middlewares/tensorflow/third_party/cmsis_nn/Source/SVDFunctions/arm_svdf_state_s16_s8.c ****  */
  42:Middlewares/tensorflow/third_party/cmsis_nn/Source/SVDFunctions/arm_svdf_state_s16_s8.c **** 
  43:Middlewares/tensorflow/third_party/cmsis_nn/Source/SVDFunctions/arm_svdf_state_s16_s8.c **** /*
  44:Middlewares/tensorflow/third_party/cmsis_nn/Source/SVDFunctions/arm_svdf_state_s16_s8.c ****  * S8 SVDF layer function for TensorFlow Lite with 16 bit state tensor
  45:Middlewares/tensorflow/third_party/cmsis_nn/Source/SVDFunctions/arm_svdf_state_s16_s8.c ****  *
  46:Middlewares/tensorflow/third_party/cmsis_nn/Source/SVDFunctions/arm_svdf_state_s16_s8.c ****  * Refer to header file for details.
  47:Middlewares/tensorflow/third_party/cmsis_nn/Source/SVDFunctions/arm_svdf_state_s16_s8.c ****  *
  48:Middlewares/tensorflow/third_party/cmsis_nn/Source/SVDFunctions/arm_svdf_state_s16_s8.c ****  */
  49:Middlewares/tensorflow/third_party/cmsis_nn/Source/SVDFunctions/arm_svdf_state_s16_s8.c **** 
  50:Middlewares/tensorflow/third_party/cmsis_nn/Source/SVDFunctions/arm_svdf_state_s16_s8.c **** arm_cmsis_nn_status arm_svdf_state_s16_s8(const cmsis_nn_context *input_ctx,
  51:Middlewares/tensorflow/third_party/cmsis_nn/Source/SVDFunctions/arm_svdf_state_s16_s8.c ****                                           const cmsis_nn_context *output_ctx,
  52:Middlewares/tensorflow/third_party/cmsis_nn/Source/SVDFunctions/arm_svdf_state_s16_s8.c ****                                           const cmsis_nn_svdf_params *svdf_params,
  53:Middlewares/tensorflow/third_party/cmsis_nn/Source/SVDFunctions/arm_svdf_state_s16_s8.c ****                                           const cmsis_nn_per_tensor_quant_params *input_quant_param
  54:Middlewares/tensorflow/third_party/cmsis_nn/Source/SVDFunctions/arm_svdf_state_s16_s8.c ****                                           const cmsis_nn_per_tensor_quant_params *output_quant_para
  55:Middlewares/tensorflow/third_party/cmsis_nn/Source/SVDFunctions/arm_svdf_state_s16_s8.c ****                                           const cmsis_nn_dims *input_dims,
  56:Middlewares/tensorflow/third_party/cmsis_nn/Source/SVDFunctions/arm_svdf_state_s16_s8.c ****                                           const int8_t *input_data,
  57:Middlewares/tensorflow/third_party/cmsis_nn/Source/SVDFunctions/arm_svdf_state_s16_s8.c ****                                           const cmsis_nn_dims *state_dims,
  58:Middlewares/tensorflow/third_party/cmsis_nn/Source/SVDFunctions/arm_svdf_state_s16_s8.c ****                                           int16_t *state_data,
  59:Middlewares/tensorflow/third_party/cmsis_nn/Source/SVDFunctions/arm_svdf_state_s16_s8.c ****                                           const cmsis_nn_dims *weights_feature_dims,
  60:Middlewares/tensorflow/third_party/cmsis_nn/Source/SVDFunctions/arm_svdf_state_s16_s8.c ****                                           const int8_t *weights_feature_data,
  61:Middlewares/tensorflow/third_party/cmsis_nn/Source/SVDFunctions/arm_svdf_state_s16_s8.c ****                                           const cmsis_nn_dims *weights_time_dims,
  62:Middlewares/tensorflow/third_party/cmsis_nn/Source/SVDFunctions/arm_svdf_state_s16_s8.c ****                                           const int16_t *weights_time_data,
  63:Middlewares/tensorflow/third_party/cmsis_nn/Source/SVDFunctions/arm_svdf_state_s16_s8.c ****                                           const cmsis_nn_dims *bias_dims,
  64:Middlewares/tensorflow/third_party/cmsis_nn/Source/SVDFunctions/arm_svdf_state_s16_s8.c ****                                           const int32_t *bias_data,
  65:Middlewares/tensorflow/third_party/cmsis_nn/Source/SVDFunctions/arm_svdf_state_s16_s8.c ****                                           const cmsis_nn_dims *output_dims,
  66:Middlewares/tensorflow/third_party/cmsis_nn/Source/SVDFunctions/arm_svdf_state_s16_s8.c ****                                           int8_t *output_data)
  67:Middlewares/tensorflow/third_party/cmsis_nn/Source/SVDFunctions/arm_svdf_state_s16_s8.c **** {
  30              		.loc 1 67 1 view -0
  31              		.cfi_startproc
  32              		@ args = 52, pretend = 0, frame = 56
  33              		@ frame_needed = 0, uses_anonymous_args = 0
  34              		.loc 1 67 1 is_stmt 0 view .LVU1
  35 0000 2DE9F04F 		push	{r4, r5, r6, r7, r8, r9, r10, fp, lr}
  36              	.LCFI0:
  37              		.cfi_def_cfa_offset 36
  38              		.cfi_offset 4, -36
  39              		.cfi_offset 5, -32
  40              		.cfi_offset 6, -28
  41              		.cfi_offset 7, -24
  42              		.cfi_offset 8, -20
  43              		.cfi_offset 9, -16
  44              		.cfi_offset 10, -12
  45              		.cfi_offset 11, -8
  46              		.cfi_offset 14, -4
  47 0004 97B0     		sub	sp, sp, #92
  48              	.LCFI1:
ARM GAS  /tmp/ccOcL3QG.s 			page 3


  49              		.cfi_def_cfa_offset 128
  50 0006 209E     		ldr	r6, [sp, #128]
  51 0008 219D     		ldr	r5, [sp, #132]
  52 000a 249C     		ldr	r4, [sp, #144]
  68:Middlewares/tensorflow/third_party/cmsis_nn/Source/SVDFunctions/arm_svdf_state_s16_s8.c ****     (void)bias_dims;
  53              		.loc 1 68 5 is_stmt 1 view .LVU2
  69:Middlewares/tensorflow/third_party/cmsis_nn/Source/SVDFunctions/arm_svdf_state_s16_s8.c ****     (void)state_dims;
  54              		.loc 1 69 5 view .LVU3
  70:Middlewares/tensorflow/third_party/cmsis_nn/Source/SVDFunctions/arm_svdf_state_s16_s8.c ****     (void)output_dims;
  55              		.loc 1 70 5 view .LVU4
  71:Middlewares/tensorflow/third_party/cmsis_nn/Source/SVDFunctions/arm_svdf_state_s16_s8.c **** 
  72:Middlewares/tensorflow/third_party/cmsis_nn/Source/SVDFunctions/arm_svdf_state_s16_s8.c ****     const int32_t multiplier_in = input_quant_params->multiplier;
  56              		.loc 1 72 5 view .LVU5
  57              		.loc 1 72 19 is_stmt 0 view .LVU6
  58 000c 1F68     		ldr	r7, [r3]
  59 000e 0897     		str	r7, [sp, #32]
  60              	.LVL1:
  73:Middlewares/tensorflow/third_party/cmsis_nn/Source/SVDFunctions/arm_svdf_state_s16_s8.c ****     const int32_t shift_in = input_quant_params->shift;
  61              		.loc 1 73 5 is_stmt 1 view .LVU7
  62              		.loc 1 73 19 is_stmt 0 view .LVU8
  63 0010 5B68     		ldr	r3, [r3, #4]
  64              	.LVL2:
  65              		.loc 1 73 19 view .LVU9
  66 0012 0993     		str	r3, [sp, #36]
  67              	.LVL3:
  74:Middlewares/tensorflow/third_party/cmsis_nn/Source/SVDFunctions/arm_svdf_state_s16_s8.c ****     const int32_t multiplier_out = output_quant_params->multiplier;
  68              		.loc 1 74 5 is_stmt 1 view .LVU10
  69              		.loc 1 74 19 is_stmt 0 view .LVU11
  70 0014 3368     		ldr	r3, [r6]
  71              	.LVL4:
  72              		.loc 1 74 19 view .LVU12
  73 0016 1093     		str	r3, [sp, #64]
  74              	.LVL5:
  75:Middlewares/tensorflow/third_party/cmsis_nn/Source/SVDFunctions/arm_svdf_state_s16_s8.c ****     const int32_t shift_2 = output_quant_params->shift;
  75              		.loc 1 75 5 is_stmt 1 view .LVU13
  76              		.loc 1 75 19 is_stmt 0 view .LVU14
  77 0018 7368     		ldr	r3, [r6, #4]
  78              	.LVL6:
  79              		.loc 1 75 19 view .LVU15
  80 001a 1193     		str	r3, [sp, #68]
  81              	.LVL7:
  76:Middlewares/tensorflow/third_party/cmsis_nn/Source/SVDFunctions/arm_svdf_state_s16_s8.c ****     const int32_t zp_in = svdf_params->input_offset;
  82              		.loc 1 76 5 is_stmt 1 view .LVU16
  83              		.loc 1 76 19 is_stmt 0 view .LVU17
  84 001c D2F804A0 		ldr	r10, [r2, #4]
  85              	.LVL8:
  77:Middlewares/tensorflow/third_party/cmsis_nn/Source/SVDFunctions/arm_svdf_state_s16_s8.c ****     const int32_t zp_out = svdf_params->output_offset;
  86              		.loc 1 77 5 is_stmt 1 view .LVU18
  87              		.loc 1 77 19 is_stmt 0 view .LVU19
  88 0020 9368     		ldr	r3, [r2, #8]
  89              	.LVL9:
  90              		.loc 1 77 19 view .LVU20
  91 0022 1293     		str	r3, [sp, #72]
  92              	.LVL10:
  78:Middlewares/tensorflow/third_party/cmsis_nn/Source/SVDFunctions/arm_svdf_state_s16_s8.c ****     const int32_t in_activation_min = svdf_params->input_activation.min;
  93              		.loc 1 78 5 is_stmt 1 view .LVU21
  94              		.loc 1 78 19 is_stmt 0 view .LVU22
ARM GAS  /tmp/ccOcL3QG.s 			page 4


  95 0024 D368     		ldr	r3, [r2, #12]
  96              	.LVL11:
  97              		.loc 1 78 19 view .LVU23
  98 0026 0A93     		str	r3, [sp, #40]
  99              	.LVL12:
  79:Middlewares/tensorflow/third_party/cmsis_nn/Source/SVDFunctions/arm_svdf_state_s16_s8.c ****     const int32_t in_activation_max = svdf_params->input_activation.max;
 100              		.loc 1 79 5 is_stmt 1 view .LVU24
 101              		.loc 1 79 19 is_stmt 0 view .LVU25
 102 0028 1369     		ldr	r3, [r2, #16]
 103              	.LVL13:
 104              		.loc 1 79 19 view .LVU26
 105 002a 0B93     		str	r3, [sp, #44]
 106              	.LVL14:
  80:Middlewares/tensorflow/third_party/cmsis_nn/Source/SVDFunctions/arm_svdf_state_s16_s8.c ****     const int32_t out_activation_min = svdf_params->output_activation.min;
 107              		.loc 1 80 5 is_stmt 1 view .LVU27
 108              		.loc 1 80 19 is_stmt 0 view .LVU28
 109 002c 5369     		ldr	r3, [r2, #20]
 110              	.LVL15:
 111              		.loc 1 80 19 view .LVU29
 112 002e 0D93     		str	r3, [sp, #52]
 113              	.LVL16:
  81:Middlewares/tensorflow/third_party/cmsis_nn/Source/SVDFunctions/arm_svdf_state_s16_s8.c ****     const int32_t out_activation_max = svdf_params->output_activation.max;
 114              		.loc 1 81 5 is_stmt 1 view .LVU30
 115              		.loc 1 81 19 is_stmt 0 view .LVU31
 116 0030 9369     		ldr	r3, [r2, #24]
 117              	.LVL17:
 118              		.loc 1 81 19 view .LVU32
 119 0032 1393     		str	r3, [sp, #76]
 120              	.LVL18:
  82:Middlewares/tensorflow/third_party/cmsis_nn/Source/SVDFunctions/arm_svdf_state_s16_s8.c ****     const int16_t rank = svdf_params->rank;
 121              		.loc 1 82 5 is_stmt 1 view .LVU33
 122              		.loc 1 82 19 is_stmt 0 view .LVU34
 123 0034 B2F90030 		ldrsh	r3, [r2]
 124              	.LVL19:
  83:Middlewares/tensorflow/third_party/cmsis_nn/Source/SVDFunctions/arm_svdf_state_s16_s8.c **** 
  84:Middlewares/tensorflow/third_party/cmsis_nn/Source/SVDFunctions/arm_svdf_state_s16_s8.c ****     const int32_t input_batches = input_dims->n;
 125              		.loc 1 84 5 is_stmt 1 view .LVU35
 126              		.loc 1 84 19 is_stmt 0 view .LVU36
 127 0038 2A68     		ldr	r2, [r5]
 128              	.LVL20:
 129              		.loc 1 84 19 view .LVU37
 130 003a 0C92     		str	r2, [sp, #48]
 131              	.LVL21:
  85:Middlewares/tensorflow/third_party/cmsis_nn/Source/SVDFunctions/arm_svdf_state_s16_s8.c ****     const int32_t input_height = input_dims->h;
 132              		.loc 1 85 5 is_stmt 1 view .LVU38
 133              		.loc 1 85 19 is_stmt 0 view .LVU39
 134 003c D5F80490 		ldr	r9, [r5, #4]
 135              	.LVL22:
  86:Middlewares/tensorflow/third_party/cmsis_nn/Source/SVDFunctions/arm_svdf_state_s16_s8.c ****     const int32_t feature_batches = weights_feature_dims->n;
 136              		.loc 1 86 5 is_stmt 1 view .LVU40
 137              		.loc 1 86 19 is_stmt 0 view .LVU41
 138 0040 259A     		ldr	r2, [sp, #148]
 139              	.LVL23:
 140              		.loc 1 86 19 view .LVU42
 141 0042 1768     		ldr	r7, [r2]
 142              	.LVL24:
  87:Middlewares/tensorflow/third_party/cmsis_nn/Source/SVDFunctions/arm_svdf_state_s16_s8.c ****     const int32_t time_batches = weights_time_dims->h;
ARM GAS  /tmp/ccOcL3QG.s 			page 5


 143              		.loc 1 87 5 is_stmt 1 view .LVU43
 144              		.loc 1 87 19 is_stmt 0 view .LVU44
 145 0044 279A     		ldr	r2, [sp, #156]
 146 0046 5568     		ldr	r5, [r2, #4]
 147              	.LVL25:
  88:Middlewares/tensorflow/third_party/cmsis_nn/Source/SVDFunctions/arm_svdf_state_s16_s8.c ****     const int32_t unit_count = feature_batches / rank;
 148              		.loc 1 88 5 is_stmt 1 view .LVU45
 149              		.loc 1 88 48 is_stmt 0 view .LVU46
 150 0048 1E46     		mov	r6, r3
 151              	.LVL26:
 152              		.loc 1 88 19 view .LVU47
 153 004a 97FBF3F3 		sdiv	r3, r7, r3
 154              	.LVL27:
 155              		.loc 1 88 19 view .LVU48
 156 004e 0E93     		str	r3, [sp, #56]
 157              	.LVL28:
  89:Middlewares/tensorflow/third_party/cmsis_nn/Source/SVDFunctions/arm_svdf_state_s16_s8.c **** 
  90:Middlewares/tensorflow/third_party/cmsis_nn/Source/SVDFunctions/arm_svdf_state_s16_s8.c ****     if (input_ctx->buf == NULL)
 158              		.loc 1 90 5 is_stmt 1 view .LVU49
 159              		.loc 1 90 18 is_stmt 0 view .LVU50
 160 0050 0068     		ldr	r0, [r0]
 161              	.LVL29:
 162              		.loc 1 90 18 view .LVU51
 163 0052 0F90     		str	r0, [sp, #60]
 164              		.loc 1 90 8 view .LVU52
 165 0054 0028     		cmp	r0, #0
 166 0056 00F07E81 		beq	.L43
  91:Middlewares/tensorflow/third_party/cmsis_nn/Source/SVDFunctions/arm_svdf_state_s16_s8.c ****     {
  92:Middlewares/tensorflow/third_party/cmsis_nn/Source/SVDFunctions/arm_svdf_state_s16_s8.c ****         return ARM_CMSIS_NN_ARG_ERROR;
  93:Middlewares/tensorflow/third_party/cmsis_nn/Source/SVDFunctions/arm_svdf_state_s16_s8.c ****     }
  94:Middlewares/tensorflow/third_party/cmsis_nn/Source/SVDFunctions/arm_svdf_state_s16_s8.c ****     int32_t *buffer_a = (int32_t *)input_ctx->buf;
 167              		.loc 1 94 5 is_stmt 1 view .LVU53
 168              	.LVL30:
  95:Middlewares/tensorflow/third_party/cmsis_nn/Source/SVDFunctions/arm_svdf_state_s16_s8.c **** 
  96:Middlewares/tensorflow/third_party/cmsis_nn/Source/SVDFunctions/arm_svdf_state_s16_s8.c ****     if (output_ctx->buf == NULL)
 169              		.loc 1 96 5 view .LVU54
 170              		.loc 1 96 19 is_stmt 0 view .LVU55
 171 005a D1F800B0 		ldr	fp, [r1]
 172              		.loc 1 96 8 view .LVU56
 173 005e BBF1000F 		cmp	fp, #0
 174 0062 00F07B81 		beq	.L44
  97:Middlewares/tensorflow/third_party/cmsis_nn/Source/SVDFunctions/arm_svdf_state_s16_s8.c ****     {
  98:Middlewares/tensorflow/third_party/cmsis_nn/Source/SVDFunctions/arm_svdf_state_s16_s8.c ****         return ARM_CMSIS_NN_ARG_ERROR;
  99:Middlewares/tensorflow/third_party/cmsis_nn/Source/SVDFunctions/arm_svdf_state_s16_s8.c ****     }
 100:Middlewares/tensorflow/third_party/cmsis_nn/Source/SVDFunctions/arm_svdf_state_s16_s8.c ****     int32_t *buffer_b = (int32_t *)output_ctx->buf;
 175              		.loc 1 100 5 is_stmt 1 view .LVU57
 176              	.LVL31:
 101:Middlewares/tensorflow/third_party/cmsis_nn/Source/SVDFunctions/arm_svdf_state_s16_s8.c **** 
 102:Middlewares/tensorflow/third_party/cmsis_nn/Source/SVDFunctions/arm_svdf_state_s16_s8.c ****     // Left shift state
 103:Middlewares/tensorflow/third_party/cmsis_nn/Source/SVDFunctions/arm_svdf_state_s16_s8.c ****     memmove((int16_t *)state_data,
 177              		.loc 1 103 5 view .LVU58
 104:Middlewares/tensorflow/third_party/cmsis_nn/Source/SVDFunctions/arm_svdf_state_s16_s8.c ****             (int16_t *)state_data + 1,
 105:Middlewares/tensorflow/third_party/cmsis_nn/Source/SVDFunctions/arm_svdf_state_s16_s8.c ****             (size_t)((input_batches * feature_batches * time_batches - 1) * (int32_t)sizeof(int16_t
 178              		.loc 1 105 37 is_stmt 0 view .LVU59
 179 0066 0C9B     		ldr	r3, [sp, #48]
 180              	.LVL32:
 181              		.loc 1 105 37 view .LVU60
ARM GAS  /tmp/ccOcL3QG.s 			page 6


 182 0068 07FB03F2 		mul	r2, r7, r3
 183              		.loc 1 105 55 view .LVU61
 184 006c 05FB02F2 		mul	r2, r5, r2
 185              		.loc 1 105 70 view .LVU62
 186 0070 013A     		subs	r2, r2, #1
 103:Middlewares/tensorflow/third_party/cmsis_nn/Source/SVDFunctions/arm_svdf_state_s16_s8.c ****             (int16_t *)state_data + 1,
 187              		.loc 1 103 5 view .LVU63
 188 0072 5200     		lsls	r2, r2, #1
 189 0074 A11C     		adds	r1, r4, #2
 190              	.LVL33:
 103:Middlewares/tensorflow/third_party/cmsis_nn/Source/SVDFunctions/arm_svdf_state_s16_s8.c ****             (int16_t *)state_data + 1,
 191              		.loc 1 103 5 view .LVU64
 192 0076 2046     		mov	r0, r4
 193              	.LVL34:
 103:Middlewares/tensorflow/third_party/cmsis_nn/Source/SVDFunctions/arm_svdf_state_s16_s8.c ****             (int16_t *)state_data + 1,
 194              		.loc 1 103 5 view .LVU65
 195 0078 FFF7FEFF 		bl	memmove
 196              	.LVL35:
 106:Middlewares/tensorflow/third_party/cmsis_nn/Source/SVDFunctions/arm_svdf_state_s16_s8.c **** 
 107:Middlewares/tensorflow/third_party/cmsis_nn/Source/SVDFunctions/arm_svdf_state_s16_s8.c ****     // Matrix multiplication input * feature weight
 108:Middlewares/tensorflow/third_party/cmsis_nn/Source/SVDFunctions/arm_svdf_state_s16_s8.c ****     for (int i_batch = 0; i_batch < input_batches; i_batch++)
 197              		.loc 1 108 5 is_stmt 1 view .LVU66
 198              	.LBB59:
 199              		.loc 1 108 10 view .LVU67
 200              		.loc 1 108 14 is_stmt 0 view .LVU68
 201 007c 4FF00008 		mov	r8, #0
 202 0080 1496     		str	r6, [sp, #80]
 203 0082 CDF854B0 		str	fp, [sp, #84]
 204 0086 4E46     		mov	r6, r9
 205              	.LVL36:
 206              		.loc 1 108 14 view .LVU69
 207 0088 DDF83090 		ldr	r9, [sp, #48]
 208              	.LVL37:
 209              		.loc 1 108 14 view .LVU70
 210 008c DDF888B0 		ldr	fp, [sp, #136]
 211              	.LVL38:
 212              		.loc 1 108 5 view .LVU71
 213 0090 01E0     		b	.L3
 214              	.LVL39:
 215              	.L57:
 216              		.loc 1 108 52 is_stmt 1 discriminator 2 view .LVU72
 217              		.loc 1 108 59 is_stmt 0 discriminator 2 view .LVU73
 218 0092 08F10108 		add	r8, r8, #1
 219              	.LVL40:
 220              	.L3:
 221              		.loc 1 108 27 is_stmt 1 discriminator 1 view .LVU74
 222              		.loc 1 108 5 is_stmt 0 discriminator 1 view .LVU75
 223 0096 C845     		cmp	r8, r9
 224 0098 1EDA     		bge	.L56
 225              	.LBB60:
 109:Middlewares/tensorflow/third_party/cmsis_nn/Source/SVDFunctions/arm_svdf_state_s16_s8.c ****     {
 110:Middlewares/tensorflow/third_party/cmsis_nn/Source/SVDFunctions/arm_svdf_state_s16_s8.c ****         int16_t *res_ptr = state_data + (time_batches * i_batch * feature_batches) + (time_batches 
 226              		.loc 1 110 9 is_stmt 1 view .LVU76
 227              		.loc 1 110 55 is_stmt 0 view .LVU77
 228 009a 05FB08F2 		mul	r2, r5, r8
 229              		.loc 1 110 84 view .LVU78
 230 009e 07FB0252 		mla	r2, r7, r2, r5
ARM GAS  /tmp/ccOcL3QG.s 			page 7


 231 00a2 02F10042 		add	r2, r2, #-2147483648
 232 00a6 013A     		subs	r2, r2, #1
 233              	.LVL41:
 111:Middlewares/tensorflow/third_party/cmsis_nn/Source/SVDFunctions/arm_svdf_state_s16_s8.c ****         const int8_t *weight = weights_feature_data;
 234              		.loc 1 111 9 is_stmt 1 view .LVU79
 112:Middlewares/tensorflow/third_party/cmsis_nn/Source/SVDFunctions/arm_svdf_state_s16_s8.c ****         const int8_t *input = input_data + i_batch * input_height;
 235              		.loc 1 112 9 view .LVU80
 113:Middlewares/tensorflow/third_party/cmsis_nn/Source/SVDFunctions/arm_svdf_state_s16_s8.c **** 
 114:Middlewares/tensorflow/third_party/cmsis_nn/Source/SVDFunctions/arm_svdf_state_s16_s8.c ****         arm_cmsis_nn_status res = arm_nn_vec_mat_mult_t_svdf_s8(input,
 236              		.loc 1 114 9 view .LVU81
 237              		.loc 1 114 35 is_stmt 0 view .LVU82
 238 00a8 0B9B     		ldr	r3, [sp, #44]
 239 00aa 0693     		str	r3, [sp, #24]
 240 00ac 0A9B     		ldr	r3, [sp, #40]
 241 00ae 0593     		str	r3, [sp, #20]
 242 00b0 0497     		str	r7, [sp, #16]
 243 00b2 0396     		str	r6, [sp, #12]
 244 00b4 099B     		ldr	r3, [sp, #36]
 245 00b6 0293     		str	r3, [sp, #8]
 246 00b8 089B     		ldr	r3, [sp, #32]
 247 00ba 0193     		str	r3, [sp, #4]
 248 00bc 0095     		str	r5, [sp]
 249 00be CAF10003 		rsb	r3, r10, #0
 250 00c2 04EB4202 		add	r2, r4, r2, lsl #1
 251              	.LVL42:
 252              		.loc 1 114 35 view .LVU83
 253 00c6 2699     		ldr	r1, [sp, #152]
 254 00c8 06FB08B0 		mla	r0, r6, r8, fp
 255              	.LVL43:
 256              		.loc 1 114 35 view .LVU84
 257 00cc FFF7FEFF 		bl	arm_nn_vec_mat_mult_t_svdf_s8
 258              	.LVL44:
 115:Middlewares/tensorflow/third_party/cmsis_nn/Source/SVDFunctions/arm_svdf_state_s16_s8.c ****                                                                 weight,
 116:Middlewares/tensorflow/third_party/cmsis_nn/Source/SVDFunctions/arm_svdf_state_s16_s8.c ****                                                                 res_ptr,
 117:Middlewares/tensorflow/third_party/cmsis_nn/Source/SVDFunctions/arm_svdf_state_s16_s8.c ****                                                                 -zp_in,
 118:Middlewares/tensorflow/third_party/cmsis_nn/Source/SVDFunctions/arm_svdf_state_s16_s8.c ****                                                                 time_batches,
 119:Middlewares/tensorflow/third_party/cmsis_nn/Source/SVDFunctions/arm_svdf_state_s16_s8.c ****                                                                 multiplier_in,
 120:Middlewares/tensorflow/third_party/cmsis_nn/Source/SVDFunctions/arm_svdf_state_s16_s8.c ****                                                                 shift_in,
 121:Middlewares/tensorflow/third_party/cmsis_nn/Source/SVDFunctions/arm_svdf_state_s16_s8.c ****                                                                 input_height,
 122:Middlewares/tensorflow/third_party/cmsis_nn/Source/SVDFunctions/arm_svdf_state_s16_s8.c ****                                                                 feature_batches,
 123:Middlewares/tensorflow/third_party/cmsis_nn/Source/SVDFunctions/arm_svdf_state_s16_s8.c ****                                                                 in_activation_min,
 124:Middlewares/tensorflow/third_party/cmsis_nn/Source/SVDFunctions/arm_svdf_state_s16_s8.c ****                                                                 in_activation_max);
 125:Middlewares/tensorflow/third_party/cmsis_nn/Source/SVDFunctions/arm_svdf_state_s16_s8.c **** 
 126:Middlewares/tensorflow/third_party/cmsis_nn/Source/SVDFunctions/arm_svdf_state_s16_s8.c ****         if (res != ARM_CMSIS_NN_SUCCESS)
 259              		.loc 1 126 9 is_stmt 1 view .LVU85
 260              		.loc 1 126 12 is_stmt 0 view .LVU86
 261 00d0 0346     		mov	r3, r0
 262 00d2 0028     		cmp	r0, #0
 263 00d4 DDD0     		beq	.L57
 264 00d6 3AE1     		b	.L2
 265              	.LVL45:
 266              	.L56:
 267              		.loc 1 126 12 view .LVU87
 268 00d8 149E     		ldr	r6, [sp, #80]
 269              	.LVL46:
 270              		.loc 1 126 12 view .LVU88
 271 00da DDF854B0 		ldr	fp, [sp, #84]
ARM GAS  /tmp/ccOcL3QG.s 			page 8


 272              	.LBE60:
 273              	.LBE59:
 274              	.LBB61:
 127:Middlewares/tensorflow/third_party/cmsis_nn/Source/SVDFunctions/arm_svdf_state_s16_s8.c ****         {
 128:Middlewares/tensorflow/third_party/cmsis_nn/Source/SVDFunctions/arm_svdf_state_s16_s8.c ****             return res;
 129:Middlewares/tensorflow/third_party/cmsis_nn/Source/SVDFunctions/arm_svdf_state_s16_s8.c ****         }
 130:Middlewares/tensorflow/third_party/cmsis_nn/Source/SVDFunctions/arm_svdf_state_s16_s8.c ****     }
 131:Middlewares/tensorflow/third_party/cmsis_nn/Source/SVDFunctions/arm_svdf_state_s16_s8.c **** 
 132:Middlewares/tensorflow/third_party/cmsis_nn/Source/SVDFunctions/arm_svdf_state_s16_s8.c ****     {
 133:Middlewares/tensorflow/third_party/cmsis_nn/Source/SVDFunctions/arm_svdf_state_s16_s8.c ****         // Matrix multiplication time weight * state tensors
 134:Middlewares/tensorflow/third_party/cmsis_nn/Source/SVDFunctions/arm_svdf_state_s16_s8.c ****         int32_t *ptr_a = buffer_a;
 275              		.loc 1 134 18 view .LVU89
 276 00de DDF83CA0 		ldr	r10, [sp, #60]
 277              	.LVL47:
 278              	.LBB62:
 135:Middlewares/tensorflow/third_party/cmsis_nn/Source/SVDFunctions/arm_svdf_state_s16_s8.c ****         const int16_t *v2 = state_data;
 136:Middlewares/tensorflow/third_party/cmsis_nn/Source/SVDFunctions/arm_svdf_state_s16_s8.c ****         for (int i_batch = 0; i_batch < input_batches; i_batch++)
 279              		.loc 1 136 18 view .LVU90
 280 00e2 0023     		movs	r3, #0
 281 00e4 0896     		str	r6, [sp, #32]
 282              	.LVL48:
 283              		.loc 1 136 18 view .LVU91
 284 00e6 CDF824B0 		str	fp, [sp, #36]
 285              	.LVL49:
 286              		.loc 1 136 18 view .LVU92
 287 00ea 9946     		mov	r9, r3
 288 00ec DDF830B0 		ldr	fp, [sp, #48]
 289 00f0 23E0     		b	.L5
 290              	.LVL50:
 291              	.L7:
 292              	.LBB63:
 293              	.LBB64:
 294              	.LBB65:
 295              	.LBB66:
 296              	.LBB67:
 137:Middlewares/tensorflow/third_party/cmsis_nn/Source/SVDFunctions/arm_svdf_state_s16_s8.c ****         {
 138:Middlewares/tensorflow/third_party/cmsis_nn/Source/SVDFunctions/arm_svdf_state_s16_s8.c ****             const int16_t *v1 = weights_time_data;
 139:Middlewares/tensorflow/third_party/cmsis_nn/Source/SVDFunctions/arm_svdf_state_s16_s8.c **** 
 140:Middlewares/tensorflow/third_party/cmsis_nn/Source/SVDFunctions/arm_svdf_state_s16_s8.c ****             for (int i_feature_batch = 0; i_feature_batch < feature_batches; i_feature_batch++)
 141:Middlewares/tensorflow/third_party/cmsis_nn/Source/SVDFunctions/arm_svdf_state_s16_s8.c ****             {
 142:Middlewares/tensorflow/third_party/cmsis_nn/Source/SVDFunctions/arm_svdf_state_s16_s8.c ****                 *ptr_a = 0;
 143:Middlewares/tensorflow/third_party/cmsis_nn/Source/SVDFunctions/arm_svdf_state_s16_s8.c ****                 int32_t sum = 0;
 144:Middlewares/tensorflow/third_party/cmsis_nn/Source/SVDFunctions/arm_svdf_state_s16_s8.c **** #if defined(ARM_MATH_DSP) && !defined(ARM_MATH_MVEI)
 145:Middlewares/tensorflow/third_party/cmsis_nn/Source/SVDFunctions/arm_svdf_state_s16_s8.c ****                 // Perform matrix multiplication in blocks of two
 146:Middlewares/tensorflow/third_party/cmsis_nn/Source/SVDFunctions/arm_svdf_state_s16_s8.c ****                 int j = 0;
 147:Middlewares/tensorflow/third_party/cmsis_nn/Source/SVDFunctions/arm_svdf_state_s16_s8.c ****                 int32_t block_count = time_batches >> 1;
 148:Middlewares/tensorflow/third_party/cmsis_nn/Source/SVDFunctions/arm_svdf_state_s16_s8.c ****                 for (int i = 0; i < block_count; i++)
 149:Middlewares/tensorflow/third_party/cmsis_nn/Source/SVDFunctions/arm_svdf_state_s16_s8.c ****                 {
 150:Middlewares/tensorflow/third_party/cmsis_nn/Source/SVDFunctions/arm_svdf_state_s16_s8.c ****                     j += 2;
 297              		.loc 1 150 21 is_stmt 1 discriminator 3 view .LVU93
 298              		.loc 1 150 23 is_stmt 0 discriminator 3 view .LVU94
 299 00f2 0231     		adds	r1, r1, #2
 300              	.LVL51:
 151:Middlewares/tensorflow/third_party/cmsis_nn/Source/SVDFunctions/arm_svdf_state_s16_s8.c ****                     int32_t r1 = arm_nn_read_q15x2_ia(&v1);
 301              		.loc 1 151 21 is_stmt 1 discriminator 3 view .LVU95
 302              	.LBB68:
 303              	.LBI68:
ARM GAS  /tmp/ccOcL3QG.s 			page 9


 304              		.file 2 "Middlewares/tensorflow/third_party/cmsis_nn/Include/arm_nnsupportfunctions.h"
   1:Middlewares/tensorflow/third_party/cmsis_nn/Include/arm_nnsupportfunctions.h **** /*
   2:Middlewares/tensorflow/third_party/cmsis_nn/Include/arm_nnsupportfunctions.h ****  * SPDX-FileCopyrightText: Copyright 2010-2023 Arm Limited and/or its affiliates <open-source-offic
   3:Middlewares/tensorflow/third_party/cmsis_nn/Include/arm_nnsupportfunctions.h ****  *
   4:Middlewares/tensorflow/third_party/cmsis_nn/Include/arm_nnsupportfunctions.h ****  * SPDX-License-Identifier: Apache-2.0
   5:Middlewares/tensorflow/third_party/cmsis_nn/Include/arm_nnsupportfunctions.h ****  *
   6:Middlewares/tensorflow/third_party/cmsis_nn/Include/arm_nnsupportfunctions.h ****  * Licensed under the Apache License, Version 2.0 (the License); you may
   7:Middlewares/tensorflow/third_party/cmsis_nn/Include/arm_nnsupportfunctions.h ****  * not use this file except in compliance with the License.
   8:Middlewares/tensorflow/third_party/cmsis_nn/Include/arm_nnsupportfunctions.h ****  * You may obtain a copy of the License at
   9:Middlewares/tensorflow/third_party/cmsis_nn/Include/arm_nnsupportfunctions.h ****  *
  10:Middlewares/tensorflow/third_party/cmsis_nn/Include/arm_nnsupportfunctions.h ****  * www.apache.org/licenses/LICENSE-2.0
  11:Middlewares/tensorflow/third_party/cmsis_nn/Include/arm_nnsupportfunctions.h ****  *
  12:Middlewares/tensorflow/third_party/cmsis_nn/Include/arm_nnsupportfunctions.h ****  * Unless required by applicable law or agreed to in writing, software
  13:Middlewares/tensorflow/third_party/cmsis_nn/Include/arm_nnsupportfunctions.h ****  * distributed under the License is distributed on an AS IS BASIS, WITHOUT
  14:Middlewares/tensorflow/third_party/cmsis_nn/Include/arm_nnsupportfunctions.h ****  * WARRANTIES OR CONDITIONS OF ANY KIND, either express or implied.
  15:Middlewares/tensorflow/third_party/cmsis_nn/Include/arm_nnsupportfunctions.h ****  * See the License for the specific language governing permissions and
  16:Middlewares/tensorflow/third_party/cmsis_nn/Include/arm_nnsupportfunctions.h ****  * limitations under the License.
  17:Middlewares/tensorflow/third_party/cmsis_nn/Include/arm_nnsupportfunctions.h ****  */
  18:Middlewares/tensorflow/third_party/cmsis_nn/Include/arm_nnsupportfunctions.h **** 
  19:Middlewares/tensorflow/third_party/cmsis_nn/Include/arm_nnsupportfunctions.h **** /* ----------------------------------------------------------------------
  20:Middlewares/tensorflow/third_party/cmsis_nn/Include/arm_nnsupportfunctions.h ****  * Project:      CMSIS NN Library
  21:Middlewares/tensorflow/third_party/cmsis_nn/Include/arm_nnsupportfunctions.h ****  * Title:        arm_nnsupportfunctions.h
  22:Middlewares/tensorflow/third_party/cmsis_nn/Include/arm_nnsupportfunctions.h ****  * Description:  Public header file of support functions for CMSIS NN Library
  23:Middlewares/tensorflow/third_party/cmsis_nn/Include/arm_nnsupportfunctions.h ****  *
  24:Middlewares/tensorflow/third_party/cmsis_nn/Include/arm_nnsupportfunctions.h ****  * $Date:        13 Februari 2023
  25:Middlewares/tensorflow/third_party/cmsis_nn/Include/arm_nnsupportfunctions.h ****  * $Revision:    V.15.0.0
  26:Middlewares/tensorflow/third_party/cmsis_nn/Include/arm_nnsupportfunctions.h ****  *
  27:Middlewares/tensorflow/third_party/cmsis_nn/Include/arm_nnsupportfunctions.h ****  * Target :  Arm(R) M-Profile Architecture
  28:Middlewares/tensorflow/third_party/cmsis_nn/Include/arm_nnsupportfunctions.h ****  * -------------------------------------------------------------------- */
  29:Middlewares/tensorflow/third_party/cmsis_nn/Include/arm_nnsupportfunctions.h **** 
  30:Middlewares/tensorflow/third_party/cmsis_nn/Include/arm_nnsupportfunctions.h **** #ifndef _ARM_NNSUPPORTFUNCTIONS_H_
  31:Middlewares/tensorflow/third_party/cmsis_nn/Include/arm_nnsupportfunctions.h **** #define _ARM_NNSUPPORTFUNCTIONS_H_
  32:Middlewares/tensorflow/third_party/cmsis_nn/Include/arm_nnsupportfunctions.h **** 
  33:Middlewares/tensorflow/third_party/cmsis_nn/Include/arm_nnsupportfunctions.h **** #include "Internal/arm_nn_compiler.h"
  34:Middlewares/tensorflow/third_party/cmsis_nn/Include/arm_nnsupportfunctions.h **** #include "arm_nn_math_types.h"
  35:Middlewares/tensorflow/third_party/cmsis_nn/Include/arm_nnsupportfunctions.h **** #include "arm_nn_types.h"
  36:Middlewares/tensorflow/third_party/cmsis_nn/Include/arm_nnsupportfunctions.h **** 
  37:Middlewares/tensorflow/third_party/cmsis_nn/Include/arm_nnsupportfunctions.h **** #include <stdbool.h>
  38:Middlewares/tensorflow/third_party/cmsis_nn/Include/arm_nnsupportfunctions.h **** 
  39:Middlewares/tensorflow/third_party/cmsis_nn/Include/arm_nnsupportfunctions.h **** #ifdef __cplusplus
  40:Middlewares/tensorflow/third_party/cmsis_nn/Include/arm_nnsupportfunctions.h **** extern "C" {
  41:Middlewares/tensorflow/third_party/cmsis_nn/Include/arm_nnsupportfunctions.h **** #endif
  42:Middlewares/tensorflow/third_party/cmsis_nn/Include/arm_nnsupportfunctions.h **** 
  43:Middlewares/tensorflow/third_party/cmsis_nn/Include/arm_nnsupportfunctions.h **** #define USE_FAST_DW_CONV_S16_FUNCTION(dw_conv_params, filter_dims, input_dims)                     
  44:Middlewares/tensorflow/third_party/cmsis_nn/Include/arm_nnsupportfunctions.h ****     (dw_conv_params->ch_mult == 1 && dw_conv_params->dilation.w == 1 && dw_conv_params->dilation.h 
  45:Middlewares/tensorflow/third_party/cmsis_nn/Include/arm_nnsupportfunctions.h ****      filter_dims->w * filter_dims->h < 512)
  46:Middlewares/tensorflow/third_party/cmsis_nn/Include/arm_nnsupportfunctions.h **** 
  47:Middlewares/tensorflow/third_party/cmsis_nn/Include/arm_nnsupportfunctions.h **** #define LEFT_SHIFT(_shift) (_shift > 0 ? _shift : 0)
  48:Middlewares/tensorflow/third_party/cmsis_nn/Include/arm_nnsupportfunctions.h **** #define RIGHT_SHIFT(_shift) (_shift > 0 ? 0 : -_shift)
  49:Middlewares/tensorflow/third_party/cmsis_nn/Include/arm_nnsupportfunctions.h **** #define MASK_IF_ZERO(x) (x) == 0 ? ~0 : 0
  50:Middlewares/tensorflow/third_party/cmsis_nn/Include/arm_nnsupportfunctions.h **** #define MASK_IF_NON_ZERO(x) (x) != 0 ? ~0 : 0
  51:Middlewares/tensorflow/third_party/cmsis_nn/Include/arm_nnsupportfunctions.h **** #define SELECT_USING_MASK(mask, a, b) ((mask) & (a)) ^ (~(mask) & (b))
  52:Middlewares/tensorflow/third_party/cmsis_nn/Include/arm_nnsupportfunctions.h **** 
  53:Middlewares/tensorflow/third_party/cmsis_nn/Include/arm_nnsupportfunctions.h **** #define MAX(A, B) ((A) > (B) ? (A) : (B))
  54:Middlewares/tensorflow/third_party/cmsis_nn/Include/arm_nnsupportfunctions.h **** #define MIN(A, B) ((A) < (B) ? (A) : (B))
  55:Middlewares/tensorflow/third_party/cmsis_nn/Include/arm_nnsupportfunctions.h **** #define CLAMP(x, h, l) MAX(MIN((x), (h)), (l))
  56:Middlewares/tensorflow/third_party/cmsis_nn/Include/arm_nnsupportfunctions.h **** #define REDUCE_MULTIPLIER(_mult) ((_mult < 0x7FFF0000) ? ((_mult + (1 << 15)) >> 16) : 0x7FFF)
ARM GAS  /tmp/ccOcL3QG.s 			page 10


  57:Middlewares/tensorflow/third_party/cmsis_nn/Include/arm_nnsupportfunctions.h **** 
  58:Middlewares/tensorflow/third_party/cmsis_nn/Include/arm_nnsupportfunctions.h **** // Number of channels processed in a block for DW Conv(MVE)
  59:Middlewares/tensorflow/third_party/cmsis_nn/Include/arm_nnsupportfunctions.h **** // Requirement: Greater than 0 & less than 128
  60:Middlewares/tensorflow/third_party/cmsis_nn/Include/arm_nnsupportfunctions.h **** // This can be fine tuned to match number of input channels for best performance.
  61:Middlewares/tensorflow/third_party/cmsis_nn/Include/arm_nnsupportfunctions.h **** // A layer with lower number of channels than CH_IN_BLOCK_MVE will result in higher
  62:Middlewares/tensorflow/third_party/cmsis_nn/Include/arm_nnsupportfunctions.h **** // scratch buffer usage and a layer with higher number of channels than CH_IN_BLOCK_MVE
  63:Middlewares/tensorflow/third_party/cmsis_nn/Include/arm_nnsupportfunctions.h **** // will result in lower scratch buffer usage.
  64:Middlewares/tensorflow/third_party/cmsis_nn/Include/arm_nnsupportfunctions.h **** #define CH_IN_BLOCK_MVE (124)
  65:Middlewares/tensorflow/third_party/cmsis_nn/Include/arm_nnsupportfunctions.h **** 
  66:Middlewares/tensorflow/third_party/cmsis_nn/Include/arm_nnsupportfunctions.h **** /**
  67:Middlewares/tensorflow/third_party/cmsis_nn/Include/arm_nnsupportfunctions.h ****  * @brief definition to pack four 8 bit values.
  68:Middlewares/tensorflow/third_party/cmsis_nn/Include/arm_nnsupportfunctions.h ****  */
  69:Middlewares/tensorflow/third_party/cmsis_nn/Include/arm_nnsupportfunctions.h **** #define PACK_S8x4_32x1(v0, v1, v2, v3)                                                             
  70:Middlewares/tensorflow/third_party/cmsis_nn/Include/arm_nnsupportfunctions.h ****     ((((int32_t)(v0) << 0) & (int32_t)0x000000FF) | (((int32_t)(v1) << 8) & (int32_t)0x0000FF00) | 
  71:Middlewares/tensorflow/third_party/cmsis_nn/Include/arm_nnsupportfunctions.h ****      (((int32_t)(v2) << 16) & (int32_t)0x00FF0000) | (((int32_t)(v3) << 24) & (int32_t)0xFF000000))
  72:Middlewares/tensorflow/third_party/cmsis_nn/Include/arm_nnsupportfunctions.h **** 
  73:Middlewares/tensorflow/third_party/cmsis_nn/Include/arm_nnsupportfunctions.h **** /**
  74:Middlewares/tensorflow/third_party/cmsis_nn/Include/arm_nnsupportfunctions.h ****  * @brief definition to pack two 16 bit values.
  75:Middlewares/tensorflow/third_party/cmsis_nn/Include/arm_nnsupportfunctions.h ****  */
  76:Middlewares/tensorflow/third_party/cmsis_nn/Include/arm_nnsupportfunctions.h **** #define PACK_Q15x2_32x1(v0, v1) (((int32_t)v0 & (int32_t)0xFFFF) | ((int32_t)v1 << 16))
  77:Middlewares/tensorflow/third_party/cmsis_nn/Include/arm_nnsupportfunctions.h **** 
  78:Middlewares/tensorflow/third_party/cmsis_nn/Include/arm_nnsupportfunctions.h **** /**
  79:Middlewares/tensorflow/third_party/cmsis_nn/Include/arm_nnsupportfunctions.h ****  * @brief Union for SIMD access of q31/s16/s8 types
  80:Middlewares/tensorflow/third_party/cmsis_nn/Include/arm_nnsupportfunctions.h ****  */
  81:Middlewares/tensorflow/third_party/cmsis_nn/Include/arm_nnsupportfunctions.h **** union arm_nnword
  82:Middlewares/tensorflow/third_party/cmsis_nn/Include/arm_nnsupportfunctions.h **** {
  83:Middlewares/tensorflow/third_party/cmsis_nn/Include/arm_nnsupportfunctions.h ****     int32_t word;
  84:Middlewares/tensorflow/third_party/cmsis_nn/Include/arm_nnsupportfunctions.h ****     /**< q31 type */
  85:Middlewares/tensorflow/third_party/cmsis_nn/Include/arm_nnsupportfunctions.h ****     int16_t half_words[2];
  86:Middlewares/tensorflow/third_party/cmsis_nn/Include/arm_nnsupportfunctions.h ****     /**< s16 type */
  87:Middlewares/tensorflow/third_party/cmsis_nn/Include/arm_nnsupportfunctions.h ****     int8_t bytes[4];
  88:Middlewares/tensorflow/third_party/cmsis_nn/Include/arm_nnsupportfunctions.h ****     /**< s8 type */
  89:Middlewares/tensorflow/third_party/cmsis_nn/Include/arm_nnsupportfunctions.h **** };
  90:Middlewares/tensorflow/third_party/cmsis_nn/Include/arm_nnsupportfunctions.h **** 
  91:Middlewares/tensorflow/third_party/cmsis_nn/Include/arm_nnsupportfunctions.h **** /**
  92:Middlewares/tensorflow/third_party/cmsis_nn/Include/arm_nnsupportfunctions.h ****  * @brief Union for data type long long
  93:Middlewares/tensorflow/third_party/cmsis_nn/Include/arm_nnsupportfunctions.h ****  */
  94:Middlewares/tensorflow/third_party/cmsis_nn/Include/arm_nnsupportfunctions.h **** struct arm_nn_double
  95:Middlewares/tensorflow/third_party/cmsis_nn/Include/arm_nnsupportfunctions.h **** {
  96:Middlewares/tensorflow/third_party/cmsis_nn/Include/arm_nnsupportfunctions.h ****     uint32_t low;
  97:Middlewares/tensorflow/third_party/cmsis_nn/Include/arm_nnsupportfunctions.h ****     int32_t high;
  98:Middlewares/tensorflow/third_party/cmsis_nn/Include/arm_nnsupportfunctions.h **** };
  99:Middlewares/tensorflow/third_party/cmsis_nn/Include/arm_nnsupportfunctions.h **** 
 100:Middlewares/tensorflow/third_party/cmsis_nn/Include/arm_nnsupportfunctions.h **** union arm_nn_long_long
 101:Middlewares/tensorflow/third_party/cmsis_nn/Include/arm_nnsupportfunctions.h **** {
 102:Middlewares/tensorflow/third_party/cmsis_nn/Include/arm_nnsupportfunctions.h ****     int64_t long_long;
 103:Middlewares/tensorflow/third_party/cmsis_nn/Include/arm_nnsupportfunctions.h ****     struct arm_nn_double word;
 104:Middlewares/tensorflow/third_party/cmsis_nn/Include/arm_nnsupportfunctions.h **** };
 105:Middlewares/tensorflow/third_party/cmsis_nn/Include/arm_nnsupportfunctions.h **** 
 106:Middlewares/tensorflow/third_party/cmsis_nn/Include/arm_nnsupportfunctions.h **** /**
 107:Middlewares/tensorflow/third_party/cmsis_nn/Include/arm_nnsupportfunctions.h ****  * @defgroup groupSupport Private
 108:Middlewares/tensorflow/third_party/cmsis_nn/Include/arm_nnsupportfunctions.h ****  *
 109:Middlewares/tensorflow/third_party/cmsis_nn/Include/arm_nnsupportfunctions.h ****  * Internal Support functions. Not intended to be called direclty by a CMSIS-NN user.
 110:Middlewares/tensorflow/third_party/cmsis_nn/Include/arm_nnsupportfunctions.h ****  *
 111:Middlewares/tensorflow/third_party/cmsis_nn/Include/arm_nnsupportfunctions.h ****  */
 112:Middlewares/tensorflow/third_party/cmsis_nn/Include/arm_nnsupportfunctions.h **** 
 113:Middlewares/tensorflow/third_party/cmsis_nn/Include/arm_nnsupportfunctions.h **** /**
ARM GAS  /tmp/ccOcL3QG.s 			page 11


 114:Middlewares/tensorflow/third_party/cmsis_nn/Include/arm_nnsupportfunctions.h ****  * @defgroup supportConversion Data Conversion
 115:Middlewares/tensorflow/third_party/cmsis_nn/Include/arm_nnsupportfunctions.h ****  *
 116:Middlewares/tensorflow/third_party/cmsis_nn/Include/arm_nnsupportfunctions.h ****  * Perform data type conversion in-between neural network operations
 117:Middlewares/tensorflow/third_party/cmsis_nn/Include/arm_nnsupportfunctions.h ****  *
 118:Middlewares/tensorflow/third_party/cmsis_nn/Include/arm_nnsupportfunctions.h ****  */
 119:Middlewares/tensorflow/third_party/cmsis_nn/Include/arm_nnsupportfunctions.h **** 
 120:Middlewares/tensorflow/third_party/cmsis_nn/Include/arm_nnsupportfunctions.h **** /**
 121:Middlewares/tensorflow/third_party/cmsis_nn/Include/arm_nnsupportfunctions.h ****  * @brief Converts the elements from a s8 vector to a s16 vector with an added offset
 122:Middlewares/tensorflow/third_party/cmsis_nn/Include/arm_nnsupportfunctions.h ****  * @param[in]    src        pointer to the s8 input vector
 123:Middlewares/tensorflow/third_party/cmsis_nn/Include/arm_nnsupportfunctions.h ****  * @param[out]   dst        pointer to the s16 output vector
 124:Middlewares/tensorflow/third_party/cmsis_nn/Include/arm_nnsupportfunctions.h ****  * @param[in]    block_size length of the input vector
 125:Middlewares/tensorflow/third_party/cmsis_nn/Include/arm_nnsupportfunctions.h ****  * @param[in]    offset     s8 offset to be added to each input vector element.
 126:Middlewares/tensorflow/third_party/cmsis_nn/Include/arm_nnsupportfunctions.h ****  *
 127:Middlewares/tensorflow/third_party/cmsis_nn/Include/arm_nnsupportfunctions.h ****  * \par Description:
 128:Middlewares/tensorflow/third_party/cmsis_nn/Include/arm_nnsupportfunctions.h ****  *
 129:Middlewares/tensorflow/third_party/cmsis_nn/Include/arm_nnsupportfunctions.h ****  * The equation used for the conversion process is:
 130:Middlewares/tensorflow/third_party/cmsis_nn/Include/arm_nnsupportfunctions.h ****  *
 131:Middlewares/tensorflow/third_party/cmsis_nn/Include/arm_nnsupportfunctions.h ****  * <pre>
 132:Middlewares/tensorflow/third_party/cmsis_nn/Include/arm_nnsupportfunctions.h ****  *  dst[n] = (int16_t) src[n] + offset;   0 <= n < block_size.
 133:Middlewares/tensorflow/third_party/cmsis_nn/Include/arm_nnsupportfunctions.h ****  * </pre>
 134:Middlewares/tensorflow/third_party/cmsis_nn/Include/arm_nnsupportfunctions.h ****  *
 135:Middlewares/tensorflow/third_party/cmsis_nn/Include/arm_nnsupportfunctions.h ****  */
 136:Middlewares/tensorflow/third_party/cmsis_nn/Include/arm_nnsupportfunctions.h **** void arm_q7_to_q15_with_offset(const int8_t *src, int16_t *dst, uint32_t block_size, int16_t offset
 137:Middlewares/tensorflow/third_party/cmsis_nn/Include/arm_nnsupportfunctions.h **** 
 138:Middlewares/tensorflow/third_party/cmsis_nn/Include/arm_nnsupportfunctions.h **** /**
 139:Middlewares/tensorflow/third_party/cmsis_nn/Include/arm_nnsupportfunctions.h ****  * @brief Depthwise conv on an im2col buffer where the input channel equals output channel.
 140:Middlewares/tensorflow/third_party/cmsis_nn/Include/arm_nnsupportfunctions.h ****  * @param[in]    row     pointer to row
 141:Middlewares/tensorflow/third_party/cmsis_nn/Include/arm_nnsupportfunctions.h ****  * @param[in]    col     pointer to im2col buffer, always consists of 2 columns.
 142:Middlewares/tensorflow/third_party/cmsis_nn/Include/arm_nnsupportfunctions.h ****  * @param[in]    num_ch   number of channels
 143:Middlewares/tensorflow/third_party/cmsis_nn/Include/arm_nnsupportfunctions.h ****  * @param[in]    out_shift  pointer to per output channel requantization shift parameter.
 144:Middlewares/tensorflow/third_party/cmsis_nn/Include/arm_nnsupportfunctions.h ****  * @param[in]    out_mult   pointer to per output channel requantization multiplier parameter.
 145:Middlewares/tensorflow/third_party/cmsis_nn/Include/arm_nnsupportfunctions.h ****  * @param[in]    out_offset      output tensor offset.
 146:Middlewares/tensorflow/third_party/cmsis_nn/Include/arm_nnsupportfunctions.h ****  * @param[in]    activation_min   minimum value to clamp the output to. Range : int8
 147:Middlewares/tensorflow/third_party/cmsis_nn/Include/arm_nnsupportfunctions.h ****  * @param[in]    activation_max   maximum value to clamp the output to. Range : int8
 148:Middlewares/tensorflow/third_party/cmsis_nn/Include/arm_nnsupportfunctions.h ****  * @param[in]    kernel_size   number of elements in one column.
 149:Middlewares/tensorflow/third_party/cmsis_nn/Include/arm_nnsupportfunctions.h ****  * @param[in]    output_bias per output channel bias. Range : int32
 150:Middlewares/tensorflow/third_party/cmsis_nn/Include/arm_nnsupportfunctions.h ****  * @param[out]   out         pointer to output
 151:Middlewares/tensorflow/third_party/cmsis_nn/Include/arm_nnsupportfunctions.h ****  * @return     The function returns one of the two
 152:Middlewares/tensorflow/third_party/cmsis_nn/Include/arm_nnsupportfunctions.h ****  *              1. The incremented output pointer for a successful operation or
 153:Middlewares/tensorflow/third_party/cmsis_nn/Include/arm_nnsupportfunctions.h ****  *              2. NULL if implementation is not available.
 154:Middlewares/tensorflow/third_party/cmsis_nn/Include/arm_nnsupportfunctions.h ****  *
 155:Middlewares/tensorflow/third_party/cmsis_nn/Include/arm_nnsupportfunctions.h ****  * @details     Supported framework: TensorFlow Lite micro.
 156:Middlewares/tensorflow/third_party/cmsis_nn/Include/arm_nnsupportfunctions.h ****  */
 157:Middlewares/tensorflow/third_party/cmsis_nn/Include/arm_nnsupportfunctions.h **** int8_t *arm_nn_depthwise_conv_s8_core(const int8_t *row,
 158:Middlewares/tensorflow/third_party/cmsis_nn/Include/arm_nnsupportfunctions.h ****                                       const int16_t *col,
 159:Middlewares/tensorflow/third_party/cmsis_nn/Include/arm_nnsupportfunctions.h ****                                       const uint16_t num_ch,
 160:Middlewares/tensorflow/third_party/cmsis_nn/Include/arm_nnsupportfunctions.h ****                                       const int32_t *out_shift,
 161:Middlewares/tensorflow/third_party/cmsis_nn/Include/arm_nnsupportfunctions.h ****                                       const int32_t *out_mult,
 162:Middlewares/tensorflow/third_party/cmsis_nn/Include/arm_nnsupportfunctions.h ****                                       const int32_t out_offset,
 163:Middlewares/tensorflow/third_party/cmsis_nn/Include/arm_nnsupportfunctions.h ****                                       const int32_t activation_min,
 164:Middlewares/tensorflow/third_party/cmsis_nn/Include/arm_nnsupportfunctions.h ****                                       const int32_t activation_max,
 165:Middlewares/tensorflow/third_party/cmsis_nn/Include/arm_nnsupportfunctions.h ****                                       const uint16_t kernel_size,
 166:Middlewares/tensorflow/third_party/cmsis_nn/Include/arm_nnsupportfunctions.h ****                                       const int32_t *const output_bias,
 167:Middlewares/tensorflow/third_party/cmsis_nn/Include/arm_nnsupportfunctions.h ****                                       int8_t *out);
 168:Middlewares/tensorflow/third_party/cmsis_nn/Include/arm_nnsupportfunctions.h **** 
 169:Middlewares/tensorflow/third_party/cmsis_nn/Include/arm_nnsupportfunctions.h **** /**
 170:Middlewares/tensorflow/third_party/cmsis_nn/Include/arm_nnsupportfunctions.h ****  * @brief General Matrix-multiplication function with per-channel requantization.
ARM GAS  /tmp/ccOcL3QG.s 			page 12


 171:Middlewares/tensorflow/third_party/cmsis_nn/Include/arm_nnsupportfunctions.h ****  * @param[in]       input_row    pointer to row operand
 172:Middlewares/tensorflow/third_party/cmsis_nn/Include/arm_nnsupportfunctions.h ****  * @param[in]       input_col    pointer to col operand
 173:Middlewares/tensorflow/third_party/cmsis_nn/Include/arm_nnsupportfunctions.h ****  * @param[in]       output_ch    number of rows of input_row
 174:Middlewares/tensorflow/third_party/cmsis_nn/Include/arm_nnsupportfunctions.h ****  * @param[in]       col_batches  number of column batches. Range: 1 to 4
 175:Middlewares/tensorflow/third_party/cmsis_nn/Include/arm_nnsupportfunctions.h ****  * @param[in]       output_shift  pointer to per output channel requantization shift parameter.
 176:Middlewares/tensorflow/third_party/cmsis_nn/Include/arm_nnsupportfunctions.h ****  * @param[in]       output_mult   pointer to per output channel requantization multiplier parameter
 177:Middlewares/tensorflow/third_party/cmsis_nn/Include/arm_nnsupportfunctions.h ****  * @param[in]       out_offset    output tensor offset.
 178:Middlewares/tensorflow/third_party/cmsis_nn/Include/arm_nnsupportfunctions.h ****  * @param[in]       col_offset    input tensor(col) offset.
 179:Middlewares/tensorflow/third_party/cmsis_nn/Include/arm_nnsupportfunctions.h ****  * @param[in]       row_offset    kernel offset(row). Not used.
 180:Middlewares/tensorflow/third_party/cmsis_nn/Include/arm_nnsupportfunctions.h ****  * @param[in]       out_activation_min   minimum value to clamp the output to. Range : int8
 181:Middlewares/tensorflow/third_party/cmsis_nn/Include/arm_nnsupportfunctions.h ****  * @param[in]       out_activation_max   maximum value to clamp the output to. Range : int8
 182:Middlewares/tensorflow/third_party/cmsis_nn/Include/arm_nnsupportfunctions.h ****  * @param[in]       row_len       number of elements in each row
 183:Middlewares/tensorflow/third_party/cmsis_nn/Include/arm_nnsupportfunctions.h ****  * @param[in]       bias          per output channel bias. Range : int32
 184:Middlewares/tensorflow/third_party/cmsis_nn/Include/arm_nnsupportfunctions.h ****  * @param[in,out]   out           pointer to output
 185:Middlewares/tensorflow/third_party/cmsis_nn/Include/arm_nnsupportfunctions.h ****  * @return     The function returns one of the two
 186:Middlewares/tensorflow/third_party/cmsis_nn/Include/arm_nnsupportfunctions.h ****  *              1. The incremented output pointer for a successful operation or
 187:Middlewares/tensorflow/third_party/cmsis_nn/Include/arm_nnsupportfunctions.h ****  *              2. NULL if implementation is not available.
 188:Middlewares/tensorflow/third_party/cmsis_nn/Include/arm_nnsupportfunctions.h ****  *
 189:Middlewares/tensorflow/third_party/cmsis_nn/Include/arm_nnsupportfunctions.h ****  * @details   Supported framework: TensorFlow Lite
 190:Middlewares/tensorflow/third_party/cmsis_nn/Include/arm_nnsupportfunctions.h ****  */
 191:Middlewares/tensorflow/third_party/cmsis_nn/Include/arm_nnsupportfunctions.h **** int8_t *arm_nn_mat_mult_s8(const int8_t *input_row,
 192:Middlewares/tensorflow/third_party/cmsis_nn/Include/arm_nnsupportfunctions.h ****                            const int8_t *input_col,
 193:Middlewares/tensorflow/third_party/cmsis_nn/Include/arm_nnsupportfunctions.h ****                            const uint16_t output_ch,
 194:Middlewares/tensorflow/third_party/cmsis_nn/Include/arm_nnsupportfunctions.h ****                            const uint16_t col_batches,
 195:Middlewares/tensorflow/third_party/cmsis_nn/Include/arm_nnsupportfunctions.h ****                            const int32_t *output_shift,
 196:Middlewares/tensorflow/third_party/cmsis_nn/Include/arm_nnsupportfunctions.h ****                            const int32_t *output_mult,
 197:Middlewares/tensorflow/third_party/cmsis_nn/Include/arm_nnsupportfunctions.h ****                            const int32_t out_offset,
 198:Middlewares/tensorflow/third_party/cmsis_nn/Include/arm_nnsupportfunctions.h ****                            const int32_t col_offset,
 199:Middlewares/tensorflow/third_party/cmsis_nn/Include/arm_nnsupportfunctions.h ****                            const int32_t row_offset,
 200:Middlewares/tensorflow/third_party/cmsis_nn/Include/arm_nnsupportfunctions.h ****                            const int16_t out_activation_min,
 201:Middlewares/tensorflow/third_party/cmsis_nn/Include/arm_nnsupportfunctions.h ****                            const int16_t out_activation_max,
 202:Middlewares/tensorflow/third_party/cmsis_nn/Include/arm_nnsupportfunctions.h ****                            const uint16_t row_len,
 203:Middlewares/tensorflow/third_party/cmsis_nn/Include/arm_nnsupportfunctions.h ****                            const int32_t *const bias,
 204:Middlewares/tensorflow/third_party/cmsis_nn/Include/arm_nnsupportfunctions.h ****                            int8_t *out);
 205:Middlewares/tensorflow/third_party/cmsis_nn/Include/arm_nnsupportfunctions.h **** /**
 206:Middlewares/tensorflow/third_party/cmsis_nn/Include/arm_nnsupportfunctions.h ****  * @brief Matrix-multiplication function for convolution with per-channel requantization for 16 bit
 207:Middlewares/tensorflow/third_party/cmsis_nn/Include/arm_nnsupportfunctions.h ****  * @param[in]       input_a     pointer to operand A
 208:Middlewares/tensorflow/third_party/cmsis_nn/Include/arm_nnsupportfunctions.h ****  * @param[in]       input_b     pointer to operand B, always consists of 2 vectors.
 209:Middlewares/tensorflow/third_party/cmsis_nn/Include/arm_nnsupportfunctions.h ****  * @param[in]       output_ch   number of rows of A
 210:Middlewares/tensorflow/third_party/cmsis_nn/Include/arm_nnsupportfunctions.h ****  * @param[in]       out_shift  pointer to per output channel requantization shift parameter.
 211:Middlewares/tensorflow/third_party/cmsis_nn/Include/arm_nnsupportfunctions.h ****  * @param[in]       out_mult   pointer to per output channel requantization multiplier parameter.
 212:Middlewares/tensorflow/third_party/cmsis_nn/Include/arm_nnsupportfunctions.h ****  * @param[in]       activation_min   minimum value to clamp the output to. Range : int16
 213:Middlewares/tensorflow/third_party/cmsis_nn/Include/arm_nnsupportfunctions.h ****  * @param[in]       activation_max   maximum value to clamp the output to. Range : int16
 214:Middlewares/tensorflow/third_party/cmsis_nn/Include/arm_nnsupportfunctions.h ****  * @param[in]       num_col_a   number of columns of A
 215:Middlewares/tensorflow/third_party/cmsis_nn/Include/arm_nnsupportfunctions.h ****  * @param[in]       output_bias per output channel bias. Range : int64
 216:Middlewares/tensorflow/third_party/cmsis_nn/Include/arm_nnsupportfunctions.h ****  * @param[in,out]   out_0       pointer to output
 217:Middlewares/tensorflow/third_party/cmsis_nn/Include/arm_nnsupportfunctions.h ****  * @return     The function returns one of the two
 218:Middlewares/tensorflow/third_party/cmsis_nn/Include/arm_nnsupportfunctions.h ****  *              1. The incremented output pointer for a successful operation or
 219:Middlewares/tensorflow/third_party/cmsis_nn/Include/arm_nnsupportfunctions.h ****  *              2. NULL if implementation is not available.
 220:Middlewares/tensorflow/third_party/cmsis_nn/Include/arm_nnsupportfunctions.h ****  *
 221:Middlewares/tensorflow/third_party/cmsis_nn/Include/arm_nnsupportfunctions.h ****  * @details   This function does the matrix multiplication of weight matrix for all output channels
 222:Middlewares/tensorflow/third_party/cmsis_nn/Include/arm_nnsupportfunctions.h ****  *            with 2 columns from im2col and produces two elements/output_channel. The outputs are
 223:Middlewares/tensorflow/third_party/cmsis_nn/Include/arm_nnsupportfunctions.h ****  *            clamped in the range provided by activation min and max.
 224:Middlewares/tensorflow/third_party/cmsis_nn/Include/arm_nnsupportfunctions.h ****  *            Supported framework: TensorFlow Lite micro.
 225:Middlewares/tensorflow/third_party/cmsis_nn/Include/arm_nnsupportfunctions.h ****  */
 226:Middlewares/tensorflow/third_party/cmsis_nn/Include/arm_nnsupportfunctions.h **** int16_t *arm_nn_mat_mult_kernel_s16(const int8_t *input_a,
 227:Middlewares/tensorflow/third_party/cmsis_nn/Include/arm_nnsupportfunctions.h ****                                     const int16_t *input_b,
ARM GAS  /tmp/ccOcL3QG.s 			page 13


 228:Middlewares/tensorflow/third_party/cmsis_nn/Include/arm_nnsupportfunctions.h ****                                     const int32_t output_ch,
 229:Middlewares/tensorflow/third_party/cmsis_nn/Include/arm_nnsupportfunctions.h ****                                     const int32_t *out_shift,
 230:Middlewares/tensorflow/third_party/cmsis_nn/Include/arm_nnsupportfunctions.h ****                                     const int32_t *out_mult,
 231:Middlewares/tensorflow/third_party/cmsis_nn/Include/arm_nnsupportfunctions.h ****                                     const int16_t activation_min,
 232:Middlewares/tensorflow/third_party/cmsis_nn/Include/arm_nnsupportfunctions.h ****                                     const int16_t activation_max,
 233:Middlewares/tensorflow/third_party/cmsis_nn/Include/arm_nnsupportfunctions.h ****                                     const int32_t num_col_a,
 234:Middlewares/tensorflow/third_party/cmsis_nn/Include/arm_nnsupportfunctions.h ****                                     const int64_t *const output_bias,
 235:Middlewares/tensorflow/third_party/cmsis_nn/Include/arm_nnsupportfunctions.h ****                                     int16_t *out_0);
 236:Middlewares/tensorflow/third_party/cmsis_nn/Include/arm_nnsupportfunctions.h **** 
 237:Middlewares/tensorflow/third_party/cmsis_nn/Include/arm_nnsupportfunctions.h **** /**
 238:Middlewares/tensorflow/third_party/cmsis_nn/Include/arm_nnsupportfunctions.h ****  * @brief General Vector by Matrix multiplication with requantization and storage of result.
 239:Middlewares/tensorflow/third_party/cmsis_nn/Include/arm_nnsupportfunctions.h ****  * @param[in]       row_elements          number of row elements
 240:Middlewares/tensorflow/third_party/cmsis_nn/Include/arm_nnsupportfunctions.h ****  * @param[in]       skipped_row_elements  number of row elements skipped due to padding.
 241:Middlewares/tensorflow/third_party/cmsis_nn/Include/arm_nnsupportfunctions.h ****  *                                        row_elements + skipped_row_elements = (kernel_x * kernel_
 242:Middlewares/tensorflow/third_party/cmsis_nn/Include/arm_nnsupportfunctions.h ****  * @param[in]       row_base_ref          pointer to row operand
 243:Middlewares/tensorflow/third_party/cmsis_nn/Include/arm_nnsupportfunctions.h ****  * @param[in]       col_base_ref          pointer to col operand
 244:Middlewares/tensorflow/third_party/cmsis_nn/Include/arm_nnsupportfunctions.h ****  * @param[out]      out_ch                Number of output channels
 245:Middlewares/tensorflow/third_party/cmsis_nn/Include/arm_nnsupportfunctions.h ****  * @param[in]       conv_params           Pointer to convolution parameters like offsets and activa
 246:Middlewares/tensorflow/third_party/cmsis_nn/Include/arm_nnsupportfunctions.h ****  * @param[in]       quant_params          Pointer to per-channel quantization parameters
 247:Middlewares/tensorflow/third_party/cmsis_nn/Include/arm_nnsupportfunctions.h ****  * @param[in]       bias                  Pointer to optional per-channel bias
 248:Middlewares/tensorflow/third_party/cmsis_nn/Include/arm_nnsupportfunctions.h ****  * @param[out]      output                Pointer to output where int8 results are stored.
 249:Middlewares/tensorflow/third_party/cmsis_nn/Include/arm_nnsupportfunctions.h ****  * @return     The function performs matrix(row_base_ref) multiplication with vector(col_base_ref) 
 250:Middlewares/tensorflow/third_party/cmsis_nn/Include/arm_nnsupportfunctions.h ****  *             scaled result is stored in memory.
 251:Middlewares/tensorflow/third_party/cmsis_nn/Include/arm_nnsupportfunctions.h ****  *
 252:Middlewares/tensorflow/third_party/cmsis_nn/Include/arm_nnsupportfunctions.h ****  * @details Pseudo-code
 253:Middlewares/tensorflow/third_party/cmsis_nn/Include/arm_nnsupportfunctions.h ****  *      *output = 0
 254:Middlewares/tensorflow/third_party/cmsis_nn/Include/arm_nnsupportfunctions.h ****  *      sum_col = 0
 255:Middlewares/tensorflow/third_party/cmsis_nn/Include/arm_nnsupportfunctions.h ****  *      for (j = 0; j < out_ch; j++)
 256:Middlewares/tensorflow/third_party/cmsis_nn/Include/arm_nnsupportfunctions.h ****  *      for (i = 0; i < row_elements; i++)
 257:Middlewares/tensorflow/third_party/cmsis_nn/Include/arm_nnsupportfunctions.h ****  *          *output += row_base_ref[i] * col_base_ref[i]
 258:Middlewares/tensorflow/third_party/cmsis_nn/Include/arm_nnsupportfunctions.h ****  *          sum_col += col_base_ref[i]
 259:Middlewares/tensorflow/third_party/cmsis_nn/Include/arm_nnsupportfunctions.h ****  *      scale sum_col using quant_params and bias
 260:Middlewares/tensorflow/third_party/cmsis_nn/Include/arm_nnsupportfunctions.h ****  *      store result in 'output'
 261:Middlewares/tensorflow/third_party/cmsis_nn/Include/arm_nnsupportfunctions.h ****  *
 262:Middlewares/tensorflow/third_party/cmsis_nn/Include/arm_nnsupportfunctions.h ****  *
 263:Middlewares/tensorflow/third_party/cmsis_nn/Include/arm_nnsupportfunctions.h ****  */
 264:Middlewares/tensorflow/third_party/cmsis_nn/Include/arm_nnsupportfunctions.h **** arm_cmsis_nn_status arm_nn_mat_mul_core_1x_s8(int32_t row_elements,
 265:Middlewares/tensorflow/third_party/cmsis_nn/Include/arm_nnsupportfunctions.h ****                                               const int32_t skipped_row_elements,
 266:Middlewares/tensorflow/third_party/cmsis_nn/Include/arm_nnsupportfunctions.h ****                                               const int8_t *row_base_ref,
 267:Middlewares/tensorflow/third_party/cmsis_nn/Include/arm_nnsupportfunctions.h ****                                               const int8_t *col_base_ref,
 268:Middlewares/tensorflow/third_party/cmsis_nn/Include/arm_nnsupportfunctions.h ****                                               const int32_t out_ch,
 269:Middlewares/tensorflow/third_party/cmsis_nn/Include/arm_nnsupportfunctions.h ****                                               const cmsis_nn_conv_params *conv_params,
 270:Middlewares/tensorflow/third_party/cmsis_nn/Include/arm_nnsupportfunctions.h ****                                               const cmsis_nn_per_channel_quant_params *quant_params
 271:Middlewares/tensorflow/third_party/cmsis_nn/Include/arm_nnsupportfunctions.h ****                                               const int32_t *bias,
 272:Middlewares/tensorflow/third_party/cmsis_nn/Include/arm_nnsupportfunctions.h ****                                               int8_t *output);
 273:Middlewares/tensorflow/third_party/cmsis_nn/Include/arm_nnsupportfunctions.h **** 
 274:Middlewares/tensorflow/third_party/cmsis_nn/Include/arm_nnsupportfunctions.h **** /**
 275:Middlewares/tensorflow/third_party/cmsis_nn/Include/arm_nnsupportfunctions.h ****  * @brief Matrix-multiplication with requantization & activation function for four rows and one col
 276:Middlewares/tensorflow/third_party/cmsis_nn/Include/arm_nnsupportfunctions.h ****  * @param[in]       row_elements  number of row elements
 277:Middlewares/tensorflow/third_party/cmsis_nn/Include/arm_nnsupportfunctions.h ****  * @param[in]       offset        offset between rows. Can be the same as row_elements.
 278:Middlewares/tensorflow/third_party/cmsis_nn/Include/arm_nnsupportfunctions.h ****  *                                For e.g, in a 1x1 conv scenario with stride as 1.
 279:Middlewares/tensorflow/third_party/cmsis_nn/Include/arm_nnsupportfunctions.h ****  * @param[in]       row_base      pointer to row operand
 280:Middlewares/tensorflow/third_party/cmsis_nn/Include/arm_nnsupportfunctions.h ****  * @param[in]       col_base      pointer to col operand
 281:Middlewares/tensorflow/third_party/cmsis_nn/Include/arm_nnsupportfunctions.h ****  * @param[in]       out_ch        Number of output channels
 282:Middlewares/tensorflow/third_party/cmsis_nn/Include/arm_nnsupportfunctions.h ****  * @param[in]       conv_params   Pointer to convolution parameters like offsets and activation val
 283:Middlewares/tensorflow/third_party/cmsis_nn/Include/arm_nnsupportfunctions.h ****  * @param[in]       quant_params  Pointer to per-channel quantization parameters
 284:Middlewares/tensorflow/third_party/cmsis_nn/Include/arm_nnsupportfunctions.h ****  * @param[in]       bias          Pointer to per-channel bias
ARM GAS  /tmp/ccOcL3QG.s 			page 14


 285:Middlewares/tensorflow/third_party/cmsis_nn/Include/arm_nnsupportfunctions.h ****  * @param[out]      output        Pointer to output where int8 results are stored.
 286:Middlewares/tensorflow/third_party/cmsis_nn/Include/arm_nnsupportfunctions.h ****  *
 287:Middlewares/tensorflow/third_party/cmsis_nn/Include/arm_nnsupportfunctions.h ****  * @return     The function returns the updated output pointer or NULL if implementation is not ava
 288:Middlewares/tensorflow/third_party/cmsis_nn/Include/arm_nnsupportfunctions.h ****  *
 289:Middlewares/tensorflow/third_party/cmsis_nn/Include/arm_nnsupportfunctions.h ****  * @details Compliant to TFLM int8 specification. MVE implementation only
 290:Middlewares/tensorflow/third_party/cmsis_nn/Include/arm_nnsupportfunctions.h ****  */
 291:Middlewares/tensorflow/third_party/cmsis_nn/Include/arm_nnsupportfunctions.h **** int8_t *arm_nn_mat_mul_core_4x_s8(const int32_t row_elements,
 292:Middlewares/tensorflow/third_party/cmsis_nn/Include/arm_nnsupportfunctions.h ****                                   const int32_t offset,
 293:Middlewares/tensorflow/third_party/cmsis_nn/Include/arm_nnsupportfunctions.h ****                                   const int8_t *row_base,
 294:Middlewares/tensorflow/third_party/cmsis_nn/Include/arm_nnsupportfunctions.h ****                                   const int8_t *col_base,
 295:Middlewares/tensorflow/third_party/cmsis_nn/Include/arm_nnsupportfunctions.h ****                                   const int32_t out_ch,
 296:Middlewares/tensorflow/third_party/cmsis_nn/Include/arm_nnsupportfunctions.h ****                                   const cmsis_nn_conv_params *conv_params,
 297:Middlewares/tensorflow/third_party/cmsis_nn/Include/arm_nnsupportfunctions.h ****                                   const cmsis_nn_per_channel_quant_params *quant_params,
 298:Middlewares/tensorflow/third_party/cmsis_nn/Include/arm_nnsupportfunctions.h ****                                   const int32_t *bias,
 299:Middlewares/tensorflow/third_party/cmsis_nn/Include/arm_nnsupportfunctions.h ****                                   int8_t *output);
 300:Middlewares/tensorflow/third_party/cmsis_nn/Include/arm_nnsupportfunctions.h **** 
 301:Middlewares/tensorflow/third_party/cmsis_nn/Include/arm_nnsupportfunctions.h **** /**
 302:Middlewares/tensorflow/third_party/cmsis_nn/Include/arm_nnsupportfunctions.h ****  * @brief General Matrix-multiplication function with per-channel requantization.
 303:Middlewares/tensorflow/third_party/cmsis_nn/Include/arm_nnsupportfunctions.h ****  *        This function assumes:
 304:Middlewares/tensorflow/third_party/cmsis_nn/Include/arm_nnsupportfunctions.h ****  *        - LHS input matrix NOT transposed (nt)
 305:Middlewares/tensorflow/third_party/cmsis_nn/Include/arm_nnsupportfunctions.h ****  *        - RHS input matrix transposed (t)
 306:Middlewares/tensorflow/third_party/cmsis_nn/Include/arm_nnsupportfunctions.h ****  *
 307:Middlewares/tensorflow/third_party/cmsis_nn/Include/arm_nnsupportfunctions.h ****  *  @note This operation also performs the broadcast bias addition before the requantization
 308:Middlewares/tensorflow/third_party/cmsis_nn/Include/arm_nnsupportfunctions.h ****  *
 309:Middlewares/tensorflow/third_party/cmsis_nn/Include/arm_nnsupportfunctions.h ****  * @param[in]  lhs                Pointer to the LHS input matrix
 310:Middlewares/tensorflow/third_party/cmsis_nn/Include/arm_nnsupportfunctions.h ****  * @param[in]  rhs                Pointer to the RHS input matrix
 311:Middlewares/tensorflow/third_party/cmsis_nn/Include/arm_nnsupportfunctions.h ****  * @param[in]  bias               Pointer to the bias vector. The length of this vector is equal to
 312:Middlewares/tensorflow/third_party/cmsis_nn/Include/arm_nnsupportfunctions.h ****  * output columns (or RHS input rows)
 313:Middlewares/tensorflow/third_party/cmsis_nn/Include/arm_nnsupportfunctions.h ****  * @param[out] dst                Pointer to the output matrix with "m" rows and "n" columns
 314:Middlewares/tensorflow/third_party/cmsis_nn/Include/arm_nnsupportfunctions.h ****  * @param[in]  dst_multipliers    Pointer to the multipliers vector needed for the per-channel requ
 315:Middlewares/tensorflow/third_party/cmsis_nn/Include/arm_nnsupportfunctions.h ****  *                                The length of this vector is equal to the number of output column
 316:Middlewares/tensorflow/third_party/cmsis_nn/Include/arm_nnsupportfunctions.h ****  * rows)
 317:Middlewares/tensorflow/third_party/cmsis_nn/Include/arm_nnsupportfunctions.h ****  * @param[in]  dst_shifts         Pointer to the shifts vector needed for the per-channel requantiz
 318:Middlewares/tensorflow/third_party/cmsis_nn/Include/arm_nnsupportfunctions.h ****  * of this vector is equal to the number of output columns (or RHS input rows)
 319:Middlewares/tensorflow/third_party/cmsis_nn/Include/arm_nnsupportfunctions.h ****  * @param[in]  lhs_rows           Number of LHS input rows
 320:Middlewares/tensorflow/third_party/cmsis_nn/Include/arm_nnsupportfunctions.h ****  * @param[in]  rhs_rows           Number of RHS input rows
 321:Middlewares/tensorflow/third_party/cmsis_nn/Include/arm_nnsupportfunctions.h ****  * @param[in]  rhs_cols           Number of LHS/RHS input columns
 322:Middlewares/tensorflow/third_party/cmsis_nn/Include/arm_nnsupportfunctions.h ****  * @param[in]  lhs_offset         Offset to be applied to the LHS input value
 323:Middlewares/tensorflow/third_party/cmsis_nn/Include/arm_nnsupportfunctions.h ****  * @param[in]  dst_offset         Offset to be applied the output result
 324:Middlewares/tensorflow/third_party/cmsis_nn/Include/arm_nnsupportfunctions.h ****  * @param[in]  activation_min     Minimum value to clamp down the output. Range : int8
 325:Middlewares/tensorflow/third_party/cmsis_nn/Include/arm_nnsupportfunctions.h ****  * @param[in]  activation_max     Maximum value to clamp up the output. Range : int8
 326:Middlewares/tensorflow/third_party/cmsis_nn/Include/arm_nnsupportfunctions.h ****  * @param[in]  rhs_cols_offset    Offset between input columns. Used to handle non-unity strides
 327:Middlewares/tensorflow/third_party/cmsis_nn/Include/arm_nnsupportfunctions.h ****  *                                Expected value : x * rhs_cols, where x >= 1
 328:Middlewares/tensorflow/third_party/cmsis_nn/Include/arm_nnsupportfunctions.h ****  *
 329:Middlewares/tensorflow/third_party/cmsis_nn/Include/arm_nnsupportfunctions.h ****  * @return     The function returns <code>ARM_CMSIS_NN_SUCCESS</code>
 330:Middlewares/tensorflow/third_party/cmsis_nn/Include/arm_nnsupportfunctions.h ****  *
 331:Middlewares/tensorflow/third_party/cmsis_nn/Include/arm_nnsupportfunctions.h ****  */
 332:Middlewares/tensorflow/third_party/cmsis_nn/Include/arm_nnsupportfunctions.h **** arm_cmsis_nn_status arm_nn_mat_mult_nt_t_s8(const int8_t *lhs,
 333:Middlewares/tensorflow/third_party/cmsis_nn/Include/arm_nnsupportfunctions.h ****                                             const int8_t *rhs,
 334:Middlewares/tensorflow/third_party/cmsis_nn/Include/arm_nnsupportfunctions.h ****                                             const int32_t *bias,
 335:Middlewares/tensorflow/third_party/cmsis_nn/Include/arm_nnsupportfunctions.h ****                                             int8_t *dst,
 336:Middlewares/tensorflow/third_party/cmsis_nn/Include/arm_nnsupportfunctions.h ****                                             const int32_t *dst_multipliers,
 337:Middlewares/tensorflow/third_party/cmsis_nn/Include/arm_nnsupportfunctions.h ****                                             const int32_t *dst_shifts,
 338:Middlewares/tensorflow/third_party/cmsis_nn/Include/arm_nnsupportfunctions.h ****                                             const int32_t lhs_rows,
 339:Middlewares/tensorflow/third_party/cmsis_nn/Include/arm_nnsupportfunctions.h ****                                             const int32_t rhs_rows,
 340:Middlewares/tensorflow/third_party/cmsis_nn/Include/arm_nnsupportfunctions.h ****                                             const int32_t rhs_cols,
 341:Middlewares/tensorflow/third_party/cmsis_nn/Include/arm_nnsupportfunctions.h ****                                             const int32_t lhs_offset,
ARM GAS  /tmp/ccOcL3QG.s 			page 15


 342:Middlewares/tensorflow/third_party/cmsis_nn/Include/arm_nnsupportfunctions.h ****                                             const int32_t dst_offset,
 343:Middlewares/tensorflow/third_party/cmsis_nn/Include/arm_nnsupportfunctions.h ****                                             const int32_t activation_min,
 344:Middlewares/tensorflow/third_party/cmsis_nn/Include/arm_nnsupportfunctions.h ****                                             const int32_t activation_max,
 345:Middlewares/tensorflow/third_party/cmsis_nn/Include/arm_nnsupportfunctions.h ****                                             const int32_t rhs_cols_offset);
 346:Middlewares/tensorflow/third_party/cmsis_nn/Include/arm_nnsupportfunctions.h **** 
 347:Middlewares/tensorflow/third_party/cmsis_nn/Include/arm_nnsupportfunctions.h **** /**
 348:Middlewares/tensorflow/third_party/cmsis_nn/Include/arm_nnsupportfunctions.h ****  * @brief s8 Vector by Matrix (transposed) multiplication
 349:Middlewares/tensorflow/third_party/cmsis_nn/Include/arm_nnsupportfunctions.h ****  *
 350:Middlewares/tensorflow/third_party/cmsis_nn/Include/arm_nnsupportfunctions.h ****  * @param[in]      lhs             Input left-hand side vector
 351:Middlewares/tensorflow/third_party/cmsis_nn/Include/arm_nnsupportfunctions.h ****  * @param[in]      rhs             Input right-hand side matrix (transposed)
 352:Middlewares/tensorflow/third_party/cmsis_nn/Include/arm_nnsupportfunctions.h ****  * @param[in]      bias            Input bias
 353:Middlewares/tensorflow/third_party/cmsis_nn/Include/arm_nnsupportfunctions.h ****  * @param[out]     dst             Output vector
 354:Middlewares/tensorflow/third_party/cmsis_nn/Include/arm_nnsupportfunctions.h ****  * @param[in]      lhs_offset      Offset to be added to the input values of the left-hand side vec
 355:Middlewares/tensorflow/third_party/cmsis_nn/Include/arm_nnsupportfunctions.h ****  *                                 Range: -127 to 128
 356:Middlewares/tensorflow/third_party/cmsis_nn/Include/arm_nnsupportfunctions.h ****  * @param[in]      dst_offset      Offset to be added to the output values. Range: -127 to 128
 357:Middlewares/tensorflow/third_party/cmsis_nn/Include/arm_nnsupportfunctions.h ****  * @param[in]      dst_multiplier  Output multiplier
 358:Middlewares/tensorflow/third_party/cmsis_nn/Include/arm_nnsupportfunctions.h ****  * @param[in]      dst_shift       Output shift
 359:Middlewares/tensorflow/third_party/cmsis_nn/Include/arm_nnsupportfunctions.h ****  * @param[in]      rhs_cols        Number of columns in the right-hand side input matrix
 360:Middlewares/tensorflow/third_party/cmsis_nn/Include/arm_nnsupportfunctions.h ****  * @param[in]      rhs_rows        Number of rows in the right-hand side input matrix
 361:Middlewares/tensorflow/third_party/cmsis_nn/Include/arm_nnsupportfunctions.h ****  * @param[in]      activation_min  Minimum value to clamp the output to. Range: int8
 362:Middlewares/tensorflow/third_party/cmsis_nn/Include/arm_nnsupportfunctions.h ****  * @param[in]      activation_max  Maximum value to clamp the output to. Range: int8
 363:Middlewares/tensorflow/third_party/cmsis_nn/Include/arm_nnsupportfunctions.h ****  * @param[in]      address_offset  Memory position offset for dst. First output is stored at 'dst',
 364:Middlewares/tensorflow/third_party/cmsis_nn/Include/arm_nnsupportfunctions.h ****  *                                 second at 'dst + address_offset' and so on. Default value is typ
 365:Middlewares/tensorflow/third_party/cmsis_nn/Include/arm_nnsupportfunctions.h ****  *
 366:Middlewares/tensorflow/third_party/cmsis_nn/Include/arm_nnsupportfunctions.h ****  * @return         The function returns <code>ARM_CMSIS_NN_SUCCESS</code>
 367:Middlewares/tensorflow/third_party/cmsis_nn/Include/arm_nnsupportfunctions.h ****  *
 368:Middlewares/tensorflow/third_party/cmsis_nn/Include/arm_nnsupportfunctions.h ****  */
 369:Middlewares/tensorflow/third_party/cmsis_nn/Include/arm_nnsupportfunctions.h **** arm_cmsis_nn_status arm_nn_vec_mat_mult_t_s8(const int8_t *lhs,
 370:Middlewares/tensorflow/third_party/cmsis_nn/Include/arm_nnsupportfunctions.h ****                                              const int8_t *rhs,
 371:Middlewares/tensorflow/third_party/cmsis_nn/Include/arm_nnsupportfunctions.h ****                                              const int32_t *bias,
 372:Middlewares/tensorflow/third_party/cmsis_nn/Include/arm_nnsupportfunctions.h ****                                              int8_t *dst,
 373:Middlewares/tensorflow/third_party/cmsis_nn/Include/arm_nnsupportfunctions.h ****                                              const int32_t lhs_offset,
 374:Middlewares/tensorflow/third_party/cmsis_nn/Include/arm_nnsupportfunctions.h ****                                              const int32_t dst_offset,
 375:Middlewares/tensorflow/third_party/cmsis_nn/Include/arm_nnsupportfunctions.h ****                                              const int32_t dst_multiplier,
 376:Middlewares/tensorflow/third_party/cmsis_nn/Include/arm_nnsupportfunctions.h ****                                              const int32_t dst_shift,
 377:Middlewares/tensorflow/third_party/cmsis_nn/Include/arm_nnsupportfunctions.h ****                                              const int32_t rhs_cols,
 378:Middlewares/tensorflow/third_party/cmsis_nn/Include/arm_nnsupportfunctions.h ****                                              const int32_t rhs_rows,
 379:Middlewares/tensorflow/third_party/cmsis_nn/Include/arm_nnsupportfunctions.h ****                                              const int32_t activation_min,
 380:Middlewares/tensorflow/third_party/cmsis_nn/Include/arm_nnsupportfunctions.h ****                                              const int32_t activation_max,
 381:Middlewares/tensorflow/third_party/cmsis_nn/Include/arm_nnsupportfunctions.h ****                                              const int32_t address_offset);
 382:Middlewares/tensorflow/third_party/cmsis_nn/Include/arm_nnsupportfunctions.h **** 
 383:Middlewares/tensorflow/third_party/cmsis_nn/Include/arm_nnsupportfunctions.h **** /**
 384:Middlewares/tensorflow/third_party/cmsis_nn/Include/arm_nnsupportfunctions.h ****  * @brief s16 Vector by Matrix (transposed) multiplication
 385:Middlewares/tensorflow/third_party/cmsis_nn/Include/arm_nnsupportfunctions.h ****  *
 386:Middlewares/tensorflow/third_party/cmsis_nn/Include/arm_nnsupportfunctions.h ****  * @param[in]      lhs             Input left-hand side vector
 387:Middlewares/tensorflow/third_party/cmsis_nn/Include/arm_nnsupportfunctions.h ****  * @param[in]      rhs             Input right-hand side matrix (transposed)
 388:Middlewares/tensorflow/third_party/cmsis_nn/Include/arm_nnsupportfunctions.h ****  * @param[in]      bias            Input bias
 389:Middlewares/tensorflow/third_party/cmsis_nn/Include/arm_nnsupportfunctions.h ****  * @param[out]     dst             Output vector
 390:Middlewares/tensorflow/third_party/cmsis_nn/Include/arm_nnsupportfunctions.h ****  * @param[in]      dst_multiplier  Output multiplier
 391:Middlewares/tensorflow/third_party/cmsis_nn/Include/arm_nnsupportfunctions.h ****  * @param[in]      dst_shift       Output shift
 392:Middlewares/tensorflow/third_party/cmsis_nn/Include/arm_nnsupportfunctions.h ****  * @param[in]      rhs_cols        Number of columns in the right-hand side input matrix
 393:Middlewares/tensorflow/third_party/cmsis_nn/Include/arm_nnsupportfunctions.h ****  * @param[in]      rhs_rows        Number of rows in the right-hand side input matrix
 394:Middlewares/tensorflow/third_party/cmsis_nn/Include/arm_nnsupportfunctions.h ****  * @param[in]      activation_min  Minimum value to clamp the output to. Range: int16
 395:Middlewares/tensorflow/third_party/cmsis_nn/Include/arm_nnsupportfunctions.h ****  * @param[in]      activation_max  Maximum value to clamp the output to. Range: int16
 396:Middlewares/tensorflow/third_party/cmsis_nn/Include/arm_nnsupportfunctions.h ****  *
 397:Middlewares/tensorflow/third_party/cmsis_nn/Include/arm_nnsupportfunctions.h ****  * @return         The function returns <code>ARM_CMSIS_NN_SUCCESS</code>
 398:Middlewares/tensorflow/third_party/cmsis_nn/Include/arm_nnsupportfunctions.h ****  *
ARM GAS  /tmp/ccOcL3QG.s 			page 16


 399:Middlewares/tensorflow/third_party/cmsis_nn/Include/arm_nnsupportfunctions.h ****  */
 400:Middlewares/tensorflow/third_party/cmsis_nn/Include/arm_nnsupportfunctions.h **** arm_cmsis_nn_status arm_nn_vec_mat_mult_t_s16(const int16_t *lhs,
 401:Middlewares/tensorflow/third_party/cmsis_nn/Include/arm_nnsupportfunctions.h ****                                               const int8_t *rhs,
 402:Middlewares/tensorflow/third_party/cmsis_nn/Include/arm_nnsupportfunctions.h ****                                               const int64_t *bias,
 403:Middlewares/tensorflow/third_party/cmsis_nn/Include/arm_nnsupportfunctions.h ****                                               int16_t *dst,
 404:Middlewares/tensorflow/third_party/cmsis_nn/Include/arm_nnsupportfunctions.h ****                                               const int32_t dst_multiplier,
 405:Middlewares/tensorflow/third_party/cmsis_nn/Include/arm_nnsupportfunctions.h ****                                               const int32_t dst_shift,
 406:Middlewares/tensorflow/third_party/cmsis_nn/Include/arm_nnsupportfunctions.h ****                                               const int32_t rhs_cols,
 407:Middlewares/tensorflow/third_party/cmsis_nn/Include/arm_nnsupportfunctions.h ****                                               const int32_t rhs_rows,
 408:Middlewares/tensorflow/third_party/cmsis_nn/Include/arm_nnsupportfunctions.h ****                                               const int32_t activation_min,
 409:Middlewares/tensorflow/third_party/cmsis_nn/Include/arm_nnsupportfunctions.h ****                                               const int32_t activation_max);
 410:Middlewares/tensorflow/third_party/cmsis_nn/Include/arm_nnsupportfunctions.h **** 
 411:Middlewares/tensorflow/third_party/cmsis_nn/Include/arm_nnsupportfunctions.h **** /**
 412:Middlewares/tensorflow/third_party/cmsis_nn/Include/arm_nnsupportfunctions.h ****  * @brief s8 Vector by Matrix (transposed) multiplication with s16 output
 413:Middlewares/tensorflow/third_party/cmsis_nn/Include/arm_nnsupportfunctions.h ****  *
 414:Middlewares/tensorflow/third_party/cmsis_nn/Include/arm_nnsupportfunctions.h ****  * @param[in]      lhs             Input left-hand side vector
 415:Middlewares/tensorflow/third_party/cmsis_nn/Include/arm_nnsupportfunctions.h ****  * @param[in]      rhs             Input right-hand side matrix (transposed)
 416:Middlewares/tensorflow/third_party/cmsis_nn/Include/arm_nnsupportfunctions.h ****  * @param[out]     dst             Output vector
 417:Middlewares/tensorflow/third_party/cmsis_nn/Include/arm_nnsupportfunctions.h ****  * @param[in]      lhs_offset      Offset to be added to the input values of the left-hand side
 418:Middlewares/tensorflow/third_party/cmsis_nn/Include/arm_nnsupportfunctions.h ****  *                                 vector. Range: -127 to 128
 419:Middlewares/tensorflow/third_party/cmsis_nn/Include/arm_nnsupportfunctions.h ****  * @param[in]      scatter_offset  Address offset for dst. First output is stored at 'dst', the
 420:Middlewares/tensorflow/third_party/cmsis_nn/Include/arm_nnsupportfunctions.h ****  *                                 second at 'dst + scatter_offset' and so on.
 421:Middlewares/tensorflow/third_party/cmsis_nn/Include/arm_nnsupportfunctions.h ****  * @param[in]      dst_multiplier  Output multiplier
 422:Middlewares/tensorflow/third_party/cmsis_nn/Include/arm_nnsupportfunctions.h ****  * @param[in]      dst_shift       Output shift
 423:Middlewares/tensorflow/third_party/cmsis_nn/Include/arm_nnsupportfunctions.h ****  * @param[in]      rhs_cols        Number of columns in the right-hand side input matrix
 424:Middlewares/tensorflow/third_party/cmsis_nn/Include/arm_nnsupportfunctions.h ****  * @param[in]      rhs_rows        Number of rows in the right-hand side input matrix
 425:Middlewares/tensorflow/third_party/cmsis_nn/Include/arm_nnsupportfunctions.h ****  * @param[in]      activation_min  Minimum value to clamp the output to. Range: int16
 426:Middlewares/tensorflow/third_party/cmsis_nn/Include/arm_nnsupportfunctions.h ****  * @param[in]      activation_max  Maximum value to clamp the output to. Range: int16
 427:Middlewares/tensorflow/third_party/cmsis_nn/Include/arm_nnsupportfunctions.h ****  *
 428:Middlewares/tensorflow/third_party/cmsis_nn/Include/arm_nnsupportfunctions.h ****  * @return         The function returns <code>ARM_CMSIS_NN_SUCCESS</code>
 429:Middlewares/tensorflow/third_party/cmsis_nn/Include/arm_nnsupportfunctions.h ****  *
 430:Middlewares/tensorflow/third_party/cmsis_nn/Include/arm_nnsupportfunctions.h ****  */
 431:Middlewares/tensorflow/third_party/cmsis_nn/Include/arm_nnsupportfunctions.h **** arm_cmsis_nn_status arm_nn_vec_mat_mult_t_svdf_s8(const int8_t *lhs,
 432:Middlewares/tensorflow/third_party/cmsis_nn/Include/arm_nnsupportfunctions.h ****                                                   const int8_t *rhs,
 433:Middlewares/tensorflow/third_party/cmsis_nn/Include/arm_nnsupportfunctions.h ****                                                   int16_t *dst,
 434:Middlewares/tensorflow/third_party/cmsis_nn/Include/arm_nnsupportfunctions.h ****                                                   const int32_t lhs_offset,
 435:Middlewares/tensorflow/third_party/cmsis_nn/Include/arm_nnsupportfunctions.h ****                                                   const int32_t scatter_offset,
 436:Middlewares/tensorflow/third_party/cmsis_nn/Include/arm_nnsupportfunctions.h ****                                                   const int32_t dst_multiplier,
 437:Middlewares/tensorflow/third_party/cmsis_nn/Include/arm_nnsupportfunctions.h ****                                                   const int32_t dst_shift,
 438:Middlewares/tensorflow/third_party/cmsis_nn/Include/arm_nnsupportfunctions.h ****                                                   const int32_t rhs_cols,
 439:Middlewares/tensorflow/third_party/cmsis_nn/Include/arm_nnsupportfunctions.h ****                                                   const int32_t rhs_rows,
 440:Middlewares/tensorflow/third_party/cmsis_nn/Include/arm_nnsupportfunctions.h ****                                                   const int32_t activation_min,
 441:Middlewares/tensorflow/third_party/cmsis_nn/Include/arm_nnsupportfunctions.h ****                                                   const int32_t activation_max);
 442:Middlewares/tensorflow/third_party/cmsis_nn/Include/arm_nnsupportfunctions.h **** 
 443:Middlewares/tensorflow/third_party/cmsis_nn/Include/arm_nnsupportfunctions.h **** /**
 444:Middlewares/tensorflow/third_party/cmsis_nn/Include/arm_nnsupportfunctions.h ****  * @brief Depthwise convolution of transposed rhs matrix with 4 lhs matrices. To be used in padded 
 445:Middlewares/tensorflow/third_party/cmsis_nn/Include/arm_nnsupportfunctions.h ****  *        the padding is -lhs_offset(Range: int8). Dimensions are the same for lhs and rhs.
 446:Middlewares/tensorflow/third_party/cmsis_nn/Include/arm_nnsupportfunctions.h ****  *
 447:Middlewares/tensorflow/third_party/cmsis_nn/Include/arm_nnsupportfunctions.h ****  * @param[in]      lhs             Input left-hand side matrix
 448:Middlewares/tensorflow/third_party/cmsis_nn/Include/arm_nnsupportfunctions.h ****  * @param[in]      rhs             Input right-hand side matrix (transposed)
 449:Middlewares/tensorflow/third_party/cmsis_nn/Include/arm_nnsupportfunctions.h ****  * @param[in]      lhs_offset      LHS matrix offset(input offset). Range: -127 to 128
 450:Middlewares/tensorflow/third_party/cmsis_nn/Include/arm_nnsupportfunctions.h ****  * @param[in]      active_ch       Subset of total_ch processed
 451:Middlewares/tensorflow/third_party/cmsis_nn/Include/arm_nnsupportfunctions.h ****  * @param[in]      total_ch        Number of channels in LHS/RHS
 452:Middlewares/tensorflow/third_party/cmsis_nn/Include/arm_nnsupportfunctions.h ****  * @param[in]      out_shift       Per channel output shift. Length of vector is equal to number of
 453:Middlewares/tensorflow/third_party/cmsis_nn/Include/arm_nnsupportfunctions.h ****  * @param[in]      out_mult        Per channel output multiplier. Length of vector is equal to numb
 454:Middlewares/tensorflow/third_party/cmsis_nn/Include/arm_nnsupportfunctions.h ****  * @param[in]      out_offset      Offset to be added to the output values. Range: -127 to 128
 455:Middlewares/tensorflow/third_party/cmsis_nn/Include/arm_nnsupportfunctions.h ****  * @param[in]      activation_min  Minimum value to clamp the output to. Range: int8
ARM GAS  /tmp/ccOcL3QG.s 			page 17


 456:Middlewares/tensorflow/third_party/cmsis_nn/Include/arm_nnsupportfunctions.h ****  * @param[in]      activation_max  Maximum value to clamp the output to. Range: int8
 457:Middlewares/tensorflow/third_party/cmsis_nn/Include/arm_nnsupportfunctions.h ****  * @param[in]       row_x_col       (row_dimension * col_dimension) of LHS/RHS matrix
 458:Middlewares/tensorflow/third_party/cmsis_nn/Include/arm_nnsupportfunctions.h ****  * @param[in]      output_bias     Per channel output bias. Length of vector is equal to number of 
 459:Middlewares/tensorflow/third_party/cmsis_nn/Include/arm_nnsupportfunctions.h ****  * @param[in]      out             Output pointer
 460:Middlewares/tensorflow/third_party/cmsis_nn/Include/arm_nnsupportfunctions.h ****  *
 461:Middlewares/tensorflow/third_party/cmsis_nn/Include/arm_nnsupportfunctions.h ****  * @return         The function returns one of the two
 462:Middlewares/tensorflow/third_party/cmsis_nn/Include/arm_nnsupportfunctions.h ****  *                  - Updated output pointer if an implementation is available
 463:Middlewares/tensorflow/third_party/cmsis_nn/Include/arm_nnsupportfunctions.h ****  *                  - NULL if no implementation is available.
 464:Middlewares/tensorflow/third_party/cmsis_nn/Include/arm_nnsupportfunctions.h ****  *
 465:Middlewares/tensorflow/third_party/cmsis_nn/Include/arm_nnsupportfunctions.h ****  * @note           If number of channels is not a multiple of 4, upto 3 elements outside the bounda
 466:Middlewares/tensorflow/third_party/cmsis_nn/Include/arm_nnsupportfunctions.h ****  * out for the following.
 467:Middlewares/tensorflow/third_party/cmsis_nn/Include/arm_nnsupportfunctions.h ****  *                  - Output shift
 468:Middlewares/tensorflow/third_party/cmsis_nn/Include/arm_nnsupportfunctions.h ****  *                  - Output multiplier
 469:Middlewares/tensorflow/third_party/cmsis_nn/Include/arm_nnsupportfunctions.h ****  *                  - Output bias
 470:Middlewares/tensorflow/third_party/cmsis_nn/Include/arm_nnsupportfunctions.h ****  *                  - rhs
 471:Middlewares/tensorflow/third_party/cmsis_nn/Include/arm_nnsupportfunctions.h ****  */
 472:Middlewares/tensorflow/third_party/cmsis_nn/Include/arm_nnsupportfunctions.h **** arm_cmsis_nn_status arm_nn_depthwise_conv_nt_t_padded_s8(const int8_t *lhs,
 473:Middlewares/tensorflow/third_party/cmsis_nn/Include/arm_nnsupportfunctions.h ****                                                          const int8_t *rhs,
 474:Middlewares/tensorflow/third_party/cmsis_nn/Include/arm_nnsupportfunctions.h ****                                                          const int32_t lhs_offset,
 475:Middlewares/tensorflow/third_party/cmsis_nn/Include/arm_nnsupportfunctions.h ****                                                          const int32_t active_ch,
 476:Middlewares/tensorflow/third_party/cmsis_nn/Include/arm_nnsupportfunctions.h ****                                                          const int32_t total_ch,
 477:Middlewares/tensorflow/third_party/cmsis_nn/Include/arm_nnsupportfunctions.h ****                                                          const int32_t *out_shift,
 478:Middlewares/tensorflow/third_party/cmsis_nn/Include/arm_nnsupportfunctions.h ****                                                          const int32_t *out_mult,
 479:Middlewares/tensorflow/third_party/cmsis_nn/Include/arm_nnsupportfunctions.h ****                                                          const int32_t out_offset,
 480:Middlewares/tensorflow/third_party/cmsis_nn/Include/arm_nnsupportfunctions.h ****                                                          const int32_t activation_min,
 481:Middlewares/tensorflow/third_party/cmsis_nn/Include/arm_nnsupportfunctions.h ****                                                          const int32_t activation_max,
 482:Middlewares/tensorflow/third_party/cmsis_nn/Include/arm_nnsupportfunctions.h ****                                                          const uint16_t row_x_col,
 483:Middlewares/tensorflow/third_party/cmsis_nn/Include/arm_nnsupportfunctions.h ****                                                          const int32_t *const output_bias,
 484:Middlewares/tensorflow/third_party/cmsis_nn/Include/arm_nnsupportfunctions.h ****                                                          int8_t *out);
 485:Middlewares/tensorflow/third_party/cmsis_nn/Include/arm_nnsupportfunctions.h **** 
 486:Middlewares/tensorflow/third_party/cmsis_nn/Include/arm_nnsupportfunctions.h **** /**
 487:Middlewares/tensorflow/third_party/cmsis_nn/Include/arm_nnsupportfunctions.h ****  * @brief Depthwise convolution of transposed rhs matrix with 4 lhs matrices. To be used in non-pad
 488:Middlewares/tensorflow/third_party/cmsis_nn/Include/arm_nnsupportfunctions.h ****  *        Dimensions are the same for lhs and rhs.
 489:Middlewares/tensorflow/third_party/cmsis_nn/Include/arm_nnsupportfunctions.h ****  *
 490:Middlewares/tensorflow/third_party/cmsis_nn/Include/arm_nnsupportfunctions.h ****  * @param[in]      lhs             Input left-hand side matrix
 491:Middlewares/tensorflow/third_party/cmsis_nn/Include/arm_nnsupportfunctions.h ****  * @param[in]      rhs             Input right-hand side matrix (transposed)
 492:Middlewares/tensorflow/third_party/cmsis_nn/Include/arm_nnsupportfunctions.h ****  * @param[in]      lhs_offset      LHS matrix offset(input offset). Range: -127 to 128
 493:Middlewares/tensorflow/third_party/cmsis_nn/Include/arm_nnsupportfunctions.h ****  * @param[in]      active_ch       Subset of total_ch processed
 494:Middlewares/tensorflow/third_party/cmsis_nn/Include/arm_nnsupportfunctions.h ****  * @param[in]      total_ch        Number of channels in LHS/RHS
 495:Middlewares/tensorflow/third_party/cmsis_nn/Include/arm_nnsupportfunctions.h ****  * @param[in]      out_shift       Per channel output shift. Length of vector is equal to number of
 496:Middlewares/tensorflow/third_party/cmsis_nn/Include/arm_nnsupportfunctions.h ****  * @param[in]      out_mult        Per channel output multiplier. Length of vector is equal to numb
 497:Middlewares/tensorflow/third_party/cmsis_nn/Include/arm_nnsupportfunctions.h ****  * @param[in]      out_offset      Offset to be added to the output values. Range: -127 to 128
 498:Middlewares/tensorflow/third_party/cmsis_nn/Include/arm_nnsupportfunctions.h ****  * @param[in]      activation_min  Minimum value to clamp the output to. Range: int8
 499:Middlewares/tensorflow/third_party/cmsis_nn/Include/arm_nnsupportfunctions.h ****  * @param[in]      activation_max  Maximum value to clamp the output to. Range: int8
 500:Middlewares/tensorflow/third_party/cmsis_nn/Include/arm_nnsupportfunctions.h ****  * @param[in]       row_x_col       (row_dimension * col_dimension) of LHS/RHS matrix
 501:Middlewares/tensorflow/third_party/cmsis_nn/Include/arm_nnsupportfunctions.h ****  * @param[in]      output_bias     Per channel output bias. Length of vector is equal to number of 
 502:Middlewares/tensorflow/third_party/cmsis_nn/Include/arm_nnsupportfunctions.h ****  * @param[in]      out             Output pointer
 503:Middlewares/tensorflow/third_party/cmsis_nn/Include/arm_nnsupportfunctions.h ****  *
 504:Middlewares/tensorflow/third_party/cmsis_nn/Include/arm_nnsupportfunctions.h ****  * @return         The function returns one of the two
 505:Middlewares/tensorflow/third_party/cmsis_nn/Include/arm_nnsupportfunctions.h ****  *                  - Updated output pointer if an implementation is available
 506:Middlewares/tensorflow/third_party/cmsis_nn/Include/arm_nnsupportfunctions.h ****  *                  - NULL if no implementation is available.
 507:Middlewares/tensorflow/third_party/cmsis_nn/Include/arm_nnsupportfunctions.h ****  *
 508:Middlewares/tensorflow/third_party/cmsis_nn/Include/arm_nnsupportfunctions.h ****  * @note           If number of channels is not a multiple of 4, upto 3 elements outside the bounda
 509:Middlewares/tensorflow/third_party/cmsis_nn/Include/arm_nnsupportfunctions.h ****  * out for the following.
 510:Middlewares/tensorflow/third_party/cmsis_nn/Include/arm_nnsupportfunctions.h ****  *                  - Output shift
 511:Middlewares/tensorflow/third_party/cmsis_nn/Include/arm_nnsupportfunctions.h ****  *                  - Output multiplier
 512:Middlewares/tensorflow/third_party/cmsis_nn/Include/arm_nnsupportfunctions.h ****  *                  - Output bias
ARM GAS  /tmp/ccOcL3QG.s 			page 18


 513:Middlewares/tensorflow/third_party/cmsis_nn/Include/arm_nnsupportfunctions.h ****  *                  - rhs
 514:Middlewares/tensorflow/third_party/cmsis_nn/Include/arm_nnsupportfunctions.h ****  */
 515:Middlewares/tensorflow/third_party/cmsis_nn/Include/arm_nnsupportfunctions.h **** arm_cmsis_nn_status arm_nn_depthwise_conv_nt_t_s8(const int8_t *lhs,
 516:Middlewares/tensorflow/third_party/cmsis_nn/Include/arm_nnsupportfunctions.h ****                                                   const int8_t *rhs,
 517:Middlewares/tensorflow/third_party/cmsis_nn/Include/arm_nnsupportfunctions.h ****                                                   const int32_t lhs_offset,
 518:Middlewares/tensorflow/third_party/cmsis_nn/Include/arm_nnsupportfunctions.h ****                                                   const int32_t active_ch,
 519:Middlewares/tensorflow/third_party/cmsis_nn/Include/arm_nnsupportfunctions.h ****                                                   const int32_t total_ch,
 520:Middlewares/tensorflow/third_party/cmsis_nn/Include/arm_nnsupportfunctions.h ****                                                   const int32_t *out_shift,
 521:Middlewares/tensorflow/third_party/cmsis_nn/Include/arm_nnsupportfunctions.h ****                                                   const int32_t *out_mult,
 522:Middlewares/tensorflow/third_party/cmsis_nn/Include/arm_nnsupportfunctions.h ****                                                   const int32_t out_offset,
 523:Middlewares/tensorflow/third_party/cmsis_nn/Include/arm_nnsupportfunctions.h ****                                                   const int32_t activation_min,
 524:Middlewares/tensorflow/third_party/cmsis_nn/Include/arm_nnsupportfunctions.h ****                                                   const int32_t activation_max,
 525:Middlewares/tensorflow/third_party/cmsis_nn/Include/arm_nnsupportfunctions.h ****                                                   const uint16_t row_x_col,
 526:Middlewares/tensorflow/third_party/cmsis_nn/Include/arm_nnsupportfunctions.h ****                                                   const int32_t *const output_bias,
 527:Middlewares/tensorflow/third_party/cmsis_nn/Include/arm_nnsupportfunctions.h ****                                                   int8_t *out);
 528:Middlewares/tensorflow/third_party/cmsis_nn/Include/arm_nnsupportfunctions.h **** 
 529:Middlewares/tensorflow/third_party/cmsis_nn/Include/arm_nnsupportfunctions.h **** /**
 530:Middlewares/tensorflow/third_party/cmsis_nn/Include/arm_nnsupportfunctions.h ****  * @brief Depthwise convolution of transposed rhs matrix with 4 lhs matrices. To be used in non-pad
 531:Middlewares/tensorflow/third_party/cmsis_nn/Include/arm_nnsupportfunctions.h ****  *        Dimensions are the same for lhs and rhs.
 532:Middlewares/tensorflow/third_party/cmsis_nn/Include/arm_nnsupportfunctions.h ****  *
 533:Middlewares/tensorflow/third_party/cmsis_nn/Include/arm_nnsupportfunctions.h ****  * @param[in]      lhs             Input left-hand side matrix
 534:Middlewares/tensorflow/third_party/cmsis_nn/Include/arm_nnsupportfunctions.h ****  * @param[in]      rhs             Input right-hand side matrix (transposed)
 535:Middlewares/tensorflow/third_party/cmsis_nn/Include/arm_nnsupportfunctions.h ****  * @param[in]      num_ch          Number of channels in LHS/RHS
 536:Middlewares/tensorflow/third_party/cmsis_nn/Include/arm_nnsupportfunctions.h ****  * @param[in]      out_shift       Per channel output shift. Length of vector is equal to number of
 537:Middlewares/tensorflow/third_party/cmsis_nn/Include/arm_nnsupportfunctions.h ****  * @param[in]      out_mult        Per channel output multiplier. Length of vector is equal to numb
 538:Middlewares/tensorflow/third_party/cmsis_nn/Include/arm_nnsupportfunctions.h ****  * @param[in]      activation_min  Minimum value to clamp the output to. Range: int8
 539:Middlewares/tensorflow/third_party/cmsis_nn/Include/arm_nnsupportfunctions.h ****  * @param[in]      activation_max  Maximum value to clamp the output to. Range: int8
 540:Middlewares/tensorflow/third_party/cmsis_nn/Include/arm_nnsupportfunctions.h ****  * @param[in]       row_x_col       (row_dimension * col_dimension) of LHS/RHS matrix
 541:Middlewares/tensorflow/third_party/cmsis_nn/Include/arm_nnsupportfunctions.h ****  * @param[in]      output_bias     Per channel output bias. Length of vector is equal to number of 
 542:Middlewares/tensorflow/third_party/cmsis_nn/Include/arm_nnsupportfunctions.h ****  * @param[in]      out             Output pointer
 543:Middlewares/tensorflow/third_party/cmsis_nn/Include/arm_nnsupportfunctions.h ****  *
 544:Middlewares/tensorflow/third_party/cmsis_nn/Include/arm_nnsupportfunctions.h ****  * @return         The function returns one of the two
 545:Middlewares/tensorflow/third_party/cmsis_nn/Include/arm_nnsupportfunctions.h ****  *                  - Updated output pointer if an implementation is available
 546:Middlewares/tensorflow/third_party/cmsis_nn/Include/arm_nnsupportfunctions.h ****  *                  - NULL if no implementation is available.
 547:Middlewares/tensorflow/third_party/cmsis_nn/Include/arm_nnsupportfunctions.h ****  *
 548:Middlewares/tensorflow/third_party/cmsis_nn/Include/arm_nnsupportfunctions.h ****  * @note           If number of channels is not a multiple of 4, upto 3 elements outside the bounda
 549:Middlewares/tensorflow/third_party/cmsis_nn/Include/arm_nnsupportfunctions.h ****  * out for the following.
 550:Middlewares/tensorflow/third_party/cmsis_nn/Include/arm_nnsupportfunctions.h ****  *                  - Output shift
 551:Middlewares/tensorflow/third_party/cmsis_nn/Include/arm_nnsupportfunctions.h ****  *                  - Output multiplier
 552:Middlewares/tensorflow/third_party/cmsis_nn/Include/arm_nnsupportfunctions.h ****  *                  - Output bias
 553:Middlewares/tensorflow/third_party/cmsis_nn/Include/arm_nnsupportfunctions.h ****  *                  - rhs
 554:Middlewares/tensorflow/third_party/cmsis_nn/Include/arm_nnsupportfunctions.h ****  */
 555:Middlewares/tensorflow/third_party/cmsis_nn/Include/arm_nnsupportfunctions.h **** int16_t *arm_nn_depthwise_conv_nt_t_s16(const int16_t *lhs,
 556:Middlewares/tensorflow/third_party/cmsis_nn/Include/arm_nnsupportfunctions.h ****                                         const int8_t *rhs,
 557:Middlewares/tensorflow/third_party/cmsis_nn/Include/arm_nnsupportfunctions.h ****                                         const uint16_t num_ch,
 558:Middlewares/tensorflow/third_party/cmsis_nn/Include/arm_nnsupportfunctions.h ****                                         const int32_t *out_shift,
 559:Middlewares/tensorflow/third_party/cmsis_nn/Include/arm_nnsupportfunctions.h ****                                         const int32_t *out_mult,
 560:Middlewares/tensorflow/third_party/cmsis_nn/Include/arm_nnsupportfunctions.h ****                                         const int32_t activation_min,
 561:Middlewares/tensorflow/third_party/cmsis_nn/Include/arm_nnsupportfunctions.h ****                                         const int32_t activation_max,
 562:Middlewares/tensorflow/third_party/cmsis_nn/Include/arm_nnsupportfunctions.h ****                                         const uint16_t row_x_col,
 563:Middlewares/tensorflow/third_party/cmsis_nn/Include/arm_nnsupportfunctions.h ****                                         const int64_t *const output_bias,
 564:Middlewares/tensorflow/third_party/cmsis_nn/Include/arm_nnsupportfunctions.h ****                                         int16_t *out);
 565:Middlewares/tensorflow/third_party/cmsis_nn/Include/arm_nnsupportfunctions.h **** 
 566:Middlewares/tensorflow/third_party/cmsis_nn/Include/arm_nnsupportfunctions.h **** /**
 567:Middlewares/tensorflow/third_party/cmsis_nn/Include/arm_nnsupportfunctions.h ****   @brief         Read 2 s16 elements and post increment pointer.
 568:Middlewares/tensorflow/third_party/cmsis_nn/Include/arm_nnsupportfunctions.h ****   @param[in]     in_q15   Pointer to pointer that holds address of input.
 569:Middlewares/tensorflow/third_party/cmsis_nn/Include/arm_nnsupportfunctions.h ****   @return        q31 value
ARM GAS  /tmp/ccOcL3QG.s 			page 19


 570:Middlewares/tensorflow/third_party/cmsis_nn/Include/arm_nnsupportfunctions.h ****  */
 571:Middlewares/tensorflow/third_party/cmsis_nn/Include/arm_nnsupportfunctions.h **** __STATIC_FORCEINLINE int32_t arm_nn_read_q15x2_ia(const int16_t **in_q15)
 305              		.loc 2 571 30 discriminator 3 view .LVU96
 306              	.LBB69:
 572:Middlewares/tensorflow/third_party/cmsis_nn/Include/arm_nnsupportfunctions.h **** {
 573:Middlewares/tensorflow/third_party/cmsis_nn/Include/arm_nnsupportfunctions.h ****     int32_t val;
 307              		.loc 2 573 5 discriminator 3 view .LVU97
 574:Middlewares/tensorflow/third_party/cmsis_nn/Include/arm_nnsupportfunctions.h **** 
 575:Middlewares/tensorflow/third_party/cmsis_nn/Include/arm_nnsupportfunctions.h ****     memcpy(&val, *in_q15, 4);
 308              		.loc 2 575 5 discriminator 3 view .LVU98
 309 00f4 50F8042B 		ldr	r2, [r0], #4	@ unaligned
 310              	.LVL52:
 576:Middlewares/tensorflow/third_party/cmsis_nn/Include/arm_nnsupportfunctions.h ****     *in_q15 += 2;
 311              		.loc 2 576 5 discriminator 3 view .LVU99
 577:Middlewares/tensorflow/third_party/cmsis_nn/Include/arm_nnsupportfunctions.h **** 
 578:Middlewares/tensorflow/third_party/cmsis_nn/Include/arm_nnsupportfunctions.h ****     return (val);
 312              		.loc 2 578 5 discriminator 3 view .LVU100
 313              		.loc 2 578 5 is_stmt 0 discriminator 3 view .LVU101
 314              	.LBE69:
 315              	.LBE68:
 152:Middlewares/tensorflow/third_party/cmsis_nn/Source/SVDFunctions/arm_svdf_state_s16_s8.c ****                     int32_t r2 = arm_nn_read_q15x2_ia(&v2);
 316              		.loc 1 152 21 is_stmt 1 discriminator 3 view .LVU102
 317              	.LBB70:
 318              	.LBI70:
 571:Middlewares/tensorflow/third_party/cmsis_nn/Include/arm_nnsupportfunctions.h **** {
 319              		.loc 2 571 30 discriminator 3 view .LVU103
 320              	.LBB71:
 573:Middlewares/tensorflow/third_party/cmsis_nn/Include/arm_nnsupportfunctions.h **** 
 321              		.loc 2 573 5 discriminator 3 view .LVU104
 575:Middlewares/tensorflow/third_party/cmsis_nn/Include/arm_nnsupportfunctions.h ****     *in_q15 += 2;
 322              		.loc 2 575 5 discriminator 3 view .LVU105
 323 00f8 54F804EB 		ldr	lr, [r4], #4	@ unaligned
 324              	.LVL53:
 576:Middlewares/tensorflow/third_party/cmsis_nn/Include/arm_nnsupportfunctions.h **** 
 325              		.loc 2 576 5 discriminator 3 view .LVU106
 326              		.loc 2 578 5 discriminator 3 view .LVU107
 327              		.loc 2 578 5 is_stmt 0 discriminator 3 view .LVU108
 328              	.LBE71:
 329              	.LBE70:
 153:Middlewares/tensorflow/third_party/cmsis_nn/Source/SVDFunctions/arm_svdf_state_s16_s8.c **** 
 154:Middlewares/tensorflow/third_party/cmsis_nn/Source/SVDFunctions/arm_svdf_state_s16_s8.c ****                     sum = SMLAD(r1, r2, sum);
 330              		.loc 1 154 21 is_stmt 1 discriminator 3 view .LVU109
 331              	.LBB72:
 332              	.LBI72:
 333              		.file 3 "Middlewares/tensorflow/third_party/cmsis_nn/Include/Internal/arm_nn_compiler.h"
   1:Middlewares/tensorflow/third_party/cmsis_nn/Include/Internal/arm_nn_compiler.h **** /*
   2:Middlewares/tensorflow/third_party/cmsis_nn/Include/Internal/arm_nn_compiler.h ****  * SPDX-FileCopyrightText: Copyright 2023 Arm Limited and/or its affiliates <open-source-office@arm
   3:Middlewares/tensorflow/third_party/cmsis_nn/Include/Internal/arm_nn_compiler.h ****  *
   4:Middlewares/tensorflow/third_party/cmsis_nn/Include/Internal/arm_nn_compiler.h ****  * SPDX-License-Identifier: Apache-2.0
   5:Middlewares/tensorflow/third_party/cmsis_nn/Include/Internal/arm_nn_compiler.h ****  *
   6:Middlewares/tensorflow/third_party/cmsis_nn/Include/Internal/arm_nn_compiler.h ****  * Licensed under the Apache License, Version 2.0 (the License); you may
   7:Middlewares/tensorflow/third_party/cmsis_nn/Include/Internal/arm_nn_compiler.h ****  * not use this file except in compliance with the License.
   8:Middlewares/tensorflow/third_party/cmsis_nn/Include/Internal/arm_nn_compiler.h ****  * You may obtain a copy of the License at
   9:Middlewares/tensorflow/third_party/cmsis_nn/Include/Internal/arm_nn_compiler.h ****  *
  10:Middlewares/tensorflow/third_party/cmsis_nn/Include/Internal/arm_nn_compiler.h ****  * www.apache.org/licenses/LICENSE-2.0
  11:Middlewares/tensorflow/third_party/cmsis_nn/Include/Internal/arm_nn_compiler.h ****  *
  12:Middlewares/tensorflow/third_party/cmsis_nn/Include/Internal/arm_nn_compiler.h ****  * Unless required by applicable law or agreed to in writing, software
ARM GAS  /tmp/ccOcL3QG.s 			page 20


  13:Middlewares/tensorflow/third_party/cmsis_nn/Include/Internal/arm_nn_compiler.h ****  * distributed under the License is distributed on an AS IS BASIS, WITHOUT
  14:Middlewares/tensorflow/third_party/cmsis_nn/Include/Internal/arm_nn_compiler.h ****  * WARRANTIES OR CONDITIONS OF ANY KIND, either express or implied.
  15:Middlewares/tensorflow/third_party/cmsis_nn/Include/Internal/arm_nn_compiler.h ****  * See the License for the specific language governing permissions and
  16:Middlewares/tensorflow/third_party/cmsis_nn/Include/Internal/arm_nn_compiler.h ****  * limitations under the License.
  17:Middlewares/tensorflow/third_party/cmsis_nn/Include/Internal/arm_nn_compiler.h ****  */
  18:Middlewares/tensorflow/third_party/cmsis_nn/Include/Internal/arm_nn_compiler.h **** 
  19:Middlewares/tensorflow/third_party/cmsis_nn/Include/Internal/arm_nn_compiler.h **** /* ----------------------------------------------------------------------
  20:Middlewares/tensorflow/third_party/cmsis_nn/Include/Internal/arm_nn_compiler.h ****  * Project:      CMSIS NN Library
  21:Middlewares/tensorflow/third_party/cmsis_nn/Include/Internal/arm_nn_compiler.h ****  * Title:        arm_nn_compiler.h
  22:Middlewares/tensorflow/third_party/cmsis_nn/Include/Internal/arm_nn_compiler.h ****  * Description:  Generic compiler header
  23:Middlewares/tensorflow/third_party/cmsis_nn/Include/Internal/arm_nn_compiler.h ****  *
  24:Middlewares/tensorflow/third_party/cmsis_nn/Include/Internal/arm_nn_compiler.h ****  * $Date:        31 January 2023
  25:Middlewares/tensorflow/third_party/cmsis_nn/Include/Internal/arm_nn_compiler.h ****  * $Revision:    V.1.1.0
  26:Middlewares/tensorflow/third_party/cmsis_nn/Include/Internal/arm_nn_compiler.h ****  *
  27:Middlewares/tensorflow/third_party/cmsis_nn/Include/Internal/arm_nn_compiler.h ****  * Target :  Arm(R) M-Profile Architecture
  28:Middlewares/tensorflow/third_party/cmsis_nn/Include/Internal/arm_nn_compiler.h ****  * -------------------------------------------------------------------- */
  29:Middlewares/tensorflow/third_party/cmsis_nn/Include/Internal/arm_nn_compiler.h **** 
  30:Middlewares/tensorflow/third_party/cmsis_nn/Include/Internal/arm_nn_compiler.h **** #ifndef ARM_NN_COMPILER_H
  31:Middlewares/tensorflow/third_party/cmsis_nn/Include/Internal/arm_nn_compiler.h **** #define ARM_NN_COMPILER_H
  32:Middlewares/tensorflow/third_party/cmsis_nn/Include/Internal/arm_nn_compiler.h **** #include <stdint.h>
  33:Middlewares/tensorflow/third_party/cmsis_nn/Include/Internal/arm_nn_compiler.h **** 
  34:Middlewares/tensorflow/third_party/cmsis_nn/Include/Internal/arm_nn_compiler.h **** /**
  35:Middlewares/tensorflow/third_party/cmsis_nn/Include/Internal/arm_nn_compiler.h ****  *
  36:Middlewares/tensorflow/third_party/cmsis_nn/Include/Internal/arm_nn_compiler.h ****  * @brief Arm C-Language Extension(ACLE) Includes
  37:Middlewares/tensorflow/third_party/cmsis_nn/Include/Internal/arm_nn_compiler.h ****  *
  38:Middlewares/tensorflow/third_party/cmsis_nn/Include/Internal/arm_nn_compiler.h ****  */
  39:Middlewares/tensorflow/third_party/cmsis_nn/Include/Internal/arm_nn_compiler.h **** 
  40:Middlewares/tensorflow/third_party/cmsis_nn/Include/Internal/arm_nn_compiler.h **** #if defined(__ARMCC_VERSION) && (__ARMCC_VERSION >= 6010050)
  41:Middlewares/tensorflow/third_party/cmsis_nn/Include/Internal/arm_nn_compiler.h **** 
  42:Middlewares/tensorflow/third_party/cmsis_nn/Include/Internal/arm_nn_compiler.h ****     #ifndef __ASM
  43:Middlewares/tensorflow/third_party/cmsis_nn/Include/Internal/arm_nn_compiler.h ****         #define __ASM __asm
  44:Middlewares/tensorflow/third_party/cmsis_nn/Include/Internal/arm_nn_compiler.h ****     #endif
  45:Middlewares/tensorflow/third_party/cmsis_nn/Include/Internal/arm_nn_compiler.h ****     #ifndef __INLINE
  46:Middlewares/tensorflow/third_party/cmsis_nn/Include/Internal/arm_nn_compiler.h ****         #define __INLINE __inline
  47:Middlewares/tensorflow/third_party/cmsis_nn/Include/Internal/arm_nn_compiler.h ****     #endif
  48:Middlewares/tensorflow/third_party/cmsis_nn/Include/Internal/arm_nn_compiler.h ****     #ifndef __STATIC_INLINE
  49:Middlewares/tensorflow/third_party/cmsis_nn/Include/Internal/arm_nn_compiler.h ****         #define __STATIC_INLINE static __inline
  50:Middlewares/tensorflow/third_party/cmsis_nn/Include/Internal/arm_nn_compiler.h ****     #endif
  51:Middlewares/tensorflow/third_party/cmsis_nn/Include/Internal/arm_nn_compiler.h ****     #ifndef __STATIC_FORCEINLINE
  52:Middlewares/tensorflow/third_party/cmsis_nn/Include/Internal/arm_nn_compiler.h ****         #define __STATIC_FORCEINLINE __attribute__((always_inline)) static __inline
  53:Middlewares/tensorflow/third_party/cmsis_nn/Include/Internal/arm_nn_compiler.h ****     #endif
  54:Middlewares/tensorflow/third_party/cmsis_nn/Include/Internal/arm_nn_compiler.h ****     #ifndef __RESTRICT
  55:Middlewares/tensorflow/third_party/cmsis_nn/Include/Internal/arm_nn_compiler.h ****         #define __RESTRICT __restrict
  56:Middlewares/tensorflow/third_party/cmsis_nn/Include/Internal/arm_nn_compiler.h ****     #endif
  57:Middlewares/tensorflow/third_party/cmsis_nn/Include/Internal/arm_nn_compiler.h **** 
  58:Middlewares/tensorflow/third_party/cmsis_nn/Include/Internal/arm_nn_compiler.h **** #elif defined(__ICCARM__)
  59:Middlewares/tensorflow/third_party/cmsis_nn/Include/Internal/arm_nn_compiler.h **** 
  60:Middlewares/tensorflow/third_party/cmsis_nn/Include/Internal/arm_nn_compiler.h ****     // #warning IAR support is not tested
  61:Middlewares/tensorflow/third_party/cmsis_nn/Include/Internal/arm_nn_compiler.h ****     #ifndef __ASM
  62:Middlewares/tensorflow/third_party/cmsis_nn/Include/Internal/arm_nn_compiler.h ****         #define __ASM __asm
  63:Middlewares/tensorflow/third_party/cmsis_nn/Include/Internal/arm_nn_compiler.h ****     #endif
  64:Middlewares/tensorflow/third_party/cmsis_nn/Include/Internal/arm_nn_compiler.h ****     #ifndef __INLINE
  65:Middlewares/tensorflow/third_party/cmsis_nn/Include/Internal/arm_nn_compiler.h ****         #define __INLINE inline
  66:Middlewares/tensorflow/third_party/cmsis_nn/Include/Internal/arm_nn_compiler.h ****     #endif
  67:Middlewares/tensorflow/third_party/cmsis_nn/Include/Internal/arm_nn_compiler.h ****     #ifndef __STATIC_INLINE
  68:Middlewares/tensorflow/third_party/cmsis_nn/Include/Internal/arm_nn_compiler.h ****         #define __STATIC_INLINE static inline
  69:Middlewares/tensorflow/third_party/cmsis_nn/Include/Internal/arm_nn_compiler.h ****     #endif
ARM GAS  /tmp/ccOcL3QG.s 			page 21


  70:Middlewares/tensorflow/third_party/cmsis_nn/Include/Internal/arm_nn_compiler.h ****     #ifndef __FORCEINLINE
  71:Middlewares/tensorflow/third_party/cmsis_nn/Include/Internal/arm_nn_compiler.h ****         #define __FORCEINLINE _Pragma("inline=forced")
  72:Middlewares/tensorflow/third_party/cmsis_nn/Include/Internal/arm_nn_compiler.h ****     #endif
  73:Middlewares/tensorflow/third_party/cmsis_nn/Include/Internal/arm_nn_compiler.h ****     #ifndef __STATIC_FORCEINLINE
  74:Middlewares/tensorflow/third_party/cmsis_nn/Include/Internal/arm_nn_compiler.h ****         #define __STATIC_FORCEINLINE __FORCEINLINE __STATIC_INLINE
  75:Middlewares/tensorflow/third_party/cmsis_nn/Include/Internal/arm_nn_compiler.h ****     #endif
  76:Middlewares/tensorflow/third_party/cmsis_nn/Include/Internal/arm_nn_compiler.h ****     #ifndef __RESTRICT
  77:Middlewares/tensorflow/third_party/cmsis_nn/Include/Internal/arm_nn_compiler.h ****         #define __RESTRICT restrict
  78:Middlewares/tensorflow/third_party/cmsis_nn/Include/Internal/arm_nn_compiler.h ****     #endif
  79:Middlewares/tensorflow/third_party/cmsis_nn/Include/Internal/arm_nn_compiler.h **** 
  80:Middlewares/tensorflow/third_party/cmsis_nn/Include/Internal/arm_nn_compiler.h **** #elif defined(_MSC_VER)
  81:Middlewares/tensorflow/third_party/cmsis_nn/Include/Internal/arm_nn_compiler.h **** 
  82:Middlewares/tensorflow/third_party/cmsis_nn/Include/Internal/arm_nn_compiler.h ****     // Build for non Arm Cortex-M processors is not tested or supported.
  83:Middlewares/tensorflow/third_party/cmsis_nn/Include/Internal/arm_nn_compiler.h ****     // Use this section to stub any macros or intrinsics
  84:Middlewares/tensorflow/third_party/cmsis_nn/Include/Internal/arm_nn_compiler.h ****     #warning Unsupported compiler
  85:Middlewares/tensorflow/third_party/cmsis_nn/Include/Internal/arm_nn_compiler.h ****     #ifndef __STATIC_FORCEINLINE
  86:Middlewares/tensorflow/third_party/cmsis_nn/Include/Internal/arm_nn_compiler.h ****         #define __STATIC_FORCEINLINE static __forceinline
  87:Middlewares/tensorflow/third_party/cmsis_nn/Include/Internal/arm_nn_compiler.h ****     #endif
  88:Middlewares/tensorflow/third_party/cmsis_nn/Include/Internal/arm_nn_compiler.h ****     #ifndef __STATIC_INLINE
  89:Middlewares/tensorflow/third_party/cmsis_nn/Include/Internal/arm_nn_compiler.h ****         #define __STATIC_INLINE static __inline
  90:Middlewares/tensorflow/third_party/cmsis_nn/Include/Internal/arm_nn_compiler.h ****     #endif
  91:Middlewares/tensorflow/third_party/cmsis_nn/Include/Internal/arm_nn_compiler.h ****     #ifndef __ALIGNED
  92:Middlewares/tensorflow/third_party/cmsis_nn/Include/Internal/arm_nn_compiler.h ****         #define __ALIGNED(x) __declspec(align(x))
  93:Middlewares/tensorflow/third_party/cmsis_nn/Include/Internal/arm_nn_compiler.h ****     #endif
  94:Middlewares/tensorflow/third_party/cmsis_nn/Include/Internal/arm_nn_compiler.h **** 
  95:Middlewares/tensorflow/third_party/cmsis_nn/Include/Internal/arm_nn_compiler.h **** #elif defined(__GNUC__)
  96:Middlewares/tensorflow/third_party/cmsis_nn/Include/Internal/arm_nn_compiler.h **** 
  97:Middlewares/tensorflow/third_party/cmsis_nn/Include/Internal/arm_nn_compiler.h ****     #ifndef __ASM
  98:Middlewares/tensorflow/third_party/cmsis_nn/Include/Internal/arm_nn_compiler.h ****         #define __ASM __asm
  99:Middlewares/tensorflow/third_party/cmsis_nn/Include/Internal/arm_nn_compiler.h ****     #endif
 100:Middlewares/tensorflow/third_party/cmsis_nn/Include/Internal/arm_nn_compiler.h ****     #ifndef __INLINE
 101:Middlewares/tensorflow/third_party/cmsis_nn/Include/Internal/arm_nn_compiler.h ****         #define __INLINE inline
 102:Middlewares/tensorflow/third_party/cmsis_nn/Include/Internal/arm_nn_compiler.h ****     #endif
 103:Middlewares/tensorflow/third_party/cmsis_nn/Include/Internal/arm_nn_compiler.h ****     #ifndef __STATIC_INLINE
 104:Middlewares/tensorflow/third_party/cmsis_nn/Include/Internal/arm_nn_compiler.h ****         #define __STATIC_INLINE static inline
 105:Middlewares/tensorflow/third_party/cmsis_nn/Include/Internal/arm_nn_compiler.h ****     #endif
 106:Middlewares/tensorflow/third_party/cmsis_nn/Include/Internal/arm_nn_compiler.h ****     #ifndef __STATIC_FORCEINLINE
 107:Middlewares/tensorflow/third_party/cmsis_nn/Include/Internal/arm_nn_compiler.h ****         #define __STATIC_FORCEINLINE __attribute__((always_inline)) static inline
 108:Middlewares/tensorflow/third_party/cmsis_nn/Include/Internal/arm_nn_compiler.h ****     #endif
 109:Middlewares/tensorflow/third_party/cmsis_nn/Include/Internal/arm_nn_compiler.h ****     #ifndef __RESTRICT
 110:Middlewares/tensorflow/third_party/cmsis_nn/Include/Internal/arm_nn_compiler.h ****         #define __RESTRICT __restrict
 111:Middlewares/tensorflow/third_party/cmsis_nn/Include/Internal/arm_nn_compiler.h ****     #endif
 112:Middlewares/tensorflow/third_party/cmsis_nn/Include/Internal/arm_nn_compiler.h **** 
 113:Middlewares/tensorflow/third_party/cmsis_nn/Include/Internal/arm_nn_compiler.h **** #else
 114:Middlewares/tensorflow/third_party/cmsis_nn/Include/Internal/arm_nn_compiler.h **** 
 115:Middlewares/tensorflow/third_party/cmsis_nn/Include/Internal/arm_nn_compiler.h ****     #error Unsupported compiler. Add support as needed
 116:Middlewares/tensorflow/third_party/cmsis_nn/Include/Internal/arm_nn_compiler.h **** 
 117:Middlewares/tensorflow/third_party/cmsis_nn/Include/Internal/arm_nn_compiler.h **** #endif
 118:Middlewares/tensorflow/third_party/cmsis_nn/Include/Internal/arm_nn_compiler.h **** 
 119:Middlewares/tensorflow/third_party/cmsis_nn/Include/Internal/arm_nn_compiler.h **** /**
 120:Middlewares/tensorflow/third_party/cmsis_nn/Include/Internal/arm_nn_compiler.h ****  *
 121:Middlewares/tensorflow/third_party/cmsis_nn/Include/Internal/arm_nn_compiler.h ****  * @brief Compiler specific diagnostic adjustment / fixes if applicable
 122:Middlewares/tensorflow/third_party/cmsis_nn/Include/Internal/arm_nn_compiler.h ****  *
 123:Middlewares/tensorflow/third_party/cmsis_nn/Include/Internal/arm_nn_compiler.h ****  */
 124:Middlewares/tensorflow/third_party/cmsis_nn/Include/Internal/arm_nn_compiler.h **** 
 125:Middlewares/tensorflow/third_party/cmsis_nn/Include/Internal/arm_nn_compiler.h **** // Note: __ARM_ARCH is used with M-profile architecture as the target here.
 126:Middlewares/tensorflow/third_party/cmsis_nn/Include/Internal/arm_nn_compiler.h **** #if defined(__GNUC__)
ARM GAS  /tmp/ccOcL3QG.s 			page 22


 127:Middlewares/tensorflow/third_party/cmsis_nn/Include/Internal/arm_nn_compiler.h ****     #if (__GNUC__ == 12 && (__GNUC_MINOR__ <= 2)) && defined(__ARM_ARCH)
 128:Middlewares/tensorflow/third_party/cmsis_nn/Include/Internal/arm_nn_compiler.h ****         // Workaround for 'Internal Compiler Error' on Arm GNU Toolchain rel 12.2.x
 129:Middlewares/tensorflow/third_party/cmsis_nn/Include/Internal/arm_nn_compiler.h ****         // https://gcc.gnu.org/pipermail/gcc-patches/2022-December/607963.html
 130:Middlewares/tensorflow/third_party/cmsis_nn/Include/Internal/arm_nn_compiler.h ****         #define ARM_GCC_12_2_ICE
 131:Middlewares/tensorflow/third_party/cmsis_nn/Include/Internal/arm_nn_compiler.h ****     #endif
 132:Middlewares/tensorflow/third_party/cmsis_nn/Include/Internal/arm_nn_compiler.h **** #endif
 133:Middlewares/tensorflow/third_party/cmsis_nn/Include/Internal/arm_nn_compiler.h **** 
 134:Middlewares/tensorflow/third_party/cmsis_nn/Include/Internal/arm_nn_compiler.h **** #if ((__ARM_FEATURE_MVE & 3) == 3) || (__ARM_FEATURE_MVE & 1)
 135:Middlewares/tensorflow/third_party/cmsis_nn/Include/Internal/arm_nn_compiler.h ****     #include <arm_mve.h>
 136:Middlewares/tensorflow/third_party/cmsis_nn/Include/Internal/arm_nn_compiler.h **** #endif
 137:Middlewares/tensorflow/third_party/cmsis_nn/Include/Internal/arm_nn_compiler.h **** 
 138:Middlewares/tensorflow/third_party/cmsis_nn/Include/Internal/arm_nn_compiler.h **** #if defined(__ARM_ARCH) || defined(__ARM_ACLE)
 139:Middlewares/tensorflow/third_party/cmsis_nn/Include/Internal/arm_nn_compiler.h ****     #include <arm_acle.h>
 140:Middlewares/tensorflow/third_party/cmsis_nn/Include/Internal/arm_nn_compiler.h **** #endif
 141:Middlewares/tensorflow/third_party/cmsis_nn/Include/Internal/arm_nn_compiler.h **** 
 142:Middlewares/tensorflow/third_party/cmsis_nn/Include/Internal/arm_nn_compiler.h **** /**
 143:Middlewares/tensorflow/third_party/cmsis_nn/Include/Internal/arm_nn_compiler.h ****  *
 144:Middlewares/tensorflow/third_party/cmsis_nn/Include/Internal/arm_nn_compiler.h ****  * @brief ACLE and Intrinsics
 145:Middlewares/tensorflow/third_party/cmsis_nn/Include/Internal/arm_nn_compiler.h ****  *
 146:Middlewares/tensorflow/third_party/cmsis_nn/Include/Internal/arm_nn_compiler.h ****  */
 147:Middlewares/tensorflow/third_party/cmsis_nn/Include/Internal/arm_nn_compiler.h **** 
 148:Middlewares/tensorflow/third_party/cmsis_nn/Include/Internal/arm_nn_compiler.h **** // Note: Have __GNUC__, that is used to check for GCC , checks at the end
 149:Middlewares/tensorflow/third_party/cmsis_nn/Include/Internal/arm_nn_compiler.h **** // as __GNUC__ is defined by non-GCC compilers as well
 150:Middlewares/tensorflow/third_party/cmsis_nn/Include/Internal/arm_nn_compiler.h **** 
 151:Middlewares/tensorflow/third_party/cmsis_nn/Include/Internal/arm_nn_compiler.h **** /* Common intrinsics for all architectures */
 152:Middlewares/tensorflow/third_party/cmsis_nn/Include/Internal/arm_nn_compiler.h **** #if defined(__ARMCC_VERSION) && (__ARMCC_VERSION >= 6010050) || defined(__ICCARM__)
 153:Middlewares/tensorflow/third_party/cmsis_nn/Include/Internal/arm_nn_compiler.h ****     #define CLZ __clz
 154:Middlewares/tensorflow/third_party/cmsis_nn/Include/Internal/arm_nn_compiler.h **** #elif defined(__GNUC__)
 155:Middlewares/tensorflow/third_party/cmsis_nn/Include/Internal/arm_nn_compiler.h **** /**
 156:Middlewares/tensorflow/third_party/cmsis_nn/Include/Internal/arm_nn_compiler.h ****   \brief   Count leading zeros
 157:Middlewares/tensorflow/third_party/cmsis_nn/Include/Internal/arm_nn_compiler.h ****   \details Counts the number of leading zeros of a data value.
 158:Middlewares/tensorflow/third_party/cmsis_nn/Include/Internal/arm_nn_compiler.h ****   \param [in]  value  Value to count the leading zeros
 159:Middlewares/tensorflow/third_party/cmsis_nn/Include/Internal/arm_nn_compiler.h ****   \return             number of leading zeros in value
 160:Middlewares/tensorflow/third_party/cmsis_nn/Include/Internal/arm_nn_compiler.h ****  */
 161:Middlewares/tensorflow/third_party/cmsis_nn/Include/Internal/arm_nn_compiler.h **** __STATIC_FORCEINLINE uint8_t CLZ(uint32_t value)
 162:Middlewares/tensorflow/third_party/cmsis_nn/Include/Internal/arm_nn_compiler.h **** {
 163:Middlewares/tensorflow/third_party/cmsis_nn/Include/Internal/arm_nn_compiler.h ****     /* Even though __builtin_clz produces a CLZ instruction on ARM, formally
 164:Middlewares/tensorflow/third_party/cmsis_nn/Include/Internal/arm_nn_compiler.h ****        __builtin_clz(0) is undefined behaviour, so handle this case specially.
 165:Middlewares/tensorflow/third_party/cmsis_nn/Include/Internal/arm_nn_compiler.h ****        This guarantees Arm-compatible results if compiling on a non-Arm
 166:Middlewares/tensorflow/third_party/cmsis_nn/Include/Internal/arm_nn_compiler.h ****        target, and ensures the compiler doesn't decide to activate any
 167:Middlewares/tensorflow/third_party/cmsis_nn/Include/Internal/arm_nn_compiler.h ****        optimisations using the logic "value was passed to __builtin_clz, so it
 168:Middlewares/tensorflow/third_party/cmsis_nn/Include/Internal/arm_nn_compiler.h ****        is non-zero".
 169:Middlewares/tensorflow/third_party/cmsis_nn/Include/Internal/arm_nn_compiler.h ****        ARM GCC 7.3 and possibly earlier will optimise this test away, leaving a
 170:Middlewares/tensorflow/third_party/cmsis_nn/Include/Internal/arm_nn_compiler.h ****        single CLZ instruction.
 171:Middlewares/tensorflow/third_party/cmsis_nn/Include/Internal/arm_nn_compiler.h ****      */
 172:Middlewares/tensorflow/third_party/cmsis_nn/Include/Internal/arm_nn_compiler.h ****     if (value == 0U)
 173:Middlewares/tensorflow/third_party/cmsis_nn/Include/Internal/arm_nn_compiler.h ****     {
 174:Middlewares/tensorflow/third_party/cmsis_nn/Include/Internal/arm_nn_compiler.h ****         return 32U;
 175:Middlewares/tensorflow/third_party/cmsis_nn/Include/Internal/arm_nn_compiler.h ****     }
 176:Middlewares/tensorflow/third_party/cmsis_nn/Include/Internal/arm_nn_compiler.h ****     return __builtin_clz(value);
 177:Middlewares/tensorflow/third_party/cmsis_nn/Include/Internal/arm_nn_compiler.h **** }
 178:Middlewares/tensorflow/third_party/cmsis_nn/Include/Internal/arm_nn_compiler.h **** #endif
 179:Middlewares/tensorflow/third_party/cmsis_nn/Include/Internal/arm_nn_compiler.h **** 
 180:Middlewares/tensorflow/third_party/cmsis_nn/Include/Internal/arm_nn_compiler.h **** // ACLE intrinsics under groups __ARM_FEATURE_QBIT, __ARM_FEATURE_DSP , __ARM_FEATURE_SAT, __ARM_FE
 181:Middlewares/tensorflow/third_party/cmsis_nn/Include/Internal/arm_nn_compiler.h **** 
 182:Middlewares/tensorflow/third_party/cmsis_nn/Include/Internal/arm_nn_compiler.h **** // Note: Just __ARM_FEATURE_DSP is checked to collect all intrinsics from the above mentioned group
 183:Middlewares/tensorflow/third_party/cmsis_nn/Include/Internal/arm_nn_compiler.h **** 
ARM GAS  /tmp/ccOcL3QG.s 			page 23


 184:Middlewares/tensorflow/third_party/cmsis_nn/Include/Internal/arm_nn_compiler.h **** #if (defined(__ARM_FEATURE_DSP) && (__ARM_FEATURE_DSP == 1))
 185:Middlewares/tensorflow/third_party/cmsis_nn/Include/Internal/arm_nn_compiler.h **** 
 186:Middlewares/tensorflow/third_party/cmsis_nn/Include/Internal/arm_nn_compiler.h ****     // Common intrinsics
 187:Middlewares/tensorflow/third_party/cmsis_nn/Include/Internal/arm_nn_compiler.h ****     #define SMLABB __smlabb
 188:Middlewares/tensorflow/third_party/cmsis_nn/Include/Internal/arm_nn_compiler.h ****     #define SMLATT __smlatt
 189:Middlewares/tensorflow/third_party/cmsis_nn/Include/Internal/arm_nn_compiler.h ****     #define QADD __qadd
 190:Middlewares/tensorflow/third_party/cmsis_nn/Include/Internal/arm_nn_compiler.h ****     #define QSUB8 __qsub8
 191:Middlewares/tensorflow/third_party/cmsis_nn/Include/Internal/arm_nn_compiler.h ****     #define QSUB16 __qsub16
 192:Middlewares/tensorflow/third_party/cmsis_nn/Include/Internal/arm_nn_compiler.h ****     #define SADD16 __sadd16
 193:Middlewares/tensorflow/third_party/cmsis_nn/Include/Internal/arm_nn_compiler.h **** 
 194:Middlewares/tensorflow/third_party/cmsis_nn/Include/Internal/arm_nn_compiler.h ****     // Compiler specifc variants of intrinsics. Create a new section or file for IAR if needed
 195:Middlewares/tensorflow/third_party/cmsis_nn/Include/Internal/arm_nn_compiler.h ****     #if defined(__ARMCC_VERSION) && (__ARMCC_VERSION >= 6010050) || defined(__ICCARM__)
 196:Middlewares/tensorflow/third_party/cmsis_nn/Include/Internal/arm_nn_compiler.h **** 
 197:Middlewares/tensorflow/third_party/cmsis_nn/Include/Internal/arm_nn_compiler.h ****         #define SMULBB __smulbb
 198:Middlewares/tensorflow/third_party/cmsis_nn/Include/Internal/arm_nn_compiler.h ****         #define SMULTT __smultt
 199:Middlewares/tensorflow/third_party/cmsis_nn/Include/Internal/arm_nn_compiler.h ****         #define ROR __ror
 200:Middlewares/tensorflow/third_party/cmsis_nn/Include/Internal/arm_nn_compiler.h ****         #define SXTB16 __sxtb16
 201:Middlewares/tensorflow/third_party/cmsis_nn/Include/Internal/arm_nn_compiler.h ****         #define SXTAB16 __sxtab16
 202:Middlewares/tensorflow/third_party/cmsis_nn/Include/Internal/arm_nn_compiler.h ****         #define SXTB16_RORn(ARG1, ARG2) SXTB16(ROR(ARG1, ARG2))
 203:Middlewares/tensorflow/third_party/cmsis_nn/Include/Internal/arm_nn_compiler.h ****         #define SXTAB16_RORn(ARG1, ARG2, ARG3) SXTAB16(ARG1, ROR(ARG2, ARG3))
 204:Middlewares/tensorflow/third_party/cmsis_nn/Include/Internal/arm_nn_compiler.h ****         #define SMLAD __smlad
 205:Middlewares/tensorflow/third_party/cmsis_nn/Include/Internal/arm_nn_compiler.h ****         // PKH<XY> translates into pkh<xy> on AC6
 206:Middlewares/tensorflow/third_party/cmsis_nn/Include/Internal/arm_nn_compiler.h ****         #define PKHBT(ARG1, ARG2, ARG3)                                                            
 207:Middlewares/tensorflow/third_party/cmsis_nn/Include/Internal/arm_nn_compiler.h ****             (((((uint32_t)(ARG1))) & 0x0000FFFFUL) | ((((uint32_t)(ARG2)) << (ARG3)) & 0xFFFF0000UL
 208:Middlewares/tensorflow/third_party/cmsis_nn/Include/Internal/arm_nn_compiler.h ****         #define PKHTB(ARG1, ARG2, ARG3)                                                            
 209:Middlewares/tensorflow/third_party/cmsis_nn/Include/Internal/arm_nn_compiler.h ****             (((((uint32_t)(ARG1))) & 0xFFFF0000UL) | ((((uint32_t)(ARG2)) >> (ARG3)) & 0x0000FFFFUL
 210:Middlewares/tensorflow/third_party/cmsis_nn/Include/Internal/arm_nn_compiler.h **** 
 211:Middlewares/tensorflow/third_party/cmsis_nn/Include/Internal/arm_nn_compiler.h ****     #elif defined(__GNUC__)
 212:Middlewares/tensorflow/third_party/cmsis_nn/Include/Internal/arm_nn_compiler.h **** 
 213:Middlewares/tensorflow/third_party/cmsis_nn/Include/Internal/arm_nn_compiler.h ****         #define PKHBT(ARG1, ARG2, ARG3)                                                            
 214:Middlewares/tensorflow/third_party/cmsis_nn/Include/Internal/arm_nn_compiler.h ****             __extension__({                                                                        
 215:Middlewares/tensorflow/third_party/cmsis_nn/Include/Internal/arm_nn_compiler.h ****                 uint32_t __RES, __ARG1 = (ARG1), __ARG2 = (ARG2);                                  
 216:Middlewares/tensorflow/third_party/cmsis_nn/Include/Internal/arm_nn_compiler.h ****                 __ASM("pkhbt %0, %1, %2, lsl %3" : "=r"(__RES) : "r"(__ARG1), "r"(__ARG2), "I"(ARG3
 217:Middlewares/tensorflow/third_party/cmsis_nn/Include/Internal/arm_nn_compiler.h ****                 __RES;                                                                             
 218:Middlewares/tensorflow/third_party/cmsis_nn/Include/Internal/arm_nn_compiler.h ****             })
 219:Middlewares/tensorflow/third_party/cmsis_nn/Include/Internal/arm_nn_compiler.h ****         #define PKHTB(ARG1, ARG2, ARG3)                                                            
 220:Middlewares/tensorflow/third_party/cmsis_nn/Include/Internal/arm_nn_compiler.h ****             __extension__({                                                                        
 221:Middlewares/tensorflow/third_party/cmsis_nn/Include/Internal/arm_nn_compiler.h ****                 uint32_t __RES, __ARG1 = (ARG1), __ARG2 = (ARG2);                                  
 222:Middlewares/tensorflow/third_party/cmsis_nn/Include/Internal/arm_nn_compiler.h ****                 if (ARG3 == 0)                                                                     
 223:Middlewares/tensorflow/third_party/cmsis_nn/Include/Internal/arm_nn_compiler.h ****                     __ASM("pkhtb %0, %1, %2" : "=r"(__RES) : "r"(__ARG1), "r"(__ARG2));            
 224:Middlewares/tensorflow/third_party/cmsis_nn/Include/Internal/arm_nn_compiler.h ****                 else                                                                               
 225:Middlewares/tensorflow/third_party/cmsis_nn/Include/Internal/arm_nn_compiler.h ****                     __ASM("pkhtb %0, %1, %2, asr %3" : "=r"(__RES) : "r"(__ARG1), "r"(__ARG2), "I"(
 226:Middlewares/tensorflow/third_party/cmsis_nn/Include/Internal/arm_nn_compiler.h ****                 __RES;                                                                             
 227:Middlewares/tensorflow/third_party/cmsis_nn/Include/Internal/arm_nn_compiler.h ****             })
 228:Middlewares/tensorflow/third_party/cmsis_nn/Include/Internal/arm_nn_compiler.h **** 
 229:Middlewares/tensorflow/third_party/cmsis_nn/Include/Internal/arm_nn_compiler.h **** __STATIC_FORCEINLINE uint32_t SXTAB16(uint32_t op1, uint32_t op2)
 230:Middlewares/tensorflow/third_party/cmsis_nn/Include/Internal/arm_nn_compiler.h **** {
 231:Middlewares/tensorflow/third_party/cmsis_nn/Include/Internal/arm_nn_compiler.h ****     uint32_t result;
 232:Middlewares/tensorflow/third_party/cmsis_nn/Include/Internal/arm_nn_compiler.h **** 
 233:Middlewares/tensorflow/third_party/cmsis_nn/Include/Internal/arm_nn_compiler.h ****     __ASM("sxtab16 %0, %1, %2" : "=r"(result) : "r"(op1), "r"(op2));
 234:Middlewares/tensorflow/third_party/cmsis_nn/Include/Internal/arm_nn_compiler.h ****     return (result);
 235:Middlewares/tensorflow/third_party/cmsis_nn/Include/Internal/arm_nn_compiler.h **** }
 236:Middlewares/tensorflow/third_party/cmsis_nn/Include/Internal/arm_nn_compiler.h **** 
 237:Middlewares/tensorflow/third_party/cmsis_nn/Include/Internal/arm_nn_compiler.h **** __STATIC_FORCEINLINE uint32_t SXTB16(uint32_t op1)
 238:Middlewares/tensorflow/third_party/cmsis_nn/Include/Internal/arm_nn_compiler.h **** {
 239:Middlewares/tensorflow/third_party/cmsis_nn/Include/Internal/arm_nn_compiler.h ****     uint32_t result;
 240:Middlewares/tensorflow/third_party/cmsis_nn/Include/Internal/arm_nn_compiler.h **** 
ARM GAS  /tmp/ccOcL3QG.s 			page 24


 241:Middlewares/tensorflow/third_party/cmsis_nn/Include/Internal/arm_nn_compiler.h ****     __ASM("sxtb16 %0, %1" : "=r"(result) : "r"(op1));
 242:Middlewares/tensorflow/third_party/cmsis_nn/Include/Internal/arm_nn_compiler.h ****     return (result);
 243:Middlewares/tensorflow/third_party/cmsis_nn/Include/Internal/arm_nn_compiler.h **** }
 244:Middlewares/tensorflow/third_party/cmsis_nn/Include/Internal/arm_nn_compiler.h **** 
 245:Middlewares/tensorflow/third_party/cmsis_nn/Include/Internal/arm_nn_compiler.h **** // __smlad is defined by GCC, but results in a performance drop(Tested on Arm GNU Toolchain version
 246:Middlewares/tensorflow/third_party/cmsis_nn/Include/Internal/arm_nn_compiler.h **** __STATIC_FORCEINLINE uint32_t SMLAD(uint32_t op1, uint32_t op2, uint32_t op3)
 334              		.loc 3 246 31 discriminator 3 view .LVU110
 335              	.LBB73:
 247:Middlewares/tensorflow/third_party/cmsis_nn/Include/Internal/arm_nn_compiler.h **** {
 248:Middlewares/tensorflow/third_party/cmsis_nn/Include/Internal/arm_nn_compiler.h ****     uint32_t result;
 336              		.loc 3 248 5 discriminator 3 view .LVU111
 249:Middlewares/tensorflow/third_party/cmsis_nn/Include/Internal/arm_nn_compiler.h **** 
 250:Middlewares/tensorflow/third_party/cmsis_nn/Include/Internal/arm_nn_compiler.h ****     __ASM volatile("smlad %0, %1, %2, %3" : "=r"(result) : "r"(op1), "r"(op2), "r"(op3));
 337              		.loc 3 250 5 discriminator 3 view .LVU112
 338              		.syntax unified
 339              	@ 250 "Middlewares/tensorflow/third_party/cmsis_nn/Include/Internal/arm_nn_compiler.h" 1
 340 00fc 22FB0E33 		smlad r3, r2, lr, r3
 341              	@ 0 "" 2
 342              	.LVL54:
 251:Middlewares/tensorflow/third_party/cmsis_nn/Include/Internal/arm_nn_compiler.h ****     return (result);
 343              		.loc 3 251 5 discriminator 3 view .LVU113
 344              		.loc 3 251 5 is_stmt 0 discriminator 3 view .LVU114
 345              		.thumb
 346              		.syntax unified
 347              	.LBE73:
 348              	.LBE72:
 349              	.LBE67:
 148:Middlewares/tensorflow/third_party/cmsis_nn/Source/SVDFunctions/arm_svdf_state_s16_s8.c ****                 {
 350              		.loc 1 148 50 is_stmt 1 discriminator 3 view .LVU115
 148:Middlewares/tensorflow/third_party/cmsis_nn/Source/SVDFunctions/arm_svdf_state_s16_s8.c ****                 {
 351              		.loc 1 148 51 is_stmt 0 discriminator 3 view .LVU116
 352 0100 0136     		adds	r6, r6, #1
 353              	.LVL55:
 354              	.L6:
 148:Middlewares/tensorflow/third_party/cmsis_nn/Source/SVDFunctions/arm_svdf_state_s16_s8.c ****                 {
 355              		.loc 1 148 33 is_stmt 1 discriminator 1 view .LVU117
 148:Middlewares/tensorflow/third_party/cmsis_nn/Source/SVDFunctions/arm_svdf_state_s16_s8.c ****                 {
 356              		.loc 1 148 17 is_stmt 0 discriminator 1 view .LVU118
 357 0102 6645     		cmp	r6, ip
 358 0104 F5DB     		blt	.L7
 148:Middlewares/tensorflow/third_party/cmsis_nn/Source/SVDFunctions/arm_svdf_state_s16_s8.c ****                 {
 359              		.loc 1 148 17 discriminator 1 view .LVU119
 360 0106 06E0     		b	.L8
 361              	.LVL56:
 362              	.L9:
 148:Middlewares/tensorflow/third_party/cmsis_nn/Source/SVDFunctions/arm_svdf_state_s16_s8.c ****                 {
 363              		.loc 1 148 17 discriminator 1 view .LVU120
 364              	.LBE66:
 155:Middlewares/tensorflow/third_party/cmsis_nn/Source/SVDFunctions/arm_svdf_state_s16_s8.c ****                 }
 156:Middlewares/tensorflow/third_party/cmsis_nn/Source/SVDFunctions/arm_svdf_state_s16_s8.c **** 
 157:Middlewares/tensorflow/third_party/cmsis_nn/Source/SVDFunctions/arm_svdf_state_s16_s8.c ****                 // Process the remaining data
 158:Middlewares/tensorflow/third_party/cmsis_nn/Source/SVDFunctions/arm_svdf_state_s16_s8.c ****                 for (; j < time_batches; j++)
 159:Middlewares/tensorflow/third_party/cmsis_nn/Source/SVDFunctions/arm_svdf_state_s16_s8.c ****                 {
 160:Middlewares/tensorflow/third_party/cmsis_nn/Source/SVDFunctions/arm_svdf_state_s16_s8.c ****                     sum += *v1 * *v2;
 365              		.loc 1 160 21 is_stmt 1 discriminator 2 view .LVU121
 366              		.loc 1 160 28 is_stmt 0 discriminator 2 view .LVU122
 367 0108 30F9022B 		ldrsh	r2, [r0], #2
ARM GAS  /tmp/ccOcL3QG.s 			page 25


 368              	.LVL57:
 369              		.loc 1 160 34 discriminator 2 view .LVU123
 370 010c 34F9026B 		ldrsh	r6, [r4], #2
 371              	.LVL58:
 372              		.loc 1 160 25 discriminator 2 view .LVU124
 373 0110 06FB0233 		mla	r3, r6, r2, r3
 374              	.LVL59:
 161:Middlewares/tensorflow/third_party/cmsis_nn/Source/SVDFunctions/arm_svdf_state_s16_s8.c ****                     v1++;
 375              		.loc 1 161 21 is_stmt 1 discriminator 2 view .LVU125
 162:Middlewares/tensorflow/third_party/cmsis_nn/Source/SVDFunctions/arm_svdf_state_s16_s8.c ****                     v2++;
 376              		.loc 1 162 21 discriminator 2 view .LVU126
 158:Middlewares/tensorflow/third_party/cmsis_nn/Source/SVDFunctions/arm_svdf_state_s16_s8.c ****                 {
 377              		.loc 1 158 42 discriminator 2 view .LVU127
 158:Middlewares/tensorflow/third_party/cmsis_nn/Source/SVDFunctions/arm_svdf_state_s16_s8.c ****                 {
 378              		.loc 1 158 43 is_stmt 0 discriminator 2 view .LVU128
 379 0114 0131     		adds	r1, r1, #1
 380              	.LVL60:
 381              	.L8:
 158:Middlewares/tensorflow/third_party/cmsis_nn/Source/SVDFunctions/arm_svdf_state_s16_s8.c ****                 {
 382              		.loc 1 158 24 is_stmt 1 discriminator 1 view .LVU129
 158:Middlewares/tensorflow/third_party/cmsis_nn/Source/SVDFunctions/arm_svdf_state_s16_s8.c ****                 {
 383              		.loc 1 158 17 is_stmt 0 discriminator 1 view .LVU130
 384 0116 A942     		cmp	r1, r5
 385 0118 F6DB     		blt	.L9
 163:Middlewares/tensorflow/third_party/cmsis_nn/Source/SVDFunctions/arm_svdf_state_s16_s8.c ****                 }
 164:Middlewares/tensorflow/third_party/cmsis_nn/Source/SVDFunctions/arm_svdf_state_s16_s8.c **** #else
 165:Middlewares/tensorflow/third_party/cmsis_nn/Source/SVDFunctions/arm_svdf_state_s16_s8.c ****                 for (int j = 0; j < time_batches; j++)
 166:Middlewares/tensorflow/third_party/cmsis_nn/Source/SVDFunctions/arm_svdf_state_s16_s8.c ****                 {
 167:Middlewares/tensorflow/third_party/cmsis_nn/Source/SVDFunctions/arm_svdf_state_s16_s8.c ****                     sum += *v1 * *v2;
 168:Middlewares/tensorflow/third_party/cmsis_nn/Source/SVDFunctions/arm_svdf_state_s16_s8.c ****                     v1++;
 169:Middlewares/tensorflow/third_party/cmsis_nn/Source/SVDFunctions/arm_svdf_state_s16_s8.c ****                     v2++;
 170:Middlewares/tensorflow/third_party/cmsis_nn/Source/SVDFunctions/arm_svdf_state_s16_s8.c ****                 }
 171:Middlewares/tensorflow/third_party/cmsis_nn/Source/SVDFunctions/arm_svdf_state_s16_s8.c **** #endif
 172:Middlewares/tensorflow/third_party/cmsis_nn/Source/SVDFunctions/arm_svdf_state_s16_s8.c **** 
 173:Middlewares/tensorflow/third_party/cmsis_nn/Source/SVDFunctions/arm_svdf_state_s16_s8.c ****                 *ptr_a = sum;
 386              		.loc 1 173 17 is_stmt 1 discriminator 2 view .LVU131
 387              		.loc 1 173 24 is_stmt 0 discriminator 2 view .LVU132
 388 011a 4AF8043B 		str	r3, [r10], #4
 389              	.LVL61:
 174:Middlewares/tensorflow/third_party/cmsis_nn/Source/SVDFunctions/arm_svdf_state_s16_s8.c ****                 ptr_a++;
 390              		.loc 1 174 17 is_stmt 1 discriminator 2 view .LVU133
 391              		.loc 1 174 17 is_stmt 0 discriminator 2 view .LVU134
 392              	.LBE65:
 140:Middlewares/tensorflow/third_party/cmsis_nn/Source/SVDFunctions/arm_svdf_state_s16_s8.c ****             {
 393              		.loc 1 140 78 is_stmt 1 discriminator 2 view .LVU135
 140:Middlewares/tensorflow/third_party/cmsis_nn/Source/SVDFunctions/arm_svdf_state_s16_s8.c ****             {
 394              		.loc 1 140 93 is_stmt 0 discriminator 2 view .LVU136
 395 011e 08F10108 		add	r8, r8, #1
 396              	.LVL62:
 397              	.L11:
 140:Middlewares/tensorflow/third_party/cmsis_nn/Source/SVDFunctions/arm_svdf_state_s16_s8.c ****             {
 398              		.loc 1 140 43 is_stmt 1 discriminator 1 view .LVU137
 140:Middlewares/tensorflow/third_party/cmsis_nn/Source/SVDFunctions/arm_svdf_state_s16_s8.c ****             {
 399              		.loc 1 140 13 is_stmt 0 discriminator 1 view .LVU138
 400 0122 B845     		cmp	r8, r7
 401 0124 07DA     		bge	.L58
 402              	.LBB76:
ARM GAS  /tmp/ccOcL3QG.s 			page 26


 142:Middlewares/tensorflow/third_party/cmsis_nn/Source/SVDFunctions/arm_svdf_state_s16_s8.c ****                 int32_t sum = 0;
 403              		.loc 1 142 17 is_stmt 1 view .LVU139
 142:Middlewares/tensorflow/third_party/cmsis_nn/Source/SVDFunctions/arm_svdf_state_s16_s8.c ****                 int32_t sum = 0;
 404              		.loc 1 142 24 is_stmt 0 view .LVU140
 405 0126 0023     		movs	r3, #0
 406 0128 CAF80030 		str	r3, [r10]
 143:Middlewares/tensorflow/third_party/cmsis_nn/Source/SVDFunctions/arm_svdf_state_s16_s8.c **** #if defined(ARM_MATH_DSP) && !defined(ARM_MATH_MVEI)
 407              		.loc 1 143 17 is_stmt 1 view .LVU141
 408              	.LVL63:
 146:Middlewares/tensorflow/third_party/cmsis_nn/Source/SVDFunctions/arm_svdf_state_s16_s8.c ****                 int32_t block_count = time_batches >> 1;
 409              		.loc 1 146 17 view .LVU142
 147:Middlewares/tensorflow/third_party/cmsis_nn/Source/SVDFunctions/arm_svdf_state_s16_s8.c ****                 for (int i = 0; i < block_count; i++)
 410              		.loc 1 147 17 view .LVU143
 147:Middlewares/tensorflow/third_party/cmsis_nn/Source/SVDFunctions/arm_svdf_state_s16_s8.c ****                 for (int i = 0; i < block_count; i++)
 411              		.loc 1 147 25 is_stmt 0 view .LVU144
 412 012c 4FEA650C 		asr	ip, r5, #1
 413              	.LVL64:
 148:Middlewares/tensorflow/third_party/cmsis_nn/Source/SVDFunctions/arm_svdf_state_s16_s8.c ****                 {
 414              		.loc 1 148 17 is_stmt 1 view .LVU145
 415              	.LBB74:
 148:Middlewares/tensorflow/third_party/cmsis_nn/Source/SVDFunctions/arm_svdf_state_s16_s8.c ****                 {
 416              		.loc 1 148 22 view .LVU146
 148:Middlewares/tensorflow/third_party/cmsis_nn/Source/SVDFunctions/arm_svdf_state_s16_s8.c ****                 {
 417              		.loc 1 148 26 is_stmt 0 view .LVU147
 418 0130 1E46     		mov	r6, r3
 419              	.LBE74:
 146:Middlewares/tensorflow/third_party/cmsis_nn/Source/SVDFunctions/arm_svdf_state_s16_s8.c ****                 int32_t block_count = time_batches >> 1;
 420              		.loc 1 146 21 view .LVU148
 421 0132 1946     		mov	r1, r3
 422              	.LBB75:
 148:Middlewares/tensorflow/third_party/cmsis_nn/Source/SVDFunctions/arm_svdf_state_s16_s8.c ****                 {
 423              		.loc 1 148 17 view .LVU149
 424 0134 E5E7     		b	.L6
 425              	.LVL65:
 426              	.L58:
 148:Middlewares/tensorflow/third_party/cmsis_nn/Source/SVDFunctions/arm_svdf_state_s16_s8.c ****                 {
 427              		.loc 1 148 17 view .LVU150
 428              	.LBE75:
 429              	.LBE76:
 430              	.LBE64:
 431              	.LBE63:
 136:Middlewares/tensorflow/third_party/cmsis_nn/Source/SVDFunctions/arm_svdf_state_s16_s8.c ****         {
 432              		.loc 1 136 56 is_stmt 1 discriminator 2 view .LVU151
 136:Middlewares/tensorflow/third_party/cmsis_nn/Source/SVDFunctions/arm_svdf_state_s16_s8.c ****         {
 433              		.loc 1 136 63 is_stmt 0 discriminator 2 view .LVU152
 434 0136 09F10109 		add	r9, r9, #1
 435              	.LVL66:
 436              	.L5:
 136:Middlewares/tensorflow/third_party/cmsis_nn/Source/SVDFunctions/arm_svdf_state_s16_s8.c ****         {
 437              		.loc 1 136 31 is_stmt 1 discriminator 1 view .LVU153
 136:Middlewares/tensorflow/third_party/cmsis_nn/Source/SVDFunctions/arm_svdf_state_s16_s8.c ****         {
 438              		.loc 1 136 9 is_stmt 0 discriminator 1 view .LVU154
 439 013a D945     		cmp	r9, fp
 440 013c 03DA     		bge	.L59
 441              	.LBB78:
 138:Middlewares/tensorflow/third_party/cmsis_nn/Source/SVDFunctions/arm_svdf_state_s16_s8.c **** 
 442              		.loc 1 138 28 view .LVU155
ARM GAS  /tmp/ccOcL3QG.s 			page 27


 443 013e 2898     		ldr	r0, [sp, #160]
 444              	.LBB77:
 140:Middlewares/tensorflow/third_party/cmsis_nn/Source/SVDFunctions/arm_svdf_state_s16_s8.c ****             {
 445              		.loc 1 140 22 view .LVU156
 446 0140 4FF00008 		mov	r8, #0
 447 0144 EDE7     		b	.L11
 448              	.L59:
 449 0146 089E     		ldr	r6, [sp, #32]
 450 0148 DDF824B0 		ldr	fp, [sp, #36]
 140:Middlewares/tensorflow/third_party/cmsis_nn/Source/SVDFunctions/arm_svdf_state_s16_s8.c ****             {
 451              		.loc 1 140 22 view .LVU157
 452              	.LBE77:
 453              	.LBE78:
 454              	.LBE62:
 455              	.LBE61:
 175:Middlewares/tensorflow/third_party/cmsis_nn/Source/SVDFunctions/arm_svdf_state_s16_s8.c ****             }
 176:Middlewares/tensorflow/third_party/cmsis_nn/Source/SVDFunctions/arm_svdf_state_s16_s8.c ****         }
 177:Middlewares/tensorflow/third_party/cmsis_nn/Source/SVDFunctions/arm_svdf_state_s16_s8.c ****     }
 178:Middlewares/tensorflow/third_party/cmsis_nn/Source/SVDFunctions/arm_svdf_state_s16_s8.c **** 
 179:Middlewares/tensorflow/third_party/cmsis_nn/Source/SVDFunctions/arm_svdf_state_s16_s8.c ****     if (bias_data)
 456              		.loc 1 179 5 is_stmt 1 view .LVU158
 457              		.loc 1 179 8 is_stmt 0 view .LVU159
 458 014c 2A9B     		ldr	r3, [sp, #168]
 459 014e 002B     		cmp	r3, #0
 460 0150 61D0     		beq	.L46
 180:Middlewares/tensorflow/third_party/cmsis_nn/Source/SVDFunctions/arm_svdf_state_s16_s8.c ****     {
 181:Middlewares/tensorflow/third_party/cmsis_nn/Source/SVDFunctions/arm_svdf_state_s16_s8.c ****         if (unit_count == feature_batches)
 461              		.loc 1 181 9 is_stmt 1 view .LVU160
 462              		.loc 1 181 12 is_stmt 0 view .LVU161
 463 0152 0E9B     		ldr	r3, [sp, #56]
 464 0154 9F42     		cmp	r7, r3
 465 0156 1AD0     		beq	.L47
 466              	.LBB79:
 182:Middlewares/tensorflow/third_party/cmsis_nn/Source/SVDFunctions/arm_svdf_state_s16_s8.c ****         {
 183:Middlewares/tensorflow/third_party/cmsis_nn/Source/SVDFunctions/arm_svdf_state_s16_s8.c ****             for (int i = 0; i < input_batches; i++)
 184:Middlewares/tensorflow/third_party/cmsis_nn/Source/SVDFunctions/arm_svdf_state_s16_s8.c ****             {
 185:Middlewares/tensorflow/third_party/cmsis_nn/Source/SVDFunctions/arm_svdf_state_s16_s8.c ****                 int32_t *output_temp = buffer_b + i * feature_batches;
 186:Middlewares/tensorflow/third_party/cmsis_nn/Source/SVDFunctions/arm_svdf_state_s16_s8.c ****                 const int32_t *ptr_a = buffer_a + i * feature_batches;
 187:Middlewares/tensorflow/third_party/cmsis_nn/Source/SVDFunctions/arm_svdf_state_s16_s8.c **** 
 188:Middlewares/tensorflow/third_party/cmsis_nn/Source/SVDFunctions/arm_svdf_state_s16_s8.c ****                 const int32_t *bi = bias_data;
 189:Middlewares/tensorflow/third_party/cmsis_nn/Source/SVDFunctions/arm_svdf_state_s16_s8.c ****                 for (int j = 0; j < feature_batches; j++)
 190:Middlewares/tensorflow/third_party/cmsis_nn/Source/SVDFunctions/arm_svdf_state_s16_s8.c ****                 {
 191:Middlewares/tensorflow/third_party/cmsis_nn/Source/SVDFunctions/arm_svdf_state_s16_s8.c ****                     output_temp[j] = ptr_a[j] + bi[j];
 192:Middlewares/tensorflow/third_party/cmsis_nn/Source/SVDFunctions/arm_svdf_state_s16_s8.c ****                 }
 193:Middlewares/tensorflow/third_party/cmsis_nn/Source/SVDFunctions/arm_svdf_state_s16_s8.c ****             }
 194:Middlewares/tensorflow/third_party/cmsis_nn/Source/SVDFunctions/arm_svdf_state_s16_s8.c ****         }
 195:Middlewares/tensorflow/third_party/cmsis_nn/Source/SVDFunctions/arm_svdf_state_s16_s8.c ****         else
 196:Middlewares/tensorflow/third_party/cmsis_nn/Source/SVDFunctions/arm_svdf_state_s16_s8.c ****         {
 197:Middlewares/tensorflow/third_party/cmsis_nn/Source/SVDFunctions/arm_svdf_state_s16_s8.c ****             for (int i_batch = 0; i_batch < input_batches; i_batch++)
 467              		.loc 1 197 22 view .LVU162
 468 0158 4FF0000E 		mov	lr, #0
 469 015c DDF830A0 		ldr	r10, [sp, #48]
 470 0160 9C46     		mov	ip, r3
 471 0162 DDF8A890 		ldr	r9, [sp, #168]
 472              	.LVL67:
 473              		.loc 1 197 22 view .LVU163
 474 0166 2DE0     		b	.L14
ARM GAS  /tmp/ccOcL3QG.s 			page 28


 475              	.LVL68:
 476              	.L16:
 477              		.loc 1 197 22 view .LVU164
 478              	.LBE79:
 479              	.LBB88:
 480              	.LBB89:
 481              	.LBB90:
 191:Middlewares/tensorflow/third_party/cmsis_nn/Source/SVDFunctions/arm_svdf_state_s16_s8.c ****                 }
 482              		.loc 1 191 21 is_stmt 1 discriminator 3 view .LVU165
 483 0168 E118     		adds	r1, r4, r3
 191:Middlewares/tensorflow/third_party/cmsis_nn/Source/SVDFunctions/arm_svdf_state_s16_s8.c ****                 }
 484              		.loc 1 191 43 is_stmt 0 discriminator 3 view .LVU166
 485 016a 56F82120 		ldr	r2, [r6, r1, lsl #2]
 191:Middlewares/tensorflow/third_party/cmsis_nn/Source/SVDFunctions/arm_svdf_state_s16_s8.c ****                 }
 486              		.loc 1 191 51 discriminator 3 view .LVU167
 487 016e 5CF82300 		ldr	r0, [ip, r3, lsl #2]
 191:Middlewares/tensorflow/third_party/cmsis_nn/Source/SVDFunctions/arm_svdf_state_s16_s8.c ****                 }
 488              		.loc 1 191 47 discriminator 3 view .LVU168
 489 0172 0244     		add	r2, r2, r0
 191:Middlewares/tensorflow/third_party/cmsis_nn/Source/SVDFunctions/arm_svdf_state_s16_s8.c ****                 }
 490              		.loc 1 191 36 discriminator 3 view .LVU169
 491 0174 4BF82120 		str	r2, [fp, r1, lsl #2]
 189:Middlewares/tensorflow/third_party/cmsis_nn/Source/SVDFunctions/arm_svdf_state_s16_s8.c ****                 {
 492              		.loc 1 189 54 is_stmt 1 discriminator 3 view .LVU170
 189:Middlewares/tensorflow/third_party/cmsis_nn/Source/SVDFunctions/arm_svdf_state_s16_s8.c ****                 {
 493              		.loc 1 189 55 is_stmt 0 discriminator 3 view .LVU171
 494 0178 0133     		adds	r3, r3, #1
 495              	.LVL69:
 496              	.L15:
 189:Middlewares/tensorflow/third_party/cmsis_nn/Source/SVDFunctions/arm_svdf_state_s16_s8.c ****                 {
 497              		.loc 1 189 33 is_stmt 1 discriminator 1 view .LVU172
 189:Middlewares/tensorflow/third_party/cmsis_nn/Source/SVDFunctions/arm_svdf_state_s16_s8.c ****                 {
 498              		.loc 1 189 17 is_stmt 0 discriminator 1 view .LVU173
 499 017a BB42     		cmp	r3, r7
 500 017c F4DB     		blt	.L16
 501              	.LBE90:
 502              	.LBE89:
 183:Middlewares/tensorflow/third_party/cmsis_nn/Source/SVDFunctions/arm_svdf_state_s16_s8.c ****             {
 503              		.loc 1 183 48 is_stmt 1 discriminator 2 view .LVU174
 183:Middlewares/tensorflow/third_party/cmsis_nn/Source/SVDFunctions/arm_svdf_state_s16_s8.c ****             {
 504              		.loc 1 183 49 is_stmt 0 discriminator 2 view .LVU175
 505 017e 0135     		adds	r5, r5, #1
 506              	.LVL70:
 507              	.L13:
 183:Middlewares/tensorflow/third_party/cmsis_nn/Source/SVDFunctions/arm_svdf_state_s16_s8.c ****             {
 508              		.loc 1 183 29 is_stmt 1 discriminator 1 view .LVU176
 183:Middlewares/tensorflow/third_party/cmsis_nn/Source/SVDFunctions/arm_svdf_state_s16_s8.c ****             {
 509              		.loc 1 183 13 is_stmt 0 discriminator 1 view .LVU177
 510 0180 7545     		cmp	r5, lr
 511 0182 80F2DB80 		bge	.L18
 512              	.LBB92:
 185:Middlewares/tensorflow/third_party/cmsis_nn/Source/SVDFunctions/arm_svdf_state_s16_s8.c ****                 const int32_t *ptr_a = buffer_a + i * feature_batches;
 513              		.loc 1 185 17 is_stmt 1 view .LVU178
 185:Middlewares/tensorflow/third_party/cmsis_nn/Source/SVDFunctions/arm_svdf_state_s16_s8.c ****                 const int32_t *ptr_a = buffer_a + i * feature_batches;
 514              		.loc 1 185 53 is_stmt 0 view .LVU179
 515 0186 07FB05F4 		mul	r4, r7, r5
 516              	.LVL71:
ARM GAS  /tmp/ccOcL3QG.s 			page 29


 186:Middlewares/tensorflow/third_party/cmsis_nn/Source/SVDFunctions/arm_svdf_state_s16_s8.c **** 
 517              		.loc 1 186 17 is_stmt 1 view .LVU180
 188:Middlewares/tensorflow/third_party/cmsis_nn/Source/SVDFunctions/arm_svdf_state_s16_s8.c ****                 for (int j = 0; j < feature_batches; j++)
 518              		.loc 1 188 17 view .LVU181
 189:Middlewares/tensorflow/third_party/cmsis_nn/Source/SVDFunctions/arm_svdf_state_s16_s8.c ****                 {
 519              		.loc 1 189 17 view .LVU182
 520              	.LBB91:
 189:Middlewares/tensorflow/third_party/cmsis_nn/Source/SVDFunctions/arm_svdf_state_s16_s8.c ****                 {
 521              		.loc 1 189 22 view .LVU183
 189:Middlewares/tensorflow/third_party/cmsis_nn/Source/SVDFunctions/arm_svdf_state_s16_s8.c ****                 {
 522              		.loc 1 189 26 is_stmt 0 view .LVU184
 523 018a 0023     		movs	r3, #0
 189:Middlewares/tensorflow/third_party/cmsis_nn/Source/SVDFunctions/arm_svdf_state_s16_s8.c ****                 {
 524              		.loc 1 189 17 view .LVU185
 525 018c F5E7     		b	.L15
 526              	.LVL72:
 527              	.L47:
 189:Middlewares/tensorflow/third_party/cmsis_nn/Source/SVDFunctions/arm_svdf_state_s16_s8.c ****                 {
 528              		.loc 1 189 17 view .LVU186
 529              	.LBE91:
 530              	.LBE92:
 183:Middlewares/tensorflow/third_party/cmsis_nn/Source/SVDFunctions/arm_svdf_state_s16_s8.c ****             {
 531              		.loc 1 183 22 view .LVU187
 532 018e 0025     		movs	r5, #0
 533              	.LVL73:
 183:Middlewares/tensorflow/third_party/cmsis_nn/Source/SVDFunctions/arm_svdf_state_s16_s8.c ****             {
 534              		.loc 1 183 22 view .LVU188
 535 0190 0F9E     		ldr	r6, [sp, #60]
 536 0192 DDF830E0 		ldr	lr, [sp, #48]
 537 0196 DDF8A8C0 		ldr	ip, [sp, #168]
 538 019a F1E7     		b	.L13
 539              	.LVL74:
 540              	.L21:
 183:Middlewares/tensorflow/third_party/cmsis_nn/Source/SVDFunctions/arm_svdf_state_s16_s8.c ****             {
 541              		.loc 1 183 22 view .LVU189
 542              	.LBE88:
 543              	.LBB93:
 544              	.LBB80:
 545              	.LBB81:
 546              	.LBB82:
 547              	.LBB83:
 198:Middlewares/tensorflow/third_party/cmsis_nn/Source/SVDFunctions/arm_svdf_state_s16_s8.c ****             {
 199:Middlewares/tensorflow/third_party/cmsis_nn/Source/SVDFunctions/arm_svdf_state_s16_s8.c ****                 int32_t *output_data_temp = buffer_b + i_batch * unit_count;
 200:Middlewares/tensorflow/third_party/cmsis_nn/Source/SVDFunctions/arm_svdf_state_s16_s8.c ****                 int32_t *ptr_a = buffer_a + i_batch * feature_batches;
 201:Middlewares/tensorflow/third_party/cmsis_nn/Source/SVDFunctions/arm_svdf_state_s16_s8.c **** 
 202:Middlewares/tensorflow/third_party/cmsis_nn/Source/SVDFunctions/arm_svdf_state_s16_s8.c ****                 for (int i = 0; i < unit_count; i++)
 203:Middlewares/tensorflow/third_party/cmsis_nn/Source/SVDFunctions/arm_svdf_state_s16_s8.c ****                 {
 204:Middlewares/tensorflow/third_party/cmsis_nn/Source/SVDFunctions/arm_svdf_state_s16_s8.c ****                     int32_t sum = bias_data[i];
 205:Middlewares/tensorflow/third_party/cmsis_nn/Source/SVDFunctions/arm_svdf_state_s16_s8.c ****                     for (int j = 0; j < rank; j++)
 206:Middlewares/tensorflow/third_party/cmsis_nn/Source/SVDFunctions/arm_svdf_state_s16_s8.c ****                     {
 207:Middlewares/tensorflow/third_party/cmsis_nn/Source/SVDFunctions/arm_svdf_state_s16_s8.c ****                         sum += *ptr_a;
 548              		.loc 1 207 25 is_stmt 1 discriminator 3 view .LVU190
 549              		.loc 1 207 32 is_stmt 0 discriminator 3 view .LVU191
 550 019c 51F8040B 		ldr	r0, [r1], #4
 551              	.LVL75:
 552              		.loc 1 207 29 discriminator 3 view .LVU192
 553 01a0 0244     		add	r2, r2, r0
ARM GAS  /tmp/ccOcL3QG.s 			page 30


 554              	.LVL76:
 208:Middlewares/tensorflow/third_party/cmsis_nn/Source/SVDFunctions/arm_svdf_state_s16_s8.c ****                         ptr_a++;
 555              		.loc 1 208 25 is_stmt 1 discriminator 3 view .LVU193
 205:Middlewares/tensorflow/third_party/cmsis_nn/Source/SVDFunctions/arm_svdf_state_s16_s8.c ****                     {
 556              		.loc 1 205 47 discriminator 3 view .LVU194
 205:Middlewares/tensorflow/third_party/cmsis_nn/Source/SVDFunctions/arm_svdf_state_s16_s8.c ****                     {
 557              		.loc 1 205 48 is_stmt 0 discriminator 3 view .LVU195
 558 01a2 0133     		adds	r3, r3, #1
 559              	.LVL77:
 560              	.L20:
 205:Middlewares/tensorflow/third_party/cmsis_nn/Source/SVDFunctions/arm_svdf_state_s16_s8.c ****                     {
 561              		.loc 1 205 37 is_stmt 1 discriminator 1 view .LVU196
 205:Middlewares/tensorflow/third_party/cmsis_nn/Source/SVDFunctions/arm_svdf_state_s16_s8.c ****                     {
 562              		.loc 1 205 21 is_stmt 0 discriminator 1 view .LVU197
 563 01a4 9E42     		cmp	r6, r3
 564 01a6 F9DC     		bgt	.L21
 205:Middlewares/tensorflow/third_party/cmsis_nn/Source/SVDFunctions/arm_svdf_state_s16_s8.c ****                     {
 565              		.loc 1 205 21 discriminator 1 view .LVU198
 566              	.LBE83:
 209:Middlewares/tensorflow/third_party/cmsis_nn/Source/SVDFunctions/arm_svdf_state_s16_s8.c ****                     }
 210:Middlewares/tensorflow/third_party/cmsis_nn/Source/SVDFunctions/arm_svdf_state_s16_s8.c ****                     output_data_temp[i] = sum;
 567              		.loc 1 210 21 is_stmt 1 discriminator 2 view .LVU199
 568              		.loc 1 210 37 is_stmt 0 discriminator 2 view .LVU200
 569 01a8 08EB0503 		add	r3, r8, r5
 570              	.LVL78:
 571              		.loc 1 210 41 discriminator 2 view .LVU201
 572 01ac 4BF82320 		str	r2, [fp, r3, lsl #2]
 573              	.LBE82:
 202:Middlewares/tensorflow/third_party/cmsis_nn/Source/SVDFunctions/arm_svdf_state_s16_s8.c ****                 {
 574              		.loc 1 202 49 is_stmt 1 discriminator 2 view .LVU202
 202:Middlewares/tensorflow/third_party/cmsis_nn/Source/SVDFunctions/arm_svdf_state_s16_s8.c ****                 {
 575              		.loc 1 202 50 is_stmt 0 discriminator 2 view .LVU203
 576 01b0 0134     		adds	r4, r4, #1
 577              	.LVL79:
 578              	.L19:
 202:Middlewares/tensorflow/third_party/cmsis_nn/Source/SVDFunctions/arm_svdf_state_s16_s8.c ****                 {
 579              		.loc 1 202 33 is_stmt 1 discriminator 1 view .LVU204
 202:Middlewares/tensorflow/third_party/cmsis_nn/Source/SVDFunctions/arm_svdf_state_s16_s8.c ****                 {
 580              		.loc 1 202 17 is_stmt 0 discriminator 1 view .LVU205
 581 01b2 6445     		cmp	r4, ip
 582 01b4 04DA     		bge	.L60
 583              	.LBB85:
 204:Middlewares/tensorflow/third_party/cmsis_nn/Source/SVDFunctions/arm_svdf_state_s16_s8.c ****                     for (int j = 0; j < rank; j++)
 584              		.loc 1 204 21 is_stmt 1 view .LVU206
 204:Middlewares/tensorflow/third_party/cmsis_nn/Source/SVDFunctions/arm_svdf_state_s16_s8.c ****                     for (int j = 0; j < rank; j++)
 585              		.loc 1 204 44 is_stmt 0 view .LVU207
 586 01b6 2546     		mov	r5, r4
 204:Middlewares/tensorflow/third_party/cmsis_nn/Source/SVDFunctions/arm_svdf_state_s16_s8.c ****                     for (int j = 0; j < rank; j++)
 587              		.loc 1 204 29 view .LVU208
 588 01b8 59F82420 		ldr	r2, [r9, r4, lsl #2]
 589              	.LVL80:
 205:Middlewares/tensorflow/third_party/cmsis_nn/Source/SVDFunctions/arm_svdf_state_s16_s8.c ****                     {
 590              		.loc 1 205 21 is_stmt 1 view .LVU209
 591              	.LBB84:
 205:Middlewares/tensorflow/third_party/cmsis_nn/Source/SVDFunctions/arm_svdf_state_s16_s8.c ****                     {
 592              		.loc 1 205 26 view .LVU210
 205:Middlewares/tensorflow/third_party/cmsis_nn/Source/SVDFunctions/arm_svdf_state_s16_s8.c ****                     {
ARM GAS  /tmp/ccOcL3QG.s 			page 31


 593              		.loc 1 205 30 is_stmt 0 view .LVU211
 594 01bc 0023     		movs	r3, #0
 205:Middlewares/tensorflow/third_party/cmsis_nn/Source/SVDFunctions/arm_svdf_state_s16_s8.c ****                     {
 595              		.loc 1 205 21 view .LVU212
 596 01be F1E7     		b	.L20
 597              	.LVL81:
 598              	.L60:
 205:Middlewares/tensorflow/third_party/cmsis_nn/Source/SVDFunctions/arm_svdf_state_s16_s8.c ****                     {
 599              		.loc 1 205 21 view .LVU213
 600              	.LBE84:
 601              	.LBE85:
 602              	.LBE81:
 603              	.LBE80:
 197:Middlewares/tensorflow/third_party/cmsis_nn/Source/SVDFunctions/arm_svdf_state_s16_s8.c ****             {
 604              		.loc 1 197 60 is_stmt 1 discriminator 2 view .LVU214
 197:Middlewares/tensorflow/third_party/cmsis_nn/Source/SVDFunctions/arm_svdf_state_s16_s8.c ****             {
 605              		.loc 1 197 67 is_stmt 0 discriminator 2 view .LVU215
 606 01c0 0EF1010E 		add	lr, lr, #1
 607              	.LVL82:
 608              	.L14:
 197:Middlewares/tensorflow/third_party/cmsis_nn/Source/SVDFunctions/arm_svdf_state_s16_s8.c ****             {
 609              		.loc 1 197 35 is_stmt 1 discriminator 1 view .LVU216
 197:Middlewares/tensorflow/third_party/cmsis_nn/Source/SVDFunctions/arm_svdf_state_s16_s8.c ****             {
 610              		.loc 1 197 13 is_stmt 0 discriminator 1 view .LVU217
 611 01c4 D645     		cmp	lr, r10
 612 01c6 80F2B980 		bge	.L18
 613              	.LBB87:
 199:Middlewares/tensorflow/third_party/cmsis_nn/Source/SVDFunctions/arm_svdf_state_s16_s8.c ****                 int32_t *ptr_a = buffer_a + i_batch * feature_batches;
 614              		.loc 1 199 17 is_stmt 1 view .LVU218
 199:Middlewares/tensorflow/third_party/cmsis_nn/Source/SVDFunctions/arm_svdf_state_s16_s8.c ****                 int32_t *ptr_a = buffer_a + i_batch * feature_batches;
 615              		.loc 1 199 64 is_stmt 0 view .LVU219
 616 01ca 0CFB0EF8 		mul	r8, ip, lr
 617              	.LVL83:
 200:Middlewares/tensorflow/third_party/cmsis_nn/Source/SVDFunctions/arm_svdf_state_s16_s8.c **** 
 618              		.loc 1 200 17 is_stmt 1 view .LVU220
 200:Middlewares/tensorflow/third_party/cmsis_nn/Source/SVDFunctions/arm_svdf_state_s16_s8.c **** 
 619              		.loc 1 200 53 is_stmt 0 view .LVU221
 620 01ce 07FB0EF1 		mul	r1, r7, lr
 200:Middlewares/tensorflow/third_party/cmsis_nn/Source/SVDFunctions/arm_svdf_state_s16_s8.c **** 
 621              		.loc 1 200 26 view .LVU222
 622 01d2 0F9B     		ldr	r3, [sp, #60]
 623 01d4 03EB8101 		add	r1, r3, r1, lsl #2
 624              	.LVL84:
 202:Middlewares/tensorflow/third_party/cmsis_nn/Source/SVDFunctions/arm_svdf_state_s16_s8.c ****                 {
 625              		.loc 1 202 17 is_stmt 1 view .LVU223
 626              	.LBB86:
 202:Middlewares/tensorflow/third_party/cmsis_nn/Source/SVDFunctions/arm_svdf_state_s16_s8.c ****                 {
 627              		.loc 1 202 22 view .LVU224
 202:Middlewares/tensorflow/third_party/cmsis_nn/Source/SVDFunctions/arm_svdf_state_s16_s8.c ****                 {
 628              		.loc 1 202 26 is_stmt 0 view .LVU225
 629 01d8 0024     		movs	r4, #0
 202:Middlewares/tensorflow/third_party/cmsis_nn/Source/SVDFunctions/arm_svdf_state_s16_s8.c ****                 {
 630              		.loc 1 202 17 view .LVU226
 631 01da EAE7     		b	.L19
 632              	.LVL85:
 633              	.L25:
 202:Middlewares/tensorflow/third_party/cmsis_nn/Source/SVDFunctions/arm_svdf_state_s16_s8.c ****                 {
ARM GAS  /tmp/ccOcL3QG.s 			page 32


 634              		.loc 1 202 17 view .LVU227
 635              	.LBE86:
 636              	.LBE87:
 637              	.LBE93:
 638              	.LBB94:
 639              	.LBB95:
 640              	.LBB96:
 641              	.LBB97:
 642              	.LBB98:
 211:Middlewares/tensorflow/third_party/cmsis_nn/Source/SVDFunctions/arm_svdf_state_s16_s8.c ****                 }
 212:Middlewares/tensorflow/third_party/cmsis_nn/Source/SVDFunctions/arm_svdf_state_s16_s8.c ****             }
 213:Middlewares/tensorflow/third_party/cmsis_nn/Source/SVDFunctions/arm_svdf_state_s16_s8.c ****         }
 214:Middlewares/tensorflow/third_party/cmsis_nn/Source/SVDFunctions/arm_svdf_state_s16_s8.c ****     }
 215:Middlewares/tensorflow/third_party/cmsis_nn/Source/SVDFunctions/arm_svdf_state_s16_s8.c ****     else
 216:Middlewares/tensorflow/third_party/cmsis_nn/Source/SVDFunctions/arm_svdf_state_s16_s8.c ****     {
 217:Middlewares/tensorflow/third_party/cmsis_nn/Source/SVDFunctions/arm_svdf_state_s16_s8.c ****         for (int i_batch = 0; i_batch < input_batches; i_batch++)
 218:Middlewares/tensorflow/third_party/cmsis_nn/Source/SVDFunctions/arm_svdf_state_s16_s8.c ****         {
 219:Middlewares/tensorflow/third_party/cmsis_nn/Source/SVDFunctions/arm_svdf_state_s16_s8.c ****             int32_t *output_data_temp = buffer_b + i_batch * unit_count;
 220:Middlewares/tensorflow/third_party/cmsis_nn/Source/SVDFunctions/arm_svdf_state_s16_s8.c ****             int32_t *ptr_a = buffer_a + i_batch * feature_batches;
 221:Middlewares/tensorflow/third_party/cmsis_nn/Source/SVDFunctions/arm_svdf_state_s16_s8.c **** 
 222:Middlewares/tensorflow/third_party/cmsis_nn/Source/SVDFunctions/arm_svdf_state_s16_s8.c ****             for (int i = 0; i < unit_count; i++)
 223:Middlewares/tensorflow/third_party/cmsis_nn/Source/SVDFunctions/arm_svdf_state_s16_s8.c ****             {
 224:Middlewares/tensorflow/third_party/cmsis_nn/Source/SVDFunctions/arm_svdf_state_s16_s8.c ****                 int32_t sum = 0;
 225:Middlewares/tensorflow/third_party/cmsis_nn/Source/SVDFunctions/arm_svdf_state_s16_s8.c ****                 for (int j = 0; j < rank; j++)
 226:Middlewares/tensorflow/third_party/cmsis_nn/Source/SVDFunctions/arm_svdf_state_s16_s8.c ****                 {
 227:Middlewares/tensorflow/third_party/cmsis_nn/Source/SVDFunctions/arm_svdf_state_s16_s8.c ****                     sum += *ptr_a;
 643              		.loc 1 227 21 is_stmt 1 discriminator 3 view .LVU228
 644              		.loc 1 227 28 is_stmt 0 discriminator 3 view .LVU229
 645 01dc 51F8040B 		ldr	r0, [r1], #4
 646              	.LVL86:
 647              		.loc 1 227 25 discriminator 3 view .LVU230
 648 01e0 0244     		add	r2, r2, r0
 649              	.LVL87:
 228:Middlewares/tensorflow/third_party/cmsis_nn/Source/SVDFunctions/arm_svdf_state_s16_s8.c ****                     ptr_a++;
 650              		.loc 1 228 21 is_stmt 1 discriminator 3 view .LVU231
 225:Middlewares/tensorflow/third_party/cmsis_nn/Source/SVDFunctions/arm_svdf_state_s16_s8.c ****                 {
 651              		.loc 1 225 43 discriminator 3 view .LVU232
 225:Middlewares/tensorflow/third_party/cmsis_nn/Source/SVDFunctions/arm_svdf_state_s16_s8.c ****                 {
 652              		.loc 1 225 44 is_stmt 0 discriminator 3 view .LVU233
 653 01e2 0133     		adds	r3, r3, #1
 654              	.LVL88:
 655              	.L26:
 225:Middlewares/tensorflow/third_party/cmsis_nn/Source/SVDFunctions/arm_svdf_state_s16_s8.c ****                 {
 656              		.loc 1 225 33 is_stmt 1 discriminator 1 view .LVU234
 225:Middlewares/tensorflow/third_party/cmsis_nn/Source/SVDFunctions/arm_svdf_state_s16_s8.c ****                 {
 657              		.loc 1 225 17 is_stmt 0 discriminator 1 view .LVU235
 658 01e4 9E42     		cmp	r6, r3
 659 01e6 F9DC     		bgt	.L25
 225:Middlewares/tensorflow/third_party/cmsis_nn/Source/SVDFunctions/arm_svdf_state_s16_s8.c ****                 {
 660              		.loc 1 225 17 discriminator 1 view .LVU236
 661              	.LBE98:
 229:Middlewares/tensorflow/third_party/cmsis_nn/Source/SVDFunctions/arm_svdf_state_s16_s8.c ****                 }
 230:Middlewares/tensorflow/third_party/cmsis_nn/Source/SVDFunctions/arm_svdf_state_s16_s8.c ****                 output_data_temp[i] = sum;
 662              		.loc 1 230 17 is_stmt 1 discriminator 2 view .LVU237
 663              		.loc 1 230 33 is_stmt 0 discriminator 2 view .LVU238
 664 01e8 0EEB0403 		add	r3, lr, r4
 665              	.LVL89:
ARM GAS  /tmp/ccOcL3QG.s 			page 33


 666              		.loc 1 230 37 discriminator 2 view .LVU239
 667 01ec 4BF82320 		str	r2, [fp, r3, lsl #2]
 668              	.LBE97:
 222:Middlewares/tensorflow/third_party/cmsis_nn/Source/SVDFunctions/arm_svdf_state_s16_s8.c ****             {
 669              		.loc 1 222 45 is_stmt 1 discriminator 2 view .LVU240
 222:Middlewares/tensorflow/third_party/cmsis_nn/Source/SVDFunctions/arm_svdf_state_s16_s8.c ****             {
 670              		.loc 1 222 46 is_stmt 0 discriminator 2 view .LVU241
 671 01f0 0134     		adds	r4, r4, #1
 672              	.LVL90:
 673              	.L24:
 222:Middlewares/tensorflow/third_party/cmsis_nn/Source/SVDFunctions/arm_svdf_state_s16_s8.c ****             {
 674              		.loc 1 222 29 is_stmt 1 discriminator 1 view .LVU242
 222:Middlewares/tensorflow/third_party/cmsis_nn/Source/SVDFunctions/arm_svdf_state_s16_s8.c ****             {
 675              		.loc 1 222 13 is_stmt 0 discriminator 1 view .LVU243
 676 01f2 AC42     		cmp	r4, r5
 677 01f4 02DA     		bge	.L61
 678              	.LBB100:
 679              	.LBB99:
 225:Middlewares/tensorflow/third_party/cmsis_nn/Source/SVDFunctions/arm_svdf_state_s16_s8.c ****                 {
 680              		.loc 1 225 26 view .LVU244
 681 01f6 0023     		movs	r3, #0
 682              	.LBE99:
 224:Middlewares/tensorflow/third_party/cmsis_nn/Source/SVDFunctions/arm_svdf_state_s16_s8.c ****                 for (int j = 0; j < rank; j++)
 683              		.loc 1 224 25 view .LVU245
 684 01f8 1A46     		mov	r2, r3
 685 01fa F3E7     		b	.L26
 686              	.L61:
 687              	.LBE100:
 688              	.LBE96:
 689              	.LBE95:
 217:Middlewares/tensorflow/third_party/cmsis_nn/Source/SVDFunctions/arm_svdf_state_s16_s8.c ****         {
 690              		.loc 1 217 56 is_stmt 1 discriminator 2 view .LVU246
 217:Middlewares/tensorflow/third_party/cmsis_nn/Source/SVDFunctions/arm_svdf_state_s16_s8.c ****         {
 691              		.loc 1 217 63 is_stmt 0 discriminator 2 view .LVU247
 692 01fc 0CF1010C 		add	ip, ip, #1
 693              	.LVL91:
 694              	.L12:
 217:Middlewares/tensorflow/third_party/cmsis_nn/Source/SVDFunctions/arm_svdf_state_s16_s8.c ****         {
 695              		.loc 1 217 31 is_stmt 1 discriminator 1 view .LVU248
 217:Middlewares/tensorflow/third_party/cmsis_nn/Source/SVDFunctions/arm_svdf_state_s16_s8.c ****         {
 696              		.loc 1 217 9 is_stmt 0 discriminator 1 view .LVU249
 697 0200 CC45     		cmp	ip, r9
 698 0202 80F29B80 		bge	.L18
 699              	.LBB102:
 219:Middlewares/tensorflow/third_party/cmsis_nn/Source/SVDFunctions/arm_svdf_state_s16_s8.c ****             int32_t *ptr_a = buffer_a + i_batch * feature_batches;
 700              		.loc 1 219 13 is_stmt 1 view .LVU250
 219:Middlewares/tensorflow/third_party/cmsis_nn/Source/SVDFunctions/arm_svdf_state_s16_s8.c ****             int32_t *ptr_a = buffer_a + i_batch * feature_batches;
 701              		.loc 1 219 60 is_stmt 0 view .LVU251
 702 0206 05FB0CFE 		mul	lr, r5, ip
 703              	.LVL92:
 220:Middlewares/tensorflow/third_party/cmsis_nn/Source/SVDFunctions/arm_svdf_state_s16_s8.c **** 
 704              		.loc 1 220 13 is_stmt 1 view .LVU252
 220:Middlewares/tensorflow/third_party/cmsis_nn/Source/SVDFunctions/arm_svdf_state_s16_s8.c **** 
 705              		.loc 1 220 49 is_stmt 0 view .LVU253
 706 020a 07FB0CF1 		mul	r1, r7, ip
 220:Middlewares/tensorflow/third_party/cmsis_nn/Source/SVDFunctions/arm_svdf_state_s16_s8.c **** 
 707              		.loc 1 220 22 view .LVU254
ARM GAS  /tmp/ccOcL3QG.s 			page 34


 708 020e 08EB8101 		add	r1, r8, r1, lsl #2
 709              	.LVL93:
 222:Middlewares/tensorflow/third_party/cmsis_nn/Source/SVDFunctions/arm_svdf_state_s16_s8.c ****             {
 710              		.loc 1 222 13 is_stmt 1 view .LVU255
 711              	.LBB101:
 222:Middlewares/tensorflow/third_party/cmsis_nn/Source/SVDFunctions/arm_svdf_state_s16_s8.c ****             {
 712              		.loc 1 222 18 view .LVU256
 222:Middlewares/tensorflow/third_party/cmsis_nn/Source/SVDFunctions/arm_svdf_state_s16_s8.c ****             {
 713              		.loc 1 222 22 is_stmt 0 view .LVU257
 714 0212 0024     		movs	r4, #0
 222:Middlewares/tensorflow/third_party/cmsis_nn/Source/SVDFunctions/arm_svdf_state_s16_s8.c ****             {
 715              		.loc 1 222 13 view .LVU258
 716 0214 EDE7     		b	.L24
 717              	.LVL94:
 718              	.L46:
 222:Middlewares/tensorflow/third_party/cmsis_nn/Source/SVDFunctions/arm_svdf_state_s16_s8.c ****             {
 719              		.loc 1 222 13 view .LVU259
 720              	.LBE101:
 721              	.LBE102:
 217:Middlewares/tensorflow/third_party/cmsis_nn/Source/SVDFunctions/arm_svdf_state_s16_s8.c ****         {
 722              		.loc 1 217 18 view .LVU260
 723 0216 4FF0000C 		mov	ip, #0
 724 021a DDF83C80 		ldr	r8, [sp, #60]
 725 021e DDF83090 		ldr	r9, [sp, #48]
 726              	.LVL95:
 217:Middlewares/tensorflow/third_party/cmsis_nn/Source/SVDFunctions/arm_svdf_state_s16_s8.c ****         {
 727              		.loc 1 217 18 view .LVU261
 728 0222 0E9D     		ldr	r5, [sp, #56]
 729              	.LVL96:
 217:Middlewares/tensorflow/third_party/cmsis_nn/Source/SVDFunctions/arm_svdf_state_s16_s8.c ****         {
 730              		.loc 1 217 18 view .LVU262
 731 0224 ECE7     		b	.L12
 732              	.LVL97:
 733              	.L63:
 217:Middlewares/tensorflow/third_party/cmsis_nn/Source/SVDFunctions/arm_svdf_state_s16_s8.c ****         {
 734              		.loc 1 217 18 view .LVU263
 735              	.LBE94:
 736              	.LBB103:
 737              	.LBB104:
 738              	.LBB105:
 579:Middlewares/tensorflow/third_party/cmsis_nn/Include/arm_nnsupportfunctions.h **** }
 580:Middlewares/tensorflow/third_party/cmsis_nn/Include/arm_nnsupportfunctions.h **** 
 581:Middlewares/tensorflow/third_party/cmsis_nn/Include/arm_nnsupportfunctions.h **** /**
 582:Middlewares/tensorflow/third_party/cmsis_nn/Include/arm_nnsupportfunctions.h ****   @brief         Read 4 s8 from s8 pointer and post increment pointer.
 583:Middlewares/tensorflow/third_party/cmsis_nn/Include/arm_nnsupportfunctions.h ****   @param[in]     in_s8       Pointer to pointer that holds address of input.
 584:Middlewares/tensorflow/third_party/cmsis_nn/Include/arm_nnsupportfunctions.h ****   @return        q31 value
 585:Middlewares/tensorflow/third_party/cmsis_nn/Include/arm_nnsupportfunctions.h ****  */
 586:Middlewares/tensorflow/third_party/cmsis_nn/Include/arm_nnsupportfunctions.h **** __STATIC_FORCEINLINE int32_t arm_nn_read_s8x4_ia(const int8_t **in_s8)
 587:Middlewares/tensorflow/third_party/cmsis_nn/Include/arm_nnsupportfunctions.h **** {
 588:Middlewares/tensorflow/third_party/cmsis_nn/Include/arm_nnsupportfunctions.h ****     int32_t val;
 589:Middlewares/tensorflow/third_party/cmsis_nn/Include/arm_nnsupportfunctions.h ****     memcpy(&val, *in_s8, 4);
 590:Middlewares/tensorflow/third_party/cmsis_nn/Include/arm_nnsupportfunctions.h ****     *in_s8 += 4;
 591:Middlewares/tensorflow/third_party/cmsis_nn/Include/arm_nnsupportfunctions.h **** 
 592:Middlewares/tensorflow/third_party/cmsis_nn/Include/arm_nnsupportfunctions.h ****     return (val);
 593:Middlewares/tensorflow/third_party/cmsis_nn/Include/arm_nnsupportfunctions.h **** }
 594:Middlewares/tensorflow/third_party/cmsis_nn/Include/arm_nnsupportfunctions.h **** 
 595:Middlewares/tensorflow/third_party/cmsis_nn/Include/arm_nnsupportfunctions.h **** /**
ARM GAS  /tmp/ccOcL3QG.s 			page 35


 596:Middlewares/tensorflow/third_party/cmsis_nn/Include/arm_nnsupportfunctions.h ****   @brief         Read 2 int16 values from int16 pointer.
 597:Middlewares/tensorflow/third_party/cmsis_nn/Include/arm_nnsupportfunctions.h ****   @param[in]     in     pointer to address of input.
 598:Middlewares/tensorflow/third_party/cmsis_nn/Include/arm_nnsupportfunctions.h ****   @return        s32    value
 599:Middlewares/tensorflow/third_party/cmsis_nn/Include/arm_nnsupportfunctions.h ****  */
 600:Middlewares/tensorflow/third_party/cmsis_nn/Include/arm_nnsupportfunctions.h **** __STATIC_FORCEINLINE int32_t arm_nn_read_s16x2(const int16_t *in)
 601:Middlewares/tensorflow/third_party/cmsis_nn/Include/arm_nnsupportfunctions.h **** {
 602:Middlewares/tensorflow/third_party/cmsis_nn/Include/arm_nnsupportfunctions.h ****     int32_t val;
 603:Middlewares/tensorflow/third_party/cmsis_nn/Include/arm_nnsupportfunctions.h ****     memcpy(&val, in, 4);
 604:Middlewares/tensorflow/third_party/cmsis_nn/Include/arm_nnsupportfunctions.h **** 
 605:Middlewares/tensorflow/third_party/cmsis_nn/Include/arm_nnsupportfunctions.h ****     return (val);
 606:Middlewares/tensorflow/third_party/cmsis_nn/Include/arm_nnsupportfunctions.h **** }
 607:Middlewares/tensorflow/third_party/cmsis_nn/Include/arm_nnsupportfunctions.h **** 
 608:Middlewares/tensorflow/third_party/cmsis_nn/Include/arm_nnsupportfunctions.h **** /**
 609:Middlewares/tensorflow/third_party/cmsis_nn/Include/arm_nnsupportfunctions.h ****   @brief         Read 4 s8 values.
 610:Middlewares/tensorflow/third_party/cmsis_nn/Include/arm_nnsupportfunctions.h ****   @param[in]     in_s8       pointer to address of input.
 611:Middlewares/tensorflow/third_party/cmsis_nn/Include/arm_nnsupportfunctions.h ****   @return        s32 value
 612:Middlewares/tensorflow/third_party/cmsis_nn/Include/arm_nnsupportfunctions.h ****  */
 613:Middlewares/tensorflow/third_party/cmsis_nn/Include/arm_nnsupportfunctions.h **** __STATIC_FORCEINLINE int32_t arm_nn_read_s8x4(const int8_t *in_s8)
 614:Middlewares/tensorflow/third_party/cmsis_nn/Include/arm_nnsupportfunctions.h **** {
 615:Middlewares/tensorflow/third_party/cmsis_nn/Include/arm_nnsupportfunctions.h ****     int32_t val;
 616:Middlewares/tensorflow/third_party/cmsis_nn/Include/arm_nnsupportfunctions.h ****     memcpy(&val, in_s8, 4);
 617:Middlewares/tensorflow/third_party/cmsis_nn/Include/arm_nnsupportfunctions.h **** 
 618:Middlewares/tensorflow/third_party/cmsis_nn/Include/arm_nnsupportfunctions.h ****     return (val);
 619:Middlewares/tensorflow/third_party/cmsis_nn/Include/arm_nnsupportfunctions.h **** }
 620:Middlewares/tensorflow/third_party/cmsis_nn/Include/arm_nnsupportfunctions.h **** 
 621:Middlewares/tensorflow/third_party/cmsis_nn/Include/arm_nnsupportfunctions.h **** /**
 622:Middlewares/tensorflow/third_party/cmsis_nn/Include/arm_nnsupportfunctions.h ****   @brief         Write four s8 to s8 pointer and increment pointer afterwards.
 623:Middlewares/tensorflow/third_party/cmsis_nn/Include/arm_nnsupportfunctions.h ****   @param[in]     in       Double pointer to input value
 624:Middlewares/tensorflow/third_party/cmsis_nn/Include/arm_nnsupportfunctions.h ****   @param[in]     value    Four bytes to copy
 625:Middlewares/tensorflow/third_party/cmsis_nn/Include/arm_nnsupportfunctions.h ****  */
 626:Middlewares/tensorflow/third_party/cmsis_nn/Include/arm_nnsupportfunctions.h **** __STATIC_FORCEINLINE void arm_nn_write_s8x4_ia(int8_t **in, int32_t value)
 627:Middlewares/tensorflow/third_party/cmsis_nn/Include/arm_nnsupportfunctions.h **** {
 628:Middlewares/tensorflow/third_party/cmsis_nn/Include/arm_nnsupportfunctions.h ****     memcpy(*in, &value, 4);
 629:Middlewares/tensorflow/third_party/cmsis_nn/Include/arm_nnsupportfunctions.h ****     *in += 4;
 630:Middlewares/tensorflow/third_party/cmsis_nn/Include/arm_nnsupportfunctions.h **** }
 631:Middlewares/tensorflow/third_party/cmsis_nn/Include/arm_nnsupportfunctions.h **** 
 632:Middlewares/tensorflow/third_party/cmsis_nn/Include/arm_nnsupportfunctions.h **** /**
 633:Middlewares/tensorflow/third_party/cmsis_nn/Include/arm_nnsupportfunctions.h ****  * @brief           memset optimized for MVE
 634:Middlewares/tensorflow/third_party/cmsis_nn/Include/arm_nnsupportfunctions.h ****  * @param[in, out]  dst         Destination pointer
 635:Middlewares/tensorflow/third_party/cmsis_nn/Include/arm_nnsupportfunctions.h ****  * @param[in]       val         Value to set
 636:Middlewares/tensorflow/third_party/cmsis_nn/Include/arm_nnsupportfunctions.h ****  * @param[in]       block_size  Number of bytes to copy.
 637:Middlewares/tensorflow/third_party/cmsis_nn/Include/arm_nnsupportfunctions.h ****  *
 638:Middlewares/tensorflow/third_party/cmsis_nn/Include/arm_nnsupportfunctions.h ****  */
 639:Middlewares/tensorflow/third_party/cmsis_nn/Include/arm_nnsupportfunctions.h **** __STATIC_FORCEINLINE void arm_memset_s8(int8_t *dst, const int8_t val, uint32_t block_size)
 640:Middlewares/tensorflow/third_party/cmsis_nn/Include/arm_nnsupportfunctions.h **** {
 641:Middlewares/tensorflow/third_party/cmsis_nn/Include/arm_nnsupportfunctions.h **** #if defined(ARM_MATH_MVEI)
 642:Middlewares/tensorflow/third_party/cmsis_nn/Include/arm_nnsupportfunctions.h ****     __asm volatile("   vdup.8                  q0, %[set_val]             \n"
 643:Middlewares/tensorflow/third_party/cmsis_nn/Include/arm_nnsupportfunctions.h ****                    "   wlstp.8                 lr, %[cnt], 1f             \n"
 644:Middlewares/tensorflow/third_party/cmsis_nn/Include/arm_nnsupportfunctions.h ****                    "2:                                                    \n"
 645:Middlewares/tensorflow/third_party/cmsis_nn/Include/arm_nnsupportfunctions.h ****                    "   vstrb.8                 q0, [%[in]], #16            \n"
 646:Middlewares/tensorflow/third_party/cmsis_nn/Include/arm_nnsupportfunctions.h ****                    "   letp                    lr, 2b                     \n"
 647:Middlewares/tensorflow/third_party/cmsis_nn/Include/arm_nnsupportfunctions.h ****                    "1:                                                    \n"
 648:Middlewares/tensorflow/third_party/cmsis_nn/Include/arm_nnsupportfunctions.h ****                    : [in] "+r"(dst)
 649:Middlewares/tensorflow/third_party/cmsis_nn/Include/arm_nnsupportfunctions.h ****                    : [cnt] "r"(block_size), [set_val] "r"(val)
 650:Middlewares/tensorflow/third_party/cmsis_nn/Include/arm_nnsupportfunctions.h ****                    : "q0", "memory", "r14");
 651:Middlewares/tensorflow/third_party/cmsis_nn/Include/arm_nnsupportfunctions.h **** #else
 652:Middlewares/tensorflow/third_party/cmsis_nn/Include/arm_nnsupportfunctions.h ****     memset(dst, val, block_size);
ARM GAS  /tmp/ccOcL3QG.s 			page 36


 653:Middlewares/tensorflow/third_party/cmsis_nn/Include/arm_nnsupportfunctions.h **** #endif
 654:Middlewares/tensorflow/third_party/cmsis_nn/Include/arm_nnsupportfunctions.h **** }
 655:Middlewares/tensorflow/third_party/cmsis_nn/Include/arm_nnsupportfunctions.h **** 
 656:Middlewares/tensorflow/third_party/cmsis_nn/Include/arm_nnsupportfunctions.h **** #if defined(ARM_MATH_DSP)
 657:Middlewares/tensorflow/third_party/cmsis_nn/Include/arm_nnsupportfunctions.h **** 
 658:Middlewares/tensorflow/third_party/cmsis_nn/Include/arm_nnsupportfunctions.h **** /**
 659:Middlewares/tensorflow/third_party/cmsis_nn/Include/arm_nnsupportfunctions.h ****  * @brief read and expand one s8 word into two s16 words
 660:Middlewares/tensorflow/third_party/cmsis_nn/Include/arm_nnsupportfunctions.h ****  */
 661:Middlewares/tensorflow/third_party/cmsis_nn/Include/arm_nnsupportfunctions.h **** 
 662:Middlewares/tensorflow/third_party/cmsis_nn/Include/arm_nnsupportfunctions.h **** __STATIC_FORCEINLINE const int8_t *read_and_pad(const int8_t *source, int32_t *out1, int32_t *out2)
 663:Middlewares/tensorflow/third_party/cmsis_nn/Include/arm_nnsupportfunctions.h **** {
 664:Middlewares/tensorflow/third_party/cmsis_nn/Include/arm_nnsupportfunctions.h ****     int32_t inA = arm_nn_read_s8x4_ia(&source);
 665:Middlewares/tensorflow/third_party/cmsis_nn/Include/arm_nnsupportfunctions.h ****     int32_t inAbuf1 = SXTB16_RORn((uint32_t)inA, 8);
 666:Middlewares/tensorflow/third_party/cmsis_nn/Include/arm_nnsupportfunctions.h ****     int32_t inAbuf2 = SXTB16(inA);
 667:Middlewares/tensorflow/third_party/cmsis_nn/Include/arm_nnsupportfunctions.h **** 
 668:Middlewares/tensorflow/third_party/cmsis_nn/Include/arm_nnsupportfunctions.h ****     #ifndef ARM_MATH_BIG_ENDIAN
 669:Middlewares/tensorflow/third_party/cmsis_nn/Include/arm_nnsupportfunctions.h ****     *out2 = (int32_t)(PKHTB(inAbuf1, inAbuf2, 16));
 670:Middlewares/tensorflow/third_party/cmsis_nn/Include/arm_nnsupportfunctions.h ****     *out1 = (int32_t)(PKHBT(inAbuf2, inAbuf1, 16));
 671:Middlewares/tensorflow/third_party/cmsis_nn/Include/arm_nnsupportfunctions.h ****     #else
 672:Middlewares/tensorflow/third_party/cmsis_nn/Include/arm_nnsupportfunctions.h ****     *out1 = (int32_t)(PKHTB(inAbuf1, inAbuf2, 16));
 673:Middlewares/tensorflow/third_party/cmsis_nn/Include/arm_nnsupportfunctions.h ****     *out2 = (int32_t)(PKHBT(inAbuf2, inAbuf1, 16));
 674:Middlewares/tensorflow/third_party/cmsis_nn/Include/arm_nnsupportfunctions.h ****     #endif
 675:Middlewares/tensorflow/third_party/cmsis_nn/Include/arm_nnsupportfunctions.h **** 
 676:Middlewares/tensorflow/third_party/cmsis_nn/Include/arm_nnsupportfunctions.h ****     return source;
 677:Middlewares/tensorflow/third_party/cmsis_nn/Include/arm_nnsupportfunctions.h **** }
 678:Middlewares/tensorflow/third_party/cmsis_nn/Include/arm_nnsupportfunctions.h **** 
 679:Middlewares/tensorflow/third_party/cmsis_nn/Include/arm_nnsupportfunctions.h **** /**
 680:Middlewares/tensorflow/third_party/cmsis_nn/Include/arm_nnsupportfunctions.h ****  * @brief read and expand one s8 word into two s16 words with reordering
 681:Middlewares/tensorflow/third_party/cmsis_nn/Include/arm_nnsupportfunctions.h ****  */
 682:Middlewares/tensorflow/third_party/cmsis_nn/Include/arm_nnsupportfunctions.h **** 
 683:Middlewares/tensorflow/third_party/cmsis_nn/Include/arm_nnsupportfunctions.h **** __STATIC_FORCEINLINE const int8_t *read_and_pad_reordered(const int8_t *source, int32_t *out1, int3
 684:Middlewares/tensorflow/third_party/cmsis_nn/Include/arm_nnsupportfunctions.h **** {
 685:Middlewares/tensorflow/third_party/cmsis_nn/Include/arm_nnsupportfunctions.h ****     int32_t inA = arm_nn_read_s8x4_ia(&source);
 686:Middlewares/tensorflow/third_party/cmsis_nn/Include/arm_nnsupportfunctions.h ****     #ifndef ARM_MATH_BIG_ENDIAN
 687:Middlewares/tensorflow/third_party/cmsis_nn/Include/arm_nnsupportfunctions.h ****     *out2 = SXTB16(ROR((uint32_t)inA, 8));
 688:Middlewares/tensorflow/third_party/cmsis_nn/Include/arm_nnsupportfunctions.h ****     *out1 = SXTB16(inA);
 689:Middlewares/tensorflow/third_party/cmsis_nn/Include/arm_nnsupportfunctions.h ****     #else
 690:Middlewares/tensorflow/third_party/cmsis_nn/Include/arm_nnsupportfunctions.h ****     *out1 = SXTB16(ROR((uint32_t)inA, 8));
 691:Middlewares/tensorflow/third_party/cmsis_nn/Include/arm_nnsupportfunctions.h ****     *out2 = SXTB16(inA);
 692:Middlewares/tensorflow/third_party/cmsis_nn/Include/arm_nnsupportfunctions.h ****     #endif
 693:Middlewares/tensorflow/third_party/cmsis_nn/Include/arm_nnsupportfunctions.h **** 
 694:Middlewares/tensorflow/third_party/cmsis_nn/Include/arm_nnsupportfunctions.h ****     return source;
 695:Middlewares/tensorflow/third_party/cmsis_nn/Include/arm_nnsupportfunctions.h **** }
 696:Middlewares/tensorflow/third_party/cmsis_nn/Include/arm_nnsupportfunctions.h **** 
 697:Middlewares/tensorflow/third_party/cmsis_nn/Include/arm_nnsupportfunctions.h **** #endif
 698:Middlewares/tensorflow/third_party/cmsis_nn/Include/arm_nnsupportfunctions.h **** 
 699:Middlewares/tensorflow/third_party/cmsis_nn/Include/arm_nnsupportfunctions.h **** /**
 700:Middlewares/tensorflow/third_party/cmsis_nn/Include/arm_nnsupportfunctions.h ****  * @brief Matrix-multiplication function for convolution with per-channel requantization.
 701:Middlewares/tensorflow/third_party/cmsis_nn/Include/arm_nnsupportfunctions.h ****  * @param[in]       input_a     pointer to operand A
 702:Middlewares/tensorflow/third_party/cmsis_nn/Include/arm_nnsupportfunctions.h ****  * @param[in]       input_b     pointer to operand B, always consists of 2 vectors.
 703:Middlewares/tensorflow/third_party/cmsis_nn/Include/arm_nnsupportfunctions.h ****  * @param[in]       output_ch   number of rows of A
 704:Middlewares/tensorflow/third_party/cmsis_nn/Include/arm_nnsupportfunctions.h ****  * @param[in]       out_shift  pointer to per output channel requantization shift parameter.
 705:Middlewares/tensorflow/third_party/cmsis_nn/Include/arm_nnsupportfunctions.h ****  * @param[in]       out_mult   pointer to per output channel requantization multiplier parameter.
 706:Middlewares/tensorflow/third_party/cmsis_nn/Include/arm_nnsupportfunctions.h ****  * @param[in]       out_offset      output tensor offset.
 707:Middlewares/tensorflow/third_party/cmsis_nn/Include/arm_nnsupportfunctions.h ****  * @param[in]       activation_min   minimum value to clamp the output to. Range : int8
 708:Middlewares/tensorflow/third_party/cmsis_nn/Include/arm_nnsupportfunctions.h ****  * @param[in]       activation_max   maximum value to clamp the output to. Range : int8
 709:Middlewares/tensorflow/third_party/cmsis_nn/Include/arm_nnsupportfunctions.h ****  * @param[in]       num_col_a   number of columns of A
ARM GAS  /tmp/ccOcL3QG.s 			page 37


 710:Middlewares/tensorflow/third_party/cmsis_nn/Include/arm_nnsupportfunctions.h ****  * @param[in]       output_bias per output channel bias. Range : int32
 711:Middlewares/tensorflow/third_party/cmsis_nn/Include/arm_nnsupportfunctions.h ****  * @param[in,out]   out_0       pointer to output
 712:Middlewares/tensorflow/third_party/cmsis_nn/Include/arm_nnsupportfunctions.h ****  * @return     The function returns one of the two
 713:Middlewares/tensorflow/third_party/cmsis_nn/Include/arm_nnsupportfunctions.h ****  *              1. The incremented output pointer for a successful operation or
 714:Middlewares/tensorflow/third_party/cmsis_nn/Include/arm_nnsupportfunctions.h ****  *              2. NULL if implementation is not available.
 715:Middlewares/tensorflow/third_party/cmsis_nn/Include/arm_nnsupportfunctions.h ****  *
 716:Middlewares/tensorflow/third_party/cmsis_nn/Include/arm_nnsupportfunctions.h ****  * @details   This function does the matrix multiplication of weight matrix for all output channels
 717:Middlewares/tensorflow/third_party/cmsis_nn/Include/arm_nnsupportfunctions.h ****  *            with 2 columns from im2col and produces two elements/output_channel. The outputs are
 718:Middlewares/tensorflow/third_party/cmsis_nn/Include/arm_nnsupportfunctions.h ****  *            clamped in the range provided by activation min and max.
 719:Middlewares/tensorflow/third_party/cmsis_nn/Include/arm_nnsupportfunctions.h ****  *            Supported framework: TensorFlow Lite micro.
 720:Middlewares/tensorflow/third_party/cmsis_nn/Include/arm_nnsupportfunctions.h ****  */
 721:Middlewares/tensorflow/third_party/cmsis_nn/Include/arm_nnsupportfunctions.h **** int8_t *arm_nn_mat_mult_kernel_s8_s16(const int8_t *input_a,
 722:Middlewares/tensorflow/third_party/cmsis_nn/Include/arm_nnsupportfunctions.h ****                                       const int16_t *input_b,
 723:Middlewares/tensorflow/third_party/cmsis_nn/Include/arm_nnsupportfunctions.h ****                                       const uint16_t output_ch,
 724:Middlewares/tensorflow/third_party/cmsis_nn/Include/arm_nnsupportfunctions.h ****                                       const int32_t *out_shift,
 725:Middlewares/tensorflow/third_party/cmsis_nn/Include/arm_nnsupportfunctions.h ****                                       const int32_t *out_mult,
 726:Middlewares/tensorflow/third_party/cmsis_nn/Include/arm_nnsupportfunctions.h ****                                       const int32_t out_offset,
 727:Middlewares/tensorflow/third_party/cmsis_nn/Include/arm_nnsupportfunctions.h ****                                       const int16_t activation_min,
 728:Middlewares/tensorflow/third_party/cmsis_nn/Include/arm_nnsupportfunctions.h ****                                       const int16_t activation_max,
 729:Middlewares/tensorflow/third_party/cmsis_nn/Include/arm_nnsupportfunctions.h ****                                       const uint16_t num_col_a,
 730:Middlewares/tensorflow/third_party/cmsis_nn/Include/arm_nnsupportfunctions.h ****                                       const int32_t *const output_bias,
 731:Middlewares/tensorflow/third_party/cmsis_nn/Include/arm_nnsupportfunctions.h ****                                       int8_t *out_0);
 732:Middlewares/tensorflow/third_party/cmsis_nn/Include/arm_nnsupportfunctions.h **** 
 733:Middlewares/tensorflow/third_party/cmsis_nn/Include/arm_nnsupportfunctions.h **** /**
 734:Middlewares/tensorflow/third_party/cmsis_nn/Include/arm_nnsupportfunctions.h ****  * @brief Common softmax function for s8 input and s8 or s16 output
 735:Middlewares/tensorflow/third_party/cmsis_nn/Include/arm_nnsupportfunctions.h ****  * @param[in]  input          Pointer to the input tensor
 736:Middlewares/tensorflow/third_party/cmsis_nn/Include/arm_nnsupportfunctions.h ****  * @param[in]  num_rows       Number of rows in the input tensor
 737:Middlewares/tensorflow/third_party/cmsis_nn/Include/arm_nnsupportfunctions.h ****  * @param[in]  row_size       Number of elements in each input row
 738:Middlewares/tensorflow/third_party/cmsis_nn/Include/arm_nnsupportfunctions.h ****  * @param[in]  mult           Input quantization multiplier
 739:Middlewares/tensorflow/third_party/cmsis_nn/Include/arm_nnsupportfunctions.h ****  * @param[in]  shift          Input quantization shift within the range [0, 31]
 740:Middlewares/tensorflow/third_party/cmsis_nn/Include/arm_nnsupportfunctions.h ****  * @param[in]  diff_min       Minimum difference with max in row. Used to check if
 741:Middlewares/tensorflow/third_party/cmsis_nn/Include/arm_nnsupportfunctions.h ****  *                            the quantized exponential operation can be performed
 742:Middlewares/tensorflow/third_party/cmsis_nn/Include/arm_nnsupportfunctions.h ****  * @param[in]  int16_output   Indicating s8 output if 0 else s16 output
 743:Middlewares/tensorflow/third_party/cmsis_nn/Include/arm_nnsupportfunctions.h ****  * @param[out] output         Pointer to the output tensor
 744:Middlewares/tensorflow/third_party/cmsis_nn/Include/arm_nnsupportfunctions.h ****  *
 745:Middlewares/tensorflow/third_party/cmsis_nn/Include/arm_nnsupportfunctions.h ****  * @note Supported framework: TensorFlow Lite micro (bit-accurate)
 746:Middlewares/tensorflow/third_party/cmsis_nn/Include/arm_nnsupportfunctions.h ****  *
 747:Middlewares/tensorflow/third_party/cmsis_nn/Include/arm_nnsupportfunctions.h ****  */
 748:Middlewares/tensorflow/third_party/cmsis_nn/Include/arm_nnsupportfunctions.h **** void arm_nn_softmax_common_s8(const int8_t *input,
 749:Middlewares/tensorflow/third_party/cmsis_nn/Include/arm_nnsupportfunctions.h ****                               const int32_t num_rows,
 750:Middlewares/tensorflow/third_party/cmsis_nn/Include/arm_nnsupportfunctions.h ****                               const int32_t row_size,
 751:Middlewares/tensorflow/third_party/cmsis_nn/Include/arm_nnsupportfunctions.h ****                               const int32_t mult,
 752:Middlewares/tensorflow/third_party/cmsis_nn/Include/arm_nnsupportfunctions.h ****                               const int32_t shift,
 753:Middlewares/tensorflow/third_party/cmsis_nn/Include/arm_nnsupportfunctions.h ****                               const int32_t diff_min,
 754:Middlewares/tensorflow/third_party/cmsis_nn/Include/arm_nnsupportfunctions.h ****                               const bool int16_output,
 755:Middlewares/tensorflow/third_party/cmsis_nn/Include/arm_nnsupportfunctions.h ****                               void *output);
 756:Middlewares/tensorflow/third_party/cmsis_nn/Include/arm_nnsupportfunctions.h **** 
 757:Middlewares/tensorflow/third_party/cmsis_nn/Include/arm_nnsupportfunctions.h **** /**
 758:Middlewares/tensorflow/third_party/cmsis_nn/Include/arm_nnsupportfunctions.h ****  * @brief macro for adding rounding offset
 759:Middlewares/tensorflow/third_party/cmsis_nn/Include/arm_nnsupportfunctions.h ****  */
 760:Middlewares/tensorflow/third_party/cmsis_nn/Include/arm_nnsupportfunctions.h **** #ifndef ARM_NN_TRUNCATE
 761:Middlewares/tensorflow/third_party/cmsis_nn/Include/arm_nnsupportfunctions.h ****     #define NN_ROUND(out_shift) ((0x1 << out_shift) >> 1)
 762:Middlewares/tensorflow/third_party/cmsis_nn/Include/arm_nnsupportfunctions.h **** #else
 763:Middlewares/tensorflow/third_party/cmsis_nn/Include/arm_nnsupportfunctions.h ****     #define NN_ROUND(out_shift) 0
 764:Middlewares/tensorflow/third_party/cmsis_nn/Include/arm_nnsupportfunctions.h **** #endif
 765:Middlewares/tensorflow/third_party/cmsis_nn/Include/arm_nnsupportfunctions.h **** 
 766:Middlewares/tensorflow/third_party/cmsis_nn/Include/arm_nnsupportfunctions.h **** // Macros for shortening quantization functions' names and avoid long lines
ARM GAS  /tmp/ccOcL3QG.s 			page 38


 767:Middlewares/tensorflow/third_party/cmsis_nn/Include/arm_nnsupportfunctions.h **** #define MUL_SAT(a, b) arm_nn_doubling_high_mult((a), (b))
 768:Middlewares/tensorflow/third_party/cmsis_nn/Include/arm_nnsupportfunctions.h **** #define MUL_SAT_MVE(a, b) arm_doubling_high_mult_mve_32x4((a), (b))
 769:Middlewares/tensorflow/third_party/cmsis_nn/Include/arm_nnsupportfunctions.h **** #define MUL_POW2(a, b) arm_nn_mult_by_power_of_two((a), (b))
 770:Middlewares/tensorflow/third_party/cmsis_nn/Include/arm_nnsupportfunctions.h **** 
 771:Middlewares/tensorflow/third_party/cmsis_nn/Include/arm_nnsupportfunctions.h **** #define DIV_POW2(a, b) arm_nn_divide_by_power_of_two((a), (b))
 772:Middlewares/tensorflow/third_party/cmsis_nn/Include/arm_nnsupportfunctions.h **** #define DIV_POW2_MVE(a, b) arm_divide_by_power_of_two_mve((a), (b))
 773:Middlewares/tensorflow/third_party/cmsis_nn/Include/arm_nnsupportfunctions.h **** 
 774:Middlewares/tensorflow/third_party/cmsis_nn/Include/arm_nnsupportfunctions.h **** #define EXP_ON_NEG(x) arm_nn_exp_on_negative_values((x))
 775:Middlewares/tensorflow/third_party/cmsis_nn/Include/arm_nnsupportfunctions.h **** #define ONE_OVER1(x) arm_nn_one_over_one_plus_x_for_x_in_0_1((x))
 776:Middlewares/tensorflow/third_party/cmsis_nn/Include/arm_nnsupportfunctions.h **** 
 777:Middlewares/tensorflow/third_party/cmsis_nn/Include/arm_nnsupportfunctions.h **** /**
 778:Middlewares/tensorflow/third_party/cmsis_nn/Include/arm_nnsupportfunctions.h ****  * @brief           Saturating doubling high multiply. Result matches
 779:Middlewares/tensorflow/third_party/cmsis_nn/Include/arm_nnsupportfunctions.h ****  *                  NEON instruction VQRDMULH.
 780:Middlewares/tensorflow/third_party/cmsis_nn/Include/arm_nnsupportfunctions.h ****  * @param[in]       m1        Multiplicand. Range: {NN_Q31_MIN, NN_Q31_MAX}
 781:Middlewares/tensorflow/third_party/cmsis_nn/Include/arm_nnsupportfunctions.h ****  * @param[in]       m2        Multiplier. Range: {NN_Q31_MIN, NN_Q31_MAX}
 782:Middlewares/tensorflow/third_party/cmsis_nn/Include/arm_nnsupportfunctions.h ****  * @return          Result of multiplication.
 783:Middlewares/tensorflow/third_party/cmsis_nn/Include/arm_nnsupportfunctions.h ****  *
 784:Middlewares/tensorflow/third_party/cmsis_nn/Include/arm_nnsupportfunctions.h ****  */
 785:Middlewares/tensorflow/third_party/cmsis_nn/Include/arm_nnsupportfunctions.h **** __STATIC_FORCEINLINE int32_t arm_nn_doubling_high_mult(const int32_t m1, const int32_t m2)
 786:Middlewares/tensorflow/third_party/cmsis_nn/Include/arm_nnsupportfunctions.h **** {
 787:Middlewares/tensorflow/third_party/cmsis_nn/Include/arm_nnsupportfunctions.h ****     int32_t result = 0;
 788:Middlewares/tensorflow/third_party/cmsis_nn/Include/arm_nnsupportfunctions.h ****     // Rounding offset to add for a right shift of 31
 789:Middlewares/tensorflow/third_party/cmsis_nn/Include/arm_nnsupportfunctions.h ****     int64_t mult = 1 << 30;
 790:Middlewares/tensorflow/third_party/cmsis_nn/Include/arm_nnsupportfunctions.h **** 
 791:Middlewares/tensorflow/third_party/cmsis_nn/Include/arm_nnsupportfunctions.h ****     if ((m1 < 0) ^ (m2 < 0))
 792:Middlewares/tensorflow/third_party/cmsis_nn/Include/arm_nnsupportfunctions.h ****     {
 793:Middlewares/tensorflow/third_party/cmsis_nn/Include/arm_nnsupportfunctions.h ****         mult = 1 - mult;
 794:Middlewares/tensorflow/third_party/cmsis_nn/Include/arm_nnsupportfunctions.h ****     }
 795:Middlewares/tensorflow/third_party/cmsis_nn/Include/arm_nnsupportfunctions.h ****     // Gets resolved as a SMLAL instruction
 796:Middlewares/tensorflow/third_party/cmsis_nn/Include/arm_nnsupportfunctions.h ****     mult = mult + (int64_t)m1 * m2;
 797:Middlewares/tensorflow/third_party/cmsis_nn/Include/arm_nnsupportfunctions.h **** 
 798:Middlewares/tensorflow/third_party/cmsis_nn/Include/arm_nnsupportfunctions.h ****     // Utilize all of the upper 32 bits. This is the doubling step
 799:Middlewares/tensorflow/third_party/cmsis_nn/Include/arm_nnsupportfunctions.h ****     // as well.
 800:Middlewares/tensorflow/third_party/cmsis_nn/Include/arm_nnsupportfunctions.h ****     result = (int32_t)(mult / (1ll << 31));
 801:Middlewares/tensorflow/third_party/cmsis_nn/Include/arm_nnsupportfunctions.h **** 
 802:Middlewares/tensorflow/third_party/cmsis_nn/Include/arm_nnsupportfunctions.h ****     if ((m1 == m2) && (m1 == (int32_t)NN_Q31_MIN))
 803:Middlewares/tensorflow/third_party/cmsis_nn/Include/arm_nnsupportfunctions.h ****     {
 804:Middlewares/tensorflow/third_party/cmsis_nn/Include/arm_nnsupportfunctions.h ****         result = NN_Q31_MAX;
 805:Middlewares/tensorflow/third_party/cmsis_nn/Include/arm_nnsupportfunctions.h ****     }
 806:Middlewares/tensorflow/third_party/cmsis_nn/Include/arm_nnsupportfunctions.h ****     return result;
 807:Middlewares/tensorflow/third_party/cmsis_nn/Include/arm_nnsupportfunctions.h **** }
 808:Middlewares/tensorflow/third_party/cmsis_nn/Include/arm_nnsupportfunctions.h **** 
 809:Middlewares/tensorflow/third_party/cmsis_nn/Include/arm_nnsupportfunctions.h **** /**
 810:Middlewares/tensorflow/third_party/cmsis_nn/Include/arm_nnsupportfunctions.h ****  * @brief           Doubling high multiply without saturation. This is intended
 811:Middlewares/tensorflow/third_party/cmsis_nn/Include/arm_nnsupportfunctions.h ****  *                  for requantization where the scale is a positive integer
 812:Middlewares/tensorflow/third_party/cmsis_nn/Include/arm_nnsupportfunctions.h ****  *
 813:Middlewares/tensorflow/third_party/cmsis_nn/Include/arm_nnsupportfunctions.h ****  * @param[in]       m1        Multiplicand. Range: {NN_Q31_MIN, NN_Q31_MAX}
 814:Middlewares/tensorflow/third_party/cmsis_nn/Include/arm_nnsupportfunctions.h ****  * @param[in]       m2        Multiplier Range: {NN_Q31_MIN, NN_Q31_MAX}
 815:Middlewares/tensorflow/third_party/cmsis_nn/Include/arm_nnsupportfunctions.h ****  * @return          Result of multiplication.
 816:Middlewares/tensorflow/third_party/cmsis_nn/Include/arm_nnsupportfunctions.h ****  * @note            The result of this matches that of neon instruction
 817:Middlewares/tensorflow/third_party/cmsis_nn/Include/arm_nnsupportfunctions.h ****  *                  VQRDMULH for m1 in range {NN_Q31_MIN, NN_Q31_MAX} and m2 in
 818:Middlewares/tensorflow/third_party/cmsis_nn/Include/arm_nnsupportfunctions.h ****  *                  range {NN_Q31_MIN + 1, NN_Q31_MAX}. Saturation occurs when
 819:Middlewares/tensorflow/third_party/cmsis_nn/Include/arm_nnsupportfunctions.h ****  *                  m1 equals m2 equals NN_Q31_MIN and that is not handled by
 820:Middlewares/tensorflow/third_party/cmsis_nn/Include/arm_nnsupportfunctions.h ****  *                  this function.
 821:Middlewares/tensorflow/third_party/cmsis_nn/Include/arm_nnsupportfunctions.h ****  *
 822:Middlewares/tensorflow/third_party/cmsis_nn/Include/arm_nnsupportfunctions.h ****  */
 823:Middlewares/tensorflow/third_party/cmsis_nn/Include/arm_nnsupportfunctions.h **** __STATIC_FORCEINLINE int32_t arm_nn_doubling_high_mult_no_sat(const int32_t m1, const int32_t m2)
ARM GAS  /tmp/ccOcL3QG.s 			page 39


 824:Middlewares/tensorflow/third_party/cmsis_nn/Include/arm_nnsupportfunctions.h **** {
 825:Middlewares/tensorflow/third_party/cmsis_nn/Include/arm_nnsupportfunctions.h ****     int32_t result = 0;
 826:Middlewares/tensorflow/third_party/cmsis_nn/Include/arm_nnsupportfunctions.h ****     union arm_nn_long_long mult;
 827:Middlewares/tensorflow/third_party/cmsis_nn/Include/arm_nnsupportfunctions.h **** 
 828:Middlewares/tensorflow/third_party/cmsis_nn/Include/arm_nnsupportfunctions.h ****     // Rounding offset to add for a right shift of 31
 829:Middlewares/tensorflow/third_party/cmsis_nn/Include/arm_nnsupportfunctions.h ****     mult.word.low = 1 << 30;
 830:Middlewares/tensorflow/third_party/cmsis_nn/Include/arm_nnsupportfunctions.h ****     mult.word.high = 0;
 831:Middlewares/tensorflow/third_party/cmsis_nn/Include/arm_nnsupportfunctions.h **** 
 832:Middlewares/tensorflow/third_party/cmsis_nn/Include/arm_nnsupportfunctions.h ****     // Gets resolved as a SMLAL instruction
 833:Middlewares/tensorflow/third_party/cmsis_nn/Include/arm_nnsupportfunctions.h ****     mult.long_long = mult.long_long + (int64_t)m1 * m2;
 834:Middlewares/tensorflow/third_party/cmsis_nn/Include/arm_nnsupportfunctions.h **** 
 835:Middlewares/tensorflow/third_party/cmsis_nn/Include/arm_nnsupportfunctions.h ****     // Utilize all of the upper 32 bits. This is the doubling step
 836:Middlewares/tensorflow/third_party/cmsis_nn/Include/arm_nnsupportfunctions.h ****     // as well.
 837:Middlewares/tensorflow/third_party/cmsis_nn/Include/arm_nnsupportfunctions.h ****     result = (int32_t)(mult.long_long >> 31);
 838:Middlewares/tensorflow/third_party/cmsis_nn/Include/arm_nnsupportfunctions.h **** 
 839:Middlewares/tensorflow/third_party/cmsis_nn/Include/arm_nnsupportfunctions.h ****     return result;
 840:Middlewares/tensorflow/third_party/cmsis_nn/Include/arm_nnsupportfunctions.h **** }
 841:Middlewares/tensorflow/third_party/cmsis_nn/Include/arm_nnsupportfunctions.h **** 
 842:Middlewares/tensorflow/third_party/cmsis_nn/Include/arm_nnsupportfunctions.h **** /**
 843:Middlewares/tensorflow/third_party/cmsis_nn/Include/arm_nnsupportfunctions.h ****  * @brief           Rounding divide by power of two.
 844:Middlewares/tensorflow/third_party/cmsis_nn/Include/arm_nnsupportfunctions.h ****  * @param[in]       dividend - Dividend
 845:Middlewares/tensorflow/third_party/cmsis_nn/Include/arm_nnsupportfunctions.h ****  * @param[in]       exponent - Divisor = power(2, exponent)
 846:Middlewares/tensorflow/third_party/cmsis_nn/Include/arm_nnsupportfunctions.h ****  *                             Range: [0, 31]
 847:Middlewares/tensorflow/third_party/cmsis_nn/Include/arm_nnsupportfunctions.h ****  * @return          Rounded result of division. Midpoint is rounded away from zero.
 848:Middlewares/tensorflow/third_party/cmsis_nn/Include/arm_nnsupportfunctions.h ****  *
 849:Middlewares/tensorflow/third_party/cmsis_nn/Include/arm_nnsupportfunctions.h ****  */
 850:Middlewares/tensorflow/third_party/cmsis_nn/Include/arm_nnsupportfunctions.h **** __STATIC_FORCEINLINE int32_t arm_nn_divide_by_power_of_two(const int32_t dividend, const int32_t ex
 851:Middlewares/tensorflow/third_party/cmsis_nn/Include/arm_nnsupportfunctions.h **** {
 852:Middlewares/tensorflow/third_party/cmsis_nn/Include/arm_nnsupportfunctions.h ****     int32_t result = 0;
 853:Middlewares/tensorflow/third_party/cmsis_nn/Include/arm_nnsupportfunctions.h ****     const int32_t remainder_mask = (1 << exponent) - 1;
 854:Middlewares/tensorflow/third_party/cmsis_nn/Include/arm_nnsupportfunctions.h ****     int32_t remainder = remainder_mask & dividend;
 855:Middlewares/tensorflow/third_party/cmsis_nn/Include/arm_nnsupportfunctions.h **** 
 856:Middlewares/tensorflow/third_party/cmsis_nn/Include/arm_nnsupportfunctions.h ****     // Basic division
 857:Middlewares/tensorflow/third_party/cmsis_nn/Include/arm_nnsupportfunctions.h ****     result = dividend >> exponent;
 858:Middlewares/tensorflow/third_party/cmsis_nn/Include/arm_nnsupportfunctions.h **** 
 859:Middlewares/tensorflow/third_party/cmsis_nn/Include/arm_nnsupportfunctions.h ****     // Adjust 'result' for rounding (mid point away from zero)
 860:Middlewares/tensorflow/third_party/cmsis_nn/Include/arm_nnsupportfunctions.h ****     int32_t threshold = remainder_mask >> 1;
 861:Middlewares/tensorflow/third_party/cmsis_nn/Include/arm_nnsupportfunctions.h ****     if (result < 0)
 862:Middlewares/tensorflow/third_party/cmsis_nn/Include/arm_nnsupportfunctions.h ****     {
 863:Middlewares/tensorflow/third_party/cmsis_nn/Include/arm_nnsupportfunctions.h ****         threshold++;
 864:Middlewares/tensorflow/third_party/cmsis_nn/Include/arm_nnsupportfunctions.h ****     }
 865:Middlewares/tensorflow/third_party/cmsis_nn/Include/arm_nnsupportfunctions.h ****     if (remainder > threshold)
 866:Middlewares/tensorflow/third_party/cmsis_nn/Include/arm_nnsupportfunctions.h ****     {
 867:Middlewares/tensorflow/third_party/cmsis_nn/Include/arm_nnsupportfunctions.h ****         result++;
 868:Middlewares/tensorflow/third_party/cmsis_nn/Include/arm_nnsupportfunctions.h ****     }
 869:Middlewares/tensorflow/third_party/cmsis_nn/Include/arm_nnsupportfunctions.h **** 
 870:Middlewares/tensorflow/third_party/cmsis_nn/Include/arm_nnsupportfunctions.h ****     return result;
 871:Middlewares/tensorflow/third_party/cmsis_nn/Include/arm_nnsupportfunctions.h **** }
 872:Middlewares/tensorflow/third_party/cmsis_nn/Include/arm_nnsupportfunctions.h **** 
 873:Middlewares/tensorflow/third_party/cmsis_nn/Include/arm_nnsupportfunctions.h **** /**
 874:Middlewares/tensorflow/third_party/cmsis_nn/Include/arm_nnsupportfunctions.h ****  * @brief           Requantize a given value.
 875:Middlewares/tensorflow/third_party/cmsis_nn/Include/arm_nnsupportfunctions.h ****  * @param[in]       val         Value to be requantized
 876:Middlewares/tensorflow/third_party/cmsis_nn/Include/arm_nnsupportfunctions.h ****  * @param[in]       multiplier  multiplier. Range {NN_Q31_MIN + 1, Q32_MAX}
 877:Middlewares/tensorflow/third_party/cmsis_nn/Include/arm_nnsupportfunctions.h ****  * @param[in]       shift       left or right shift for 'val * multiplier'
 878:Middlewares/tensorflow/third_party/cmsis_nn/Include/arm_nnsupportfunctions.h ****  *
 879:Middlewares/tensorflow/third_party/cmsis_nn/Include/arm_nnsupportfunctions.h ****  * @return          Returns (val * multiplier)/(2 ^ shift)
 880:Middlewares/tensorflow/third_party/cmsis_nn/Include/arm_nnsupportfunctions.h ****  *
ARM GAS  /tmp/ccOcL3QG.s 			page 40


 881:Middlewares/tensorflow/third_party/cmsis_nn/Include/arm_nnsupportfunctions.h ****  */
 882:Middlewares/tensorflow/third_party/cmsis_nn/Include/arm_nnsupportfunctions.h **** __STATIC_FORCEINLINE int32_t arm_nn_requantize(const int32_t val, const int32_t multiplier, const i
 883:Middlewares/tensorflow/third_party/cmsis_nn/Include/arm_nnsupportfunctions.h **** {
 884:Middlewares/tensorflow/third_party/cmsis_nn/Include/arm_nnsupportfunctions.h **** #ifdef CMSIS_NN_USE_SINGLE_ROUNDING
 885:Middlewares/tensorflow/third_party/cmsis_nn/Include/arm_nnsupportfunctions.h ****     const int64_t total_shift = 31 - shift;
 886:Middlewares/tensorflow/third_party/cmsis_nn/Include/arm_nnsupportfunctions.h ****     const int64_t new_val = val * (int64_t)multiplier;
 887:Middlewares/tensorflow/third_party/cmsis_nn/Include/arm_nnsupportfunctions.h **** 
 888:Middlewares/tensorflow/third_party/cmsis_nn/Include/arm_nnsupportfunctions.h ****     int32_t result = new_val >> (total_shift - 1);
 889:Middlewares/tensorflow/third_party/cmsis_nn/Include/arm_nnsupportfunctions.h ****     result = (result + 1) >> 1;
 890:Middlewares/tensorflow/third_party/cmsis_nn/Include/arm_nnsupportfunctions.h **** 
 891:Middlewares/tensorflow/third_party/cmsis_nn/Include/arm_nnsupportfunctions.h ****     return result;
 892:Middlewares/tensorflow/third_party/cmsis_nn/Include/arm_nnsupportfunctions.h **** #else
 893:Middlewares/tensorflow/third_party/cmsis_nn/Include/arm_nnsupportfunctions.h ****     return arm_nn_divide_by_power_of_two(arm_nn_doubling_high_mult_no_sat(val * (1 << LEFT_SHIFT(sh
 739              		.loc 2 893 12 view .LVU264
 740 0226 7D42     		rsbs	r5, r7, #0
 741 0228 39E0     		b	.L28
 742              	.LVL98:
 743              	.L64:
 744              	.LBB106:
 745              	.LBB107:
 863:Middlewares/tensorflow/third_party/cmsis_nn/Include/arm_nnsupportfunctions.h ****     }
 746              		.loc 2 863 9 is_stmt 1 view .LVU265
 863:Middlewares/tensorflow/third_party/cmsis_nn/Include/arm_nnsupportfunctions.h ****     }
 747              		.loc 2 863 18 is_stmt 0 view .LVU266
 748 022a 08F10109 		add	r9, r8, #1
 749              	.LVL99:
 863:Middlewares/tensorflow/third_party/cmsis_nn/Include/arm_nnsupportfunctions.h ****     }
 750              		.loc 2 863 18 view .LVU267
 751 022e 40E0     		b	.L29
 752              	.LVL100:
 753              	.L65:
 863:Middlewares/tensorflow/third_party/cmsis_nn/Include/arm_nnsupportfunctions.h ****     }
 754              		.loc 2 863 18 view .LVU268
 755              	.LBE107:
 756              	.LBE106:
 757              	.LBE105:
 758              	.LBE104:
 759              	.LBB113:
 760              	.LBB114:
 761              	.LBB115:
 863:Middlewares/tensorflow/third_party/cmsis_nn/Include/arm_nnsupportfunctions.h ****     }
 762              		.loc 2 863 9 is_stmt 1 view .LVU269
 863:Middlewares/tensorflow/third_party/cmsis_nn/Include/arm_nnsupportfunctions.h ****     }
 763              		.loc 2 863 18 is_stmt 0 view .LVU270
 764 0230 08F10109 		add	r9, r8, #1
 765              	.LVL101:
 863:Middlewares/tensorflow/third_party/cmsis_nn/Include/arm_nnsupportfunctions.h ****     }
 766              		.loc 2 863 18 view .LVU271
 767 0234 52E0     		b	.L32
 768              	.LVL102:
 769              	.L51:
 863:Middlewares/tensorflow/third_party/cmsis_nn/Include/arm_nnsupportfunctions.h ****     }
 770              		.loc 2 863 18 view .LVU272
 771              	.LBE115:
 772              	.LBE114:
 773              	.LBE113:
 231:Middlewares/tensorflow/third_party/cmsis_nn/Source/SVDFunctions/arm_svdf_state_s16_s8.c ****             }
ARM GAS  /tmp/ccOcL3QG.s 			page 41


 232:Middlewares/tensorflow/third_party/cmsis_nn/Source/SVDFunctions/arm_svdf_state_s16_s8.c ****         }
 233:Middlewares/tensorflow/third_party/cmsis_nn/Source/SVDFunctions/arm_svdf_state_s16_s8.c ****     }
 234:Middlewares/tensorflow/third_party/cmsis_nn/Source/SVDFunctions/arm_svdf_state_s16_s8.c **** 
 235:Middlewares/tensorflow/third_party/cmsis_nn/Source/SVDFunctions/arm_svdf_state_s16_s8.c **** #if defined(ARM_MATH_MVEI)
 236:Middlewares/tensorflow/third_party/cmsis_nn/Source/SVDFunctions/arm_svdf_state_s16_s8.c ****     int32_t num_elements = input_batches * unit_count;
 237:Middlewares/tensorflow/third_party/cmsis_nn/Source/SVDFunctions/arm_svdf_state_s16_s8.c ****     const int32_t loop_count = (num_elements + 3) / 4;
 238:Middlewares/tensorflow/third_party/cmsis_nn/Source/SVDFunctions/arm_svdf_state_s16_s8.c ****     for (int i_op = 0; i_op < loop_count; i_op++)
 239:Middlewares/tensorflow/third_party/cmsis_nn/Source/SVDFunctions/arm_svdf_state_s16_s8.c ****     {
 240:Middlewares/tensorflow/third_party/cmsis_nn/Source/SVDFunctions/arm_svdf_state_s16_s8.c ****         mve_pred16_t p = vctp32q((uint32_t)num_elements);
 241:Middlewares/tensorflow/third_party/cmsis_nn/Source/SVDFunctions/arm_svdf_state_s16_s8.c ****         int32x4_t op = vldrwq_z_s32(buffer_b, p);
 242:Middlewares/tensorflow/third_party/cmsis_nn/Source/SVDFunctions/arm_svdf_state_s16_s8.c ****         op = arm_requantize_mve(op, multiplier_out, shift_2);
 243:Middlewares/tensorflow/third_party/cmsis_nn/Source/SVDFunctions/arm_svdf_state_s16_s8.c ****         op = vaddq_n_s32(op, zp_out);
 244:Middlewares/tensorflow/third_party/cmsis_nn/Source/SVDFunctions/arm_svdf_state_s16_s8.c ****         const int32x4_t min_vec = vdupq_n_s32((int8_t)out_activation_min);
 245:Middlewares/tensorflow/third_party/cmsis_nn/Source/SVDFunctions/arm_svdf_state_s16_s8.c ****         const int32x4_t max_vec = vdupq_n_s32((int8_t)out_activation_max);
 246:Middlewares/tensorflow/third_party/cmsis_nn/Source/SVDFunctions/arm_svdf_state_s16_s8.c ****         op = vmaxq_s32(op, min_vec);
 247:Middlewares/tensorflow/third_party/cmsis_nn/Source/SVDFunctions/arm_svdf_state_s16_s8.c ****         op = vminq_s32(op, max_vec);
 248:Middlewares/tensorflow/third_party/cmsis_nn/Source/SVDFunctions/arm_svdf_state_s16_s8.c ****         vstrbq_p_s32(output_data, op, p);
 249:Middlewares/tensorflow/third_party/cmsis_nn/Source/SVDFunctions/arm_svdf_state_s16_s8.c ****         output_data += 4;
 250:Middlewares/tensorflow/third_party/cmsis_nn/Source/SVDFunctions/arm_svdf_state_s16_s8.c ****         buffer_b += 4;
 251:Middlewares/tensorflow/third_party/cmsis_nn/Source/SVDFunctions/arm_svdf_state_s16_s8.c ****         num_elements -= 4;
 252:Middlewares/tensorflow/third_party/cmsis_nn/Source/SVDFunctions/arm_svdf_state_s16_s8.c ****     }
 253:Middlewares/tensorflow/third_party/cmsis_nn/Source/SVDFunctions/arm_svdf_state_s16_s8.c **** #else
 254:Middlewares/tensorflow/third_party/cmsis_nn/Source/SVDFunctions/arm_svdf_state_s16_s8.c ****     for (int i = 0; i < input_batches * unit_count; i++)
 255:Middlewares/tensorflow/third_party/cmsis_nn/Source/SVDFunctions/arm_svdf_state_s16_s8.c ****     {
 256:Middlewares/tensorflow/third_party/cmsis_nn/Source/SVDFunctions/arm_svdf_state_s16_s8.c ****         output_data[i] = (int8_t)CLAMP(
 774              		.loc 1 256 34 view .LVU273
 775 0236 F146     		mov	r9, lr
 776 0238 55E0     		b	.L31
 777              	.LVL103:
 778              	.L66:
 779              	.LBB120:
 780              	.LBB121:
 781              	.LBB122:
 863:Middlewares/tensorflow/third_party/cmsis_nn/Include/arm_nnsupportfunctions.h ****     }
 782              		.loc 2 863 9 is_stmt 1 view .LVU274
 863:Middlewares/tensorflow/third_party/cmsis_nn/Include/arm_nnsupportfunctions.h ****     }
 783              		.loc 2 863 18 is_stmt 0 view .LVU275
 784 023a 08F10109 		add	r9, r8, #1
 785              	.LVL104:
 863:Middlewares/tensorflow/third_party/cmsis_nn/Include/arm_nnsupportfunctions.h ****     }
 786              		.loc 2 863 18 view .LVU276
 787 023e 64E0     		b	.L35
 788              	.LVL105:
 789              	.L67:
 863:Middlewares/tensorflow/third_party/cmsis_nn/Include/arm_nnsupportfunctions.h ****     }
 790              		.loc 2 863 18 view .LVU277
 791              	.LBE122:
 792              	.LBE121:
 793              	.LBE120:
 794              	.LBB129:
 795              	.LBB130:
 796              	.LBB131:
 863:Middlewares/tensorflow/third_party/cmsis_nn/Include/arm_nnsupportfunctions.h ****     }
 797              		.loc 2 863 9 is_stmt 1 view .LVU278
 863:Middlewares/tensorflow/third_party/cmsis_nn/Include/arm_nnsupportfunctions.h ****     }
 798              		.loc 2 863 18 is_stmt 0 view .LVU279
 799 0240 08F10108 		add	r8, r8, #1
ARM GAS  /tmp/ccOcL3QG.s 			page 42


 800              	.LVL106:
 863:Middlewares/tensorflow/third_party/cmsis_nn/Include/arm_nnsupportfunctions.h ****     }
 801              		.loc 2 863 18 view .LVU280
 802 0244 74E0     		b	.L38
 803              	.LVL107:
 804              	.L37:
 863:Middlewares/tensorflow/third_party/cmsis_nn/Include/arm_nnsupportfunctions.h ****     }
 805              		.loc 2 863 18 view .LVU281
 806              	.LBE131:
 807              	.LBE130:
 808              	.LBE129:
 809              		.loc 1 256 26 discriminator 8 view .LVU282
 810 0246 4FFA8EF3 		sxtb	r3, lr
 811 024a 01E0     		b	.L40
 812              	.L34:
 813              		.loc 1 256 26 discriminator 6 view .LVU283
 814 024c 9DF93430 		ldrsb	r3, [sp, #52]
 815              	.L40:
 816              		.loc 1 256 24 discriminator 12 view .LVU284
 817 0250 2C99     		ldr	r1, [sp, #176]
 818 0252 0898     		ldr	r0, [sp, #32]
 819 0254 0B54     		strb	r3, [r1, r0]
 254:Middlewares/tensorflow/third_party/cmsis_nn/Source/SVDFunctions/arm_svdf_state_s16_s8.c ****     {
 820              		.loc 1 254 53 is_stmt 1 discriminator 12 view .LVU285
 254:Middlewares/tensorflow/third_party/cmsis_nn/Source/SVDFunctions/arm_svdf_state_s16_s8.c ****     {
 821              		.loc 1 254 54 is_stmt 0 discriminator 12 view .LVU286
 822 0256 0132     		adds	r2, r2, #1
 823              	.LVL108:
 824              	.L41:
 254:Middlewares/tensorflow/third_party/cmsis_nn/Source/SVDFunctions/arm_svdf_state_s16_s8.c ****     {
 825              		.loc 1 254 21 is_stmt 1 discriminator 2 view .LVU287
 254:Middlewares/tensorflow/third_party/cmsis_nn/Source/SVDFunctions/arm_svdf_state_s16_s8.c ****     {
 826              		.loc 1 254 39 is_stmt 0 discriminator 2 view .LVU288
 827 0258 0E9B     		ldr	r3, [sp, #56]
 828 025a 0C99     		ldr	r1, [sp, #48]
 829 025c 03FB01F3 		mul	r3, r3, r1
 254:Middlewares/tensorflow/third_party/cmsis_nn/Source/SVDFunctions/arm_svdf_state_s16_s8.c ****     {
 830              		.loc 1 254 5 discriminator 2 view .LVU289
 831 0260 9342     		cmp	r3, r2
 832 0262 73DD     		ble	.L62
 833              		.loc 1 256 9 is_stmt 1 view .LVU290
 834              		.loc 1 256 34 is_stmt 0 view .LVU291
 835 0264 0892     		str	r2, [sp, #32]
 836 0266 5BF82230 		ldr	r3, [fp, r2, lsl #2]
 837              	.LVL109:
 838              	.LBB136:
 839              	.LBI104:
 882:Middlewares/tensorflow/third_party/cmsis_nn/Include/arm_nnsupportfunctions.h **** {
 840              		.loc 2 882 30 is_stmt 1 view .LVU292
 841              	.LBB112:
 842              		.loc 2 893 5 view .LVU293
 843              		.loc 2 893 87 is_stmt 0 view .LVU294
 844 026a 27EAE770 		bic	r0, r7, r7, asr #31
 845              		.loc 2 893 12 view .LVU295
 846 026e 03FA00F0 		lsl	r0, r3, r0
 847              	.LVL110:
 848              	.LBB109:
ARM GAS  /tmp/ccOcL3QG.s 			page 43


 849              	.LBI109:
 823:Middlewares/tensorflow/third_party/cmsis_nn/Include/arm_nnsupportfunctions.h **** {
 850              		.loc 2 823 30 is_stmt 1 view .LVU296
 851              	.LBB110:
 825:Middlewares/tensorflow/third_party/cmsis_nn/Include/arm_nnsupportfunctions.h ****     union arm_nn_long_long mult;
 852              		.loc 2 825 5 view .LVU297
 826:Middlewares/tensorflow/third_party/cmsis_nn/Include/arm_nnsupportfunctions.h **** 
 853              		.loc 2 826 5 view .LVU298
 829:Middlewares/tensorflow/third_party/cmsis_nn/Include/arm_nnsupportfunctions.h ****     mult.word.high = 0;
 854              		.loc 2 829 5 view .LVU299
 830:Middlewares/tensorflow/third_party/cmsis_nn/Include/arm_nnsupportfunctions.h **** 
 855              		.loc 2 830 5 view .LVU300
 833:Middlewares/tensorflow/third_party/cmsis_nn/Include/arm_nnsupportfunctions.h **** 
 856              		.loc 2 833 5 view .LVU301
 833:Middlewares/tensorflow/third_party/cmsis_nn/Include/arm_nnsupportfunctions.h **** 
 857              		.loc 2 833 26 is_stmt 0 view .LVU302
 858 0272 4FF08043 		mov	r3, #1073741824
 859              	.LVL111:
 833:Middlewares/tensorflow/third_party/cmsis_nn/Include/arm_nnsupportfunctions.h **** 
 860              		.loc 2 833 26 view .LVU303
 861 0276 4FF00008 		mov	r8, #0
 833:Middlewares/tensorflow/third_party/cmsis_nn/Include/arm_nnsupportfunctions.h **** 
 862              		.loc 2 833 39 view .LVU304
 863 027a C517     		asrs	r5, r0, #31
 833:Middlewares/tensorflow/third_party/cmsis_nn/Include/arm_nnsupportfunctions.h **** 
 864              		.loc 2 833 51 view .LVU305
 865 027c 06FB05F1 		mul	r1, r6, r5
 866 0280 F517     		asrs	r5, r6, #31
 867 0282 00FB0514 		mla	r4, r0, r5, r1
 868 0286 A6FB0001 		umull	r0, r1, r6, r0
 869              	.LVL112:
 833:Middlewares/tensorflow/third_party/cmsis_nn/Include/arm_nnsupportfunctions.h **** 
 870              		.loc 2 833 51 view .LVU306
 871 028a 2144     		add	r1, r1, r4
 833:Middlewares/tensorflow/third_party/cmsis_nn/Include/arm_nnsupportfunctions.h **** 
 872              		.loc 2 833 37 view .LVU307
 873 028c 1B18     		adds	r3, r3, r0
 874 028e 48EB0108 		adc	r8, r8, r1
 837:Middlewares/tensorflow/third_party/cmsis_nn/Include/arm_nnsupportfunctions.h **** 
 875              		.loc 2 837 5 is_stmt 1 view .LVU308
 837:Middlewares/tensorflow/third_party/cmsis_nn/Include/arm_nnsupportfunctions.h **** 
 876              		.loc 2 837 39 is_stmt 0 view .LVU309
 877 0292 DB0F     		lsrs	r3, r3, #31
 878 0294 43EA4803 		orr	r3, r3, r8, lsl #1
 879              	.LVL113:
 839:Middlewares/tensorflow/third_party/cmsis_nn/Include/arm_nnsupportfunctions.h **** }
 880              		.loc 2 839 5 is_stmt 1 view .LVU310
 839:Middlewares/tensorflow/third_party/cmsis_nn/Include/arm_nnsupportfunctions.h **** }
 881              		.loc 2 839 5 is_stmt 0 view .LVU311
 882              	.LBE110:
 883              	.LBE109:
 884              		.loc 2 893 12 view .LVU312
 885 0298 002F     		cmp	r7, #0
 886 029a C4DD     		ble	.L63
 887              		.loc 2 893 12 view .LVU313
 888 029c 0025     		movs	r5, #0
 889              	.L28:
ARM GAS  /tmp/ccOcL3QG.s 			page 44


 890              	.LVL114:
 891              	.LBB111:
 892              	.LBI106:
 850:Middlewares/tensorflow/third_party/cmsis_nn/Include/arm_nnsupportfunctions.h **** {
 893              		.loc 2 850 30 is_stmt 1 view .LVU314
 894              	.LBB108:
 852:Middlewares/tensorflow/third_party/cmsis_nn/Include/arm_nnsupportfunctions.h ****     const int32_t remainder_mask = (1 << exponent) - 1;
 895              		.loc 2 852 5 view .LVU315
 853:Middlewares/tensorflow/third_party/cmsis_nn/Include/arm_nnsupportfunctions.h ****     int32_t remainder = remainder_mask & dividend;
 896              		.loc 2 853 5 view .LVU316
 853:Middlewares/tensorflow/third_party/cmsis_nn/Include/arm_nnsupportfunctions.h ****     int32_t remainder = remainder_mask & dividend;
 897              		.loc 2 853 39 is_stmt 0 view .LVU317
 898 029e 0124     		movs	r4, #1
 899 02a0 AC40     		lsls	r4, r4, r5
 853:Middlewares/tensorflow/third_party/cmsis_nn/Include/arm_nnsupportfunctions.h ****     int32_t remainder = remainder_mask & dividend;
 900              		.loc 2 853 19 view .LVU318
 901 02a2 013C     		subs	r4, r4, #1
 902              	.LVL115:
 854:Middlewares/tensorflow/third_party/cmsis_nn/Include/arm_nnsupportfunctions.h **** 
 903              		.loc 2 854 5 is_stmt 1 view .LVU319
 854:Middlewares/tensorflow/third_party/cmsis_nn/Include/arm_nnsupportfunctions.h **** 
 904              		.loc 2 854 13 is_stmt 0 view .LVU320
 905 02a4 03EA040A 		and	r10, r3, r4
 906              	.LVL116:
 857:Middlewares/tensorflow/third_party/cmsis_nn/Include/arm_nnsupportfunctions.h **** 
 907              		.loc 2 857 5 is_stmt 1 view .LVU321
 860:Middlewares/tensorflow/third_party/cmsis_nn/Include/arm_nnsupportfunctions.h ****     if (result < 0)
 908              		.loc 2 860 5 view .LVU322
 860:Middlewares/tensorflow/third_party/cmsis_nn/Include/arm_nnsupportfunctions.h ****     if (result < 0)
 909              		.loc 2 860 13 is_stmt 0 view .LVU323
 910 02a8 4FEA6408 		asr	r8, r4, #1
 911              	.LVL117:
 861:Middlewares/tensorflow/third_party/cmsis_nn/Include/arm_nnsupportfunctions.h ****     {
 912              		.loc 2 861 5 is_stmt 1 view .LVU324
 861:Middlewares/tensorflow/third_party/cmsis_nn/Include/arm_nnsupportfunctions.h ****     {
 913              		.loc 2 861 8 is_stmt 0 view .LVU325
 914 02ac 2B41     		asrs	r3, r3, r5
 915              	.LVL118:
 861:Middlewares/tensorflow/third_party/cmsis_nn/Include/arm_nnsupportfunctions.h ****     {
 916              		.loc 2 861 8 view .LVU326
 917 02ae BCD4     		bmi	.L64
 860:Middlewares/tensorflow/third_party/cmsis_nn/Include/arm_nnsupportfunctions.h ****     if (result < 0)
 918              		.loc 2 860 13 view .LVU327
 919 02b0 C146     		mov	r9, r8
 920              	.LVL119:
 921              	.L29:
 865:Middlewares/tensorflow/third_party/cmsis_nn/Include/arm_nnsupportfunctions.h ****     {
 922              		.loc 2 865 5 is_stmt 1 view .LVU328
 865:Middlewares/tensorflow/third_party/cmsis_nn/Include/arm_nnsupportfunctions.h ****     {
 923              		.loc 2 865 8 is_stmt 0 view .LVU329
 924 02b2 CA45     		cmp	r10, r9
 925 02b4 00DD     		ble	.L30
 867:Middlewares/tensorflow/third_party/cmsis_nn/Include/arm_nnsupportfunctions.h ****     }
 926              		.loc 2 867 9 is_stmt 1 view .LVU330
 867:Middlewares/tensorflow/third_party/cmsis_nn/Include/arm_nnsupportfunctions.h ****     }
 927              		.loc 2 867 15 is_stmt 0 view .LVU331
 928 02b6 0133     		adds	r3, r3, #1
ARM GAS  /tmp/ccOcL3QG.s 			page 45


 929              	.LVL120:
 930              	.L30:
 870:Middlewares/tensorflow/third_party/cmsis_nn/Include/arm_nnsupportfunctions.h **** }
 931              		.loc 2 870 5 is_stmt 1 view .LVU332
 870:Middlewares/tensorflow/third_party/cmsis_nn/Include/arm_nnsupportfunctions.h **** }
 932              		.loc 2 870 5 is_stmt 0 view .LVU333
 933              	.LBE108:
 934              	.LBE111:
 935              	.LBE112:
 936              	.LBE136:
 937              		.loc 1 256 34 view .LVU334
 938 02b8 6344     		add	r3, r3, ip
 939 02ba 7345     		cmp	r3, lr
 940 02bc BBDA     		bge	.L51
 941              	.LVL121:
 942              	.LBB137:
 943              	.LBI113:
 882:Middlewares/tensorflow/third_party/cmsis_nn/Include/arm_nnsupportfunctions.h **** {
 944              		.loc 2 882 30 is_stmt 1 discriminator 1 view .LVU335
 945              	.LBE137:
 946              	.LBE103:
 947              		.loc 2 893 5 discriminator 1 view .LVU336
 948              	.LBB144:
 949              	.LBB138:
 950              	.LBB117:
 951              	.LBI117:
 823:Middlewares/tensorflow/third_party/cmsis_nn/Include/arm_nnsupportfunctions.h **** {
 952              		.loc 2 823 30 discriminator 1 view .LVU337
 953              	.LBB118:
 825:Middlewares/tensorflow/third_party/cmsis_nn/Include/arm_nnsupportfunctions.h ****     union arm_nn_long_long mult;
 954              		.loc 2 825 5 discriminator 1 view .LVU338
 826:Middlewares/tensorflow/third_party/cmsis_nn/Include/arm_nnsupportfunctions.h **** 
 955              		.loc 2 826 5 discriminator 1 view .LVU339
 829:Middlewares/tensorflow/third_party/cmsis_nn/Include/arm_nnsupportfunctions.h ****     mult.word.high = 0;
 956              		.loc 2 829 5 discriminator 1 view .LVU340
 830:Middlewares/tensorflow/third_party/cmsis_nn/Include/arm_nnsupportfunctions.h **** 
 957              		.loc 2 830 5 discriminator 1 view .LVU341
 833:Middlewares/tensorflow/third_party/cmsis_nn/Include/arm_nnsupportfunctions.h **** 
 958              		.loc 2 833 5 discriminator 1 view .LVU342
 833:Middlewares/tensorflow/third_party/cmsis_nn/Include/arm_nnsupportfunctions.h **** 
 959              		.loc 2 833 26 is_stmt 0 discriminator 1 view .LVU343
 960 02be 4FF08043 		mov	r3, #1073741824
 961 02c2 4FF00009 		mov	r9, #0
 833:Middlewares/tensorflow/third_party/cmsis_nn/Include/arm_nnsupportfunctions.h **** 
 962              		.loc 2 833 37 discriminator 1 view .LVU344
 963 02c6 C318     		adds	r3, r0, r3
 964 02c8 41EB0909 		adc	r9, r1, r9
 837:Middlewares/tensorflow/third_party/cmsis_nn/Include/arm_nnsupportfunctions.h **** 
 965              		.loc 2 837 5 is_stmt 1 discriminator 1 view .LVU345
 837:Middlewares/tensorflow/third_party/cmsis_nn/Include/arm_nnsupportfunctions.h **** 
 966              		.loc 2 837 39 is_stmt 0 discriminator 1 view .LVU346
 967 02cc DB0F     		lsrs	r3, r3, #31
 968 02ce 43EA4903 		orr	r3, r3, r9, lsl #1
 969              	.LVL122:
 839:Middlewares/tensorflow/third_party/cmsis_nn/Include/arm_nnsupportfunctions.h **** }
 970              		.loc 2 839 5 is_stmt 1 discriminator 1 view .LVU347
 839:Middlewares/tensorflow/third_party/cmsis_nn/Include/arm_nnsupportfunctions.h **** }
ARM GAS  /tmp/ccOcL3QG.s 			page 46


 971              		.loc 2 839 5 is_stmt 0 discriminator 1 view .LVU348
 972              	.LBE118:
 973              	.LBE117:
 974              	.LBB119:
 975              	.LBI114:
 850:Middlewares/tensorflow/third_party/cmsis_nn/Include/arm_nnsupportfunctions.h **** {
 976              		.loc 2 850 30 is_stmt 1 discriminator 1 view .LVU349
 977              	.LBB116:
 852:Middlewares/tensorflow/third_party/cmsis_nn/Include/arm_nnsupportfunctions.h ****     const int32_t remainder_mask = (1 << exponent) - 1;
 978              		.loc 2 852 5 discriminator 1 view .LVU350
 853:Middlewares/tensorflow/third_party/cmsis_nn/Include/arm_nnsupportfunctions.h ****     int32_t remainder = remainder_mask & dividend;
 979              		.loc 2 853 5 discriminator 1 view .LVU351
 854:Middlewares/tensorflow/third_party/cmsis_nn/Include/arm_nnsupportfunctions.h **** 
 980              		.loc 2 854 5 discriminator 1 view .LVU352
 854:Middlewares/tensorflow/third_party/cmsis_nn/Include/arm_nnsupportfunctions.h **** 
 981              		.loc 2 854 13 is_stmt 0 discriminator 1 view .LVU353
 982 02d2 04EA030A 		and	r10, r4, r3
 983              	.LVL123:
 857:Middlewares/tensorflow/third_party/cmsis_nn/Include/arm_nnsupportfunctions.h **** 
 984              		.loc 2 857 5 is_stmt 1 discriminator 1 view .LVU354
 860:Middlewares/tensorflow/third_party/cmsis_nn/Include/arm_nnsupportfunctions.h ****     if (result < 0)
 985              		.loc 2 860 5 discriminator 1 view .LVU355
 861:Middlewares/tensorflow/third_party/cmsis_nn/Include/arm_nnsupportfunctions.h ****     {
 986              		.loc 2 861 5 discriminator 1 view .LVU356
 861:Middlewares/tensorflow/third_party/cmsis_nn/Include/arm_nnsupportfunctions.h ****     {
 987              		.loc 2 861 8 is_stmt 0 discriminator 1 view .LVU357
 988 02d6 2B41     		asrs	r3, r3, r5
 989              	.LVL124:
 861:Middlewares/tensorflow/third_party/cmsis_nn/Include/arm_nnsupportfunctions.h ****     {
 990              		.loc 2 861 8 discriminator 1 view .LVU358
 991 02d8 AAD4     		bmi	.L65
 860:Middlewares/tensorflow/third_party/cmsis_nn/Include/arm_nnsupportfunctions.h ****     if (result < 0)
