ARM GAS  /tmp/ccRtV34n.s 			page 1


   1              		.cpu cortex-m4
   2              		.eabi_attribute 27, 1
   3              		.eabi_attribute 28, 1
   4              		.eabi_attribute 20, 1
   5              		.eabi_attribute 21, 1
   6              		.eabi_attribute 23, 3
   7              		.eabi_attribute 24, 1
   8              		.eabi_attribute 25, 1
   9              		.eabi_attribute 26, 1
  10              		.eabi_attribute 30, 1
  11              		.eabi_attribute 34, 1
  12              		.eabi_attribute 18, 4
  13              		.file	"arm_elementwise_mul_s8.c"
  14              		.text
  15              	.Ltext0:
  16              		.cfi_sections	.debug_frame
  17              		.section	.text.arm_elementwise_mul_s8,"ax",%progbits
  18              		.align	1
  19              		.global	arm_elementwise_mul_s8
  20              		.arch armv7e-m
  21              		.syntax unified
  22              		.thumb
  23              		.thumb_func
  24              		.fpu fpv4-sp-d16
  26              	arm_elementwise_mul_s8:
  27              	.LVL0:
  28              	.LFB47:
  29              		.file 1 "Middlewares/tensorflow/third_party/cmsis_nn/Source/BasicMathFunctions/arm_elementwise_mul
   1:Middlewares/tensorflow/third_party/cmsis_nn/Source/BasicMathFunctions/arm_elementwise_mul_s8.c **** /*
   2:Middlewares/tensorflow/third_party/cmsis_nn/Source/BasicMathFunctions/arm_elementwise_mul_s8.c ****  * SPDX-FileCopyrightText: Copyright 2010-2023 Arm Limited and/or its affiliates <open-source-offic
   3:Middlewares/tensorflow/third_party/cmsis_nn/Source/BasicMathFunctions/arm_elementwise_mul_s8.c ****  *
   4:Middlewares/tensorflow/third_party/cmsis_nn/Source/BasicMathFunctions/arm_elementwise_mul_s8.c ****  * SPDX-License-Identifier: Apache-2.0
   5:Middlewares/tensorflow/third_party/cmsis_nn/Source/BasicMathFunctions/arm_elementwise_mul_s8.c ****  *
   6:Middlewares/tensorflow/third_party/cmsis_nn/Source/BasicMathFunctions/arm_elementwise_mul_s8.c ****  * Licensed under the Apache License, Version 2.0 (the License); you may
   7:Middlewares/tensorflow/third_party/cmsis_nn/Source/BasicMathFunctions/arm_elementwise_mul_s8.c ****  * not use this file except in compliance with the License.
   8:Middlewares/tensorflow/third_party/cmsis_nn/Source/BasicMathFunctions/arm_elementwise_mul_s8.c ****  * You may obtain a copy of the License at
   9:Middlewares/tensorflow/third_party/cmsis_nn/Source/BasicMathFunctions/arm_elementwise_mul_s8.c ****  *
  10:Middlewares/tensorflow/third_party/cmsis_nn/Source/BasicMathFunctions/arm_elementwise_mul_s8.c ****  * www.apache.org/licenses/LICENSE-2.0
  11:Middlewares/tensorflow/third_party/cmsis_nn/Source/BasicMathFunctions/arm_elementwise_mul_s8.c ****  *
  12:Middlewares/tensorflow/third_party/cmsis_nn/Source/BasicMathFunctions/arm_elementwise_mul_s8.c ****  * Unless required by applicable law or agreed to in writing, software
  13:Middlewares/tensorflow/third_party/cmsis_nn/Source/BasicMathFunctions/arm_elementwise_mul_s8.c ****  * distributed under the License is distributed on an AS IS BASIS, WITHOUT
  14:Middlewares/tensorflow/third_party/cmsis_nn/Source/BasicMathFunctions/arm_elementwise_mul_s8.c ****  * WARRANTIES OR CONDITIONS OF ANY KIND, either express or implied.
  15:Middlewares/tensorflow/third_party/cmsis_nn/Source/BasicMathFunctions/arm_elementwise_mul_s8.c ****  * See the License for the specific language governing permissions and
  16:Middlewares/tensorflow/third_party/cmsis_nn/Source/BasicMathFunctions/arm_elementwise_mul_s8.c ****  * limitations under the License.
  17:Middlewares/tensorflow/third_party/cmsis_nn/Source/BasicMathFunctions/arm_elementwise_mul_s8.c ****  */
  18:Middlewares/tensorflow/third_party/cmsis_nn/Source/BasicMathFunctions/arm_elementwise_mul_s8.c **** 
  19:Middlewares/tensorflow/third_party/cmsis_nn/Source/BasicMathFunctions/arm_elementwise_mul_s8.c **** /* ----------------------------------------------------------------------
  20:Middlewares/tensorflow/third_party/cmsis_nn/Source/BasicMathFunctions/arm_elementwise_mul_s8.c ****  * Project:      CMSIS NN Library
  21:Middlewares/tensorflow/third_party/cmsis_nn/Source/BasicMathFunctions/arm_elementwise_mul_s8.c ****  * Title:        arm_elementwise_mul_s8
  22:Middlewares/tensorflow/third_party/cmsis_nn/Source/BasicMathFunctions/arm_elementwise_mul_s8.c ****  * Description:  Element wise multiplication
  23:Middlewares/tensorflow/third_party/cmsis_nn/Source/BasicMathFunctions/arm_elementwise_mul_s8.c ****  *
  24:Middlewares/tensorflow/third_party/cmsis_nn/Source/BasicMathFunctions/arm_elementwise_mul_s8.c ****  * $Date:        20 January 2023
  25:Middlewares/tensorflow/third_party/cmsis_nn/Source/BasicMathFunctions/arm_elementwise_mul_s8.c ****  * $Revision:    V.2.2.0
  26:Middlewares/tensorflow/third_party/cmsis_nn/Source/BasicMathFunctions/arm_elementwise_mul_s8.c ****  *
  27:Middlewares/tensorflow/third_party/cmsis_nn/Source/BasicMathFunctions/arm_elementwise_mul_s8.c ****  * Target :  Arm(R) M-Profile Architecture
  28:Middlewares/tensorflow/third_party/cmsis_nn/Source/BasicMathFunctions/arm_elementwise_mul_s8.c ****  *
  29:Middlewares/tensorflow/third_party/cmsis_nn/Source/BasicMathFunctions/arm_elementwise_mul_s8.c ****  * -------------------------------------------------------------------- */
ARM GAS  /tmp/ccRtV34n.s 			page 2


  30:Middlewares/tensorflow/third_party/cmsis_nn/Source/BasicMathFunctions/arm_elementwise_mul_s8.c **** 
  31:Middlewares/tensorflow/third_party/cmsis_nn/Source/BasicMathFunctions/arm_elementwise_mul_s8.c **** #include "arm_nnfunctions.h"
  32:Middlewares/tensorflow/third_party/cmsis_nn/Source/BasicMathFunctions/arm_elementwise_mul_s8.c **** #include "arm_nnsupportfunctions.h"
  33:Middlewares/tensorflow/third_party/cmsis_nn/Source/BasicMathFunctions/arm_elementwise_mul_s8.c **** 
  34:Middlewares/tensorflow/third_party/cmsis_nn/Source/BasicMathFunctions/arm_elementwise_mul_s8.c **** /**
  35:Middlewares/tensorflow/third_party/cmsis_nn/Source/BasicMathFunctions/arm_elementwise_mul_s8.c ****  *  @ingroup Public
  36:Middlewares/tensorflow/third_party/cmsis_nn/Source/BasicMathFunctions/arm_elementwise_mul_s8.c ****  */
  37:Middlewares/tensorflow/third_party/cmsis_nn/Source/BasicMathFunctions/arm_elementwise_mul_s8.c **** 
  38:Middlewares/tensorflow/third_party/cmsis_nn/Source/BasicMathFunctions/arm_elementwise_mul_s8.c **** /**
  39:Middlewares/tensorflow/third_party/cmsis_nn/Source/BasicMathFunctions/arm_elementwise_mul_s8.c ****  * @addtogroup groupElementwise
  40:Middlewares/tensorflow/third_party/cmsis_nn/Source/BasicMathFunctions/arm_elementwise_mul_s8.c ****  * @{
  41:Middlewares/tensorflow/third_party/cmsis_nn/Source/BasicMathFunctions/arm_elementwise_mul_s8.c ****  */
  42:Middlewares/tensorflow/third_party/cmsis_nn/Source/BasicMathFunctions/arm_elementwise_mul_s8.c **** 
  43:Middlewares/tensorflow/third_party/cmsis_nn/Source/BasicMathFunctions/arm_elementwise_mul_s8.c **** /*
  44:Middlewares/tensorflow/third_party/cmsis_nn/Source/BasicMathFunctions/arm_elementwise_mul_s8.c ****  * s8 element wise multiplication of two vectors
  45:Middlewares/tensorflow/third_party/cmsis_nn/Source/BasicMathFunctions/arm_elementwise_mul_s8.c ****  *
  46:Middlewares/tensorflow/third_party/cmsis_nn/Source/BasicMathFunctions/arm_elementwise_mul_s8.c ****  * Refer header file for details.
  47:Middlewares/tensorflow/third_party/cmsis_nn/Source/BasicMathFunctions/arm_elementwise_mul_s8.c ****  *
  48:Middlewares/tensorflow/third_party/cmsis_nn/Source/BasicMathFunctions/arm_elementwise_mul_s8.c ****  */
  49:Middlewares/tensorflow/third_party/cmsis_nn/Source/BasicMathFunctions/arm_elementwise_mul_s8.c **** 
  50:Middlewares/tensorflow/third_party/cmsis_nn/Source/BasicMathFunctions/arm_elementwise_mul_s8.c **** arm_cmsis_nn_status arm_elementwise_mul_s8(const int8_t *input_1_vect,
  51:Middlewares/tensorflow/third_party/cmsis_nn/Source/BasicMathFunctions/arm_elementwise_mul_s8.c ****                                            const int8_t *input_2_vect,
  52:Middlewares/tensorflow/third_party/cmsis_nn/Source/BasicMathFunctions/arm_elementwise_mul_s8.c ****                                            const int32_t input_1_offset,
  53:Middlewares/tensorflow/third_party/cmsis_nn/Source/BasicMathFunctions/arm_elementwise_mul_s8.c ****                                            const int32_t input_2_offset,
  54:Middlewares/tensorflow/third_party/cmsis_nn/Source/BasicMathFunctions/arm_elementwise_mul_s8.c ****                                            int8_t *output,
  55:Middlewares/tensorflow/third_party/cmsis_nn/Source/BasicMathFunctions/arm_elementwise_mul_s8.c ****                                            const int32_t out_offset,
  56:Middlewares/tensorflow/third_party/cmsis_nn/Source/BasicMathFunctions/arm_elementwise_mul_s8.c ****                                            const int32_t out_mult,
  57:Middlewares/tensorflow/third_party/cmsis_nn/Source/BasicMathFunctions/arm_elementwise_mul_s8.c ****                                            const int32_t out_shift,
  58:Middlewares/tensorflow/third_party/cmsis_nn/Source/BasicMathFunctions/arm_elementwise_mul_s8.c ****                                            const int32_t out_activation_min,
  59:Middlewares/tensorflow/third_party/cmsis_nn/Source/BasicMathFunctions/arm_elementwise_mul_s8.c ****                                            const int32_t out_activation_max,
  60:Middlewares/tensorflow/third_party/cmsis_nn/Source/BasicMathFunctions/arm_elementwise_mul_s8.c ****                                            const int32_t block_size)
  61:Middlewares/tensorflow/third_party/cmsis_nn/Source/BasicMathFunctions/arm_elementwise_mul_s8.c **** {
  30              		.loc 1 61 1 view -0
  31              		.cfi_startproc
  32              		@ args = 28, pretend = 0, frame = 56
  33              		@ frame_needed = 0, uses_anonymous_args = 0
  34              		.loc 1 61 1 is_stmt 0 view .LVU1
  35 0000 2DE9F04F 		push	{r4, r5, r6, r7, r8, r9, r10, fp, lr}
  36              	.LCFI0:
  37              		.cfi_def_cfa_offset 36
  38              		.cfi_offset 4, -36
  39              		.cfi_offset 5, -32
  40              		.cfi_offset 6, -28
  41              		.cfi_offset 7, -24
  42              		.cfi_offset 8, -20
  43              		.cfi_offset 9, -16
  44              		.cfi_offset 10, -12
  45              		.cfi_offset 11, -8
  46              		.cfi_offset 14, -4
  47 0004 8FB0     		sub	sp, sp, #60
  48              	.LCFI1:
  49              		.cfi_def_cfa_offset 96
  50 0006 0690     		str	r0, [sp, #24]
  51 0008 0791     		str	r1, [sp, #28]
  52 000a 0C92     		str	r2, [sp, #48]
  53 000c 1946     		mov	r1, r3
  54              	.LVL1:
ARM GAS  /tmp/ccRtV34n.s 			page 3


  55              		.loc 1 61 1 view .LVU2
  56 000e 0D93     		str	r3, [sp, #52]
  57 0010 DDF86890 		ldr	r9, [sp, #104]
  62:Middlewares/tensorflow/third_party/cmsis_nn/Source/BasicMathFunctions/arm_elementwise_mul_s8.c **** 
  63:Middlewares/tensorflow/third_party/cmsis_nn/Source/BasicMathFunctions/arm_elementwise_mul_s8.c ****     int32_t loop_count;
  58              		.loc 1 63 5 is_stmt 1 view .LVU3
  64:Middlewares/tensorflow/third_party/cmsis_nn/Source/BasicMathFunctions/arm_elementwise_mul_s8.c **** #if defined(ARM_MATH_MVEI)
  65:Middlewares/tensorflow/third_party/cmsis_nn/Source/BasicMathFunctions/arm_elementwise_mul_s8.c **** 
  66:Middlewares/tensorflow/third_party/cmsis_nn/Source/BasicMathFunctions/arm_elementwise_mul_s8.c ****     loop_count = (block_size + 3) / 4;
  67:Middlewares/tensorflow/third_party/cmsis_nn/Source/BasicMathFunctions/arm_elementwise_mul_s8.c ****     uint32_t num_elements = block_size;
  68:Middlewares/tensorflow/third_party/cmsis_nn/Source/BasicMathFunctions/arm_elementwise_mul_s8.c **** 
  69:Middlewares/tensorflow/third_party/cmsis_nn/Source/BasicMathFunctions/arm_elementwise_mul_s8.c ****     for (int i = 0; i < loop_count; i++)
  70:Middlewares/tensorflow/third_party/cmsis_nn/Source/BasicMathFunctions/arm_elementwise_mul_s8.c ****     {
  71:Middlewares/tensorflow/third_party/cmsis_nn/Source/BasicMathFunctions/arm_elementwise_mul_s8.c ****         mve_pred16_t p = vctp32q(num_elements);
  72:Middlewares/tensorflow/third_party/cmsis_nn/Source/BasicMathFunctions/arm_elementwise_mul_s8.c **** 
  73:Middlewares/tensorflow/third_party/cmsis_nn/Source/BasicMathFunctions/arm_elementwise_mul_s8.c ****         int32x4_t input_1 = vldrbq_z_s32(input_1_vect, p);
  74:Middlewares/tensorflow/third_party/cmsis_nn/Source/BasicMathFunctions/arm_elementwise_mul_s8.c ****         input_1 = vaddq_n_s32(input_1, input_1_offset);
  75:Middlewares/tensorflow/third_party/cmsis_nn/Source/BasicMathFunctions/arm_elementwise_mul_s8.c **** 
  76:Middlewares/tensorflow/third_party/cmsis_nn/Source/BasicMathFunctions/arm_elementwise_mul_s8.c ****         int32x4_t input_2 = vldrbq_z_s32(input_2_vect, p);
  77:Middlewares/tensorflow/third_party/cmsis_nn/Source/BasicMathFunctions/arm_elementwise_mul_s8.c ****         input_2 = vaddq_n_s32(input_2, input_2_offset);
  78:Middlewares/tensorflow/third_party/cmsis_nn/Source/BasicMathFunctions/arm_elementwise_mul_s8.c **** 
  79:Middlewares/tensorflow/third_party/cmsis_nn/Source/BasicMathFunctions/arm_elementwise_mul_s8.c ****         int32x4_t res_0 = vmulq_s32(input_1, input_2);
  80:Middlewares/tensorflow/third_party/cmsis_nn/Source/BasicMathFunctions/arm_elementwise_mul_s8.c **** 
  81:Middlewares/tensorflow/third_party/cmsis_nn/Source/BasicMathFunctions/arm_elementwise_mul_s8.c ****         res_0 = arm_requantize_mve_32x4(res_0, vdupq_n_s32(out_mult), vdupq_n_s32(out_shift));
  82:Middlewares/tensorflow/third_party/cmsis_nn/Source/BasicMathFunctions/arm_elementwise_mul_s8.c **** 
  83:Middlewares/tensorflow/third_party/cmsis_nn/Source/BasicMathFunctions/arm_elementwise_mul_s8.c ****         res_0 += vdupq_n_s32(out_offset);
  84:Middlewares/tensorflow/third_party/cmsis_nn/Source/BasicMathFunctions/arm_elementwise_mul_s8.c **** 
  85:Middlewares/tensorflow/third_party/cmsis_nn/Source/BasicMathFunctions/arm_elementwise_mul_s8.c ****         res_0 = vmaxq_s32(res_0, vdupq_n_s32(out_activation_min));
  86:Middlewares/tensorflow/third_party/cmsis_nn/Source/BasicMathFunctions/arm_elementwise_mul_s8.c ****         res_0 = vminq_s32(res_0, vdupq_n_s32(out_activation_max));
  87:Middlewares/tensorflow/third_party/cmsis_nn/Source/BasicMathFunctions/arm_elementwise_mul_s8.c **** 
  88:Middlewares/tensorflow/third_party/cmsis_nn/Source/BasicMathFunctions/arm_elementwise_mul_s8.c ****         vstrbq_p_s32(output, res_0, p);
  89:Middlewares/tensorflow/third_party/cmsis_nn/Source/BasicMathFunctions/arm_elementwise_mul_s8.c ****         input_1_vect += 4;
  90:Middlewares/tensorflow/third_party/cmsis_nn/Source/BasicMathFunctions/arm_elementwise_mul_s8.c ****         input_2_vect += 4;
  91:Middlewares/tensorflow/third_party/cmsis_nn/Source/BasicMathFunctions/arm_elementwise_mul_s8.c ****         output += 4;
  92:Middlewares/tensorflow/third_party/cmsis_nn/Source/BasicMathFunctions/arm_elementwise_mul_s8.c ****         num_elements -= 4;
  93:Middlewares/tensorflow/third_party/cmsis_nn/Source/BasicMathFunctions/arm_elementwise_mul_s8.c ****     }
  94:Middlewares/tensorflow/third_party/cmsis_nn/Source/BasicMathFunctions/arm_elementwise_mul_s8.c **** 
  95:Middlewares/tensorflow/third_party/cmsis_nn/Source/BasicMathFunctions/arm_elementwise_mul_s8.c **** #else
  96:Middlewares/tensorflow/third_party/cmsis_nn/Source/BasicMathFunctions/arm_elementwise_mul_s8.c ****     int32_t input_1;
  59              		.loc 1 96 5 view .LVU4
  97:Middlewares/tensorflow/third_party/cmsis_nn/Source/BasicMathFunctions/arm_elementwise_mul_s8.c ****     int32_t input_2;
  60              		.loc 1 97 5 view .LVU5
  98:Middlewares/tensorflow/third_party/cmsis_nn/Source/BasicMathFunctions/arm_elementwise_mul_s8.c ****     int32_t mul_res;
  61              		.loc 1 98 5 view .LVU6
  99:Middlewares/tensorflow/third_party/cmsis_nn/Source/BasicMathFunctions/arm_elementwise_mul_s8.c **** 
 100:Middlewares/tensorflow/third_party/cmsis_nn/Source/BasicMathFunctions/arm_elementwise_mul_s8.c ****     #if defined(ARM_MATH_DSP)
 101:Middlewares/tensorflow/third_party/cmsis_nn/Source/BasicMathFunctions/arm_elementwise_mul_s8.c ****     int32_t a_1, b_1, a_2, b_2;
  62              		.loc 1 101 5 view .LVU7
 102:Middlewares/tensorflow/third_party/cmsis_nn/Source/BasicMathFunctions/arm_elementwise_mul_s8.c **** 
 103:Middlewares/tensorflow/third_party/cmsis_nn/Source/BasicMathFunctions/arm_elementwise_mul_s8.c ****     int32_t offset_1_packed, offset_2_packed;
  63              		.loc 1 103 5 view .LVU8
 104:Middlewares/tensorflow/third_party/cmsis_nn/Source/BasicMathFunctions/arm_elementwise_mul_s8.c **** 
 105:Middlewares/tensorflow/third_party/cmsis_nn/Source/BasicMathFunctions/arm_elementwise_mul_s8.c ****     int8_t r1, r2, r3, r4;
  64              		.loc 1 105 5 view .LVU9
 106:Middlewares/tensorflow/third_party/cmsis_nn/Source/BasicMathFunctions/arm_elementwise_mul_s8.c **** 
 107:Middlewares/tensorflow/third_party/cmsis_nn/Source/BasicMathFunctions/arm_elementwise_mul_s8.c ****     offset_1_packed = (input_1_offset << 16U) | (input_1_offset & 0x0FFFFL);
  65              		.loc 1 107 5 view .LVU10
ARM GAS  /tmp/ccRtV34n.s 			page 4


  66              		.loc 1 107 65 is_stmt 0 view .LVU11
  67 0014 93B2     		uxth	r3, r2
  68              	.LVL2:
  69              		.loc 1 107 21 view .LVU12
  70 0016 43EA0242 		orr	r2, r3, r2, lsl #16
  71              	.LVL3:
  72              		.loc 1 107 21 view .LVU13
  73 001a 0A92     		str	r2, [sp, #40]
  74              	.LVL4:
 108:Middlewares/tensorflow/third_party/cmsis_nn/Source/BasicMathFunctions/arm_elementwise_mul_s8.c ****     offset_2_packed = (input_2_offset << 16U) | (input_2_offset & 0x0FFFFL);
  75              		.loc 1 108 5 is_stmt 1 view .LVU14
  76              		.loc 1 108 65 is_stmt 0 view .LVU15
  77 001c 8BB2     		uxth	r3, r1
  78              		.loc 1 108 21 view .LVU16
  79 001e 43EA0143 		orr	r3, r3, r1, lsl #16
  80 0022 0B93     		str	r3, [sp, #44]
  81              	.LVL5:
 109:Middlewares/tensorflow/third_party/cmsis_nn/Source/BasicMathFunctions/arm_elementwise_mul_s8.c **** 
 110:Middlewares/tensorflow/third_party/cmsis_nn/Source/BasicMathFunctions/arm_elementwise_mul_s8.c ****     loop_count = block_size >> 2;
  82              		.loc 1 110 5 is_stmt 1 view .LVU17
  83              		.loc 1 110 16 is_stmt 0 view .LVU18
  84 0024 1E9B     		ldr	r3, [sp, #120]
  85              	.LVL6:
  86              		.loc 1 110 16 view .LVU19
  87 0026 9B10     		asrs	r3, r3, #2
  88 0028 0493     		str	r3, [sp, #16]
  89              	.LVL7:
 111:Middlewares/tensorflow/third_party/cmsis_nn/Source/BasicMathFunctions/arm_elementwise_mul_s8.c **** 
 112:Middlewares/tensorflow/third_party/cmsis_nn/Source/BasicMathFunctions/arm_elementwise_mul_s8.c ****     while (loop_count > 0)
  90              		.loc 1 112 5 is_stmt 1 view .LVU20
  91 002a DDF87480 		ldr	r8, [sp, #116]
  92              		.loc 1 112 11 is_stmt 0 view .LVU21
  93 002e 2CE0     		b	.L2
  94              	.LVL8:
  95              	.L25:
  96              	.LBB75:
  97              	.LBB76:
  98              	.LBB77:
  99              		.file 2 "Middlewares/tensorflow/third_party/cmsis_nn/Include/arm_nnsupportfunctions.h"
   1:Middlewares/tensorflow/third_party/cmsis_nn/Include/arm_nnsupportfunctions.h **** /*
   2:Middlewares/tensorflow/third_party/cmsis_nn/Include/arm_nnsupportfunctions.h ****  * SPDX-FileCopyrightText: Copyright 2010-2023 Arm Limited and/or its affiliates <open-source-offic
   3:Middlewares/tensorflow/third_party/cmsis_nn/Include/arm_nnsupportfunctions.h ****  *
   4:Middlewares/tensorflow/third_party/cmsis_nn/Include/arm_nnsupportfunctions.h ****  * SPDX-License-Identifier: Apache-2.0
   5:Middlewares/tensorflow/third_party/cmsis_nn/Include/arm_nnsupportfunctions.h ****  *
   6:Middlewares/tensorflow/third_party/cmsis_nn/Include/arm_nnsupportfunctions.h ****  * Licensed under the Apache License, Version 2.0 (the License); you may
   7:Middlewares/tensorflow/third_party/cmsis_nn/Include/arm_nnsupportfunctions.h ****  * not use this file except in compliance with the License.
   8:Middlewares/tensorflow/third_party/cmsis_nn/Include/arm_nnsupportfunctions.h ****  * You may obtain a copy of the License at
   9:Middlewares/tensorflow/third_party/cmsis_nn/Include/arm_nnsupportfunctions.h ****  *
  10:Middlewares/tensorflow/third_party/cmsis_nn/Include/arm_nnsupportfunctions.h ****  * www.apache.org/licenses/LICENSE-2.0
  11:Middlewares/tensorflow/third_party/cmsis_nn/Include/arm_nnsupportfunctions.h ****  *
  12:Middlewares/tensorflow/third_party/cmsis_nn/Include/arm_nnsupportfunctions.h ****  * Unless required by applicable law or agreed to in writing, software
  13:Middlewares/tensorflow/third_party/cmsis_nn/Include/arm_nnsupportfunctions.h ****  * distributed under the License is distributed on an AS IS BASIS, WITHOUT
  14:Middlewares/tensorflow/third_party/cmsis_nn/Include/arm_nnsupportfunctions.h ****  * WARRANTIES OR CONDITIONS OF ANY KIND, either express or implied.
  15:Middlewares/tensorflow/third_party/cmsis_nn/Include/arm_nnsupportfunctions.h ****  * See the License for the specific language governing permissions and
  16:Middlewares/tensorflow/third_party/cmsis_nn/Include/arm_nnsupportfunctions.h ****  * limitations under the License.
  17:Middlewares/tensorflow/third_party/cmsis_nn/Include/arm_nnsupportfunctions.h ****  */
  18:Middlewares/tensorflow/third_party/cmsis_nn/Include/arm_nnsupportfunctions.h **** 
ARM GAS  /tmp/ccRtV34n.s 			page 5


  19:Middlewares/tensorflow/third_party/cmsis_nn/Include/arm_nnsupportfunctions.h **** /* ----------------------------------------------------------------------
  20:Middlewares/tensorflow/third_party/cmsis_nn/Include/arm_nnsupportfunctions.h ****  * Project:      CMSIS NN Library
  21:Middlewares/tensorflow/third_party/cmsis_nn/Include/arm_nnsupportfunctions.h ****  * Title:        arm_nnsupportfunctions.h
  22:Middlewares/tensorflow/third_party/cmsis_nn/Include/arm_nnsupportfunctions.h ****  * Description:  Public header file of support functions for CMSIS NN Library
  23:Middlewares/tensorflow/third_party/cmsis_nn/Include/arm_nnsupportfunctions.h ****  *
  24:Middlewares/tensorflow/third_party/cmsis_nn/Include/arm_nnsupportfunctions.h ****  * $Date:        13 Februari 2023
  25:Middlewares/tensorflow/third_party/cmsis_nn/Include/arm_nnsupportfunctions.h ****  * $Revision:    V.15.0.0
  26:Middlewares/tensorflow/third_party/cmsis_nn/Include/arm_nnsupportfunctions.h ****  *
  27:Middlewares/tensorflow/third_party/cmsis_nn/Include/arm_nnsupportfunctions.h ****  * Target :  Arm(R) M-Profile Architecture
  28:Middlewares/tensorflow/third_party/cmsis_nn/Include/arm_nnsupportfunctions.h ****  * -------------------------------------------------------------------- */
  29:Middlewares/tensorflow/third_party/cmsis_nn/Include/arm_nnsupportfunctions.h **** 
  30:Middlewares/tensorflow/third_party/cmsis_nn/Include/arm_nnsupportfunctions.h **** #ifndef _ARM_NNSUPPORTFUNCTIONS_H_
  31:Middlewares/tensorflow/third_party/cmsis_nn/Include/arm_nnsupportfunctions.h **** #define _ARM_NNSUPPORTFUNCTIONS_H_
  32:Middlewares/tensorflow/third_party/cmsis_nn/Include/arm_nnsupportfunctions.h **** 
  33:Middlewares/tensorflow/third_party/cmsis_nn/Include/arm_nnsupportfunctions.h **** #include "Internal/arm_nn_compiler.h"
  34:Middlewares/tensorflow/third_party/cmsis_nn/Include/arm_nnsupportfunctions.h **** #include "arm_nn_math_types.h"
  35:Middlewares/tensorflow/third_party/cmsis_nn/Include/arm_nnsupportfunctions.h **** #include "arm_nn_types.h"
  36:Middlewares/tensorflow/third_party/cmsis_nn/Include/arm_nnsupportfunctions.h **** 
  37:Middlewares/tensorflow/third_party/cmsis_nn/Include/arm_nnsupportfunctions.h **** #include <stdbool.h>
  38:Middlewares/tensorflow/third_party/cmsis_nn/Include/arm_nnsupportfunctions.h **** 
  39:Middlewares/tensorflow/third_party/cmsis_nn/Include/arm_nnsupportfunctions.h **** #ifdef __cplusplus
  40:Middlewares/tensorflow/third_party/cmsis_nn/Include/arm_nnsupportfunctions.h **** extern "C" {
  41:Middlewares/tensorflow/third_party/cmsis_nn/Include/arm_nnsupportfunctions.h **** #endif
  42:Middlewares/tensorflow/third_party/cmsis_nn/Include/arm_nnsupportfunctions.h **** 
  43:Middlewares/tensorflow/third_party/cmsis_nn/Include/arm_nnsupportfunctions.h **** #define USE_FAST_DW_CONV_S16_FUNCTION(dw_conv_params, filter_dims, input_dims)                     
  44:Middlewares/tensorflow/third_party/cmsis_nn/Include/arm_nnsupportfunctions.h ****     (dw_conv_params->ch_mult == 1 && dw_conv_params->dilation.w == 1 && dw_conv_params->dilation.h 
  45:Middlewares/tensorflow/third_party/cmsis_nn/Include/arm_nnsupportfunctions.h ****      filter_dims->w * filter_dims->h < 512)
  46:Middlewares/tensorflow/third_party/cmsis_nn/Include/arm_nnsupportfunctions.h **** 
  47:Middlewares/tensorflow/third_party/cmsis_nn/Include/arm_nnsupportfunctions.h **** #define LEFT_SHIFT(_shift) (_shift > 0 ? _shift : 0)
  48:Middlewares/tensorflow/third_party/cmsis_nn/Include/arm_nnsupportfunctions.h **** #define RIGHT_SHIFT(_shift) (_shift > 0 ? 0 : -_shift)
  49:Middlewares/tensorflow/third_party/cmsis_nn/Include/arm_nnsupportfunctions.h **** #define MASK_IF_ZERO(x) (x) == 0 ? ~0 : 0
  50:Middlewares/tensorflow/third_party/cmsis_nn/Include/arm_nnsupportfunctions.h **** #define MASK_IF_NON_ZERO(x) (x) != 0 ? ~0 : 0
  51:Middlewares/tensorflow/third_party/cmsis_nn/Include/arm_nnsupportfunctions.h **** #define SELECT_USING_MASK(mask, a, b) ((mask) & (a)) ^ (~(mask) & (b))
  52:Middlewares/tensorflow/third_party/cmsis_nn/Include/arm_nnsupportfunctions.h **** 
  53:Middlewares/tensorflow/third_party/cmsis_nn/Include/arm_nnsupportfunctions.h **** #define MAX(A, B) ((A) > (B) ? (A) : (B))
  54:Middlewares/tensorflow/third_party/cmsis_nn/Include/arm_nnsupportfunctions.h **** #define MIN(A, B) ((A) < (B) ? (A) : (B))
  55:Middlewares/tensorflow/third_party/cmsis_nn/Include/arm_nnsupportfunctions.h **** #define CLAMP(x, h, l) MAX(MIN((x), (h)), (l))
  56:Middlewares/tensorflow/third_party/cmsis_nn/Include/arm_nnsupportfunctions.h **** #define REDUCE_MULTIPLIER(_mult) ((_mult < 0x7FFF0000) ? ((_mult + (1 << 15)) >> 16) : 0x7FFF)
  57:Middlewares/tensorflow/third_party/cmsis_nn/Include/arm_nnsupportfunctions.h **** 
  58:Middlewares/tensorflow/third_party/cmsis_nn/Include/arm_nnsupportfunctions.h **** // Number of channels processed in a block for DW Conv(MVE)
  59:Middlewares/tensorflow/third_party/cmsis_nn/Include/arm_nnsupportfunctions.h **** // Requirement: Greater than 0 & less than 128
  60:Middlewares/tensorflow/third_party/cmsis_nn/Include/arm_nnsupportfunctions.h **** // This can be fine tuned to match number of input channels for best performance.
  61:Middlewares/tensorflow/third_party/cmsis_nn/Include/arm_nnsupportfunctions.h **** // A layer with lower number of channels than CH_IN_BLOCK_MVE will result in higher
  62:Middlewares/tensorflow/third_party/cmsis_nn/Include/arm_nnsupportfunctions.h **** // scratch buffer usage and a layer with higher number of channels than CH_IN_BLOCK_MVE
  63:Middlewares/tensorflow/third_party/cmsis_nn/Include/arm_nnsupportfunctions.h **** // will result in lower scratch buffer usage.
  64:Middlewares/tensorflow/third_party/cmsis_nn/Include/arm_nnsupportfunctions.h **** #define CH_IN_BLOCK_MVE (124)
  65:Middlewares/tensorflow/third_party/cmsis_nn/Include/arm_nnsupportfunctions.h **** 
  66:Middlewares/tensorflow/third_party/cmsis_nn/Include/arm_nnsupportfunctions.h **** /**
  67:Middlewares/tensorflow/third_party/cmsis_nn/Include/arm_nnsupportfunctions.h ****  * @brief definition to pack four 8 bit values.
  68:Middlewares/tensorflow/third_party/cmsis_nn/Include/arm_nnsupportfunctions.h ****  */
  69:Middlewares/tensorflow/third_party/cmsis_nn/Include/arm_nnsupportfunctions.h **** #define PACK_S8x4_32x1(v0, v1, v2, v3)                                                             
  70:Middlewares/tensorflow/third_party/cmsis_nn/Include/arm_nnsupportfunctions.h ****     ((((int32_t)(v0) << 0) & (int32_t)0x000000FF) | (((int32_t)(v1) << 8) & (int32_t)0x0000FF00) | 
  71:Middlewares/tensorflow/third_party/cmsis_nn/Include/arm_nnsupportfunctions.h ****      (((int32_t)(v2) << 16) & (int32_t)0x00FF0000) | (((int32_t)(v3) << 24) & (int32_t)0xFF000000))
  72:Middlewares/tensorflow/third_party/cmsis_nn/Include/arm_nnsupportfunctions.h **** 
  73:Middlewares/tensorflow/third_party/cmsis_nn/Include/arm_nnsupportfunctions.h **** /**
  74:Middlewares/tensorflow/third_party/cmsis_nn/Include/arm_nnsupportfunctions.h ****  * @brief definition to pack two 16 bit values.
  75:Middlewares/tensorflow/third_party/cmsis_nn/Include/arm_nnsupportfunctions.h ****  */
ARM GAS  /tmp/ccRtV34n.s 			page 6


  76:Middlewares/tensorflow/third_party/cmsis_nn/Include/arm_nnsupportfunctions.h **** #define PACK_Q15x2_32x1(v0, v1) (((int32_t)v0 & (int32_t)0xFFFF) | ((int32_t)v1 << 16))
  77:Middlewares/tensorflow/third_party/cmsis_nn/Include/arm_nnsupportfunctions.h **** 
  78:Middlewares/tensorflow/third_party/cmsis_nn/Include/arm_nnsupportfunctions.h **** /**
  79:Middlewares/tensorflow/third_party/cmsis_nn/Include/arm_nnsupportfunctions.h ****  * @brief Union for SIMD access of q31/s16/s8 types
  80:Middlewares/tensorflow/third_party/cmsis_nn/Include/arm_nnsupportfunctions.h ****  */
  81:Middlewares/tensorflow/third_party/cmsis_nn/Include/arm_nnsupportfunctions.h **** union arm_nnword
  82:Middlewares/tensorflow/third_party/cmsis_nn/Include/arm_nnsupportfunctions.h **** {
  83:Middlewares/tensorflow/third_party/cmsis_nn/Include/arm_nnsupportfunctions.h ****     int32_t word;
  84:Middlewares/tensorflow/third_party/cmsis_nn/Include/arm_nnsupportfunctions.h ****     /**< q31 type */
  85:Middlewares/tensorflow/third_party/cmsis_nn/Include/arm_nnsupportfunctions.h ****     int16_t half_words[2];
  86:Middlewares/tensorflow/third_party/cmsis_nn/Include/arm_nnsupportfunctions.h ****     /**< s16 type */
  87:Middlewares/tensorflow/third_party/cmsis_nn/Include/arm_nnsupportfunctions.h ****     int8_t bytes[4];
  88:Middlewares/tensorflow/third_party/cmsis_nn/Include/arm_nnsupportfunctions.h ****     /**< s8 type */
  89:Middlewares/tensorflow/third_party/cmsis_nn/Include/arm_nnsupportfunctions.h **** };
  90:Middlewares/tensorflow/third_party/cmsis_nn/Include/arm_nnsupportfunctions.h **** 
  91:Middlewares/tensorflow/third_party/cmsis_nn/Include/arm_nnsupportfunctions.h **** /**
  92:Middlewares/tensorflow/third_party/cmsis_nn/Include/arm_nnsupportfunctions.h ****  * @brief Union for data type long long
  93:Middlewares/tensorflow/third_party/cmsis_nn/Include/arm_nnsupportfunctions.h ****  */
  94:Middlewares/tensorflow/third_party/cmsis_nn/Include/arm_nnsupportfunctions.h **** struct arm_nn_double
  95:Middlewares/tensorflow/third_party/cmsis_nn/Include/arm_nnsupportfunctions.h **** {
  96:Middlewares/tensorflow/third_party/cmsis_nn/Include/arm_nnsupportfunctions.h ****     uint32_t low;
  97:Middlewares/tensorflow/third_party/cmsis_nn/Include/arm_nnsupportfunctions.h ****     int32_t high;
  98:Middlewares/tensorflow/third_party/cmsis_nn/Include/arm_nnsupportfunctions.h **** };
  99:Middlewares/tensorflow/third_party/cmsis_nn/Include/arm_nnsupportfunctions.h **** 
 100:Middlewares/tensorflow/third_party/cmsis_nn/Include/arm_nnsupportfunctions.h **** union arm_nn_long_long
 101:Middlewares/tensorflow/third_party/cmsis_nn/Include/arm_nnsupportfunctions.h **** {
 102:Middlewares/tensorflow/third_party/cmsis_nn/Include/arm_nnsupportfunctions.h ****     int64_t long_long;
 103:Middlewares/tensorflow/third_party/cmsis_nn/Include/arm_nnsupportfunctions.h ****     struct arm_nn_double word;
 104:Middlewares/tensorflow/third_party/cmsis_nn/Include/arm_nnsupportfunctions.h **** };
 105:Middlewares/tensorflow/third_party/cmsis_nn/Include/arm_nnsupportfunctions.h **** 
 106:Middlewares/tensorflow/third_party/cmsis_nn/Include/arm_nnsupportfunctions.h **** /**
 107:Middlewares/tensorflow/third_party/cmsis_nn/Include/arm_nnsupportfunctions.h ****  * @defgroup groupSupport Private
 108:Middlewares/tensorflow/third_party/cmsis_nn/Include/arm_nnsupportfunctions.h ****  *
 109:Middlewares/tensorflow/third_party/cmsis_nn/Include/arm_nnsupportfunctions.h ****  * Internal Support functions. Not intended to be called direclty by a CMSIS-NN user.
 110:Middlewares/tensorflow/third_party/cmsis_nn/Include/arm_nnsupportfunctions.h ****  *
 111:Middlewares/tensorflow/third_party/cmsis_nn/Include/arm_nnsupportfunctions.h ****  */
 112:Middlewares/tensorflow/third_party/cmsis_nn/Include/arm_nnsupportfunctions.h **** 
 113:Middlewares/tensorflow/third_party/cmsis_nn/Include/arm_nnsupportfunctions.h **** /**
 114:Middlewares/tensorflow/third_party/cmsis_nn/Include/arm_nnsupportfunctions.h ****  * @defgroup supportConversion Data Conversion
 115:Middlewares/tensorflow/third_party/cmsis_nn/Include/arm_nnsupportfunctions.h ****  *
 116:Middlewares/tensorflow/third_party/cmsis_nn/Include/arm_nnsupportfunctions.h ****  * Perform data type conversion in-between neural network operations
 117:Middlewares/tensorflow/third_party/cmsis_nn/Include/arm_nnsupportfunctions.h ****  *
 118:Middlewares/tensorflow/third_party/cmsis_nn/Include/arm_nnsupportfunctions.h ****  */
 119:Middlewares/tensorflow/third_party/cmsis_nn/Include/arm_nnsupportfunctions.h **** 
 120:Middlewares/tensorflow/third_party/cmsis_nn/Include/arm_nnsupportfunctions.h **** /**
 121:Middlewares/tensorflow/third_party/cmsis_nn/Include/arm_nnsupportfunctions.h ****  * @brief Converts the elements from a s8 vector to a s16 vector with an added offset
 122:Middlewares/tensorflow/third_party/cmsis_nn/Include/arm_nnsupportfunctions.h ****  * @param[in]    src        pointer to the s8 input vector
 123:Middlewares/tensorflow/third_party/cmsis_nn/Include/arm_nnsupportfunctions.h ****  * @param[out]   dst        pointer to the s16 output vector
 124:Middlewares/tensorflow/third_party/cmsis_nn/Include/arm_nnsupportfunctions.h ****  * @param[in]    block_size length of the input vector
 125:Middlewares/tensorflow/third_party/cmsis_nn/Include/arm_nnsupportfunctions.h ****  * @param[in]    offset     s8 offset to be added to each input vector element.
 126:Middlewares/tensorflow/third_party/cmsis_nn/Include/arm_nnsupportfunctions.h ****  *
 127:Middlewares/tensorflow/third_party/cmsis_nn/Include/arm_nnsupportfunctions.h ****  * \par Description:
 128:Middlewares/tensorflow/third_party/cmsis_nn/Include/arm_nnsupportfunctions.h ****  *
 129:Middlewares/tensorflow/third_party/cmsis_nn/Include/arm_nnsupportfunctions.h ****  * The equation used for the conversion process is:
 130:Middlewares/tensorflow/third_party/cmsis_nn/Include/arm_nnsupportfunctions.h ****  *
 131:Middlewares/tensorflow/third_party/cmsis_nn/Include/arm_nnsupportfunctions.h ****  * <pre>
 132:Middlewares/tensorflow/third_party/cmsis_nn/Include/arm_nnsupportfunctions.h ****  *  dst[n] = (int16_t) src[n] + offset;   0 <= n < block_size.
ARM GAS  /tmp/ccRtV34n.s 			page 7


 133:Middlewares/tensorflow/third_party/cmsis_nn/Include/arm_nnsupportfunctions.h ****  * </pre>
 134:Middlewares/tensorflow/third_party/cmsis_nn/Include/arm_nnsupportfunctions.h ****  *
 135:Middlewares/tensorflow/third_party/cmsis_nn/Include/arm_nnsupportfunctions.h ****  */
 136:Middlewares/tensorflow/third_party/cmsis_nn/Include/arm_nnsupportfunctions.h **** void arm_q7_to_q15_with_offset(const int8_t *src, int16_t *dst, uint32_t block_size, int16_t offset
 137:Middlewares/tensorflow/third_party/cmsis_nn/Include/arm_nnsupportfunctions.h **** 
 138:Middlewares/tensorflow/third_party/cmsis_nn/Include/arm_nnsupportfunctions.h **** /**
 139:Middlewares/tensorflow/third_party/cmsis_nn/Include/arm_nnsupportfunctions.h ****  * @brief Depthwise conv on an im2col buffer where the input channel equals output channel.
 140:Middlewares/tensorflow/third_party/cmsis_nn/Include/arm_nnsupportfunctions.h ****  * @param[in]    row     pointer to row
 141:Middlewares/tensorflow/third_party/cmsis_nn/Include/arm_nnsupportfunctions.h ****  * @param[in]    col     pointer to im2col buffer, always consists of 2 columns.
 142:Middlewares/tensorflow/third_party/cmsis_nn/Include/arm_nnsupportfunctions.h ****  * @param[in]    num_ch   number of channels
 143:Middlewares/tensorflow/third_party/cmsis_nn/Include/arm_nnsupportfunctions.h ****  * @param[in]    out_shift  pointer to per output channel requantization shift parameter.
 144:Middlewares/tensorflow/third_party/cmsis_nn/Include/arm_nnsupportfunctions.h ****  * @param[in]    out_mult   pointer to per output channel requantization multiplier parameter.
 145:Middlewares/tensorflow/third_party/cmsis_nn/Include/arm_nnsupportfunctions.h ****  * @param[in]    out_offset      output tensor offset.
 146:Middlewares/tensorflow/third_party/cmsis_nn/Include/arm_nnsupportfunctions.h ****  * @param[in]    activation_min   minimum value to clamp the output to. Range : int8
 147:Middlewares/tensorflow/third_party/cmsis_nn/Include/arm_nnsupportfunctions.h ****  * @param[in]    activation_max   maximum value to clamp the output to. Range : int8
 148:Middlewares/tensorflow/third_party/cmsis_nn/Include/arm_nnsupportfunctions.h ****  * @param[in]    kernel_size   number of elements in one column.
 149:Middlewares/tensorflow/third_party/cmsis_nn/Include/arm_nnsupportfunctions.h ****  * @param[in]    output_bias per output channel bias. Range : int32
 150:Middlewares/tensorflow/third_party/cmsis_nn/Include/arm_nnsupportfunctions.h ****  * @param[out]   out         pointer to output
 151:Middlewares/tensorflow/third_party/cmsis_nn/Include/arm_nnsupportfunctions.h ****  * @return     The function returns one of the two
 152:Middlewares/tensorflow/third_party/cmsis_nn/Include/arm_nnsupportfunctions.h ****  *              1. The incremented output pointer for a successful operation or
 153:Middlewares/tensorflow/third_party/cmsis_nn/Include/arm_nnsupportfunctions.h ****  *              2. NULL if implementation is not available.
 154:Middlewares/tensorflow/third_party/cmsis_nn/Include/arm_nnsupportfunctions.h ****  *
 155:Middlewares/tensorflow/third_party/cmsis_nn/Include/arm_nnsupportfunctions.h ****  * @details     Supported framework: TensorFlow Lite micro.
 156:Middlewares/tensorflow/third_party/cmsis_nn/Include/arm_nnsupportfunctions.h ****  */
 157:Middlewares/tensorflow/third_party/cmsis_nn/Include/arm_nnsupportfunctions.h **** int8_t *arm_nn_depthwise_conv_s8_core(const int8_t *row,
 158:Middlewares/tensorflow/third_party/cmsis_nn/Include/arm_nnsupportfunctions.h ****                                       const int16_t *col,
 159:Middlewares/tensorflow/third_party/cmsis_nn/Include/arm_nnsupportfunctions.h ****                                       const uint16_t num_ch,
 160:Middlewares/tensorflow/third_party/cmsis_nn/Include/arm_nnsupportfunctions.h ****                                       const int32_t *out_shift,
 161:Middlewares/tensorflow/third_party/cmsis_nn/Include/arm_nnsupportfunctions.h ****                                       const int32_t *out_mult,
 162:Middlewares/tensorflow/third_party/cmsis_nn/Include/arm_nnsupportfunctions.h ****                                       const int32_t out_offset,
 163:Middlewares/tensorflow/third_party/cmsis_nn/Include/arm_nnsupportfunctions.h ****                                       const int32_t activation_min,
 164:Middlewares/tensorflow/third_party/cmsis_nn/Include/arm_nnsupportfunctions.h ****                                       const int32_t activation_max,
 165:Middlewares/tensorflow/third_party/cmsis_nn/Include/arm_nnsupportfunctions.h ****                                       const uint16_t kernel_size,
 166:Middlewares/tensorflow/third_party/cmsis_nn/Include/arm_nnsupportfunctions.h ****                                       const int32_t *const output_bias,
 167:Middlewares/tensorflow/third_party/cmsis_nn/Include/arm_nnsupportfunctions.h ****                                       int8_t *out);
 168:Middlewares/tensorflow/third_party/cmsis_nn/Include/arm_nnsupportfunctions.h **** 
 169:Middlewares/tensorflow/third_party/cmsis_nn/Include/arm_nnsupportfunctions.h **** /**
 170:Middlewares/tensorflow/third_party/cmsis_nn/Include/arm_nnsupportfunctions.h ****  * @brief General Matrix-multiplication function with per-channel requantization.
 171:Middlewares/tensorflow/third_party/cmsis_nn/Include/arm_nnsupportfunctions.h ****  * @param[in]       input_row    pointer to row operand
 172:Middlewares/tensorflow/third_party/cmsis_nn/Include/arm_nnsupportfunctions.h ****  * @param[in]       input_col    pointer to col operand
 173:Middlewares/tensorflow/third_party/cmsis_nn/Include/arm_nnsupportfunctions.h ****  * @param[in]       output_ch    number of rows of input_row
 174:Middlewares/tensorflow/third_party/cmsis_nn/Include/arm_nnsupportfunctions.h ****  * @param[in]       col_batches  number of column batches. Range: 1 to 4
 175:Middlewares/tensorflow/third_party/cmsis_nn/Include/arm_nnsupportfunctions.h ****  * @param[in]       output_shift  pointer to per output channel requantization shift parameter.
 176:Middlewares/tensorflow/third_party/cmsis_nn/Include/arm_nnsupportfunctions.h ****  * @param[in]       output_mult   pointer to per output channel requantization multiplier parameter
 177:Middlewares/tensorflow/third_party/cmsis_nn/Include/arm_nnsupportfunctions.h ****  * @param[in]       out_offset    output tensor offset.
 178:Middlewares/tensorflow/third_party/cmsis_nn/Include/arm_nnsupportfunctions.h ****  * @param[in]       col_offset    input tensor(col) offset.
 179:Middlewares/tensorflow/third_party/cmsis_nn/Include/arm_nnsupportfunctions.h ****  * @param[in]       row_offset    kernel offset(row). Not used.
 180:Middlewares/tensorflow/third_party/cmsis_nn/Include/arm_nnsupportfunctions.h ****  * @param[in]       out_activation_min   minimum value to clamp the output to. Range : int8
 181:Middlewares/tensorflow/third_party/cmsis_nn/Include/arm_nnsupportfunctions.h ****  * @param[in]       out_activation_max   maximum value to clamp the output to. Range : int8
 182:Middlewares/tensorflow/third_party/cmsis_nn/Include/arm_nnsupportfunctions.h ****  * @param[in]       row_len       number of elements in each row
 183:Middlewares/tensorflow/third_party/cmsis_nn/Include/arm_nnsupportfunctions.h ****  * @param[in]       bias          per output channel bias. Range : int32
 184:Middlewares/tensorflow/third_party/cmsis_nn/Include/arm_nnsupportfunctions.h ****  * @param[in,out]   out           pointer to output
 185:Middlewares/tensorflow/third_party/cmsis_nn/Include/arm_nnsupportfunctions.h ****  * @return     The function returns one of the two
 186:Middlewares/tensorflow/third_party/cmsis_nn/Include/arm_nnsupportfunctions.h ****  *              1. The incremented output pointer for a successful operation or
 187:Middlewares/tensorflow/third_party/cmsis_nn/Include/arm_nnsupportfunctions.h ****  *              2. NULL if implementation is not available.
 188:Middlewares/tensorflow/third_party/cmsis_nn/Include/arm_nnsupportfunctions.h ****  *
 189:Middlewares/tensorflow/third_party/cmsis_nn/Include/arm_nnsupportfunctions.h ****  * @details   Supported framework: TensorFlow Lite
ARM GAS  /tmp/ccRtV34n.s 			page 8


 190:Middlewares/tensorflow/third_party/cmsis_nn/Include/arm_nnsupportfunctions.h ****  */
 191:Middlewares/tensorflow/third_party/cmsis_nn/Include/arm_nnsupportfunctions.h **** int8_t *arm_nn_mat_mult_s8(const int8_t *input_row,
 192:Middlewares/tensorflow/third_party/cmsis_nn/Include/arm_nnsupportfunctions.h ****                            const int8_t *input_col,
 193:Middlewares/tensorflow/third_party/cmsis_nn/Include/arm_nnsupportfunctions.h ****                            const uint16_t output_ch,
 194:Middlewares/tensorflow/third_party/cmsis_nn/Include/arm_nnsupportfunctions.h ****                            const uint16_t col_batches,
 195:Middlewares/tensorflow/third_party/cmsis_nn/Include/arm_nnsupportfunctions.h ****                            const int32_t *output_shift,
 196:Middlewares/tensorflow/third_party/cmsis_nn/Include/arm_nnsupportfunctions.h ****                            const int32_t *output_mult,
 197:Middlewares/tensorflow/third_party/cmsis_nn/Include/arm_nnsupportfunctions.h ****                            const int32_t out_offset,
 198:Middlewares/tensorflow/third_party/cmsis_nn/Include/arm_nnsupportfunctions.h ****                            const int32_t col_offset,
 199:Middlewares/tensorflow/third_party/cmsis_nn/Include/arm_nnsupportfunctions.h ****                            const int32_t row_offset,
 200:Middlewares/tensorflow/third_party/cmsis_nn/Include/arm_nnsupportfunctions.h ****                            const int16_t out_activation_min,
 201:Middlewares/tensorflow/third_party/cmsis_nn/Include/arm_nnsupportfunctions.h ****                            const int16_t out_activation_max,
 202:Middlewares/tensorflow/third_party/cmsis_nn/Include/arm_nnsupportfunctions.h ****                            const uint16_t row_len,
 203:Middlewares/tensorflow/third_party/cmsis_nn/Include/arm_nnsupportfunctions.h ****                            const int32_t *const bias,
 204:Middlewares/tensorflow/third_party/cmsis_nn/Include/arm_nnsupportfunctions.h ****                            int8_t *out);
 205:Middlewares/tensorflow/third_party/cmsis_nn/Include/arm_nnsupportfunctions.h **** /**
 206:Middlewares/tensorflow/third_party/cmsis_nn/Include/arm_nnsupportfunctions.h ****  * @brief Matrix-multiplication function for convolution with per-channel requantization for 16 bit
 207:Middlewares/tensorflow/third_party/cmsis_nn/Include/arm_nnsupportfunctions.h ****  * @param[in]       input_a     pointer to operand A
 208:Middlewares/tensorflow/third_party/cmsis_nn/Include/arm_nnsupportfunctions.h ****  * @param[in]       input_b     pointer to operand B, always consists of 2 vectors.
 209:Middlewares/tensorflow/third_party/cmsis_nn/Include/arm_nnsupportfunctions.h ****  * @param[in]       output_ch   number of rows of A
 210:Middlewares/tensorflow/third_party/cmsis_nn/Include/arm_nnsupportfunctions.h ****  * @param[in]       out_shift  pointer to per output channel requantization shift parameter.
 211:Middlewares/tensorflow/third_party/cmsis_nn/Include/arm_nnsupportfunctions.h ****  * @param[in]       out_mult   pointer to per output channel requantization multiplier parameter.
 212:Middlewares/tensorflow/third_party/cmsis_nn/Include/arm_nnsupportfunctions.h ****  * @param[in]       activation_min   minimum value to clamp the output to. Range : int16
 213:Middlewares/tensorflow/third_party/cmsis_nn/Include/arm_nnsupportfunctions.h ****  * @param[in]       activation_max   maximum value to clamp the output to. Range : int16
 214:Middlewares/tensorflow/third_party/cmsis_nn/Include/arm_nnsupportfunctions.h ****  * @param[in]       num_col_a   number of columns of A
 215:Middlewares/tensorflow/third_party/cmsis_nn/Include/arm_nnsupportfunctions.h ****  * @param[in]       output_bias per output channel bias. Range : int64
 216:Middlewares/tensorflow/third_party/cmsis_nn/Include/arm_nnsupportfunctions.h ****  * @param[in,out]   out_0       pointer to output
 217:Middlewares/tensorflow/third_party/cmsis_nn/Include/arm_nnsupportfunctions.h ****  * @return     The function returns one of the two
 218:Middlewares/tensorflow/third_party/cmsis_nn/Include/arm_nnsupportfunctions.h ****  *              1. The incremented output pointer for a successful operation or
 219:Middlewares/tensorflow/third_party/cmsis_nn/Include/arm_nnsupportfunctions.h ****  *              2. NULL if implementation is not available.
 220:Middlewares/tensorflow/third_party/cmsis_nn/Include/arm_nnsupportfunctions.h ****  *
 221:Middlewares/tensorflow/third_party/cmsis_nn/Include/arm_nnsupportfunctions.h ****  * @details   This function does the matrix multiplication of weight matrix for all output channels
 222:Middlewares/tensorflow/third_party/cmsis_nn/Include/arm_nnsupportfunctions.h ****  *            with 2 columns from im2col and produces two elements/output_channel. The outputs are
 223:Middlewares/tensorflow/third_party/cmsis_nn/Include/arm_nnsupportfunctions.h ****  *            clamped in the range provided by activation min and max.
 224:Middlewares/tensorflow/third_party/cmsis_nn/Include/arm_nnsupportfunctions.h ****  *            Supported framework: TensorFlow Lite micro.
 225:Middlewares/tensorflow/third_party/cmsis_nn/Include/arm_nnsupportfunctions.h ****  */
 226:Middlewares/tensorflow/third_party/cmsis_nn/Include/arm_nnsupportfunctions.h **** int16_t *arm_nn_mat_mult_kernel_s16(const int8_t *input_a,
 227:Middlewares/tensorflow/third_party/cmsis_nn/Include/arm_nnsupportfunctions.h ****                                     const int16_t *input_b,
 228:Middlewares/tensorflow/third_party/cmsis_nn/Include/arm_nnsupportfunctions.h ****                                     const int32_t output_ch,
 229:Middlewares/tensorflow/third_party/cmsis_nn/Include/arm_nnsupportfunctions.h ****                                     const int32_t *out_shift,
 230:Middlewares/tensorflow/third_party/cmsis_nn/Include/arm_nnsupportfunctions.h ****                                     const int32_t *out_mult,
 231:Middlewares/tensorflow/third_party/cmsis_nn/Include/arm_nnsupportfunctions.h ****                                     const int16_t activation_min,
 232:Middlewares/tensorflow/third_party/cmsis_nn/Include/arm_nnsupportfunctions.h ****                                     const int16_t activation_max,
 233:Middlewares/tensorflow/third_party/cmsis_nn/Include/arm_nnsupportfunctions.h ****                                     const int32_t num_col_a,
 234:Middlewares/tensorflow/third_party/cmsis_nn/Include/arm_nnsupportfunctions.h ****                                     const int64_t *const output_bias,
 235:Middlewares/tensorflow/third_party/cmsis_nn/Include/arm_nnsupportfunctions.h ****                                     int16_t *out_0);
 236:Middlewares/tensorflow/third_party/cmsis_nn/Include/arm_nnsupportfunctions.h **** 
 237:Middlewares/tensorflow/third_party/cmsis_nn/Include/arm_nnsupportfunctions.h **** /**
 238:Middlewares/tensorflow/third_party/cmsis_nn/Include/arm_nnsupportfunctions.h ****  * @brief General Vector by Matrix multiplication with requantization and storage of result.
 239:Middlewares/tensorflow/third_party/cmsis_nn/Include/arm_nnsupportfunctions.h ****  * @param[in]       row_elements          number of row elements
 240:Middlewares/tensorflow/third_party/cmsis_nn/Include/arm_nnsupportfunctions.h ****  * @param[in]       skipped_row_elements  number of row elements skipped due to padding.
 241:Middlewares/tensorflow/third_party/cmsis_nn/Include/arm_nnsupportfunctions.h ****  *                                        row_elements + skipped_row_elements = (kernel_x * kernel_
 242:Middlewares/tensorflow/third_party/cmsis_nn/Include/arm_nnsupportfunctions.h ****  * @param[in]       row_base_ref          pointer to row operand
 243:Middlewares/tensorflow/third_party/cmsis_nn/Include/arm_nnsupportfunctions.h ****  * @param[in]       col_base_ref          pointer to col operand
 244:Middlewares/tensorflow/third_party/cmsis_nn/Include/arm_nnsupportfunctions.h ****  * @param[out]      out_ch                Number of output channels
 245:Middlewares/tensorflow/third_party/cmsis_nn/Include/arm_nnsupportfunctions.h ****  * @param[in]       conv_params           Pointer to convolution parameters like offsets and activa
 246:Middlewares/tensorflow/third_party/cmsis_nn/Include/arm_nnsupportfunctions.h ****  * @param[in]       quant_params          Pointer to per-channel quantization parameters
ARM GAS  /tmp/ccRtV34n.s 			page 9


 247:Middlewares/tensorflow/third_party/cmsis_nn/Include/arm_nnsupportfunctions.h ****  * @param[in]       bias                  Pointer to optional per-channel bias
 248:Middlewares/tensorflow/third_party/cmsis_nn/Include/arm_nnsupportfunctions.h ****  * @param[out]      output                Pointer to output where int8 results are stored.
 249:Middlewares/tensorflow/third_party/cmsis_nn/Include/arm_nnsupportfunctions.h ****  * @return     The function performs matrix(row_base_ref) multiplication with vector(col_base_ref) 
 250:Middlewares/tensorflow/third_party/cmsis_nn/Include/arm_nnsupportfunctions.h ****  *             scaled result is stored in memory.
 251:Middlewares/tensorflow/third_party/cmsis_nn/Include/arm_nnsupportfunctions.h ****  *
 252:Middlewares/tensorflow/third_party/cmsis_nn/Include/arm_nnsupportfunctions.h ****  * @details Pseudo-code
 253:Middlewares/tensorflow/third_party/cmsis_nn/Include/arm_nnsupportfunctions.h ****  *      *output = 0
 254:Middlewares/tensorflow/third_party/cmsis_nn/Include/arm_nnsupportfunctions.h ****  *      sum_col = 0
 255:Middlewares/tensorflow/third_party/cmsis_nn/Include/arm_nnsupportfunctions.h ****  *      for (j = 0; j < out_ch; j++)
 256:Middlewares/tensorflow/third_party/cmsis_nn/Include/arm_nnsupportfunctions.h ****  *      for (i = 0; i < row_elements; i++)
 257:Middlewares/tensorflow/third_party/cmsis_nn/Include/arm_nnsupportfunctions.h ****  *          *output += row_base_ref[i] * col_base_ref[i]
 258:Middlewares/tensorflow/third_party/cmsis_nn/Include/arm_nnsupportfunctions.h ****  *          sum_col += col_base_ref[i]
 259:Middlewares/tensorflow/third_party/cmsis_nn/Include/arm_nnsupportfunctions.h ****  *      scale sum_col using quant_params and bias
 260:Middlewares/tensorflow/third_party/cmsis_nn/Include/arm_nnsupportfunctions.h ****  *      store result in 'output'
 261:Middlewares/tensorflow/third_party/cmsis_nn/Include/arm_nnsupportfunctions.h ****  *
 262:Middlewares/tensorflow/third_party/cmsis_nn/Include/arm_nnsupportfunctions.h ****  *
 263:Middlewares/tensorflow/third_party/cmsis_nn/Include/arm_nnsupportfunctions.h ****  */
 264:Middlewares/tensorflow/third_party/cmsis_nn/Include/arm_nnsupportfunctions.h **** arm_cmsis_nn_status arm_nn_mat_mul_core_1x_s8(int32_t row_elements,
 265:Middlewares/tensorflow/third_party/cmsis_nn/Include/arm_nnsupportfunctions.h ****                                               const int32_t skipped_row_elements,
 266:Middlewares/tensorflow/third_party/cmsis_nn/Include/arm_nnsupportfunctions.h ****                                               const int8_t *row_base_ref,
 267:Middlewares/tensorflow/third_party/cmsis_nn/Include/arm_nnsupportfunctions.h ****                                               const int8_t *col_base_ref,
 268:Middlewares/tensorflow/third_party/cmsis_nn/Include/arm_nnsupportfunctions.h ****                                               const int32_t out_ch,
 269:Middlewares/tensorflow/third_party/cmsis_nn/Include/arm_nnsupportfunctions.h ****                                               const cmsis_nn_conv_params *conv_params,
 270:Middlewares/tensorflow/third_party/cmsis_nn/Include/arm_nnsupportfunctions.h ****                                               const cmsis_nn_per_channel_quant_params *quant_params
 271:Middlewares/tensorflow/third_party/cmsis_nn/Include/arm_nnsupportfunctions.h ****                                               const int32_t *bias,
 272:Middlewares/tensorflow/third_party/cmsis_nn/Include/arm_nnsupportfunctions.h ****                                               int8_t *output);
 273:Middlewares/tensorflow/third_party/cmsis_nn/Include/arm_nnsupportfunctions.h **** 
 274:Middlewares/tensorflow/third_party/cmsis_nn/Include/arm_nnsupportfunctions.h **** /**
 275:Middlewares/tensorflow/third_party/cmsis_nn/Include/arm_nnsupportfunctions.h ****  * @brief Matrix-multiplication with requantization & activation function for four rows and one col
 276:Middlewares/tensorflow/third_party/cmsis_nn/Include/arm_nnsupportfunctions.h ****  * @param[in]       row_elements  number of row elements
 277:Middlewares/tensorflow/third_party/cmsis_nn/Include/arm_nnsupportfunctions.h ****  * @param[in]       offset        offset between rows. Can be the same as row_elements.
 278:Middlewares/tensorflow/third_party/cmsis_nn/Include/arm_nnsupportfunctions.h ****  *                                For e.g, in a 1x1 conv scenario with stride as 1.
 279:Middlewares/tensorflow/third_party/cmsis_nn/Include/arm_nnsupportfunctions.h ****  * @param[in]       row_base      pointer to row operand
 280:Middlewares/tensorflow/third_party/cmsis_nn/Include/arm_nnsupportfunctions.h ****  * @param[in]       col_base      pointer to col operand
 281:Middlewares/tensorflow/third_party/cmsis_nn/Include/arm_nnsupportfunctions.h ****  * @param[in]       out_ch        Number of output channels
 282:Middlewares/tensorflow/third_party/cmsis_nn/Include/arm_nnsupportfunctions.h ****  * @param[in]       conv_params   Pointer to convolution parameters like offsets and activation val
 283:Middlewares/tensorflow/third_party/cmsis_nn/Include/arm_nnsupportfunctions.h ****  * @param[in]       quant_params  Pointer to per-channel quantization parameters
 284:Middlewares/tensorflow/third_party/cmsis_nn/Include/arm_nnsupportfunctions.h ****  * @param[in]       bias          Pointer to per-channel bias
 285:Middlewares/tensorflow/third_party/cmsis_nn/Include/arm_nnsupportfunctions.h ****  * @param[out]      output        Pointer to output where int8 results are stored.
 286:Middlewares/tensorflow/third_party/cmsis_nn/Include/arm_nnsupportfunctions.h ****  *
 287:Middlewares/tensorflow/third_party/cmsis_nn/Include/arm_nnsupportfunctions.h ****  * @return     The function returns the updated output pointer or NULL if implementation is not ava
 288:Middlewares/tensorflow/third_party/cmsis_nn/Include/arm_nnsupportfunctions.h ****  *
 289:Middlewares/tensorflow/third_party/cmsis_nn/Include/arm_nnsupportfunctions.h ****  * @details Compliant to TFLM int8 specification. MVE implementation only
 290:Middlewares/tensorflow/third_party/cmsis_nn/Include/arm_nnsupportfunctions.h ****  */
 291:Middlewares/tensorflow/third_party/cmsis_nn/Include/arm_nnsupportfunctions.h **** int8_t *arm_nn_mat_mul_core_4x_s8(const int32_t row_elements,
 292:Middlewares/tensorflow/third_party/cmsis_nn/Include/arm_nnsupportfunctions.h ****                                   const int32_t offset,
 293:Middlewares/tensorflow/third_party/cmsis_nn/Include/arm_nnsupportfunctions.h ****                                   const int8_t *row_base,
 294:Middlewares/tensorflow/third_party/cmsis_nn/Include/arm_nnsupportfunctions.h ****                                   const int8_t *col_base,
 295:Middlewares/tensorflow/third_party/cmsis_nn/Include/arm_nnsupportfunctions.h ****                                   const int32_t out_ch,
 296:Middlewares/tensorflow/third_party/cmsis_nn/Include/arm_nnsupportfunctions.h ****                                   const cmsis_nn_conv_params *conv_params,
 297:Middlewares/tensorflow/third_party/cmsis_nn/Include/arm_nnsupportfunctions.h ****                                   const cmsis_nn_per_channel_quant_params *quant_params,
 298:Middlewares/tensorflow/third_party/cmsis_nn/Include/arm_nnsupportfunctions.h ****                                   const int32_t *bias,
 299:Middlewares/tensorflow/third_party/cmsis_nn/Include/arm_nnsupportfunctions.h ****                                   int8_t *output);
 300:Middlewares/tensorflow/third_party/cmsis_nn/Include/arm_nnsupportfunctions.h **** 
 301:Middlewares/tensorflow/third_party/cmsis_nn/Include/arm_nnsupportfunctions.h **** /**
 302:Middlewares/tensorflow/third_party/cmsis_nn/Include/arm_nnsupportfunctions.h ****  * @brief General Matrix-multiplication function with per-channel requantization.
 303:Middlewares/tensorflow/third_party/cmsis_nn/Include/arm_nnsupportfunctions.h ****  *        This function assumes:
ARM GAS  /tmp/ccRtV34n.s 			page 10


 304:Middlewares/tensorflow/third_party/cmsis_nn/Include/arm_nnsupportfunctions.h ****  *        - LHS input matrix NOT transposed (nt)
 305:Middlewares/tensorflow/third_party/cmsis_nn/Include/arm_nnsupportfunctions.h ****  *        - RHS input matrix transposed (t)
 306:Middlewares/tensorflow/third_party/cmsis_nn/Include/arm_nnsupportfunctions.h ****  *
 307:Middlewares/tensorflow/third_party/cmsis_nn/Include/arm_nnsupportfunctions.h ****  *  @note This operation also performs the broadcast bias addition before the requantization
 308:Middlewares/tensorflow/third_party/cmsis_nn/Include/arm_nnsupportfunctions.h ****  *
 309:Middlewares/tensorflow/third_party/cmsis_nn/Include/arm_nnsupportfunctions.h ****  * @param[in]  lhs                Pointer to the LHS input matrix
 310:Middlewares/tensorflow/third_party/cmsis_nn/Include/arm_nnsupportfunctions.h ****  * @param[in]  rhs                Pointer to the RHS input matrix
 311:Middlewares/tensorflow/third_party/cmsis_nn/Include/arm_nnsupportfunctions.h ****  * @param[in]  bias               Pointer to the bias vector. The length of this vector is equal to
 312:Middlewares/tensorflow/third_party/cmsis_nn/Include/arm_nnsupportfunctions.h ****  * output columns (or RHS input rows)
 313:Middlewares/tensorflow/third_party/cmsis_nn/Include/arm_nnsupportfunctions.h ****  * @param[out] dst                Pointer to the output matrix with "m" rows and "n" columns
 314:Middlewares/tensorflow/third_party/cmsis_nn/Include/arm_nnsupportfunctions.h ****  * @param[in]  dst_multipliers    Pointer to the multipliers vector needed for the per-channel requ
 315:Middlewares/tensorflow/third_party/cmsis_nn/Include/arm_nnsupportfunctions.h ****  *                                The length of this vector is equal to the number of output column
 316:Middlewares/tensorflow/third_party/cmsis_nn/Include/arm_nnsupportfunctions.h ****  * rows)
 317:Middlewares/tensorflow/third_party/cmsis_nn/Include/arm_nnsupportfunctions.h ****  * @param[in]  dst_shifts         Pointer to the shifts vector needed for the per-channel requantiz
 318:Middlewares/tensorflow/third_party/cmsis_nn/Include/arm_nnsupportfunctions.h ****  * of this vector is equal to the number of output columns (or RHS input rows)
 319:Middlewares/tensorflow/third_party/cmsis_nn/Include/arm_nnsupportfunctions.h ****  * @param[in]  lhs_rows           Number of LHS input rows
 320:Middlewares/tensorflow/third_party/cmsis_nn/Include/arm_nnsupportfunctions.h ****  * @param[in]  rhs_rows           Number of RHS input rows
 321:Middlewares/tensorflow/third_party/cmsis_nn/Include/arm_nnsupportfunctions.h ****  * @param[in]  rhs_cols           Number of LHS/RHS input columns
 322:Middlewares/tensorflow/third_party/cmsis_nn/Include/arm_nnsupportfunctions.h ****  * @param[in]  lhs_offset         Offset to be applied to the LHS input value
 323:Middlewares/tensorflow/third_party/cmsis_nn/Include/arm_nnsupportfunctions.h ****  * @param[in]  dst_offset         Offset to be applied the output result
 324:Middlewares/tensorflow/third_party/cmsis_nn/Include/arm_nnsupportfunctions.h ****  * @param[in]  activation_min     Minimum value to clamp down the output. Range : int8
 325:Middlewares/tensorflow/third_party/cmsis_nn/Include/arm_nnsupportfunctions.h ****  * @param[in]  activation_max     Maximum value to clamp up the output. Range : int8
 326:Middlewares/tensorflow/third_party/cmsis_nn/Include/arm_nnsupportfunctions.h ****  * @param[in]  rhs_cols_offset    Offset between input columns. Used to handle non-unity strides
 327:Middlewares/tensorflow/third_party/cmsis_nn/Include/arm_nnsupportfunctions.h ****  *                                Expected value : x * rhs_cols, where x >= 1
 328:Middlewares/tensorflow/third_party/cmsis_nn/Include/arm_nnsupportfunctions.h ****  *
 329:Middlewares/tensorflow/third_party/cmsis_nn/Include/arm_nnsupportfunctions.h ****  * @return     The function returns <code>ARM_CMSIS_NN_SUCCESS</code>
 330:Middlewares/tensorflow/third_party/cmsis_nn/Include/arm_nnsupportfunctions.h ****  *
 331:Middlewares/tensorflow/third_party/cmsis_nn/Include/arm_nnsupportfunctions.h ****  */
 332:Middlewares/tensorflow/third_party/cmsis_nn/Include/arm_nnsupportfunctions.h **** arm_cmsis_nn_status arm_nn_mat_mult_nt_t_s8(const int8_t *lhs,
 333:Middlewares/tensorflow/third_party/cmsis_nn/Include/arm_nnsupportfunctions.h ****                                             const int8_t *rhs,
 334:Middlewares/tensorflow/third_party/cmsis_nn/Include/arm_nnsupportfunctions.h ****                                             const int32_t *bias,
 335:Middlewares/tensorflow/third_party/cmsis_nn/Include/arm_nnsupportfunctions.h ****                                             int8_t *dst,
 336:Middlewares/tensorflow/third_party/cmsis_nn/Include/arm_nnsupportfunctions.h ****                                             const int32_t *dst_multipliers,
 337:Middlewares/tensorflow/third_party/cmsis_nn/Include/arm_nnsupportfunctions.h ****                                             const int32_t *dst_shifts,
 338:Middlewares/tensorflow/third_party/cmsis_nn/Include/arm_nnsupportfunctions.h ****                                             const int32_t lhs_rows,
 339:Middlewares/tensorflow/third_party/cmsis_nn/Include/arm_nnsupportfunctions.h ****                                             const int32_t rhs_rows,
 340:Middlewares/tensorflow/third_party/cmsis_nn/Include/arm_nnsupportfunctions.h ****                                             const int32_t rhs_cols,
 341:Middlewares/tensorflow/third_party/cmsis_nn/Include/arm_nnsupportfunctions.h ****                                             const int32_t lhs_offset,
 342:Middlewares/tensorflow/third_party/cmsis_nn/Include/arm_nnsupportfunctions.h ****                                             const int32_t dst_offset,
 343:Middlewares/tensorflow/third_party/cmsis_nn/Include/arm_nnsupportfunctions.h ****                                             const int32_t activation_min,
 344:Middlewares/tensorflow/third_party/cmsis_nn/Include/arm_nnsupportfunctions.h ****                                             const int32_t activation_max,
 345:Middlewares/tensorflow/third_party/cmsis_nn/Include/arm_nnsupportfunctions.h ****                                             const int32_t rhs_cols_offset);
 346:Middlewares/tensorflow/third_party/cmsis_nn/Include/arm_nnsupportfunctions.h **** 
 347:Middlewares/tensorflow/third_party/cmsis_nn/Include/arm_nnsupportfunctions.h **** /**
 348:Middlewares/tensorflow/third_party/cmsis_nn/Include/arm_nnsupportfunctions.h ****  * @brief s8 Vector by Matrix (transposed) multiplication
 349:Middlewares/tensorflow/third_party/cmsis_nn/Include/arm_nnsupportfunctions.h ****  *
 350:Middlewares/tensorflow/third_party/cmsis_nn/Include/arm_nnsupportfunctions.h ****  * @param[in]      lhs             Input left-hand side vector
 351:Middlewares/tensorflow/third_party/cmsis_nn/Include/arm_nnsupportfunctions.h ****  * @param[in]      rhs             Input right-hand side matrix (transposed)
 352:Middlewares/tensorflow/third_party/cmsis_nn/Include/arm_nnsupportfunctions.h ****  * @param[in]      bias            Input bias
 353:Middlewares/tensorflow/third_party/cmsis_nn/Include/arm_nnsupportfunctions.h ****  * @param[out]     dst             Output vector
 354:Middlewares/tensorflow/third_party/cmsis_nn/Include/arm_nnsupportfunctions.h ****  * @param[in]      lhs_offset      Offset to be added to the input values of the left-hand side vec
 355:Middlewares/tensorflow/third_party/cmsis_nn/Include/arm_nnsupportfunctions.h ****  *                                 Range: -127 to 128
 356:Middlewares/tensorflow/third_party/cmsis_nn/Include/arm_nnsupportfunctions.h ****  * @param[in]      dst_offset      Offset to be added to the output values. Range: -127 to 128
 357:Middlewares/tensorflow/third_party/cmsis_nn/Include/arm_nnsupportfunctions.h ****  * @param[in]      dst_multiplier  Output multiplier
 358:Middlewares/tensorflow/third_party/cmsis_nn/Include/arm_nnsupportfunctions.h ****  * @param[in]      dst_shift       Output shift
 359:Middlewares/tensorflow/third_party/cmsis_nn/Include/arm_nnsupportfunctions.h ****  * @param[in]      rhs_cols        Number of columns in the right-hand side input matrix
 360:Middlewares/tensorflow/third_party/cmsis_nn/Include/arm_nnsupportfunctions.h ****  * @param[in]      rhs_rows        Number of rows in the right-hand side input matrix
ARM GAS  /tmp/ccRtV34n.s 			page 11


 361:Middlewares/tensorflow/third_party/cmsis_nn/Include/arm_nnsupportfunctions.h ****  * @param[in]      activation_min  Minimum value to clamp the output to. Range: int8
 362:Middlewares/tensorflow/third_party/cmsis_nn/Include/arm_nnsupportfunctions.h ****  * @param[in]      activation_max  Maximum value to clamp the output to. Range: int8
 363:Middlewares/tensorflow/third_party/cmsis_nn/Include/arm_nnsupportfunctions.h ****  * @param[in]      address_offset  Memory position offset for dst. First output is stored at 'dst',
 364:Middlewares/tensorflow/third_party/cmsis_nn/Include/arm_nnsupportfunctions.h ****  *                                 second at 'dst + address_offset' and so on. Default value is typ
 365:Middlewares/tensorflow/third_party/cmsis_nn/Include/arm_nnsupportfunctions.h ****  *
 366:Middlewares/tensorflow/third_party/cmsis_nn/Include/arm_nnsupportfunctions.h ****  * @return         The function returns <code>ARM_CMSIS_NN_SUCCESS</code>
 367:Middlewares/tensorflow/third_party/cmsis_nn/Include/arm_nnsupportfunctions.h ****  *
 368:Middlewares/tensorflow/third_party/cmsis_nn/Include/arm_nnsupportfunctions.h ****  */
 369:Middlewares/tensorflow/third_party/cmsis_nn/Include/arm_nnsupportfunctions.h **** arm_cmsis_nn_status arm_nn_vec_mat_mult_t_s8(const int8_t *lhs,
 370:Middlewares/tensorflow/third_party/cmsis_nn/Include/arm_nnsupportfunctions.h ****                                              const int8_t *rhs,
 371:Middlewares/tensorflow/third_party/cmsis_nn/Include/arm_nnsupportfunctions.h ****                                              const int32_t *bias,
 372:Middlewares/tensorflow/third_party/cmsis_nn/Include/arm_nnsupportfunctions.h ****                                              int8_t *dst,
 373:Middlewares/tensorflow/third_party/cmsis_nn/Include/arm_nnsupportfunctions.h ****                                              const int32_t lhs_offset,
 374:Middlewares/tensorflow/third_party/cmsis_nn/Include/arm_nnsupportfunctions.h ****                                              const int32_t dst_offset,
 375:Middlewares/tensorflow/third_party/cmsis_nn/Include/arm_nnsupportfunctions.h ****                                              const int32_t dst_multiplier,
 376:Middlewares/tensorflow/third_party/cmsis_nn/Include/arm_nnsupportfunctions.h ****                                              const int32_t dst_shift,
 377:Middlewares/tensorflow/third_party/cmsis_nn/Include/arm_nnsupportfunctions.h ****                                              const int32_t rhs_cols,
 378:Middlewares/tensorflow/third_party/cmsis_nn/Include/arm_nnsupportfunctions.h ****                                              const int32_t rhs_rows,
 379:Middlewares/tensorflow/third_party/cmsis_nn/Include/arm_nnsupportfunctions.h ****                                              const int32_t activation_min,
 380:Middlewares/tensorflow/third_party/cmsis_nn/Include/arm_nnsupportfunctions.h ****                                              const int32_t activation_max,
 381:Middlewares/tensorflow/third_party/cmsis_nn/Include/arm_nnsupportfunctions.h ****                                              const int32_t address_offset);
 382:Middlewares/tensorflow/third_party/cmsis_nn/Include/arm_nnsupportfunctions.h **** 
 383:Middlewares/tensorflow/third_party/cmsis_nn/Include/arm_nnsupportfunctions.h **** /**
 384:Middlewares/tensorflow/third_party/cmsis_nn/Include/arm_nnsupportfunctions.h ****  * @brief s16 Vector by Matrix (transposed) multiplication
 385:Middlewares/tensorflow/third_party/cmsis_nn/Include/arm_nnsupportfunctions.h ****  *
 386:Middlewares/tensorflow/third_party/cmsis_nn/Include/arm_nnsupportfunctions.h ****  * @param[in]      lhs             Input left-hand side vector
 387:Middlewares/tensorflow/third_party/cmsis_nn/Include/arm_nnsupportfunctions.h ****  * @param[in]      rhs             Input right-hand side matrix (transposed)
 388:Middlewares/tensorflow/third_party/cmsis_nn/Include/arm_nnsupportfunctions.h ****  * @param[in]      bias            Input bias
 389:Middlewares/tensorflow/third_party/cmsis_nn/Include/arm_nnsupportfunctions.h ****  * @param[out]     dst             Output vector
 390:Middlewares/tensorflow/third_party/cmsis_nn/Include/arm_nnsupportfunctions.h ****  * @param[in]      dst_multiplier  Output multiplier
 391:Middlewares/tensorflow/third_party/cmsis_nn/Include/arm_nnsupportfunctions.h ****  * @param[in]      dst_shift       Output shift
 392:Middlewares/tensorflow/third_party/cmsis_nn/Include/arm_nnsupportfunctions.h ****  * @param[in]      rhs_cols        Number of columns in the right-hand side input matrix
 393:Middlewares/tensorflow/third_party/cmsis_nn/Include/arm_nnsupportfunctions.h ****  * @param[in]      rhs_rows        Number of rows in the right-hand side input matrix
 394:Middlewares/tensorflow/third_party/cmsis_nn/Include/arm_nnsupportfunctions.h ****  * @param[in]      activation_min  Minimum value to clamp the output to. Range: int16
 395:Middlewares/tensorflow/third_party/cmsis_nn/Include/arm_nnsupportfunctions.h ****  * @param[in]      activation_max  Maximum value to clamp the output to. Range: int16
 396:Middlewares/tensorflow/third_party/cmsis_nn/Include/arm_nnsupportfunctions.h ****  *
 397:Middlewares/tensorflow/third_party/cmsis_nn/Include/arm_nnsupportfunctions.h ****  * @return         The function returns <code>ARM_CMSIS_NN_SUCCESS</code>
 398:Middlewares/tensorflow/third_party/cmsis_nn/Include/arm_nnsupportfunctions.h ****  *
 399:Middlewares/tensorflow/third_party/cmsis_nn/Include/arm_nnsupportfunctions.h ****  */
 400:Middlewares/tensorflow/third_party/cmsis_nn/Include/arm_nnsupportfunctions.h **** arm_cmsis_nn_status arm_nn_vec_mat_mult_t_s16(const int16_t *lhs,
 401:Middlewares/tensorflow/third_party/cmsis_nn/Include/arm_nnsupportfunctions.h ****                                               const int8_t *rhs,
 402:Middlewares/tensorflow/third_party/cmsis_nn/Include/arm_nnsupportfunctions.h ****                                               const int64_t *bias,
 403:Middlewares/tensorflow/third_party/cmsis_nn/Include/arm_nnsupportfunctions.h ****                                               int16_t *dst,
 404:Middlewares/tensorflow/third_party/cmsis_nn/Include/arm_nnsupportfunctions.h ****                                               const int32_t dst_multiplier,
 405:Middlewares/tensorflow/third_party/cmsis_nn/Include/arm_nnsupportfunctions.h ****                                               const int32_t dst_shift,
 406:Middlewares/tensorflow/third_party/cmsis_nn/Include/arm_nnsupportfunctions.h ****                                               const int32_t rhs_cols,
 407:Middlewares/tensorflow/third_party/cmsis_nn/Include/arm_nnsupportfunctions.h ****                                               const int32_t rhs_rows,
 408:Middlewares/tensorflow/third_party/cmsis_nn/Include/arm_nnsupportfunctions.h ****                                               const int32_t activation_min,
 409:Middlewares/tensorflow/third_party/cmsis_nn/Include/arm_nnsupportfunctions.h ****                                               const int32_t activation_max);
 410:Middlewares/tensorflow/third_party/cmsis_nn/Include/arm_nnsupportfunctions.h **** 
 411:Middlewares/tensorflow/third_party/cmsis_nn/Include/arm_nnsupportfunctions.h **** /**
 412:Middlewares/tensorflow/third_party/cmsis_nn/Include/arm_nnsupportfunctions.h ****  * @brief s8 Vector by Matrix (transposed) multiplication with s16 output
 413:Middlewares/tensorflow/third_party/cmsis_nn/Include/arm_nnsupportfunctions.h ****  *
 414:Middlewares/tensorflow/third_party/cmsis_nn/Include/arm_nnsupportfunctions.h ****  * @param[in]      lhs             Input left-hand side vector
 415:Middlewares/tensorflow/third_party/cmsis_nn/Include/arm_nnsupportfunctions.h ****  * @param[in]      rhs             Input right-hand side matrix (transposed)
 416:Middlewares/tensorflow/third_party/cmsis_nn/Include/arm_nnsupportfunctions.h ****  * @param[out]     dst             Output vector
 417:Middlewares/tensorflow/third_party/cmsis_nn/Include/arm_nnsupportfunctions.h ****  * @param[in]      lhs_offset      Offset to be added to the input values of the left-hand side
ARM GAS  /tmp/ccRtV34n.s 			page 12


 418:Middlewares/tensorflow/third_party/cmsis_nn/Include/arm_nnsupportfunctions.h ****  *                                 vector. Range: -127 to 128
 419:Middlewares/tensorflow/third_party/cmsis_nn/Include/arm_nnsupportfunctions.h ****  * @param[in]      scatter_offset  Address offset for dst. First output is stored at 'dst', the
 420:Middlewares/tensorflow/third_party/cmsis_nn/Include/arm_nnsupportfunctions.h ****  *                                 second at 'dst + scatter_offset' and so on.
 421:Middlewares/tensorflow/third_party/cmsis_nn/Include/arm_nnsupportfunctions.h ****  * @param[in]      dst_multiplier  Output multiplier
 422:Middlewares/tensorflow/third_party/cmsis_nn/Include/arm_nnsupportfunctions.h ****  * @param[in]      dst_shift       Output shift
 423:Middlewares/tensorflow/third_party/cmsis_nn/Include/arm_nnsupportfunctions.h ****  * @param[in]      rhs_cols        Number of columns in the right-hand side input matrix
 424:Middlewares/tensorflow/third_party/cmsis_nn/Include/arm_nnsupportfunctions.h ****  * @param[in]      rhs_rows        Number of rows in the right-hand side input matrix
 425:Middlewares/tensorflow/third_party/cmsis_nn/Include/arm_nnsupportfunctions.h ****  * @param[in]      activation_min  Minimum value to clamp the output to. Range: int16
 426:Middlewares/tensorflow/third_party/cmsis_nn/Include/arm_nnsupportfunctions.h ****  * @param[in]      activation_max  Maximum value to clamp the output to. Range: int16
 427:Middlewares/tensorflow/third_party/cmsis_nn/Include/arm_nnsupportfunctions.h ****  *
 428:Middlewares/tensorflow/third_party/cmsis_nn/Include/arm_nnsupportfunctions.h ****  * @return         The function returns <code>ARM_CMSIS_NN_SUCCESS</code>
 429:Middlewares/tensorflow/third_party/cmsis_nn/Include/arm_nnsupportfunctions.h ****  *
 430:Middlewares/tensorflow/third_party/cmsis_nn/Include/arm_nnsupportfunctions.h ****  */
 431:Middlewares/tensorflow/third_party/cmsis_nn/Include/arm_nnsupportfunctions.h **** arm_cmsis_nn_status arm_nn_vec_mat_mult_t_svdf_s8(const int8_t *lhs,
 432:Middlewares/tensorflow/third_party/cmsis_nn/Include/arm_nnsupportfunctions.h ****                                                   const int8_t *rhs,
 433:Middlewares/tensorflow/third_party/cmsis_nn/Include/arm_nnsupportfunctions.h ****                                                   int16_t *dst,
 434:Middlewares/tensorflow/third_party/cmsis_nn/Include/arm_nnsupportfunctions.h ****                                                   const int32_t lhs_offset,
 435:Middlewares/tensorflow/third_party/cmsis_nn/Include/arm_nnsupportfunctions.h ****                                                   const int32_t scatter_offset,
 436:Middlewares/tensorflow/third_party/cmsis_nn/Include/arm_nnsupportfunctions.h ****                                                   const int32_t dst_multiplier,
 437:Middlewares/tensorflow/third_party/cmsis_nn/Include/arm_nnsupportfunctions.h ****                                                   const int32_t dst_shift,
 438:Middlewares/tensorflow/third_party/cmsis_nn/Include/arm_nnsupportfunctions.h ****                                                   const int32_t rhs_cols,
 439:Middlewares/tensorflow/third_party/cmsis_nn/Include/arm_nnsupportfunctions.h ****                                                   const int32_t rhs_rows,
 440:Middlewares/tensorflow/third_party/cmsis_nn/Include/arm_nnsupportfunctions.h ****                                                   const int32_t activation_min,
 441:Middlewares/tensorflow/third_party/cmsis_nn/Include/arm_nnsupportfunctions.h ****                                                   const int32_t activation_max);
 442:Middlewares/tensorflow/third_party/cmsis_nn/Include/arm_nnsupportfunctions.h **** 
 443:Middlewares/tensorflow/third_party/cmsis_nn/Include/arm_nnsupportfunctions.h **** /**
 444:Middlewares/tensorflow/third_party/cmsis_nn/Include/arm_nnsupportfunctions.h ****  * @brief Depthwise convolution of transposed rhs matrix with 4 lhs matrices. To be used in padded 
 445:Middlewares/tensorflow/third_party/cmsis_nn/Include/arm_nnsupportfunctions.h ****  *        the padding is -lhs_offset(Range: int8). Dimensions are the same for lhs and rhs.
 446:Middlewares/tensorflow/third_party/cmsis_nn/Include/arm_nnsupportfunctions.h ****  *
 447:Middlewares/tensorflow/third_party/cmsis_nn/Include/arm_nnsupportfunctions.h ****  * @param[in]      lhs             Input left-hand side matrix
 448:Middlewares/tensorflow/third_party/cmsis_nn/Include/arm_nnsupportfunctions.h ****  * @param[in]      rhs             Input right-hand side matrix (transposed)
 449:Middlewares/tensorflow/third_party/cmsis_nn/Include/arm_nnsupportfunctions.h ****  * @param[in]      lhs_offset      LHS matrix offset(input offset). Range: -127 to 128
 450:Middlewares/tensorflow/third_party/cmsis_nn/Include/arm_nnsupportfunctions.h ****  * @param[in]      active_ch       Subset of total_ch processed
 451:Middlewares/tensorflow/third_party/cmsis_nn/Include/arm_nnsupportfunctions.h ****  * @param[in]      total_ch        Number of channels in LHS/RHS
 452:Middlewares/tensorflow/third_party/cmsis_nn/Include/arm_nnsupportfunctions.h ****  * @param[in]      out_shift       Per channel output shift. Length of vector is equal to number of
 453:Middlewares/tensorflow/third_party/cmsis_nn/Include/arm_nnsupportfunctions.h ****  * @param[in]      out_mult        Per channel output multiplier. Length of vector is equal to numb
 454:Middlewares/tensorflow/third_party/cmsis_nn/Include/arm_nnsupportfunctions.h ****  * @param[in]      out_offset      Offset to be added to the output values. Range: -127 to 128
 455:Middlewares/tensorflow/third_party/cmsis_nn/Include/arm_nnsupportfunctions.h ****  * @param[in]      activation_min  Minimum value to clamp the output to. Range: int8
 456:Middlewares/tensorflow/third_party/cmsis_nn/Include/arm_nnsupportfunctions.h ****  * @param[in]      activation_max  Maximum value to clamp the output to. Range: int8
 457:Middlewares/tensorflow/third_party/cmsis_nn/Include/arm_nnsupportfunctions.h ****  * @param[in]       row_x_col       (row_dimension * col_dimension) of LHS/RHS matrix
 458:Middlewares/tensorflow/third_party/cmsis_nn/Include/arm_nnsupportfunctions.h ****  * @param[in]      output_bias     Per channel output bias. Length of vector is equal to number of 
 459:Middlewares/tensorflow/third_party/cmsis_nn/Include/arm_nnsupportfunctions.h ****  * @param[in]      out             Output pointer
 460:Middlewares/tensorflow/third_party/cmsis_nn/Include/arm_nnsupportfunctions.h ****  *
 461:Middlewares/tensorflow/third_party/cmsis_nn/Include/arm_nnsupportfunctions.h ****  * @return         The function returns one of the two
 462:Middlewares/tensorflow/third_party/cmsis_nn/Include/arm_nnsupportfunctions.h ****  *                  - Updated output pointer if an implementation is available
 463:Middlewares/tensorflow/third_party/cmsis_nn/Include/arm_nnsupportfunctions.h ****  *                  - NULL if no implementation is available.
 464:Middlewares/tensorflow/third_party/cmsis_nn/Include/arm_nnsupportfunctions.h ****  *
 465:Middlewares/tensorflow/third_party/cmsis_nn/Include/arm_nnsupportfunctions.h ****  * @note           If number of channels is not a multiple of 4, upto 3 elements outside the bounda
 466:Middlewares/tensorflow/third_party/cmsis_nn/Include/arm_nnsupportfunctions.h ****  * out for the following.
 467:Middlewares/tensorflow/third_party/cmsis_nn/Include/arm_nnsupportfunctions.h ****  *                  - Output shift
 468:Middlewares/tensorflow/third_party/cmsis_nn/Include/arm_nnsupportfunctions.h ****  *                  - Output multiplier
 469:Middlewares/tensorflow/third_party/cmsis_nn/Include/arm_nnsupportfunctions.h ****  *                  - Output bias
 470:Middlewares/tensorflow/third_party/cmsis_nn/Include/arm_nnsupportfunctions.h ****  *                  - rhs
 471:Middlewares/tensorflow/third_party/cmsis_nn/Include/arm_nnsupportfunctions.h ****  */
 472:Middlewares/tensorflow/third_party/cmsis_nn/Include/arm_nnsupportfunctions.h **** arm_cmsis_nn_status arm_nn_depthwise_conv_nt_t_padded_s8(const int8_t *lhs,
 473:Middlewares/tensorflow/third_party/cmsis_nn/Include/arm_nnsupportfunctions.h ****                                                          const int8_t *rhs,
 474:Middlewares/tensorflow/third_party/cmsis_nn/Include/arm_nnsupportfunctions.h ****                                                          const int32_t lhs_offset,
ARM GAS  /tmp/ccRtV34n.s 			page 13


 475:Middlewares/tensorflow/third_party/cmsis_nn/Include/arm_nnsupportfunctions.h ****                                                          const int32_t active_ch,
 476:Middlewares/tensorflow/third_party/cmsis_nn/Include/arm_nnsupportfunctions.h ****                                                          const int32_t total_ch,
 477:Middlewares/tensorflow/third_party/cmsis_nn/Include/arm_nnsupportfunctions.h ****                                                          const int32_t *out_shift,
 478:Middlewares/tensorflow/third_party/cmsis_nn/Include/arm_nnsupportfunctions.h ****                                                          const int32_t *out_mult,
 479:Middlewares/tensorflow/third_party/cmsis_nn/Include/arm_nnsupportfunctions.h ****                                                          const int32_t out_offset,
 480:Middlewares/tensorflow/third_party/cmsis_nn/Include/arm_nnsupportfunctions.h ****                                                          const int32_t activation_min,
 481:Middlewares/tensorflow/third_party/cmsis_nn/Include/arm_nnsupportfunctions.h ****                                                          const int32_t activation_max,
 482:Middlewares/tensorflow/third_party/cmsis_nn/Include/arm_nnsupportfunctions.h ****                                                          const uint16_t row_x_col,
 483:Middlewares/tensorflow/third_party/cmsis_nn/Include/arm_nnsupportfunctions.h ****                                                          const int32_t *const output_bias,
 484:Middlewares/tensorflow/third_party/cmsis_nn/Include/arm_nnsupportfunctions.h ****                                                          int8_t *out);
 485:Middlewares/tensorflow/third_party/cmsis_nn/Include/arm_nnsupportfunctions.h **** 
 486:Middlewares/tensorflow/third_party/cmsis_nn/Include/arm_nnsupportfunctions.h **** /**
 487:Middlewares/tensorflow/third_party/cmsis_nn/Include/arm_nnsupportfunctions.h ****  * @brief Depthwise convolution of transposed rhs matrix with 4 lhs matrices. To be used in non-pad
 488:Middlewares/tensorflow/third_party/cmsis_nn/Include/arm_nnsupportfunctions.h ****  *        Dimensions are the same for lhs and rhs.
 489:Middlewares/tensorflow/third_party/cmsis_nn/Include/arm_nnsupportfunctions.h ****  *
 490:Middlewares/tensorflow/third_party/cmsis_nn/Include/arm_nnsupportfunctions.h ****  * @param[in]      lhs             Input left-hand side matrix
 491:Middlewares/tensorflow/third_party/cmsis_nn/Include/arm_nnsupportfunctions.h ****  * @param[in]      rhs             Input right-hand side matrix (transposed)
 492:Middlewares/tensorflow/third_party/cmsis_nn/Include/arm_nnsupportfunctions.h ****  * @param[in]      lhs_offset      LHS matrix offset(input offset). Range: -127 to 128
 493:Middlewares/tensorflow/third_party/cmsis_nn/Include/arm_nnsupportfunctions.h ****  * @param[in]      active_ch       Subset of total_ch processed
 494:Middlewares/tensorflow/third_party/cmsis_nn/Include/arm_nnsupportfunctions.h ****  * @param[in]      total_ch        Number of channels in LHS/RHS
 495:Middlewares/tensorflow/third_party/cmsis_nn/Include/arm_nnsupportfunctions.h ****  * @param[in]      out_shift       Per channel output shift. Length of vector is equal to number of
 496:Middlewares/tensorflow/third_party/cmsis_nn/Include/arm_nnsupportfunctions.h ****  * @param[in]      out_mult        Per channel output multiplier. Length of vector is equal to numb
 497:Middlewares/tensorflow/third_party/cmsis_nn/Include/arm_nnsupportfunctions.h ****  * @param[in]      out_offset      Offset to be added to the output values. Range: -127 to 128
 498:Middlewares/tensorflow/third_party/cmsis_nn/Include/arm_nnsupportfunctions.h ****  * @param[in]      activation_min  Minimum value to clamp the output to. Range: int8
 499:Middlewares/tensorflow/third_party/cmsis_nn/Include/arm_nnsupportfunctions.h ****  * @param[in]      activation_max  Maximum value to clamp the output to. Range: int8
 500:Middlewares/tensorflow/third_party/cmsis_nn/Include/arm_nnsupportfunctions.h ****  * @param[in]       row_x_col       (row_dimension * col_dimension) of LHS/RHS matrix
 501:Middlewares/tensorflow/third_party/cmsis_nn/Include/arm_nnsupportfunctions.h ****  * @param[in]      output_bias     Per channel output bias. Length of vector is equal to number of 
 502:Middlewares/tensorflow/third_party/cmsis_nn/Include/arm_nnsupportfunctions.h ****  * @param[in]      out             Output pointer
 503:Middlewares/tensorflow/third_party/cmsis_nn/Include/arm_nnsupportfunctions.h ****  *
 504:Middlewares/tensorflow/third_party/cmsis_nn/Include/arm_nnsupportfunctions.h ****  * @return         The function returns one of the two
 505:Middlewares/tensorflow/third_party/cmsis_nn/Include/arm_nnsupportfunctions.h ****  *                  - Updated output pointer if an implementation is available
 506:Middlewares/tensorflow/third_party/cmsis_nn/Include/arm_nnsupportfunctions.h ****  *                  - NULL if no implementation is available.
 507:Middlewares/tensorflow/third_party/cmsis_nn/Include/arm_nnsupportfunctions.h ****  *
 508:Middlewares/tensorflow/third_party/cmsis_nn/Include/arm_nnsupportfunctions.h ****  * @note           If number of channels is not a multiple of 4, upto 3 elements outside the bounda
 509:Middlewares/tensorflow/third_party/cmsis_nn/Include/arm_nnsupportfunctions.h ****  * out for the following.
 510:Middlewares/tensorflow/third_party/cmsis_nn/Include/arm_nnsupportfunctions.h ****  *                  - Output shift
 511:Middlewares/tensorflow/third_party/cmsis_nn/Include/arm_nnsupportfunctions.h ****  *                  - Output multiplier
 512:Middlewares/tensorflow/third_party/cmsis_nn/Include/arm_nnsupportfunctions.h ****  *                  - Output bias
 513:Middlewares/tensorflow/third_party/cmsis_nn/Include/arm_nnsupportfunctions.h ****  *                  - rhs
 514:Middlewares/tensorflow/third_party/cmsis_nn/Include/arm_nnsupportfunctions.h ****  */
 515:Middlewares/tensorflow/third_party/cmsis_nn/Include/arm_nnsupportfunctions.h **** arm_cmsis_nn_status arm_nn_depthwise_conv_nt_t_s8(const int8_t *lhs,
 516:Middlewares/tensorflow/third_party/cmsis_nn/Include/arm_nnsupportfunctions.h ****                                                   const int8_t *rhs,
 517:Middlewares/tensorflow/third_party/cmsis_nn/Include/arm_nnsupportfunctions.h ****                                                   const int32_t lhs_offset,
 518:Middlewares/tensorflow/third_party/cmsis_nn/Include/arm_nnsupportfunctions.h ****                                                   const int32_t active_ch,
 519:Middlewares/tensorflow/third_party/cmsis_nn/Include/arm_nnsupportfunctions.h ****                                                   const int32_t total_ch,
 520:Middlewares/tensorflow/third_party/cmsis_nn/Include/arm_nnsupportfunctions.h ****                                                   const int32_t *out_shift,
 521:Middlewares/tensorflow/third_party/cmsis_nn/Include/arm_nnsupportfunctions.h ****                                                   const int32_t *out_mult,
 522:Middlewares/tensorflow/third_party/cmsis_nn/Include/arm_nnsupportfunctions.h ****                                                   const int32_t out_offset,
 523:Middlewares/tensorflow/third_party/cmsis_nn/Include/arm_nnsupportfunctions.h ****                                                   const int32_t activation_min,
 524:Middlewares/tensorflow/third_party/cmsis_nn/Include/arm_nnsupportfunctions.h ****                                                   const int32_t activation_max,
 525:Middlewares/tensorflow/third_party/cmsis_nn/Include/arm_nnsupportfunctions.h ****                                                   const uint16_t row_x_col,
 526:Middlewares/tensorflow/third_party/cmsis_nn/Include/arm_nnsupportfunctions.h ****                                                   const int32_t *const output_bias,
 527:Middlewares/tensorflow/third_party/cmsis_nn/Include/arm_nnsupportfunctions.h ****                                                   int8_t *out);
 528:Middlewares/tensorflow/third_party/cmsis_nn/Include/arm_nnsupportfunctions.h **** 
 529:Middlewares/tensorflow/third_party/cmsis_nn/Include/arm_nnsupportfunctions.h **** /**
 530:Middlewares/tensorflow/third_party/cmsis_nn/Include/arm_nnsupportfunctions.h ****  * @brief Depthwise convolution of transposed rhs matrix with 4 lhs matrices. To be used in non-pad
 531:Middlewares/tensorflow/third_party/cmsis_nn/Include/arm_nnsupportfunctions.h ****  *        Dimensions are the same for lhs and rhs.
ARM GAS  /tmp/ccRtV34n.s 			page 14


 532:Middlewares/tensorflow/third_party/cmsis_nn/Include/arm_nnsupportfunctions.h ****  *
 533:Middlewares/tensorflow/third_party/cmsis_nn/Include/arm_nnsupportfunctions.h ****  * @param[in]      lhs             Input left-hand side matrix
 534:Middlewares/tensorflow/third_party/cmsis_nn/Include/arm_nnsupportfunctions.h ****  * @param[in]      rhs             Input right-hand side matrix (transposed)
 535:Middlewares/tensorflow/third_party/cmsis_nn/Include/arm_nnsupportfunctions.h ****  * @param[in]      num_ch          Number of channels in LHS/RHS
 536:Middlewares/tensorflow/third_party/cmsis_nn/Include/arm_nnsupportfunctions.h ****  * @param[in]      out_shift       Per channel output shift. Length of vector is equal to number of
 537:Middlewares/tensorflow/third_party/cmsis_nn/Include/arm_nnsupportfunctions.h ****  * @param[in]      out_mult        Per channel output multiplier. Length of vector is equal to numb
 538:Middlewares/tensorflow/third_party/cmsis_nn/Include/arm_nnsupportfunctions.h ****  * @param[in]      activation_min  Minimum value to clamp the output to. Range: int8
 539:Middlewares/tensorflow/third_party/cmsis_nn/Include/arm_nnsupportfunctions.h ****  * @param[in]      activation_max  Maximum value to clamp the output to. Range: int8
 540:Middlewares/tensorflow/third_party/cmsis_nn/Include/arm_nnsupportfunctions.h ****  * @param[in]       row_x_col       (row_dimension * col_dimension) of LHS/RHS matrix
 541:Middlewares/tensorflow/third_party/cmsis_nn/Include/arm_nnsupportfunctions.h ****  * @param[in]      output_bias     Per channel output bias. Length of vector is equal to number of 
 542:Middlewares/tensorflow/third_party/cmsis_nn/Include/arm_nnsupportfunctions.h ****  * @param[in]      out             Output pointer
 543:Middlewares/tensorflow/third_party/cmsis_nn/Include/arm_nnsupportfunctions.h ****  *
 544:Middlewares/tensorflow/third_party/cmsis_nn/Include/arm_nnsupportfunctions.h ****  * @return         The function returns one of the two
 545:Middlewares/tensorflow/third_party/cmsis_nn/Include/arm_nnsupportfunctions.h ****  *                  - Updated output pointer if an implementation is available
 546:Middlewares/tensorflow/third_party/cmsis_nn/Include/arm_nnsupportfunctions.h ****  *                  - NULL if no implementation is available.
 547:Middlewares/tensorflow/third_party/cmsis_nn/Include/arm_nnsupportfunctions.h ****  *
 548:Middlewares/tensorflow/third_party/cmsis_nn/Include/arm_nnsupportfunctions.h ****  * @note           If number of channels is not a multiple of 4, upto 3 elements outside the bounda
 549:Middlewares/tensorflow/third_party/cmsis_nn/Include/arm_nnsupportfunctions.h ****  * out for the following.
 550:Middlewares/tensorflow/third_party/cmsis_nn/Include/arm_nnsupportfunctions.h ****  *                  - Output shift
 551:Middlewares/tensorflow/third_party/cmsis_nn/Include/arm_nnsupportfunctions.h ****  *                  - Output multiplier
 552:Middlewares/tensorflow/third_party/cmsis_nn/Include/arm_nnsupportfunctions.h ****  *                  - Output bias
 553:Middlewares/tensorflow/third_party/cmsis_nn/Include/arm_nnsupportfunctions.h ****  *                  - rhs
 554:Middlewares/tensorflow/third_party/cmsis_nn/Include/arm_nnsupportfunctions.h ****  */
 555:Middlewares/tensorflow/third_party/cmsis_nn/Include/arm_nnsupportfunctions.h **** int16_t *arm_nn_depthwise_conv_nt_t_s16(const int16_t *lhs,
 556:Middlewares/tensorflow/third_party/cmsis_nn/Include/arm_nnsupportfunctions.h ****                                         const int8_t *rhs,
 557:Middlewares/tensorflow/third_party/cmsis_nn/Include/arm_nnsupportfunctions.h ****                                         const uint16_t num_ch,
 558:Middlewares/tensorflow/third_party/cmsis_nn/Include/arm_nnsupportfunctions.h ****                                         const int32_t *out_shift,
 559:Middlewares/tensorflow/third_party/cmsis_nn/Include/arm_nnsupportfunctions.h ****                                         const int32_t *out_mult,
 560:Middlewares/tensorflow/third_party/cmsis_nn/Include/arm_nnsupportfunctions.h ****                                         const int32_t activation_min,
 561:Middlewares/tensorflow/third_party/cmsis_nn/Include/arm_nnsupportfunctions.h ****                                         const int32_t activation_max,
 562:Middlewares/tensorflow/third_party/cmsis_nn/Include/arm_nnsupportfunctions.h ****                                         const uint16_t row_x_col,
 563:Middlewares/tensorflow/third_party/cmsis_nn/Include/arm_nnsupportfunctions.h ****                                         const int64_t *const output_bias,
 564:Middlewares/tensorflow/third_party/cmsis_nn/Include/arm_nnsupportfunctions.h ****                                         int16_t *out);
 565:Middlewares/tensorflow/third_party/cmsis_nn/Include/arm_nnsupportfunctions.h **** 
 566:Middlewares/tensorflow/third_party/cmsis_nn/Include/arm_nnsupportfunctions.h **** /**
 567:Middlewares/tensorflow/third_party/cmsis_nn/Include/arm_nnsupportfunctions.h ****   @brief         Read 2 s16 elements and post increment pointer.
 568:Middlewares/tensorflow/third_party/cmsis_nn/Include/arm_nnsupportfunctions.h ****   @param[in]     in_q15   Pointer to pointer that holds address of input.
 569:Middlewares/tensorflow/third_party/cmsis_nn/Include/arm_nnsupportfunctions.h ****   @return        q31 value
 570:Middlewares/tensorflow/third_party/cmsis_nn/Include/arm_nnsupportfunctions.h ****  */
 571:Middlewares/tensorflow/third_party/cmsis_nn/Include/arm_nnsupportfunctions.h **** __STATIC_FORCEINLINE int32_t arm_nn_read_q15x2_ia(const int16_t **in_q15)
 572:Middlewares/tensorflow/third_party/cmsis_nn/Include/arm_nnsupportfunctions.h **** {
 573:Middlewares/tensorflow/third_party/cmsis_nn/Include/arm_nnsupportfunctions.h ****     int32_t val;
 574:Middlewares/tensorflow/third_party/cmsis_nn/Include/arm_nnsupportfunctions.h **** 
 575:Middlewares/tensorflow/third_party/cmsis_nn/Include/arm_nnsupportfunctions.h ****     memcpy(&val, *in_q15, 4);
 576:Middlewares/tensorflow/third_party/cmsis_nn/Include/arm_nnsupportfunctions.h ****     *in_q15 += 2;
 577:Middlewares/tensorflow/third_party/cmsis_nn/Include/arm_nnsupportfunctions.h **** 
 578:Middlewares/tensorflow/third_party/cmsis_nn/Include/arm_nnsupportfunctions.h ****     return (val);
 579:Middlewares/tensorflow/third_party/cmsis_nn/Include/arm_nnsupportfunctions.h **** }
 580:Middlewares/tensorflow/third_party/cmsis_nn/Include/arm_nnsupportfunctions.h **** 
 581:Middlewares/tensorflow/third_party/cmsis_nn/Include/arm_nnsupportfunctions.h **** /**
 582:Middlewares/tensorflow/third_party/cmsis_nn/Include/arm_nnsupportfunctions.h ****   @brief         Read 4 s8 from s8 pointer and post increment pointer.
 583:Middlewares/tensorflow/third_party/cmsis_nn/Include/arm_nnsupportfunctions.h ****   @param[in]     in_s8       Pointer to pointer that holds address of input.
 584:Middlewares/tensorflow/third_party/cmsis_nn/Include/arm_nnsupportfunctions.h ****   @return        q31 value
 585:Middlewares/tensorflow/third_party/cmsis_nn/Include/arm_nnsupportfunctions.h ****  */
 586:Middlewares/tensorflow/third_party/cmsis_nn/Include/arm_nnsupportfunctions.h **** __STATIC_FORCEINLINE int32_t arm_nn_read_s8x4_ia(const int8_t **in_s8)
 587:Middlewares/tensorflow/third_party/cmsis_nn/Include/arm_nnsupportfunctions.h **** {
 588:Middlewares/tensorflow/third_party/cmsis_nn/Include/arm_nnsupportfunctions.h ****     int32_t val;
ARM GAS  /tmp/ccRtV34n.s 			page 15


 589:Middlewares/tensorflow/third_party/cmsis_nn/Include/arm_nnsupportfunctions.h ****     memcpy(&val, *in_s8, 4);
 590:Middlewares/tensorflow/third_party/cmsis_nn/Include/arm_nnsupportfunctions.h ****     *in_s8 += 4;
 591:Middlewares/tensorflow/third_party/cmsis_nn/Include/arm_nnsupportfunctions.h **** 
 592:Middlewares/tensorflow/third_party/cmsis_nn/Include/arm_nnsupportfunctions.h ****     return (val);
 593:Middlewares/tensorflow/third_party/cmsis_nn/Include/arm_nnsupportfunctions.h **** }
 594:Middlewares/tensorflow/third_party/cmsis_nn/Include/arm_nnsupportfunctions.h **** 
 595:Middlewares/tensorflow/third_party/cmsis_nn/Include/arm_nnsupportfunctions.h **** /**
 596:Middlewares/tensorflow/third_party/cmsis_nn/Include/arm_nnsupportfunctions.h ****   @brief         Read 2 int16 values from int16 pointer.
 597:Middlewares/tensorflow/third_party/cmsis_nn/Include/arm_nnsupportfunctions.h ****   @param[in]     in     pointer to address of input.
 598:Middlewares/tensorflow/third_party/cmsis_nn/Include/arm_nnsupportfunctions.h ****   @return        s32    value
 599:Middlewares/tensorflow/third_party/cmsis_nn/Include/arm_nnsupportfunctions.h ****  */
 600:Middlewares/tensorflow/third_party/cmsis_nn/Include/arm_nnsupportfunctions.h **** __STATIC_FORCEINLINE int32_t arm_nn_read_s16x2(const int16_t *in)
 601:Middlewares/tensorflow/third_party/cmsis_nn/Include/arm_nnsupportfunctions.h **** {
 602:Middlewares/tensorflow/third_party/cmsis_nn/Include/arm_nnsupportfunctions.h ****     int32_t val;
 603:Middlewares/tensorflow/third_party/cmsis_nn/Include/arm_nnsupportfunctions.h ****     memcpy(&val, in, 4);
 604:Middlewares/tensorflow/third_party/cmsis_nn/Include/arm_nnsupportfunctions.h **** 
 605:Middlewares/tensorflow/third_party/cmsis_nn/Include/arm_nnsupportfunctions.h ****     return (val);
 606:Middlewares/tensorflow/third_party/cmsis_nn/Include/arm_nnsupportfunctions.h **** }
 607:Middlewares/tensorflow/third_party/cmsis_nn/Include/arm_nnsupportfunctions.h **** 
 608:Middlewares/tensorflow/third_party/cmsis_nn/Include/arm_nnsupportfunctions.h **** /**
 609:Middlewares/tensorflow/third_party/cmsis_nn/Include/arm_nnsupportfunctions.h ****   @brief         Read 4 s8 values.
 610:Middlewares/tensorflow/third_party/cmsis_nn/Include/arm_nnsupportfunctions.h ****   @param[in]     in_s8       pointer to address of input.
 611:Middlewares/tensorflow/third_party/cmsis_nn/Include/arm_nnsupportfunctions.h ****   @return        s32 value
 612:Middlewares/tensorflow/third_party/cmsis_nn/Include/arm_nnsupportfunctions.h ****  */
 613:Middlewares/tensorflow/third_party/cmsis_nn/Include/arm_nnsupportfunctions.h **** __STATIC_FORCEINLINE int32_t arm_nn_read_s8x4(const int8_t *in_s8)
 614:Middlewares/tensorflow/third_party/cmsis_nn/Include/arm_nnsupportfunctions.h **** {
 615:Middlewares/tensorflow/third_party/cmsis_nn/Include/arm_nnsupportfunctions.h ****     int32_t val;
 616:Middlewares/tensorflow/third_party/cmsis_nn/Include/arm_nnsupportfunctions.h ****     memcpy(&val, in_s8, 4);
 617:Middlewares/tensorflow/third_party/cmsis_nn/Include/arm_nnsupportfunctions.h **** 
 618:Middlewares/tensorflow/third_party/cmsis_nn/Include/arm_nnsupportfunctions.h ****     return (val);
 619:Middlewares/tensorflow/third_party/cmsis_nn/Include/arm_nnsupportfunctions.h **** }
 620:Middlewares/tensorflow/third_party/cmsis_nn/Include/arm_nnsupportfunctions.h **** 
 621:Middlewares/tensorflow/third_party/cmsis_nn/Include/arm_nnsupportfunctions.h **** /**
 622:Middlewares/tensorflow/third_party/cmsis_nn/Include/arm_nnsupportfunctions.h ****   @brief         Write four s8 to s8 pointer and increment pointer afterwards.
 623:Middlewares/tensorflow/third_party/cmsis_nn/Include/arm_nnsupportfunctions.h ****   @param[in]     in       Double pointer to input value
 624:Middlewares/tensorflow/third_party/cmsis_nn/Include/arm_nnsupportfunctions.h ****   @param[in]     value    Four bytes to copy
 625:Middlewares/tensorflow/third_party/cmsis_nn/Include/arm_nnsupportfunctions.h ****  */
 626:Middlewares/tensorflow/third_party/cmsis_nn/Include/arm_nnsupportfunctions.h **** __STATIC_FORCEINLINE void arm_nn_write_s8x4_ia(int8_t **in, int32_t value)
 627:Middlewares/tensorflow/third_party/cmsis_nn/Include/arm_nnsupportfunctions.h **** {
 628:Middlewares/tensorflow/third_party/cmsis_nn/Include/arm_nnsupportfunctions.h ****     memcpy(*in, &value, 4);
 629:Middlewares/tensorflow/third_party/cmsis_nn/Include/arm_nnsupportfunctions.h ****     *in += 4;
 630:Middlewares/tensorflow/third_party/cmsis_nn/Include/arm_nnsupportfunctions.h **** }
 631:Middlewares/tensorflow/third_party/cmsis_nn/Include/arm_nnsupportfunctions.h **** 
 632:Middlewares/tensorflow/third_party/cmsis_nn/Include/arm_nnsupportfunctions.h **** /**
 633:Middlewares/tensorflow/third_party/cmsis_nn/Include/arm_nnsupportfunctions.h ****  * @brief           memset optimized for MVE
 634:Middlewares/tensorflow/third_party/cmsis_nn/Include/arm_nnsupportfunctions.h ****  * @param[in, out]  dst         Destination pointer
 635:Middlewares/tensorflow/third_party/cmsis_nn/Include/arm_nnsupportfunctions.h ****  * @param[in]       val         Value to set
 636:Middlewares/tensorflow/third_party/cmsis_nn/Include/arm_nnsupportfunctions.h ****  * @param[in]       block_size  Number of bytes to copy.
 637:Middlewares/tensorflow/third_party/cmsis_nn/Include/arm_nnsupportfunctions.h ****  *
 638:Middlewares/tensorflow/third_party/cmsis_nn/Include/arm_nnsupportfunctions.h ****  */
 639:Middlewares/tensorflow/third_party/cmsis_nn/Include/arm_nnsupportfunctions.h **** __STATIC_FORCEINLINE void arm_memset_s8(int8_t *dst, const int8_t val, uint32_t block_size)
 640:Middlewares/tensorflow/third_party/cmsis_nn/Include/arm_nnsupportfunctions.h **** {
 641:Middlewares/tensorflow/third_party/cmsis_nn/Include/arm_nnsupportfunctions.h **** #if defined(ARM_MATH_MVEI)
 642:Middlewares/tensorflow/third_party/cmsis_nn/Include/arm_nnsupportfunctions.h ****     __asm volatile("   vdup.8                  q0, %[set_val]             \n"
 643:Middlewares/tensorflow/third_party/cmsis_nn/Include/arm_nnsupportfunctions.h ****                    "   wlstp.8                 lr, %[cnt], 1f             \n"
 644:Middlewares/tensorflow/third_party/cmsis_nn/Include/arm_nnsupportfunctions.h ****                    "2:                                                    \n"
 645:Middlewares/tensorflow/third_party/cmsis_nn/Include/arm_nnsupportfunctions.h ****                    "   vstrb.8                 q0, [%[in]], #16            \n"
ARM GAS  /tmp/ccRtV34n.s 			page 16


 646:Middlewares/tensorflow/third_party/cmsis_nn/Include/arm_nnsupportfunctions.h ****                    "   letp                    lr, 2b                     \n"
 647:Middlewares/tensorflow/third_party/cmsis_nn/Include/arm_nnsupportfunctions.h ****                    "1:                                                    \n"
 648:Middlewares/tensorflow/third_party/cmsis_nn/Include/arm_nnsupportfunctions.h ****                    : [in] "+r"(dst)
 649:Middlewares/tensorflow/third_party/cmsis_nn/Include/arm_nnsupportfunctions.h ****                    : [cnt] "r"(block_size), [set_val] "r"(val)
 650:Middlewares/tensorflow/third_party/cmsis_nn/Include/arm_nnsupportfunctions.h ****                    : "q0", "memory", "r14");
 651:Middlewares/tensorflow/third_party/cmsis_nn/Include/arm_nnsupportfunctions.h **** #else
 652:Middlewares/tensorflow/third_party/cmsis_nn/Include/arm_nnsupportfunctions.h ****     memset(dst, val, block_size);
 653:Middlewares/tensorflow/third_party/cmsis_nn/Include/arm_nnsupportfunctions.h **** #endif
 654:Middlewares/tensorflow/third_party/cmsis_nn/Include/arm_nnsupportfunctions.h **** }
 655:Middlewares/tensorflow/third_party/cmsis_nn/Include/arm_nnsupportfunctions.h **** 
 656:Middlewares/tensorflow/third_party/cmsis_nn/Include/arm_nnsupportfunctions.h **** #if defined(ARM_MATH_DSP)
 657:Middlewares/tensorflow/third_party/cmsis_nn/Include/arm_nnsupportfunctions.h **** 
 658:Middlewares/tensorflow/third_party/cmsis_nn/Include/arm_nnsupportfunctions.h **** /**
 659:Middlewares/tensorflow/third_party/cmsis_nn/Include/arm_nnsupportfunctions.h ****  * @brief read and expand one s8 word into two s16 words
 660:Middlewares/tensorflow/third_party/cmsis_nn/Include/arm_nnsupportfunctions.h ****  */
 661:Middlewares/tensorflow/third_party/cmsis_nn/Include/arm_nnsupportfunctions.h **** 
 662:Middlewares/tensorflow/third_party/cmsis_nn/Include/arm_nnsupportfunctions.h **** __STATIC_FORCEINLINE const int8_t *read_and_pad(const int8_t *source, int32_t *out1, int32_t *out2)
 663:Middlewares/tensorflow/third_party/cmsis_nn/Include/arm_nnsupportfunctions.h **** {
 664:Middlewares/tensorflow/third_party/cmsis_nn/Include/arm_nnsupportfunctions.h ****     int32_t inA = arm_nn_read_s8x4_ia(&source);
 665:Middlewares/tensorflow/third_party/cmsis_nn/Include/arm_nnsupportfunctions.h ****     int32_t inAbuf1 = SXTB16_RORn((uint32_t)inA, 8);
 666:Middlewares/tensorflow/third_party/cmsis_nn/Include/arm_nnsupportfunctions.h ****     int32_t inAbuf2 = SXTB16(inA);
 667:Middlewares/tensorflow/third_party/cmsis_nn/Include/arm_nnsupportfunctions.h **** 
 668:Middlewares/tensorflow/third_party/cmsis_nn/Include/arm_nnsupportfunctions.h ****     #ifndef ARM_MATH_BIG_ENDIAN
 669:Middlewares/tensorflow/third_party/cmsis_nn/Include/arm_nnsupportfunctions.h ****     *out2 = (int32_t)(PKHTB(inAbuf1, inAbuf2, 16));
 670:Middlewares/tensorflow/third_party/cmsis_nn/Include/arm_nnsupportfunctions.h ****     *out1 = (int32_t)(PKHBT(inAbuf2, inAbuf1, 16));
 671:Middlewares/tensorflow/third_party/cmsis_nn/Include/arm_nnsupportfunctions.h ****     #else
 672:Middlewares/tensorflow/third_party/cmsis_nn/Include/arm_nnsupportfunctions.h ****     *out1 = (int32_t)(PKHTB(inAbuf1, inAbuf2, 16));
 673:Middlewares/tensorflow/third_party/cmsis_nn/Include/arm_nnsupportfunctions.h ****     *out2 = (int32_t)(PKHBT(inAbuf2, inAbuf1, 16));
 674:Middlewares/tensorflow/third_party/cmsis_nn/Include/arm_nnsupportfunctions.h ****     #endif
 675:Middlewares/tensorflow/third_party/cmsis_nn/Include/arm_nnsupportfunctions.h **** 
 676:Middlewares/tensorflow/third_party/cmsis_nn/Include/arm_nnsupportfunctions.h ****     return source;
 677:Middlewares/tensorflow/third_party/cmsis_nn/Include/arm_nnsupportfunctions.h **** }
 678:Middlewares/tensorflow/third_party/cmsis_nn/Include/arm_nnsupportfunctions.h **** 
 679:Middlewares/tensorflow/third_party/cmsis_nn/Include/arm_nnsupportfunctions.h **** /**
 680:Middlewares/tensorflow/third_party/cmsis_nn/Include/arm_nnsupportfunctions.h ****  * @brief read and expand one s8 word into two s16 words with reordering
 681:Middlewares/tensorflow/third_party/cmsis_nn/Include/arm_nnsupportfunctions.h ****  */
 682:Middlewares/tensorflow/third_party/cmsis_nn/Include/arm_nnsupportfunctions.h **** 
 683:Middlewares/tensorflow/third_party/cmsis_nn/Include/arm_nnsupportfunctions.h **** __STATIC_FORCEINLINE const int8_t *read_and_pad_reordered(const int8_t *source, int32_t *out1, int3
 684:Middlewares/tensorflow/third_party/cmsis_nn/Include/arm_nnsupportfunctions.h **** {
 685:Middlewares/tensorflow/third_party/cmsis_nn/Include/arm_nnsupportfunctions.h ****     int32_t inA = arm_nn_read_s8x4_ia(&source);
 686:Middlewares/tensorflow/third_party/cmsis_nn/Include/arm_nnsupportfunctions.h ****     #ifndef ARM_MATH_BIG_ENDIAN
 687:Middlewares/tensorflow/third_party/cmsis_nn/Include/arm_nnsupportfunctions.h ****     *out2 = SXTB16(ROR((uint32_t)inA, 8));
 688:Middlewares/tensorflow/third_party/cmsis_nn/Include/arm_nnsupportfunctions.h ****     *out1 = SXTB16(inA);
 689:Middlewares/tensorflow/third_party/cmsis_nn/Include/arm_nnsupportfunctions.h ****     #else
 690:Middlewares/tensorflow/third_party/cmsis_nn/Include/arm_nnsupportfunctions.h ****     *out1 = SXTB16(ROR((uint32_t)inA, 8));
 691:Middlewares/tensorflow/third_party/cmsis_nn/Include/arm_nnsupportfunctions.h ****     *out2 = SXTB16(inA);
 692:Middlewares/tensorflow/third_party/cmsis_nn/Include/arm_nnsupportfunctions.h ****     #endif
 693:Middlewares/tensorflow/third_party/cmsis_nn/Include/arm_nnsupportfunctions.h **** 
 694:Middlewares/tensorflow/third_party/cmsis_nn/Include/arm_nnsupportfunctions.h ****     return source;
 695:Middlewares/tensorflow/third_party/cmsis_nn/Include/arm_nnsupportfunctions.h **** }
 696:Middlewares/tensorflow/third_party/cmsis_nn/Include/arm_nnsupportfunctions.h **** 
 697:Middlewares/tensorflow/third_party/cmsis_nn/Include/arm_nnsupportfunctions.h **** #endif
 698:Middlewares/tensorflow/third_party/cmsis_nn/Include/arm_nnsupportfunctions.h **** 
 699:Middlewares/tensorflow/third_party/cmsis_nn/Include/arm_nnsupportfunctions.h **** /**
 700:Middlewares/tensorflow/third_party/cmsis_nn/Include/arm_nnsupportfunctions.h ****  * @brief Matrix-multiplication function for convolution with per-channel requantization.
 701:Middlewares/tensorflow/third_party/cmsis_nn/Include/arm_nnsupportfunctions.h ****  * @param[in]       input_a     pointer to operand A
 702:Middlewares/tensorflow/third_party/cmsis_nn/Include/arm_nnsupportfunctions.h ****  * @param[in]       input_b     pointer to operand B, always consists of 2 vectors.
ARM GAS  /tmp/ccRtV34n.s 			page 17


 703:Middlewares/tensorflow/third_party/cmsis_nn/Include/arm_nnsupportfunctions.h ****  * @param[in]       output_ch   number of rows of A
 704:Middlewares/tensorflow/third_party/cmsis_nn/Include/arm_nnsupportfunctions.h ****  * @param[in]       out_shift  pointer to per output channel requantization shift parameter.
 705:Middlewares/tensorflow/third_party/cmsis_nn/Include/arm_nnsupportfunctions.h ****  * @param[in]       out_mult   pointer to per output channel requantization multiplier parameter.
 706:Middlewares/tensorflow/third_party/cmsis_nn/Include/arm_nnsupportfunctions.h ****  * @param[in]       out_offset      output tensor offset.
 707:Middlewares/tensorflow/third_party/cmsis_nn/Include/arm_nnsupportfunctions.h ****  * @param[in]       activation_min   minimum value to clamp the output to. Range : int8
 708:Middlewares/tensorflow/third_party/cmsis_nn/Include/arm_nnsupportfunctions.h ****  * @param[in]       activation_max   maximum value to clamp the output to. Range : int8
 709:Middlewares/tensorflow/third_party/cmsis_nn/Include/arm_nnsupportfunctions.h ****  * @param[in]       num_col_a   number of columns of A
 710:Middlewares/tensorflow/third_party/cmsis_nn/Include/arm_nnsupportfunctions.h ****  * @param[in]       output_bias per output channel bias. Range : int32
 711:Middlewares/tensorflow/third_party/cmsis_nn/Include/arm_nnsupportfunctions.h ****  * @param[in,out]   out_0       pointer to output
 712:Middlewares/tensorflow/third_party/cmsis_nn/Include/arm_nnsupportfunctions.h ****  * @return     The function returns one of the two
 713:Middlewares/tensorflow/third_party/cmsis_nn/Include/arm_nnsupportfunctions.h ****  *              1. The incremented output pointer for a successful operation or
 714:Middlewares/tensorflow/third_party/cmsis_nn/Include/arm_nnsupportfunctions.h ****  *              2. NULL if implementation is not available.
 715:Middlewares/tensorflow/third_party/cmsis_nn/Include/arm_nnsupportfunctions.h ****  *
 716:Middlewares/tensorflow/third_party/cmsis_nn/Include/arm_nnsupportfunctions.h ****  * @details   This function does the matrix multiplication of weight matrix for all output channels
 717:Middlewares/tensorflow/third_party/cmsis_nn/Include/arm_nnsupportfunctions.h ****  *            with 2 columns from im2col and produces two elements/output_channel. The outputs are
 718:Middlewares/tensorflow/third_party/cmsis_nn/Include/arm_nnsupportfunctions.h ****  *            clamped in the range provided by activation min and max.
 719:Middlewares/tensorflow/third_party/cmsis_nn/Include/arm_nnsupportfunctions.h ****  *            Supported framework: TensorFlow Lite micro.
 720:Middlewares/tensorflow/third_party/cmsis_nn/Include/arm_nnsupportfunctions.h ****  */
 721:Middlewares/tensorflow/third_party/cmsis_nn/Include/arm_nnsupportfunctions.h **** int8_t *arm_nn_mat_mult_kernel_s8_s16(const int8_t *input_a,
 722:Middlewares/tensorflow/third_party/cmsis_nn/Include/arm_nnsupportfunctions.h ****                                       const int16_t *input_b,
 723:Middlewares/tensorflow/third_party/cmsis_nn/Include/arm_nnsupportfunctions.h ****                                       const uint16_t output_ch,
 724:Middlewares/tensorflow/third_party/cmsis_nn/Include/arm_nnsupportfunctions.h ****                                       const int32_t *out_shift,
 725:Middlewares/tensorflow/third_party/cmsis_nn/Include/arm_nnsupportfunctions.h ****                                       const int32_t *out_mult,
 726:Middlewares/tensorflow/third_party/cmsis_nn/Include/arm_nnsupportfunctions.h ****                                       const int32_t out_offset,
 727:Middlewares/tensorflow/third_party/cmsis_nn/Include/arm_nnsupportfunctions.h ****                                       const int16_t activation_min,
 728:Middlewares/tensorflow/third_party/cmsis_nn/Include/arm_nnsupportfunctions.h ****                                       const int16_t activation_max,
 729:Middlewares/tensorflow/third_party/cmsis_nn/Include/arm_nnsupportfunctions.h ****                                       const uint16_t num_col_a,
 730:Middlewares/tensorflow/third_party/cmsis_nn/Include/arm_nnsupportfunctions.h ****                                       const int32_t *const output_bias,
 731:Middlewares/tensorflow/third_party/cmsis_nn/Include/arm_nnsupportfunctions.h ****                                       int8_t *out_0);
 732:Middlewares/tensorflow/third_party/cmsis_nn/Include/arm_nnsupportfunctions.h **** 
 733:Middlewares/tensorflow/third_party/cmsis_nn/Include/arm_nnsupportfunctions.h **** /**
 734:Middlewares/tensorflow/third_party/cmsis_nn/Include/arm_nnsupportfunctions.h ****  * @brief Common softmax function for s8 input and s8 or s16 output
 735:Middlewares/tensorflow/third_party/cmsis_nn/Include/arm_nnsupportfunctions.h ****  * @param[in]  input          Pointer to the input tensor
 736:Middlewares/tensorflow/third_party/cmsis_nn/Include/arm_nnsupportfunctions.h ****  * @param[in]  num_rows       Number of rows in the input tensor
 737:Middlewares/tensorflow/third_party/cmsis_nn/Include/arm_nnsupportfunctions.h ****  * @param[in]  row_size       Number of elements in each input row
 738:Middlewares/tensorflow/third_party/cmsis_nn/Include/arm_nnsupportfunctions.h ****  * @param[in]  mult           Input quantization multiplier
 739:Middlewares/tensorflow/third_party/cmsis_nn/Include/arm_nnsupportfunctions.h ****  * @param[in]  shift          Input quantization shift within the range [0, 31]
 740:Middlewares/tensorflow/third_party/cmsis_nn/Include/arm_nnsupportfunctions.h ****  * @param[in]  diff_min       Minimum difference with max in row. Used to check if
 741:Middlewares/tensorflow/third_party/cmsis_nn/Include/arm_nnsupportfunctions.h ****  *                            the quantized exponential operation can be performed
 742:Middlewares/tensorflow/third_party/cmsis_nn/Include/arm_nnsupportfunctions.h ****  * @param[in]  int16_output   Indicating s8 output if 0 else s16 output
 743:Middlewares/tensorflow/third_party/cmsis_nn/Include/arm_nnsupportfunctions.h ****  * @param[out] output         Pointer to the output tensor
 744:Middlewares/tensorflow/third_party/cmsis_nn/Include/arm_nnsupportfunctions.h ****  *
 745:Middlewares/tensorflow/third_party/cmsis_nn/Include/arm_nnsupportfunctions.h ****  * @note Supported framework: TensorFlow Lite micro (bit-accurate)
 746:Middlewares/tensorflow/third_party/cmsis_nn/Include/arm_nnsupportfunctions.h ****  *
 747:Middlewares/tensorflow/third_party/cmsis_nn/Include/arm_nnsupportfunctions.h ****  */
 748:Middlewares/tensorflow/third_party/cmsis_nn/Include/arm_nnsupportfunctions.h **** void arm_nn_softmax_common_s8(const int8_t *input,
 749:Middlewares/tensorflow/third_party/cmsis_nn/Include/arm_nnsupportfunctions.h ****                               const int32_t num_rows,
 750:Middlewares/tensorflow/third_party/cmsis_nn/Include/arm_nnsupportfunctions.h ****                               const int32_t row_size,
 751:Middlewares/tensorflow/third_party/cmsis_nn/Include/arm_nnsupportfunctions.h ****                               const int32_t mult,
 752:Middlewares/tensorflow/third_party/cmsis_nn/Include/arm_nnsupportfunctions.h ****                               const int32_t shift,
 753:Middlewares/tensorflow/third_party/cmsis_nn/Include/arm_nnsupportfunctions.h ****                               const int32_t diff_min,
 754:Middlewares/tensorflow/third_party/cmsis_nn/Include/arm_nnsupportfunctions.h ****                               const bool int16_output,
 755:Middlewares/tensorflow/third_party/cmsis_nn/Include/arm_nnsupportfunctions.h ****                               void *output);
 756:Middlewares/tensorflow/third_party/cmsis_nn/Include/arm_nnsupportfunctions.h **** 
 757:Middlewares/tensorflow/third_party/cmsis_nn/Include/arm_nnsupportfunctions.h **** /**
 758:Middlewares/tensorflow/third_party/cmsis_nn/Include/arm_nnsupportfunctions.h ****  * @brief macro for adding rounding offset
 759:Middlewares/tensorflow/third_party/cmsis_nn/Include/arm_nnsupportfunctions.h ****  */
ARM GAS  /tmp/ccRtV34n.s 			page 18


 760:Middlewares/tensorflow/third_party/cmsis_nn/Include/arm_nnsupportfunctions.h **** #ifndef ARM_NN_TRUNCATE
 761:Middlewares/tensorflow/third_party/cmsis_nn/Include/arm_nnsupportfunctions.h ****     #define NN_ROUND(out_shift) ((0x1 << out_shift) >> 1)
 762:Middlewares/tensorflow/third_party/cmsis_nn/Include/arm_nnsupportfunctions.h **** #else
 763:Middlewares/tensorflow/third_party/cmsis_nn/Include/arm_nnsupportfunctions.h ****     #define NN_ROUND(out_shift) 0
 764:Middlewares/tensorflow/third_party/cmsis_nn/Include/arm_nnsupportfunctions.h **** #endif
 765:Middlewares/tensorflow/third_party/cmsis_nn/Include/arm_nnsupportfunctions.h **** 
 766:Middlewares/tensorflow/third_party/cmsis_nn/Include/arm_nnsupportfunctions.h **** // Macros for shortening quantization functions' names and avoid long lines
 767:Middlewares/tensorflow/third_party/cmsis_nn/Include/arm_nnsupportfunctions.h **** #define MUL_SAT(a, b) arm_nn_doubling_high_mult((a), (b))
 768:Middlewares/tensorflow/third_party/cmsis_nn/Include/arm_nnsupportfunctions.h **** #define MUL_SAT_MVE(a, b) arm_doubling_high_mult_mve_32x4((a), (b))
 769:Middlewares/tensorflow/third_party/cmsis_nn/Include/arm_nnsupportfunctions.h **** #define MUL_POW2(a, b) arm_nn_mult_by_power_of_two((a), (b))
 770:Middlewares/tensorflow/third_party/cmsis_nn/Include/arm_nnsupportfunctions.h **** 
 771:Middlewares/tensorflow/third_party/cmsis_nn/Include/arm_nnsupportfunctions.h **** #define DIV_POW2(a, b) arm_nn_divide_by_power_of_two((a), (b))
 772:Middlewares/tensorflow/third_party/cmsis_nn/Include/arm_nnsupportfunctions.h **** #define DIV_POW2_MVE(a, b) arm_divide_by_power_of_two_mve((a), (b))
 773:Middlewares/tensorflow/third_party/cmsis_nn/Include/arm_nnsupportfunctions.h **** 
 774:Middlewares/tensorflow/third_party/cmsis_nn/Include/arm_nnsupportfunctions.h **** #define EXP_ON_NEG(x) arm_nn_exp_on_negative_values((x))
 775:Middlewares/tensorflow/third_party/cmsis_nn/Include/arm_nnsupportfunctions.h **** #define ONE_OVER1(x) arm_nn_one_over_one_plus_x_for_x_in_0_1((x))
 776:Middlewares/tensorflow/third_party/cmsis_nn/Include/arm_nnsupportfunctions.h **** 
 777:Middlewares/tensorflow/third_party/cmsis_nn/Include/arm_nnsupportfunctions.h **** /**
 778:Middlewares/tensorflow/third_party/cmsis_nn/Include/arm_nnsupportfunctions.h ****  * @brief           Saturating doubling high multiply. Result matches
 779:Middlewares/tensorflow/third_party/cmsis_nn/Include/arm_nnsupportfunctions.h ****  *                  NEON instruction VQRDMULH.
 780:Middlewares/tensorflow/third_party/cmsis_nn/Include/arm_nnsupportfunctions.h ****  * @param[in]       m1        Multiplicand. Range: {NN_Q31_MIN, NN_Q31_MAX}
 781:Middlewares/tensorflow/third_party/cmsis_nn/Include/arm_nnsupportfunctions.h ****  * @param[in]       m2        Multiplier. Range: {NN_Q31_MIN, NN_Q31_MAX}
 782:Middlewares/tensorflow/third_party/cmsis_nn/Include/arm_nnsupportfunctions.h ****  * @return          Result of multiplication.
 783:Middlewares/tensorflow/third_party/cmsis_nn/Include/arm_nnsupportfunctions.h ****  *
 784:Middlewares/tensorflow/third_party/cmsis_nn/Include/arm_nnsupportfunctions.h ****  */
 785:Middlewares/tensorflow/third_party/cmsis_nn/Include/arm_nnsupportfunctions.h **** __STATIC_FORCEINLINE int32_t arm_nn_doubling_high_mult(const int32_t m1, const int32_t m2)
 786:Middlewares/tensorflow/third_party/cmsis_nn/Include/arm_nnsupportfunctions.h **** {
 787:Middlewares/tensorflow/third_party/cmsis_nn/Include/arm_nnsupportfunctions.h ****     int32_t result = 0;
 788:Middlewares/tensorflow/third_party/cmsis_nn/Include/arm_nnsupportfunctions.h ****     // Rounding offset to add for a right shift of 31
 789:Middlewares/tensorflow/third_party/cmsis_nn/Include/arm_nnsupportfunctions.h ****     int64_t mult = 1 << 30;
 790:Middlewares/tensorflow/third_party/cmsis_nn/Include/arm_nnsupportfunctions.h **** 
 791:Middlewares/tensorflow/third_party/cmsis_nn/Include/arm_nnsupportfunctions.h ****     if ((m1 < 0) ^ (m2 < 0))
 792:Middlewares/tensorflow/third_party/cmsis_nn/Include/arm_nnsupportfunctions.h ****     {
 793:Middlewares/tensorflow/third_party/cmsis_nn/Include/arm_nnsupportfunctions.h ****         mult = 1 - mult;
 794:Middlewares/tensorflow/third_party/cmsis_nn/Include/arm_nnsupportfunctions.h ****     }
 795:Middlewares/tensorflow/third_party/cmsis_nn/Include/arm_nnsupportfunctions.h ****     // Gets resolved as a SMLAL instruction
 796:Middlewares/tensorflow/third_party/cmsis_nn/Include/arm_nnsupportfunctions.h ****     mult = mult + (int64_t)m1 * m2;
 797:Middlewares/tensorflow/third_party/cmsis_nn/Include/arm_nnsupportfunctions.h **** 
 798:Middlewares/tensorflow/third_party/cmsis_nn/Include/arm_nnsupportfunctions.h ****     // Utilize all of the upper 32 bits. This is the doubling step
 799:Middlewares/tensorflow/third_party/cmsis_nn/Include/arm_nnsupportfunctions.h ****     // as well.
 800:Middlewares/tensorflow/third_party/cmsis_nn/Include/arm_nnsupportfunctions.h ****     result = (int32_t)(mult / (1ll << 31));
 801:Middlewares/tensorflow/third_party/cmsis_nn/Include/arm_nnsupportfunctions.h **** 
 802:Middlewares/tensorflow/third_party/cmsis_nn/Include/arm_nnsupportfunctions.h ****     if ((m1 == m2) && (m1 == (int32_t)NN_Q31_MIN))
 803:Middlewares/tensorflow/third_party/cmsis_nn/Include/arm_nnsupportfunctions.h ****     {
 804:Middlewares/tensorflow/third_party/cmsis_nn/Include/arm_nnsupportfunctions.h ****         result = NN_Q31_MAX;
 805:Middlewares/tensorflow/third_party/cmsis_nn/Include/arm_nnsupportfunctions.h ****     }
 806:Middlewares/tensorflow/third_party/cmsis_nn/Include/arm_nnsupportfunctions.h ****     return result;
 807:Middlewares/tensorflow/third_party/cmsis_nn/Include/arm_nnsupportfunctions.h **** }
 808:Middlewares/tensorflow/third_party/cmsis_nn/Include/arm_nnsupportfunctions.h **** 
 809:Middlewares/tensorflow/third_party/cmsis_nn/Include/arm_nnsupportfunctions.h **** /**
 810:Middlewares/tensorflow/third_party/cmsis_nn/Include/arm_nnsupportfunctions.h ****  * @brief           Doubling high multiply without saturation. This is intended
 811:Middlewares/tensorflow/third_party/cmsis_nn/Include/arm_nnsupportfunctions.h ****  *                  for requantization where the scale is a positive integer
 812:Middlewares/tensorflow/third_party/cmsis_nn/Include/arm_nnsupportfunctions.h ****  *
 813:Middlewares/tensorflow/third_party/cmsis_nn/Include/arm_nnsupportfunctions.h ****  * @param[in]       m1        Multiplicand. Range: {NN_Q31_MIN, NN_Q31_MAX}
 814:Middlewares/tensorflow/third_party/cmsis_nn/Include/arm_nnsupportfunctions.h ****  * @param[in]       m2        Multiplier Range: {NN_Q31_MIN, NN_Q31_MAX}
 815:Middlewares/tensorflow/third_party/cmsis_nn/Include/arm_nnsupportfunctions.h ****  * @return          Result of multiplication.
 816:Middlewares/tensorflow/third_party/cmsis_nn/Include/arm_nnsupportfunctions.h ****  * @note            The result of this matches that of neon instruction
ARM GAS  /tmp/ccRtV34n.s 			page 19


 817:Middlewares/tensorflow/third_party/cmsis_nn/Include/arm_nnsupportfunctions.h ****  *                  VQRDMULH for m1 in range {NN_Q31_MIN, NN_Q31_MAX} and m2 in
 818:Middlewares/tensorflow/third_party/cmsis_nn/Include/arm_nnsupportfunctions.h ****  *                  range {NN_Q31_MIN + 1, NN_Q31_MAX}. Saturation occurs when
 819:Middlewares/tensorflow/third_party/cmsis_nn/Include/arm_nnsupportfunctions.h ****  *                  m1 equals m2 equals NN_Q31_MIN and that is not handled by
 820:Middlewares/tensorflow/third_party/cmsis_nn/Include/arm_nnsupportfunctions.h ****  *                  this function.
 821:Middlewares/tensorflow/third_party/cmsis_nn/Include/arm_nnsupportfunctions.h ****  *
 822:Middlewares/tensorflow/third_party/cmsis_nn/Include/arm_nnsupportfunctions.h ****  */
 823:Middlewares/tensorflow/third_party/cmsis_nn/Include/arm_nnsupportfunctions.h **** __STATIC_FORCEINLINE int32_t arm_nn_doubling_high_mult_no_sat(const int32_t m1, const int32_t m2)
 824:Middlewares/tensorflow/third_party/cmsis_nn/Include/arm_nnsupportfunctions.h **** {
 825:Middlewares/tensorflow/third_party/cmsis_nn/Include/arm_nnsupportfunctions.h ****     int32_t result = 0;
 826:Middlewares/tensorflow/third_party/cmsis_nn/Include/arm_nnsupportfunctions.h ****     union arm_nn_long_long mult;
 827:Middlewares/tensorflow/third_party/cmsis_nn/Include/arm_nnsupportfunctions.h **** 
 828:Middlewares/tensorflow/third_party/cmsis_nn/Include/arm_nnsupportfunctions.h ****     // Rounding offset to add for a right shift of 31
 829:Middlewares/tensorflow/third_party/cmsis_nn/Include/arm_nnsupportfunctions.h ****     mult.word.low = 1 << 30;
 830:Middlewares/tensorflow/third_party/cmsis_nn/Include/arm_nnsupportfunctions.h ****     mult.word.high = 0;
 831:Middlewares/tensorflow/third_party/cmsis_nn/Include/arm_nnsupportfunctions.h **** 
 832:Middlewares/tensorflow/third_party/cmsis_nn/Include/arm_nnsupportfunctions.h ****     // Gets resolved as a SMLAL instruction
 833:Middlewares/tensorflow/third_party/cmsis_nn/Include/arm_nnsupportfunctions.h ****     mult.long_long = mult.long_long + (int64_t)m1 * m2;
 834:Middlewares/tensorflow/third_party/cmsis_nn/Include/arm_nnsupportfunctions.h **** 
 835:Middlewares/tensorflow/third_party/cmsis_nn/Include/arm_nnsupportfunctions.h ****     // Utilize all of the upper 32 bits. This is the doubling step
 836:Middlewares/tensorflow/third_party/cmsis_nn/Include/arm_nnsupportfunctions.h ****     // as well.
 837:Middlewares/tensorflow/third_party/cmsis_nn/Include/arm_nnsupportfunctions.h ****     result = (int32_t)(mult.long_long >> 31);
 838:Middlewares/tensorflow/third_party/cmsis_nn/Include/arm_nnsupportfunctions.h **** 
 839:Middlewares/tensorflow/third_party/cmsis_nn/Include/arm_nnsupportfunctions.h ****     return result;
 840:Middlewares/tensorflow/third_party/cmsis_nn/Include/arm_nnsupportfunctions.h **** }
 841:Middlewares/tensorflow/third_party/cmsis_nn/Include/arm_nnsupportfunctions.h **** 
 842:Middlewares/tensorflow/third_party/cmsis_nn/Include/arm_nnsupportfunctions.h **** /**
 843:Middlewares/tensorflow/third_party/cmsis_nn/Include/arm_nnsupportfunctions.h ****  * @brief           Rounding divide by power of two.
 844:Middlewares/tensorflow/third_party/cmsis_nn/Include/arm_nnsupportfunctions.h ****  * @param[in]       dividend - Dividend
 845:Middlewares/tensorflow/third_party/cmsis_nn/Include/arm_nnsupportfunctions.h ****  * @param[in]       exponent - Divisor = power(2, exponent)
 846:Middlewares/tensorflow/third_party/cmsis_nn/Include/arm_nnsupportfunctions.h ****  *                             Range: [0, 31]
 847:Middlewares/tensorflow/third_party/cmsis_nn/Include/arm_nnsupportfunctions.h ****  * @return          Rounded result of division. Midpoint is rounded away from zero.
 848:Middlewares/tensorflow/third_party/cmsis_nn/Include/arm_nnsupportfunctions.h ****  *
 849:Middlewares/tensorflow/third_party/cmsis_nn/Include/arm_nnsupportfunctions.h ****  */
 850:Middlewares/tensorflow/third_party/cmsis_nn/Include/arm_nnsupportfunctions.h **** __STATIC_FORCEINLINE int32_t arm_nn_divide_by_power_of_two(const int32_t dividend, const int32_t ex
 851:Middlewares/tensorflow/third_party/cmsis_nn/Include/arm_nnsupportfunctions.h **** {
 852:Middlewares/tensorflow/third_party/cmsis_nn/Include/arm_nnsupportfunctions.h ****     int32_t result = 0;
 853:Middlewares/tensorflow/third_party/cmsis_nn/Include/arm_nnsupportfunctions.h ****     const int32_t remainder_mask = (1 << exponent) - 1;
 854:Middlewares/tensorflow/third_party/cmsis_nn/Include/arm_nnsupportfunctions.h ****     int32_t remainder = remainder_mask & dividend;
 855:Middlewares/tensorflow/third_party/cmsis_nn/Include/arm_nnsupportfunctions.h **** 
 856:Middlewares/tensorflow/third_party/cmsis_nn/Include/arm_nnsupportfunctions.h ****     // Basic division
 857:Middlewares/tensorflow/third_party/cmsis_nn/Include/arm_nnsupportfunctions.h ****     result = dividend >> exponent;
 858:Middlewares/tensorflow/third_party/cmsis_nn/Include/arm_nnsupportfunctions.h **** 
 859:Middlewares/tensorflow/third_party/cmsis_nn/Include/arm_nnsupportfunctions.h ****     // Adjust 'result' for rounding (mid point away from zero)
 860:Middlewares/tensorflow/third_party/cmsis_nn/Include/arm_nnsupportfunctions.h ****     int32_t threshold = remainder_mask >> 1;
 861:Middlewares/tensorflow/third_party/cmsis_nn/Include/arm_nnsupportfunctions.h ****     if (result < 0)
 862:Middlewares/tensorflow/third_party/cmsis_nn/Include/arm_nnsupportfunctions.h ****     {
 863:Middlewares/tensorflow/third_party/cmsis_nn/Include/arm_nnsupportfunctions.h ****         threshold++;
 864:Middlewares/tensorflow/third_party/cmsis_nn/Include/arm_nnsupportfunctions.h ****     }
 865:Middlewares/tensorflow/third_party/cmsis_nn/Include/arm_nnsupportfunctions.h ****     if (remainder > threshold)
 866:Middlewares/tensorflow/third_party/cmsis_nn/Include/arm_nnsupportfunctions.h ****     {
 867:Middlewares/tensorflow/third_party/cmsis_nn/Include/arm_nnsupportfunctions.h ****         result++;
 868:Middlewares/tensorflow/third_party/cmsis_nn/Include/arm_nnsupportfunctions.h ****     }
 869:Middlewares/tensorflow/third_party/cmsis_nn/Include/arm_nnsupportfunctions.h **** 
 870:Middlewares/tensorflow/third_party/cmsis_nn/Include/arm_nnsupportfunctions.h ****     return result;
 871:Middlewares/tensorflow/third_party/cmsis_nn/Include/arm_nnsupportfunctions.h **** }
 872:Middlewares/tensorflow/third_party/cmsis_nn/Include/arm_nnsupportfunctions.h **** 
 873:Middlewares/tensorflow/third_party/cmsis_nn/Include/arm_nnsupportfunctions.h **** /**
ARM GAS  /tmp/ccRtV34n.s 			page 20


 874:Middlewares/tensorflow/third_party/cmsis_nn/Include/arm_nnsupportfunctions.h ****  * @brief           Requantize a given value.
 875:Middlewares/tensorflow/third_party/cmsis_nn/Include/arm_nnsupportfunctions.h ****  * @param[in]       val         Value to be requantized
 876:Middlewares/tensorflow/third_party/cmsis_nn/Include/arm_nnsupportfunctions.h ****  * @param[in]       multiplier  multiplier. Range {NN_Q31_MIN + 1, Q32_MAX}
 877:Middlewares/tensorflow/third_party/cmsis_nn/Include/arm_nnsupportfunctions.h ****  * @param[in]       shift       left or right shift for 'val * multiplier'
 878:Middlewares/tensorflow/third_party/cmsis_nn/Include/arm_nnsupportfunctions.h ****  *
 879:Middlewares/tensorflow/third_party/cmsis_nn/Include/arm_nnsupportfunctions.h ****  * @return          Returns (val * multiplier)/(2 ^ shift)
 880:Middlewares/tensorflow/third_party/cmsis_nn/Include/arm_nnsupportfunctions.h ****  *
 881:Middlewares/tensorflow/third_party/cmsis_nn/Include/arm_nnsupportfunctions.h ****  */
 882:Middlewares/tensorflow/third_party/cmsis_nn/Include/arm_nnsupportfunctions.h **** __STATIC_FORCEINLINE int32_t arm_nn_requantize(const int32_t val, const int32_t multiplier, const i
 883:Middlewares/tensorflow/third_party/cmsis_nn/Include/arm_nnsupportfunctions.h **** {
 884:Middlewares/tensorflow/third_party/cmsis_nn/Include/arm_nnsupportfunctions.h **** #ifdef CMSIS_NN_USE_SINGLE_ROUNDING
 885:Middlewares/tensorflow/third_party/cmsis_nn/Include/arm_nnsupportfunctions.h ****     const int64_t total_shift = 31 - shift;
 886:Middlewares/tensorflow/third_party/cmsis_nn/Include/arm_nnsupportfunctions.h ****     const int64_t new_val = val * (int64_t)multiplier;
 887:Middlewares/tensorflow/third_party/cmsis_nn/Include/arm_nnsupportfunctions.h **** 
 888:Middlewares/tensorflow/third_party/cmsis_nn/Include/arm_nnsupportfunctions.h ****     int32_t result = new_val >> (total_shift - 1);
 889:Middlewares/tensorflow/third_party/cmsis_nn/Include/arm_nnsupportfunctions.h ****     result = (result + 1) >> 1;
 890:Middlewares/tensorflow/third_party/cmsis_nn/Include/arm_nnsupportfunctions.h **** 
 891:Middlewares/tensorflow/third_party/cmsis_nn/Include/arm_nnsupportfunctions.h ****     return result;
 892:Middlewares/tensorflow/third_party/cmsis_nn/Include/arm_nnsupportfunctions.h **** #else
 893:Middlewares/tensorflow/third_party/cmsis_nn/Include/arm_nnsupportfunctions.h ****     return arm_nn_divide_by_power_of_two(arm_nn_doubling_high_mult_no_sat(val * (1 << LEFT_SHIFT(sh
 100              		.loc 2 893 12 view .LVU22
 101 0030 5542     		rsbs	r5, r2, #0
 102 0032 7BE0     		b	.L3
 103              	.LVL9:
 104              	.L26:
 105              	.LBB78:
 106              	.LBB79:
 863:Middlewares/tensorflow/third_party/cmsis_nn/Include/arm_nnsupportfunctions.h ****     }
 107              		.loc 2 863 9 is_stmt 1 view .LVU23
 863:Middlewares/tensorflow/third_party/cmsis_nn/Include/arm_nnsupportfunctions.h ****     }
 108              		.loc 2 863 18 is_stmt 0 view .LVU24
 109 0034 0CF10102 		add	r2, ip, #1
 110              	.LVL10:
 863:Middlewares/tensorflow/third_party/cmsis_nn/Include/arm_nnsupportfunctions.h ****     }
 111              		.loc 2 863 18 view .LVU25
 112 0038 83E0     		b	.L4
 113              	.LVL11:
 114              	.L27:
 863:Middlewares/tensorflow/third_party/cmsis_nn/Include/arm_nnsupportfunctions.h ****     }
 115              		.loc 2 863 18 view .LVU26
 116              	.LBE79:
 117              	.LBE78:
 118              	.LBE77:
 119              	.LBE76:
 120              	.LBB85:
 121              	.LBB86:
 122              	.LBB87:
 123              	.LBB88:
 863:Middlewares/tensorflow/third_party/cmsis_nn/Include/arm_nnsupportfunctions.h ****     }
 124              		.loc 2 863 9 is_stmt 1 view .LVU27
 863:Middlewares/tensorflow/third_party/cmsis_nn/Include/arm_nnsupportfunctions.h ****     }
 125              		.loc 2 863 18 is_stmt 0 view .LVU28
 126 003a 0CF10102 		add	r2, ip, #1
 127              	.LVL12:
 863:Middlewares/tensorflow/third_party/cmsis_nn/Include/arm_nnsupportfunctions.h ****     }
 128              		.loc 2 863 18 view .LVU29
 129 003e ABE0     		b	.L6
ARM GAS  /tmp/ccRtV34n.s 			page 21


 130              	.LVL13:
 131              	.L28:
 863:Middlewares/tensorflow/third_party/cmsis_nn/Include/arm_nnsupportfunctions.h ****     }
 132              		.loc 2 863 18 view .LVU30
 133              	.LBE88:
 134              	.LBE87:
 135              	.LBE86:
 136              	.LBE85:
 137              	.LBB94:
 138              	.LBB95:
 139              	.LBB96:
 140              	.LBB97:
 863:Middlewares/tensorflow/third_party/cmsis_nn/Include/arm_nnsupportfunctions.h ****     }
 141              		.loc 2 863 9 is_stmt 1 view .LVU31
 863:Middlewares/tensorflow/third_party/cmsis_nn/Include/arm_nnsupportfunctions.h ****     }
 142              		.loc 2 863 18 is_stmt 0 view .LVU32
 143 0040 0CF10106 		add	r6, ip, #1
 144              	.LVL14:
 863:Middlewares/tensorflow/third_party/cmsis_nn/Include/arm_nnsupportfunctions.h ****     }
 145              		.loc 2 863 18 view .LVU33
 146 0044 D3E0     		b	.L8
 147              	.LVL15:
 148              	.L29:
 863:Middlewares/tensorflow/third_party/cmsis_nn/Include/arm_nnsupportfunctions.h ****     }
 149              		.loc 2 863 18 view .LVU34
 150              	.LBE97:
 151              	.LBE96:
 152              	.LBE95:
 153              	.LBE94:
 154              	.LBB103:
 155              	.LBB104:
 156              	.LBB105:
 157              	.LBB106:
 863:Middlewares/tensorflow/third_party/cmsis_nn/Include/arm_nnsupportfunctions.h ****     }
 158              		.loc 2 863 9 is_stmt 1 view .LVU35
 863:Middlewares/tensorflow/third_party/cmsis_nn/Include/arm_nnsupportfunctions.h ****     }
 159              		.loc 2 863 18 is_stmt 0 view .LVU36
 160 0046 0CF1010C 		add	ip, ip, #1
 161              	.LVL16:
 863:Middlewares/tensorflow/third_party/cmsis_nn/Include/arm_nnsupportfunctions.h ****     }
 162              		.loc 2 863 18 view .LVU37
 163 004a FEE0     		b	.L10
 164              	.LVL17:
 165              	.L11:
 870:Middlewares/tensorflow/third_party/cmsis_nn/Include/arm_nnsupportfunctions.h **** }
 166              		.loc 2 870 5 is_stmt 1 view .LVU38
 870:Middlewares/tensorflow/third_party/cmsis_nn/Include/arm_nnsupportfunctions.h **** }
 167              		.loc 2 870 5 is_stmt 0 view .LVU39
 168              	.LBE106:
 169              	.LBE105:
 170              	.LBE104:
 171              	.LBE103:
 113:Middlewares/tensorflow/third_party/cmsis_nn/Source/BasicMathFunctions/arm_elementwise_mul_s8.c ****     {
 114:Middlewares/tensorflow/third_party/cmsis_nn/Source/BasicMathFunctions/arm_elementwise_mul_s8.c ****         /* 4 outputs are calculated in one loop. The order of calculation is follows the order of o
 115:Middlewares/tensorflow/third_party/cmsis_nn/Source/BasicMathFunctions/arm_elementwise_mul_s8.c ****            intrinsic */
 116:Middlewares/tensorflow/third_party/cmsis_nn/Source/BasicMathFunctions/arm_elementwise_mul_s8.c ****         input_1_vect = read_and_pad_reordered(input_1_vect, &b_1, &a_1);
 117:Middlewares/tensorflow/third_party/cmsis_nn/Source/BasicMathFunctions/arm_elementwise_mul_s8.c ****         input_2_vect = read_and_pad_reordered(input_2_vect, &b_2, &a_2);
ARM GAS  /tmp/ccRtV34n.s 			page 22


 118:Middlewares/tensorflow/third_party/cmsis_nn/Source/BasicMathFunctions/arm_elementwise_mul_s8.c **** 
 119:Middlewares/tensorflow/third_party/cmsis_nn/Source/BasicMathFunctions/arm_elementwise_mul_s8.c ****         a_1 = SADD16(a_1, offset_1_packed);
 120:Middlewares/tensorflow/third_party/cmsis_nn/Source/BasicMathFunctions/arm_elementwise_mul_s8.c ****         b_1 = SADD16(b_1, offset_1_packed);
 121:Middlewares/tensorflow/third_party/cmsis_nn/Source/BasicMathFunctions/arm_elementwise_mul_s8.c **** 
 122:Middlewares/tensorflow/third_party/cmsis_nn/Source/BasicMathFunctions/arm_elementwise_mul_s8.c ****         a_2 = SADD16(a_2, offset_2_packed);
 123:Middlewares/tensorflow/third_party/cmsis_nn/Source/BasicMathFunctions/arm_elementwise_mul_s8.c ****         b_2 = SADD16(b_2, offset_2_packed);
 124:Middlewares/tensorflow/third_party/cmsis_nn/Source/BasicMathFunctions/arm_elementwise_mul_s8.c **** 
 125:Middlewares/tensorflow/third_party/cmsis_nn/Source/BasicMathFunctions/arm_elementwise_mul_s8.c ****         /* Mul 1 */
 126:Middlewares/tensorflow/third_party/cmsis_nn/Source/BasicMathFunctions/arm_elementwise_mul_s8.c ****         mul_res = SMULBB(b_1, b_2);
 127:Middlewares/tensorflow/third_party/cmsis_nn/Source/BasicMathFunctions/arm_elementwise_mul_s8.c ****         mul_res = arm_nn_requantize(mul_res, out_mult, out_shift) + out_offset;
 128:Middlewares/tensorflow/third_party/cmsis_nn/Source/BasicMathFunctions/arm_elementwise_mul_s8.c **** 
 129:Middlewares/tensorflow/third_party/cmsis_nn/Source/BasicMathFunctions/arm_elementwise_mul_s8.c ****         mul_res = MAX(mul_res, out_activation_min);
 130:Middlewares/tensorflow/third_party/cmsis_nn/Source/BasicMathFunctions/arm_elementwise_mul_s8.c ****         mul_res = MIN(mul_res, out_activation_max);
 131:Middlewares/tensorflow/third_party/cmsis_nn/Source/BasicMathFunctions/arm_elementwise_mul_s8.c ****         r1 = (int8_t)mul_res;
 132:Middlewares/tensorflow/third_party/cmsis_nn/Source/BasicMathFunctions/arm_elementwise_mul_s8.c **** 
 133:Middlewares/tensorflow/third_party/cmsis_nn/Source/BasicMathFunctions/arm_elementwise_mul_s8.c ****         /* Mul 3 */
 134:Middlewares/tensorflow/third_party/cmsis_nn/Source/BasicMathFunctions/arm_elementwise_mul_s8.c ****         mul_res = SMULTT(b_1, b_2);
 135:Middlewares/tensorflow/third_party/cmsis_nn/Source/BasicMathFunctions/arm_elementwise_mul_s8.c ****         mul_res = arm_nn_requantize(mul_res, out_mult, out_shift) + out_offset;
 136:Middlewares/tensorflow/third_party/cmsis_nn/Source/BasicMathFunctions/arm_elementwise_mul_s8.c ****         mul_res = MAX(mul_res, out_activation_min);
 137:Middlewares/tensorflow/third_party/cmsis_nn/Source/BasicMathFunctions/arm_elementwise_mul_s8.c ****         mul_res = MIN(mul_res, out_activation_max);
 138:Middlewares/tensorflow/third_party/cmsis_nn/Source/BasicMathFunctions/arm_elementwise_mul_s8.c ****         r3 = (int8_t)mul_res;
 139:Middlewares/tensorflow/third_party/cmsis_nn/Source/BasicMathFunctions/arm_elementwise_mul_s8.c **** 
 140:Middlewares/tensorflow/third_party/cmsis_nn/Source/BasicMathFunctions/arm_elementwise_mul_s8.c ****         /* Mul 2 */
 141:Middlewares/tensorflow/third_party/cmsis_nn/Source/BasicMathFunctions/arm_elementwise_mul_s8.c ****         mul_res = SMULBB(a_1, a_2);
 142:Middlewares/tensorflow/third_party/cmsis_nn/Source/BasicMathFunctions/arm_elementwise_mul_s8.c ****         mul_res = arm_nn_requantize(mul_res, out_mult, out_shift) + out_offset;
 143:Middlewares/tensorflow/third_party/cmsis_nn/Source/BasicMathFunctions/arm_elementwise_mul_s8.c ****         mul_res = MAX(mul_res, out_activation_min);
 144:Middlewares/tensorflow/third_party/cmsis_nn/Source/BasicMathFunctions/arm_elementwise_mul_s8.c ****         mul_res = MIN(mul_res, out_activation_max);
 145:Middlewares/tensorflow/third_party/cmsis_nn/Source/BasicMathFunctions/arm_elementwise_mul_s8.c ****         r2 = (int8_t)mul_res;
 146:Middlewares/tensorflow/third_party/cmsis_nn/Source/BasicMathFunctions/arm_elementwise_mul_s8.c **** 
 147:Middlewares/tensorflow/third_party/cmsis_nn/Source/BasicMathFunctions/arm_elementwise_mul_s8.c ****         /* Mul 4 */
 148:Middlewares/tensorflow/third_party/cmsis_nn/Source/BasicMathFunctions/arm_elementwise_mul_s8.c ****         mul_res = SMULTT(a_1, a_2);
 149:Middlewares/tensorflow/third_party/cmsis_nn/Source/BasicMathFunctions/arm_elementwise_mul_s8.c ****         mul_res = arm_nn_requantize(mul_res, out_mult, out_shift) + out_offset;
 172              		.loc 1 149 17 view .LVU40
 173 004c 1999     		ldr	r1, [sp, #100]
 174 004e 0A44     		add	r2, r2, r1
 175              	.LVL18:
 150:Middlewares/tensorflow/third_party/cmsis_nn/Source/BasicMathFunctions/arm_elementwise_mul_s8.c ****         mul_res = MAX(mul_res, out_activation_min);
 176              		.loc 1 150 9 is_stmt 1 view .LVU41
 177              		.loc 1 150 17 is_stmt 0 view .LVU42
 178 0050 1C99     		ldr	r1, [sp, #112]
 179 0052 8A42     		cmp	r2, r1
 180 0054 B8BF     		it	lt
 181 0056 0A46     		movlt	r2, r1
 182              	.LVL19:
 151:Middlewares/tensorflow/third_party/cmsis_nn/Source/BasicMathFunctions/arm_elementwise_mul_s8.c ****         mul_res = MIN(mul_res, out_activation_max);
 183              		.loc 1 151 9 is_stmt 1 view .LVU43
 184              		.loc 1 151 17 is_stmt 0 view .LVU44
 185 0058 4245     		cmp	r2, r8
 186 005a A8BF     		it	ge
 187 005c 4246     		movge	r2, r8
 188              	.LVL20:
 152:Middlewares/tensorflow/third_party/cmsis_nn/Source/BasicMathFunctions/arm_elementwise_mul_s8.c ****         r4 = (int8_t)mul_res;
 189              		.loc 1 152 9 is_stmt 1 view .LVU45
 153:Middlewares/tensorflow/third_party/cmsis_nn/Source/BasicMathFunctions/arm_elementwise_mul_s8.c **** 
 154:Middlewares/tensorflow/third_party/cmsis_nn/Source/BasicMathFunctions/arm_elementwise_mul_s8.c ****         arm_nn_write_s8x4_ia(&output, PACK_S8x4_32x1(r1, r2, r3, r4));
 190              		.loc 1 154 9 view .LVU46
 191              		.loc 1 154 39 is_stmt 0 view .LVU47
ARM GAS  /tmp/ccRtV34n.s 			page 23


 192 005e 9DF82010 		ldrb	r1, [sp, #32]	@ zero_extendqisi2
 193 0062 4FEA0E2E 		lsl	lr, lr, #8
 194              	.LVL21:
 195              		.loc 1 154 39 view .LVU48
 196 0066 1FFA8EFE 		uxth	lr, lr
 197 006a 41EA0E0E 		orr	lr, r1, lr
 198 006e 1B04     		lsls	r3, r3, #16
 199              	.LVL22:
 200              		.loc 1 154 39 view .LVU49
 201 0070 03F47F03 		and	r3, r3, #16711680
 202 0074 4EEA0303 		orr	r3, lr, r3
 203              		.loc 1 154 9 view .LVU50
 204 0078 43EA0262 		orr	r2, r3, r2, lsl #24
 205              	.LVL23:
 206              	.LBB112:
 207              	.LBI112:
 626:Middlewares/tensorflow/third_party/cmsis_nn/Include/arm_nnsupportfunctions.h **** {
 208              		.loc 2 626 27 is_stmt 1 view .LVU51
 209              	.LBB113:
 628:Middlewares/tensorflow/third_party/cmsis_nn/Include/arm_nnsupportfunctions.h ****     *in += 4;
 210              		.loc 2 628 5 view .LVU52
 211 007c 189B     		ldr	r3, [sp, #96]
 212 007e 43F8042B 		str	r2, [r3], #4	@ unaligned
 213 0082 1893     		str	r3, [sp, #96]
 214              	.LVL24:
 629:Middlewares/tensorflow/third_party/cmsis_nn/Include/arm_nnsupportfunctions.h **** }
 215              		.loc 2 629 5 view .LVU53
 629:Middlewares/tensorflow/third_party/cmsis_nn/Include/arm_nnsupportfunctions.h **** }
 216              		.loc 2 629 5 is_stmt 0 view .LVU54
 217              	.LBE113:
 218              	.LBE112:
 155:Middlewares/tensorflow/third_party/cmsis_nn/Source/BasicMathFunctions/arm_elementwise_mul_s8.c **** 
 156:Middlewares/tensorflow/third_party/cmsis_nn/Source/BasicMathFunctions/arm_elementwise_mul_s8.c ****         loop_count--;
 219              		.loc 1 156 9 is_stmt 1 view .LVU55
 220              		.loc 1 156 19 is_stmt 0 view .LVU56
 221 0084 049B     		ldr	r3, [sp, #16]
 222              	.LVL25:
 223              		.loc 1 156 19 view .LVU57
 224 0086 013B     		subs	r3, r3, #1
 225 0088 0493     		str	r3, [sp, #16]
 226              	.LVL26:
 227              	.L2:
 228              		.loc 1 156 19 view .LVU58
 229              	.LBE75:
 112:Middlewares/tensorflow/third_party/cmsis_nn/Source/BasicMathFunctions/arm_elementwise_mul_s8.c ****     {
 230              		.loc 1 112 11 is_stmt 1 view .LVU59
 231 008a 049B     		ldr	r3, [sp, #16]
 232 008c 002B     		cmp	r3, #0
 233 008e 40F3E180 		ble	.L24
 234              	.LBB146:
 116:Middlewares/tensorflow/third_party/cmsis_nn/Source/BasicMathFunctions/arm_elementwise_mul_s8.c ****         input_2_vect = read_and_pad_reordered(input_2_vect, &b_2, &a_2);
 235              		.loc 1 116 9 view .LVU60
 236              	.LVL27:
 237              	.LBB114:
 238              	.LBI114:
 683:Middlewares/tensorflow/third_party/cmsis_nn/Include/arm_nnsupportfunctions.h **** {
 239              		.loc 2 683 36 view .LVU61
ARM GAS  /tmp/ccRtV34n.s 			page 24


 240              	.LBB115:
 685:Middlewares/tensorflow/third_party/cmsis_nn/Include/arm_nnsupportfunctions.h ****     #ifndef ARM_MATH_BIG_ENDIAN
 241              		.loc 2 685 5 view .LVU62
 242              	.LBB116:
 243              	.LBI116:
 586:Middlewares/tensorflow/third_party/cmsis_nn/Include/arm_nnsupportfunctions.h **** {
 244              		.loc 2 586 30 view .LVU63
 245              	.LBB117:
 588:Middlewares/tensorflow/third_party/cmsis_nn/Include/arm_nnsupportfunctions.h ****     memcpy(&val, *in_s8, 4);
 246              		.loc 2 588 5 view .LVU64
 589:Middlewares/tensorflow/third_party/cmsis_nn/Include/arm_nnsupportfunctions.h ****     *in_s8 += 4;
 247              		.loc 2 589 5 view .LVU65
 248 0092 069B     		ldr	r3, [sp, #24]
 249 0094 53F8046B 		ldr	r6, [r3], #4	@ unaligned
 250 0098 0693     		str	r3, [sp, #24]
 251              	.LVL28:
 590:Middlewares/tensorflow/third_party/cmsis_nn/Include/arm_nnsupportfunctions.h **** 
 252              		.loc 2 590 5 view .LVU66
 592:Middlewares/tensorflow/third_party/cmsis_nn/Include/arm_nnsupportfunctions.h **** }
 253              		.loc 2 592 5 view .LVU67
 592:Middlewares/tensorflow/third_party/cmsis_nn/Include/arm_nnsupportfunctions.h **** }
 254              		.loc 2 592 5 is_stmt 0 view .LVU68
 255              	.LBE117:
 256              	.LBE116:
 687:Middlewares/tensorflow/third_party/cmsis_nn/Include/arm_nnsupportfunctions.h ****     *out1 = SXTB16(inA);
 257              		.loc 2 687 5 is_stmt 1 view .LVU69
 258              	.LBB118:
 259              	.LBI118:
 260              		.file 3 "Middlewares/tensorflow/third_party/cmsis_nn/Include/Internal/arm_nn_compiler.h"
   1:Middlewares/tensorflow/third_party/cmsis_nn/Include/Internal/arm_nn_compiler.h **** /*
   2:Middlewares/tensorflow/third_party/cmsis_nn/Include/Internal/arm_nn_compiler.h ****  * SPDX-FileCopyrightText: Copyright 2023 Arm Limited and/or its affiliates <open-source-office@arm
   3:Middlewares/tensorflow/third_party/cmsis_nn/Include/Internal/arm_nn_compiler.h ****  *
   4:Middlewares/tensorflow/third_party/cmsis_nn/Include/Internal/arm_nn_compiler.h ****  * SPDX-License-Identifier: Apache-2.0
   5:Middlewares/tensorflow/third_party/cmsis_nn/Include/Internal/arm_nn_compiler.h ****  *
   6:Middlewares/tensorflow/third_party/cmsis_nn/Include/Internal/arm_nn_compiler.h ****  * Licensed under the Apache License, Version 2.0 (the License); you may
   7:Middlewares/tensorflow/third_party/cmsis_nn/Include/Internal/arm_nn_compiler.h ****  * not use this file except in compliance with the License.
   8:Middlewares/tensorflow/third_party/cmsis_nn/Include/Internal/arm_nn_compiler.h ****  * You may obtain a copy of the License at
   9:Middlewares/tensorflow/third_party/cmsis_nn/Include/Internal/arm_nn_compiler.h ****  *
  10:Middlewares/tensorflow/third_party/cmsis_nn/Include/Internal/arm_nn_compiler.h ****  * www.apache.org/licenses/LICENSE-2.0
  11:Middlewares/tensorflow/third_party/cmsis_nn/Include/Internal/arm_nn_compiler.h ****  *
  12:Middlewares/tensorflow/third_party/cmsis_nn/Include/Internal/arm_nn_compiler.h ****  * Unless required by applicable law or agreed to in writing, software
  13:Middlewares/tensorflow/third_party/cmsis_nn/Include/Internal/arm_nn_compiler.h ****  * distributed under the License is distributed on an AS IS BASIS, WITHOUT
  14:Middlewares/tensorflow/third_party/cmsis_nn/Include/Internal/arm_nn_compiler.h ****  * WARRANTIES OR CONDITIONS OF ANY KIND, either express or implied.
  15:Middlewares/tensorflow/third_party/cmsis_nn/Include/Internal/arm_nn_compiler.h ****  * See the License for the specific language governing permissions and
  16:Middlewares/tensorflow/third_party/cmsis_nn/Include/Internal/arm_nn_compiler.h ****  * limitations under the License.
  17:Middlewares/tensorflow/third_party/cmsis_nn/Include/Internal/arm_nn_compiler.h ****  */
  18:Middlewares/tensorflow/third_party/cmsis_nn/Include/Internal/arm_nn_compiler.h **** 
  19:Middlewares/tensorflow/third_party/cmsis_nn/Include/Internal/arm_nn_compiler.h **** /* ----------------------------------------------------------------------
  20:Middlewares/tensorflow/third_party/cmsis_nn/Include/Internal/arm_nn_compiler.h ****  * Project:      CMSIS NN Library
  21:Middlewares/tensorflow/third_party/cmsis_nn/Include/Internal/arm_nn_compiler.h ****  * Title:        arm_nn_compiler.h
  22:Middlewares/tensorflow/third_party/cmsis_nn/Include/Internal/arm_nn_compiler.h ****  * Description:  Generic compiler header
  23:Middlewares/tensorflow/third_party/cmsis_nn/Include/Internal/arm_nn_compiler.h ****  *
  24:Middlewares/tensorflow/third_party/cmsis_nn/Include/Internal/arm_nn_compiler.h ****  * $Date:        31 January 2023
  25:Middlewares/tensorflow/third_party/cmsis_nn/Include/Internal/arm_nn_compiler.h ****  * $Revision:    V.1.1.0
  26:Middlewares/tensorflow/third_party/cmsis_nn/Include/Internal/arm_nn_compiler.h ****  *
  27:Middlewares/tensorflow/third_party/cmsis_nn/Include/Internal/arm_nn_compiler.h ****  * Target :  Arm(R) M-Profile Architecture
  28:Middlewares/tensorflow/third_party/cmsis_nn/Include/Internal/arm_nn_compiler.h ****  * -------------------------------------------------------------------- */
ARM GAS  /tmp/ccRtV34n.s 			page 25


  29:Middlewares/tensorflow/third_party/cmsis_nn/Include/Internal/arm_nn_compiler.h **** 
  30:Middlewares/tensorflow/third_party/cmsis_nn/Include/Internal/arm_nn_compiler.h **** #ifndef ARM_NN_COMPILER_H
  31:Middlewares/tensorflow/third_party/cmsis_nn/Include/Internal/arm_nn_compiler.h **** #define ARM_NN_COMPILER_H
  32:Middlewares/tensorflow/third_party/cmsis_nn/Include/Internal/arm_nn_compiler.h **** #include <stdint.h>
  33:Middlewares/tensorflow/third_party/cmsis_nn/Include/Internal/arm_nn_compiler.h **** 
  34:Middlewares/tensorflow/third_party/cmsis_nn/Include/Internal/arm_nn_compiler.h **** /**
  35:Middlewares/tensorflow/third_party/cmsis_nn/Include/Internal/arm_nn_compiler.h ****  *
  36:Middlewares/tensorflow/third_party/cmsis_nn/Include/Internal/arm_nn_compiler.h ****  * @brief Arm C-Language Extension(ACLE) Includes
  37:Middlewares/tensorflow/third_party/cmsis_nn/Include/Internal/arm_nn_compiler.h ****  *
  38:Middlewares/tensorflow/third_party/cmsis_nn/Include/Internal/arm_nn_compiler.h ****  */
  39:Middlewares/tensorflow/third_party/cmsis_nn/Include/Internal/arm_nn_compiler.h **** 
  40:Middlewares/tensorflow/third_party/cmsis_nn/Include/Internal/arm_nn_compiler.h **** #if defined(__ARMCC_VERSION) && (__ARMCC_VERSION >= 6010050)
  41:Middlewares/tensorflow/third_party/cmsis_nn/Include/Internal/arm_nn_compiler.h **** 
  42:Middlewares/tensorflow/third_party/cmsis_nn/Include/Internal/arm_nn_compiler.h ****     #ifndef __ASM
  43:Middlewares/tensorflow/third_party/cmsis_nn/Include/Internal/arm_nn_compiler.h ****         #define __ASM __asm
  44:Middlewares/tensorflow/third_party/cmsis_nn/Include/Internal/arm_nn_compiler.h ****     #endif
  45:Middlewares/tensorflow/third_party/cmsis_nn/Include/Internal/arm_nn_compiler.h ****     #ifndef __INLINE
  46:Middlewares/tensorflow/third_party/cmsis_nn/Include/Internal/arm_nn_compiler.h ****         #define __INLINE __inline
  47:Middlewares/tensorflow/third_party/cmsis_nn/Include/Internal/arm_nn_compiler.h ****     #endif
  48:Middlewares/tensorflow/third_party/cmsis_nn/Include/Internal/arm_nn_compiler.h ****     #ifndef __STATIC_INLINE
  49:Middlewares/tensorflow/third_party/cmsis_nn/Include/Internal/arm_nn_compiler.h ****         #define __STATIC_INLINE static __inline
  50:Middlewares/tensorflow/third_party/cmsis_nn/Include/Internal/arm_nn_compiler.h ****     #endif
  51:Middlewares/tensorflow/third_party/cmsis_nn/Include/Internal/arm_nn_compiler.h ****     #ifndef __STATIC_FORCEINLINE
  52:Middlewares/tensorflow/third_party/cmsis_nn/Include/Internal/arm_nn_compiler.h ****         #define __STATIC_FORCEINLINE __attribute__((always_inline)) static __inline
  53:Middlewares/tensorflow/third_party/cmsis_nn/Include/Internal/arm_nn_compiler.h ****     #endif
  54:Middlewares/tensorflow/third_party/cmsis_nn/Include/Internal/arm_nn_compiler.h ****     #ifndef __RESTRICT
  55:Middlewares/tensorflow/third_party/cmsis_nn/Include/Internal/arm_nn_compiler.h ****         #define __RESTRICT __restrict
  56:Middlewares/tensorflow/third_party/cmsis_nn/Include/Internal/arm_nn_compiler.h ****     #endif
  57:Middlewares/tensorflow/third_party/cmsis_nn/Include/Internal/arm_nn_compiler.h **** 
  58:Middlewares/tensorflow/third_party/cmsis_nn/Include/Internal/arm_nn_compiler.h **** #elif defined(__ICCARM__)
  59:Middlewares/tensorflow/third_party/cmsis_nn/Include/Internal/arm_nn_compiler.h **** 
  60:Middlewares/tensorflow/third_party/cmsis_nn/Include/Internal/arm_nn_compiler.h ****     // #warning IAR support is not tested
  61:Middlewares/tensorflow/third_party/cmsis_nn/Include/Internal/arm_nn_compiler.h ****     #ifndef __ASM
  62:Middlewares/tensorflow/third_party/cmsis_nn/Include/Internal/arm_nn_compiler.h ****         #define __ASM __asm
  63:Middlewares/tensorflow/third_party/cmsis_nn/Include/Internal/arm_nn_compiler.h ****     #endif
  64:Middlewares/tensorflow/third_party/cmsis_nn/Include/Internal/arm_nn_compiler.h ****     #ifndef __INLINE
  65:Middlewares/tensorflow/third_party/cmsis_nn/Include/Internal/arm_nn_compiler.h ****         #define __INLINE inline
  66:Middlewares/tensorflow/third_party/cmsis_nn/Include/Internal/arm_nn_compiler.h ****     #endif
  67:Middlewares/tensorflow/third_party/cmsis_nn/Include/Internal/arm_nn_compiler.h ****     #ifndef __STATIC_INLINE
  68:Middlewares/tensorflow/third_party/cmsis_nn/Include/Internal/arm_nn_compiler.h ****         #define __STATIC_INLINE static inline
  69:Middlewares/tensorflow/third_party/cmsis_nn/Include/Internal/arm_nn_compiler.h ****     #endif
  70:Middlewares/tensorflow/third_party/cmsis_nn/Include/Internal/arm_nn_compiler.h ****     #ifndef __FORCEINLINE
  71:Middlewares/tensorflow/third_party/cmsis_nn/Include/Internal/arm_nn_compiler.h ****         #define __FORCEINLINE _Pragma("inline=forced")
  72:Middlewares/tensorflow/third_party/cmsis_nn/Include/Internal/arm_nn_compiler.h ****     #endif
  73:Middlewares/tensorflow/third_party/cmsis_nn/Include/Internal/arm_nn_compiler.h ****     #ifndef __STATIC_FORCEINLINE
  74:Middlewares/tensorflow/third_party/cmsis_nn/Include/Internal/arm_nn_compiler.h ****         #define __STATIC_FORCEINLINE __FORCEINLINE __STATIC_INLINE
  75:Middlewares/tensorflow/third_party/cmsis_nn/Include/Internal/arm_nn_compiler.h ****     #endif
  76:Middlewares/tensorflow/third_party/cmsis_nn/Include/Internal/arm_nn_compiler.h ****     #ifndef __RESTRICT
  77:Middlewares/tensorflow/third_party/cmsis_nn/Include/Internal/arm_nn_compiler.h ****         #define __RESTRICT restrict
  78:Middlewares/tensorflow/third_party/cmsis_nn/Include/Internal/arm_nn_compiler.h ****     #endif
  79:Middlewares/tensorflow/third_party/cmsis_nn/Include/Internal/arm_nn_compiler.h **** 
  80:Middlewares/tensorflow/third_party/cmsis_nn/Include/Internal/arm_nn_compiler.h **** #elif defined(_MSC_VER)
  81:Middlewares/tensorflow/third_party/cmsis_nn/Include/Internal/arm_nn_compiler.h **** 
  82:Middlewares/tensorflow/third_party/cmsis_nn/Include/Internal/arm_nn_compiler.h ****     // Build for non Arm Cortex-M processors is not tested or supported.
  83:Middlewares/tensorflow/third_party/cmsis_nn/Include/Internal/arm_nn_compiler.h ****     // Use this section to stub any macros or intrinsics
  84:Middlewares/tensorflow/third_party/cmsis_nn/Include/Internal/arm_nn_compiler.h ****     #warning Unsupported compiler
  85:Middlewares/tensorflow/third_party/cmsis_nn/Include/Internal/arm_nn_compiler.h ****     #ifndef __STATIC_FORCEINLINE
ARM GAS  /tmp/ccRtV34n.s 			page 26


  86:Middlewares/tensorflow/third_party/cmsis_nn/Include/Internal/arm_nn_compiler.h ****         #define __STATIC_FORCEINLINE static __forceinline
  87:Middlewares/tensorflow/third_party/cmsis_nn/Include/Internal/arm_nn_compiler.h ****     #endif
  88:Middlewares/tensorflow/third_party/cmsis_nn/Include/Internal/arm_nn_compiler.h ****     #ifndef __STATIC_INLINE
  89:Middlewares/tensorflow/third_party/cmsis_nn/Include/Internal/arm_nn_compiler.h ****         #define __STATIC_INLINE static __inline
  90:Middlewares/tensorflow/third_party/cmsis_nn/Include/Internal/arm_nn_compiler.h ****     #endif
  91:Middlewares/tensorflow/third_party/cmsis_nn/Include/Internal/arm_nn_compiler.h ****     #ifndef __ALIGNED
  92:Middlewares/tensorflow/third_party/cmsis_nn/Include/Internal/arm_nn_compiler.h ****         #define __ALIGNED(x) __declspec(align(x))
  93:Middlewares/tensorflow/third_party/cmsis_nn/Include/Internal/arm_nn_compiler.h ****     #endif
  94:Middlewares/tensorflow/third_party/cmsis_nn/Include/Internal/arm_nn_compiler.h **** 
  95:Middlewares/tensorflow/third_party/cmsis_nn/Include/Internal/arm_nn_compiler.h **** #elif defined(__GNUC__)
  96:Middlewares/tensorflow/third_party/cmsis_nn/Include/Internal/arm_nn_compiler.h **** 
  97:Middlewares/tensorflow/third_party/cmsis_nn/Include/Internal/arm_nn_compiler.h ****     #ifndef __ASM
  98:Middlewares/tensorflow/third_party/cmsis_nn/Include/Internal/arm_nn_compiler.h ****         #define __ASM __asm
  99:Middlewares/tensorflow/third_party/cmsis_nn/Include/Internal/arm_nn_compiler.h ****     #endif
 100:Middlewares/tensorflow/third_party/cmsis_nn/Include/Internal/arm_nn_compiler.h ****     #ifndef __INLINE
 101:Middlewares/tensorflow/third_party/cmsis_nn/Include/Internal/arm_nn_compiler.h ****         #define __INLINE inline
 102:Middlewares/tensorflow/third_party/cmsis_nn/Include/Internal/arm_nn_compiler.h ****     #endif
 103:Middlewares/tensorflow/third_party/cmsis_nn/Include/Internal/arm_nn_compiler.h ****     #ifndef __STATIC_INLINE
 104:Middlewares/tensorflow/third_party/cmsis_nn/Include/Internal/arm_nn_compiler.h ****         #define __STATIC_INLINE static inline
 105:Middlewares/tensorflow/third_party/cmsis_nn/Include/Internal/arm_nn_compiler.h ****     #endif
 106:Middlewares/tensorflow/third_party/cmsis_nn/Include/Internal/arm_nn_compiler.h ****     #ifndef __STATIC_FORCEINLINE
 107:Middlewares/tensorflow/third_party/cmsis_nn/Include/Internal/arm_nn_compiler.h ****         #define __STATIC_FORCEINLINE __attribute__((always_inline)) static inline
 108:Middlewares/tensorflow/third_party/cmsis_nn/Include/Internal/arm_nn_compiler.h ****     #endif
 109:Middlewares/tensorflow/third_party/cmsis_nn/Include/Internal/arm_nn_compiler.h ****     #ifndef __RESTRICT
 110:Middlewares/tensorflow/third_party/cmsis_nn/Include/Internal/arm_nn_compiler.h ****         #define __RESTRICT __restrict
 111:Middlewares/tensorflow/third_party/cmsis_nn/Include/Internal/arm_nn_compiler.h ****     #endif
 112:Middlewares/tensorflow/third_party/cmsis_nn/Include/Internal/arm_nn_compiler.h **** 
 113:Middlewares/tensorflow/third_party/cmsis_nn/Include/Internal/arm_nn_compiler.h **** #else
 114:Middlewares/tensorflow/third_party/cmsis_nn/Include/Internal/arm_nn_compiler.h **** 
 115:Middlewares/tensorflow/third_party/cmsis_nn/Include/Internal/arm_nn_compiler.h ****     #error Unsupported compiler. Add support as needed
 116:Middlewares/tensorflow/third_party/cmsis_nn/Include/Internal/arm_nn_compiler.h **** 
 117:Middlewares/tensorflow/third_party/cmsis_nn/Include/Internal/arm_nn_compiler.h **** #endif
 118:Middlewares/tensorflow/third_party/cmsis_nn/Include/Internal/arm_nn_compiler.h **** 
 119:Middlewares/tensorflow/third_party/cmsis_nn/Include/Internal/arm_nn_compiler.h **** /**
 120:Middlewares/tensorflow/third_party/cmsis_nn/Include/Internal/arm_nn_compiler.h ****  *
 121:Middlewares/tensorflow/third_party/cmsis_nn/Include/Internal/arm_nn_compiler.h ****  * @brief Compiler specific diagnostic adjustment / fixes if applicable
 122:Middlewares/tensorflow/third_party/cmsis_nn/Include/Internal/arm_nn_compiler.h ****  *
 123:Middlewares/tensorflow/third_party/cmsis_nn/Include/Internal/arm_nn_compiler.h ****  */
 124:Middlewares/tensorflow/third_party/cmsis_nn/Include/Internal/arm_nn_compiler.h **** 
 125:Middlewares/tensorflow/third_party/cmsis_nn/Include/Internal/arm_nn_compiler.h **** // Note: __ARM_ARCH is used with M-profile architecture as the target here.
 126:Middlewares/tensorflow/third_party/cmsis_nn/Include/Internal/arm_nn_compiler.h **** #if defined(__GNUC__)
 127:Middlewares/tensorflow/third_party/cmsis_nn/Include/Internal/arm_nn_compiler.h ****     #if (__GNUC__ == 12 && (__GNUC_MINOR__ <= 2)) && defined(__ARM_ARCH)
 128:Middlewares/tensorflow/third_party/cmsis_nn/Include/Internal/arm_nn_compiler.h ****         // Workaround for 'Internal Compiler Error' on Arm GNU Toolchain rel 12.2.x
 129:Middlewares/tensorflow/third_party/cmsis_nn/Include/Internal/arm_nn_compiler.h ****         // https://gcc.gnu.org/pipermail/gcc-patches/2022-December/607963.html
 130:Middlewares/tensorflow/third_party/cmsis_nn/Include/Internal/arm_nn_compiler.h ****         #define ARM_GCC_12_2_ICE
 131:Middlewares/tensorflow/third_party/cmsis_nn/Include/Internal/arm_nn_compiler.h ****     #endif
 132:Middlewares/tensorflow/third_party/cmsis_nn/Include/Internal/arm_nn_compiler.h **** #endif
 133:Middlewares/tensorflow/third_party/cmsis_nn/Include/Internal/arm_nn_compiler.h **** 
 134:Middlewares/tensorflow/third_party/cmsis_nn/Include/Internal/arm_nn_compiler.h **** #if ((__ARM_FEATURE_MVE & 3) == 3) || (__ARM_FEATURE_MVE & 1)
 135:Middlewares/tensorflow/third_party/cmsis_nn/Include/Internal/arm_nn_compiler.h ****     #include <arm_mve.h>
 136:Middlewares/tensorflow/third_party/cmsis_nn/Include/Internal/arm_nn_compiler.h **** #endif
 137:Middlewares/tensorflow/third_party/cmsis_nn/Include/Internal/arm_nn_compiler.h **** 
 138:Middlewares/tensorflow/third_party/cmsis_nn/Include/Internal/arm_nn_compiler.h **** #if defined(__ARM_ARCH) || defined(__ARM_ACLE)
 139:Middlewares/tensorflow/third_party/cmsis_nn/Include/Internal/arm_nn_compiler.h ****     #include <arm_acle.h>
 140:Middlewares/tensorflow/third_party/cmsis_nn/Include/Internal/arm_nn_compiler.h **** #endif
 141:Middlewares/tensorflow/third_party/cmsis_nn/Include/Internal/arm_nn_compiler.h **** 
 142:Middlewares/tensorflow/third_party/cmsis_nn/Include/Internal/arm_nn_compiler.h **** /**
ARM GAS  /tmp/ccRtV34n.s 			page 27


 143:Middlewares/tensorflow/third_party/cmsis_nn/Include/Internal/arm_nn_compiler.h ****  *
 144:Middlewares/tensorflow/third_party/cmsis_nn/Include/Internal/arm_nn_compiler.h ****  * @brief ACLE and Intrinsics
 145:Middlewares/tensorflow/third_party/cmsis_nn/Include/Internal/arm_nn_compiler.h ****  *
 146:Middlewares/tensorflow/third_party/cmsis_nn/Include/Internal/arm_nn_compiler.h ****  */
 147:Middlewares/tensorflow/third_party/cmsis_nn/Include/Internal/arm_nn_compiler.h **** 
 148:Middlewares/tensorflow/third_party/cmsis_nn/Include/Internal/arm_nn_compiler.h **** // Note: Have __GNUC__, that is used to check for GCC , checks at the end
 149:Middlewares/tensorflow/third_party/cmsis_nn/Include/Internal/arm_nn_compiler.h **** // as __GNUC__ is defined by non-GCC compilers as well
 150:Middlewares/tensorflow/third_party/cmsis_nn/Include/Internal/arm_nn_compiler.h **** 
 151:Middlewares/tensorflow/third_party/cmsis_nn/Include/Internal/arm_nn_compiler.h **** /* Common intrinsics for all architectures */
 152:Middlewares/tensorflow/third_party/cmsis_nn/Include/Internal/arm_nn_compiler.h **** #if defined(__ARMCC_VERSION) && (__ARMCC_VERSION >= 6010050) || defined(__ICCARM__)
 153:Middlewares/tensorflow/third_party/cmsis_nn/Include/Internal/arm_nn_compiler.h ****     #define CLZ __clz
 154:Middlewares/tensorflow/third_party/cmsis_nn/Include/Internal/arm_nn_compiler.h **** #elif defined(__GNUC__)
 155:Middlewares/tensorflow/third_party/cmsis_nn/Include/Internal/arm_nn_compiler.h **** /**
 156:Middlewares/tensorflow/third_party/cmsis_nn/Include/Internal/arm_nn_compiler.h ****   \brief   Count leading zeros
 157:Middlewares/tensorflow/third_party/cmsis_nn/Include/Internal/arm_nn_compiler.h ****   \details Counts the number of leading zeros of a data value.
 158:Middlewares/tensorflow/third_party/cmsis_nn/Include/Internal/arm_nn_compiler.h ****   \param [in]  value  Value to count the leading zeros
 159:Middlewares/tensorflow/third_party/cmsis_nn/Include/Internal/arm_nn_compiler.h ****   \return             number of leading zeros in value
 160:Middlewares/tensorflow/third_party/cmsis_nn/Include/Internal/arm_nn_compiler.h ****  */
 161:Middlewares/tensorflow/third_party/cmsis_nn/Include/Internal/arm_nn_compiler.h **** __STATIC_FORCEINLINE uint8_t CLZ(uint32_t value)
 162:Middlewares/tensorflow/third_party/cmsis_nn/Include/Internal/arm_nn_compiler.h **** {
 163:Middlewares/tensorflow/third_party/cmsis_nn/Include/Internal/arm_nn_compiler.h ****     /* Even though __builtin_clz produces a CLZ instruction on ARM, formally
 164:Middlewares/tensorflow/third_party/cmsis_nn/Include/Internal/arm_nn_compiler.h ****        __builtin_clz(0) is undefined behaviour, so handle this case specially.
 165:Middlewares/tensorflow/third_party/cmsis_nn/Include/Internal/arm_nn_compiler.h ****        This guarantees Arm-compatible results if compiling on a non-Arm
 166:Middlewares/tensorflow/third_party/cmsis_nn/Include/Internal/arm_nn_compiler.h ****        target, and ensures the compiler doesn't decide to activate any
 167:Middlewares/tensorflow/third_party/cmsis_nn/Include/Internal/arm_nn_compiler.h ****        optimisations using the logic "value was passed to __builtin_clz, so it
 168:Middlewares/tensorflow/third_party/cmsis_nn/Include/Internal/arm_nn_compiler.h ****        is non-zero".
 169:Middlewares/tensorflow/third_party/cmsis_nn/Include/Internal/arm_nn_compiler.h ****        ARM GCC 7.3 and possibly earlier will optimise this test away, leaving a
 170:Middlewares/tensorflow/third_party/cmsis_nn/Include/Internal/arm_nn_compiler.h ****        single CLZ instruction.
 171:Middlewares/tensorflow/third_party/cmsis_nn/Include/Internal/arm_nn_compiler.h ****      */
 172:Middlewares/tensorflow/third_party/cmsis_nn/Include/Internal/arm_nn_compiler.h ****     if (value == 0U)
 173:Middlewares/tensorflow/third_party/cmsis_nn/Include/Internal/arm_nn_compiler.h ****     {
 174:Middlewares/tensorflow/third_party/cmsis_nn/Include/Internal/arm_nn_compiler.h ****         return 32U;
 175:Middlewares/tensorflow/third_party/cmsis_nn/Include/Internal/arm_nn_compiler.h ****     }
 176:Middlewares/tensorflow/third_party/cmsis_nn/Include/Internal/arm_nn_compiler.h ****     return __builtin_clz(value);
 177:Middlewares/tensorflow/third_party/cmsis_nn/Include/Internal/arm_nn_compiler.h **** }
 178:Middlewares/tensorflow/third_party/cmsis_nn/Include/Internal/arm_nn_compiler.h **** #endif
 179:Middlewares/tensorflow/third_party/cmsis_nn/Include/Internal/arm_nn_compiler.h **** 
 180:Middlewares/tensorflow/third_party/cmsis_nn/Include/Internal/arm_nn_compiler.h **** // ACLE intrinsics under groups __ARM_FEATURE_QBIT, __ARM_FEATURE_DSP , __ARM_FEATURE_SAT, __ARM_FE
 181:Middlewares/tensorflow/third_party/cmsis_nn/Include/Internal/arm_nn_compiler.h **** 
 182:Middlewares/tensorflow/third_party/cmsis_nn/Include/Internal/arm_nn_compiler.h **** // Note: Just __ARM_FEATURE_DSP is checked to collect all intrinsics from the above mentioned group
 183:Middlewares/tensorflow/third_party/cmsis_nn/Include/Internal/arm_nn_compiler.h **** 
 184:Middlewares/tensorflow/third_party/cmsis_nn/Include/Internal/arm_nn_compiler.h **** #if (defined(__ARM_FEATURE_DSP) && (__ARM_FEATURE_DSP == 1))
 185:Middlewares/tensorflow/third_party/cmsis_nn/Include/Internal/arm_nn_compiler.h **** 
 186:Middlewares/tensorflow/third_party/cmsis_nn/Include/Internal/arm_nn_compiler.h ****     // Common intrinsics
 187:Middlewares/tensorflow/third_party/cmsis_nn/Include/Internal/arm_nn_compiler.h ****     #define SMLABB __smlabb
 188:Middlewares/tensorflow/third_party/cmsis_nn/Include/Internal/arm_nn_compiler.h ****     #define SMLATT __smlatt
 189:Middlewares/tensorflow/third_party/cmsis_nn/Include/Internal/arm_nn_compiler.h ****     #define QADD __qadd
 190:Middlewares/tensorflow/third_party/cmsis_nn/Include/Internal/arm_nn_compiler.h ****     #define QSUB8 __qsub8
 191:Middlewares/tensorflow/third_party/cmsis_nn/Include/Internal/arm_nn_compiler.h ****     #define QSUB16 __qsub16
 192:Middlewares/tensorflow/third_party/cmsis_nn/Include/Internal/arm_nn_compiler.h ****     #define SADD16 __sadd16
 193:Middlewares/tensorflow/third_party/cmsis_nn/Include/Internal/arm_nn_compiler.h **** 
 194:Middlewares/tensorflow/third_party/cmsis_nn/Include/Internal/arm_nn_compiler.h ****     // Compiler specifc variants of intrinsics. Create a new section or file for IAR if needed
 195:Middlewares/tensorflow/third_party/cmsis_nn/Include/Internal/arm_nn_compiler.h ****     #if defined(__ARMCC_VERSION) && (__ARMCC_VERSION >= 6010050) || defined(__ICCARM__)
 196:Middlewares/tensorflow/third_party/cmsis_nn/Include/Internal/arm_nn_compiler.h **** 
 197:Middlewares/tensorflow/third_party/cmsis_nn/Include/Internal/arm_nn_compiler.h ****         #define SMULBB __smulbb
 198:Middlewares/tensorflow/third_party/cmsis_nn/Include/Internal/arm_nn_compiler.h ****         #define SMULTT __smultt
 199:Middlewares/tensorflow/third_party/cmsis_nn/Include/Internal/arm_nn_compiler.h ****         #define ROR __ror
ARM GAS  /tmp/ccRtV34n.s 			page 28


 200:Middlewares/tensorflow/third_party/cmsis_nn/Include/Internal/arm_nn_compiler.h ****         #define SXTB16 __sxtb16
 201:Middlewares/tensorflow/third_party/cmsis_nn/Include/Internal/arm_nn_compiler.h ****         #define SXTAB16 __sxtab16
 202:Middlewares/tensorflow/third_party/cmsis_nn/Include/Internal/arm_nn_compiler.h ****         #define SXTB16_RORn(ARG1, ARG2) SXTB16(ROR(ARG1, ARG2))
 203:Middlewares/tensorflow/third_party/cmsis_nn/Include/Internal/arm_nn_compiler.h ****         #define SXTAB16_RORn(ARG1, ARG2, ARG3) SXTAB16(ARG1, ROR(ARG2, ARG3))
 204:Middlewares/tensorflow/third_party/cmsis_nn/Include/Internal/arm_nn_compiler.h ****         #define SMLAD __smlad
 205:Middlewares/tensorflow/third_party/cmsis_nn/Include/Internal/arm_nn_compiler.h ****         // PKH<XY> translates into pkh<xy> on AC6
 206:Middlewares/tensorflow/third_party/cmsis_nn/Include/Internal/arm_nn_compiler.h ****         #define PKHBT(ARG1, ARG2, ARG3)                                                            
 207:Middlewares/tensorflow/third_party/cmsis_nn/Include/Internal/arm_nn_compiler.h ****             (((((uint32_t)(ARG1))) & 0x0000FFFFUL) | ((((uint32_t)(ARG2)) << (ARG3)) & 0xFFFF0000UL
 208:Middlewares/tensorflow/third_party/cmsis_nn/Include/Internal/arm_nn_compiler.h ****         #define PKHTB(ARG1, ARG2, ARG3)                                                            
 209:Middlewares/tensorflow/third_party/cmsis_nn/Include/Internal/arm_nn_compiler.h ****             (((((uint32_t)(ARG1))) & 0xFFFF0000UL) | ((((uint32_t)(ARG2)) >> (ARG3)) & 0x0000FFFFUL
 210:Middlewares/tensorflow/third_party/cmsis_nn/Include/Internal/arm_nn_compiler.h **** 
 211:Middlewares/tensorflow/third_party/cmsis_nn/Include/Internal/arm_nn_compiler.h ****     #elif defined(__GNUC__)
 212:Middlewares/tensorflow/third_party/cmsis_nn/Include/Internal/arm_nn_compiler.h **** 
 213:Middlewares/tensorflow/third_party/cmsis_nn/Include/Internal/arm_nn_compiler.h ****         #define PKHBT(ARG1, ARG2, ARG3)                                                            
 214:Middlewares/tensorflow/third_party/cmsis_nn/Include/Internal/arm_nn_compiler.h ****             __extension__({                                                                        
 215:Middlewares/tensorflow/third_party/cmsis_nn/Include/Internal/arm_nn_compiler.h ****                 uint32_t __RES, __ARG1 = (ARG1), __ARG2 = (ARG2);                                  
 216:Middlewares/tensorflow/third_party/cmsis_nn/Include/Internal/arm_nn_compiler.h ****                 __ASM("pkhbt %0, %1, %2, lsl %3" : "=r"(__RES) : "r"(__ARG1), "r"(__ARG2), "I"(ARG3
 217:Middlewares/tensorflow/third_party/cmsis_nn/Include/Internal/arm_nn_compiler.h ****                 __RES;                                                                             
 218:Middlewares/tensorflow/third_party/cmsis_nn/Include/Internal/arm_nn_compiler.h ****             })
 219:Middlewares/tensorflow/third_party/cmsis_nn/Include/Internal/arm_nn_compiler.h ****         #define PKHTB(ARG1, ARG2, ARG3)                                                            
 220:Middlewares/tensorflow/third_party/cmsis_nn/Include/Internal/arm_nn_compiler.h ****             __extension__({                                                                        
 221:Middlewares/tensorflow/third_party/cmsis_nn/Include/Internal/arm_nn_compiler.h ****                 uint32_t __RES, __ARG1 = (ARG1), __ARG2 = (ARG2);                                  
 222:Middlewares/tensorflow/third_party/cmsis_nn/Include/Internal/arm_nn_compiler.h ****                 if (ARG3 == 0)                                                                     
 223:Middlewares/tensorflow/third_party/cmsis_nn/Include/Internal/arm_nn_compiler.h ****                     __ASM("pkhtb %0, %1, %2" : "=r"(__RES) : "r"(__ARG1), "r"(__ARG2));            
 224:Middlewares/tensorflow/third_party/cmsis_nn/Include/Internal/arm_nn_compiler.h ****                 else                                                                               
 225:Middlewares/tensorflow/third_party/cmsis_nn/Include/Internal/arm_nn_compiler.h ****                     __ASM("pkhtb %0, %1, %2, asr %3" : "=r"(__RES) : "r"(__ARG1), "r"(__ARG2), "I"(
 226:Middlewares/tensorflow/third_party/cmsis_nn/Include/Internal/arm_nn_compiler.h ****                 __RES;                                                                             
 227:Middlewares/tensorflow/third_party/cmsis_nn/Include/Internal/arm_nn_compiler.h ****             })
 228:Middlewares/tensorflow/third_party/cmsis_nn/Include/Internal/arm_nn_compiler.h **** 
 229:Middlewares/tensorflow/third_party/cmsis_nn/Include/Internal/arm_nn_compiler.h **** __STATIC_FORCEINLINE uint32_t SXTAB16(uint32_t op1, uint32_t op2)
 230:Middlewares/tensorflow/third_party/cmsis_nn/Include/Internal/arm_nn_compiler.h **** {
 231:Middlewares/tensorflow/third_party/cmsis_nn/Include/Internal/arm_nn_compiler.h ****     uint32_t result;
 232:Middlewares/tensorflow/third_party/cmsis_nn/Include/Internal/arm_nn_compiler.h **** 
 233:Middlewares/tensorflow/third_party/cmsis_nn/Include/Internal/arm_nn_compiler.h ****     __ASM("sxtab16 %0, %1, %2" : "=r"(result) : "r"(op1), "r"(op2));
 234:Middlewares/tensorflow/third_party/cmsis_nn/Include/Internal/arm_nn_compiler.h ****     return (result);
 235:Middlewares/tensorflow/third_party/cmsis_nn/Include/Internal/arm_nn_compiler.h **** }
 236:Middlewares/tensorflow/third_party/cmsis_nn/Include/Internal/arm_nn_compiler.h **** 
 237:Middlewares/tensorflow/third_party/cmsis_nn/Include/Internal/arm_nn_compiler.h **** __STATIC_FORCEINLINE uint32_t SXTB16(uint32_t op1)
 238:Middlewares/tensorflow/third_party/cmsis_nn/Include/Internal/arm_nn_compiler.h **** {
 239:Middlewares/tensorflow/third_party/cmsis_nn/Include/Internal/arm_nn_compiler.h ****     uint32_t result;
 240:Middlewares/tensorflow/third_party/cmsis_nn/Include/Internal/arm_nn_compiler.h **** 
 241:Middlewares/tensorflow/third_party/cmsis_nn/Include/Internal/arm_nn_compiler.h ****     __ASM("sxtb16 %0, %1" : "=r"(result) : "r"(op1));
 242:Middlewares/tensorflow/third_party/cmsis_nn/Include/Internal/arm_nn_compiler.h ****     return (result);
 243:Middlewares/tensorflow/third_party/cmsis_nn/Include/Internal/arm_nn_compiler.h **** }
 244:Middlewares/tensorflow/third_party/cmsis_nn/Include/Internal/arm_nn_compiler.h **** 
 245:Middlewares/tensorflow/third_party/cmsis_nn/Include/Internal/arm_nn_compiler.h **** // __smlad is defined by GCC, but results in a performance drop(Tested on Arm GNU Toolchain version
 246:Middlewares/tensorflow/third_party/cmsis_nn/Include/Internal/arm_nn_compiler.h **** __STATIC_FORCEINLINE uint32_t SMLAD(uint32_t op1, uint32_t op2, uint32_t op3)
 247:Middlewares/tensorflow/third_party/cmsis_nn/Include/Internal/arm_nn_compiler.h **** {
 248:Middlewares/tensorflow/third_party/cmsis_nn/Include/Internal/arm_nn_compiler.h ****     uint32_t result;
 249:Middlewares/tensorflow/third_party/cmsis_nn/Include/Internal/arm_nn_compiler.h **** 
 250:Middlewares/tensorflow/third_party/cmsis_nn/Include/Internal/arm_nn_compiler.h ****     __ASM volatile("smlad %0, %1, %2, %3" : "=r"(result) : "r"(op1), "r"(op2), "r"(op3));
 251:Middlewares/tensorflow/third_party/cmsis_nn/Include/Internal/arm_nn_compiler.h ****     return (result);
 252:Middlewares/tensorflow/third_party/cmsis_nn/Include/Internal/arm_nn_compiler.h **** }
 253:Middlewares/tensorflow/third_party/cmsis_nn/Include/Internal/arm_nn_compiler.h **** 
 254:Middlewares/tensorflow/third_party/cmsis_nn/Include/Internal/arm_nn_compiler.h **** __STATIC_FORCEINLINE uint32_t ROR(uint32_t op1, uint32_t op2)
 261              		.loc 3 254 31 view .LVU70
 262              	.LBB119:
ARM GAS  /tmp/ccRtV34n.s 			page 29


 255:Middlewares/tensorflow/third_party/cmsis_nn/Include/Internal/arm_nn_compiler.h **** {
 256:Middlewares/tensorflow/third_party/cmsis_nn/Include/Internal/arm_nn_compiler.h ****     op2 %= 32U;
 263              		.loc 3 256 5 view .LVU71
 257:Middlewares/tensorflow/third_party/cmsis_nn/Include/Internal/arm_nn_compiler.h ****     if (op2 == 0U)
 264              		.loc 3 257 5 view .LVU72
 258:Middlewares/tensorflow/third_party/cmsis_nn/Include/Internal/arm_nn_compiler.h ****     {
 259:Middlewares/tensorflow/third_party/cmsis_nn/Include/Internal/arm_nn_compiler.h ****         return op1;
 260:Middlewares/tensorflow/third_party/cmsis_nn/Include/Internal/arm_nn_compiler.h ****     }
 261:Middlewares/tensorflow/third_party/cmsis_nn/Include/Internal/arm_nn_compiler.h ****     return (op1 >> op2) | (op1 << (32U - op2));
 265              		.loc 3 261 5 view .LVU73
 266              		.loc 3 261 25 is_stmt 0 view .LVU74
 267 009a 4FEA3620 		ror	r0, r6, #8
 268              	.LVL29:
 269              		.loc 3 261 25 view .LVU75
 270              	.LBE119:
 271              	.LBE118:
 272              	.LBB120:
 273              	.LBI120:
 237:Middlewares/tensorflow/third_party/cmsis_nn/Include/Internal/arm_nn_compiler.h **** {
 274              		.loc 3 237 31 is_stmt 1 view .LVU76
 275              	.LBB121:
 239:Middlewares/tensorflow/third_party/cmsis_nn/Include/Internal/arm_nn_compiler.h **** 
 276              		.loc 3 239 5 view .LVU77
 241:Middlewares/tensorflow/third_party/cmsis_nn/Include/Internal/arm_nn_compiler.h ****     return (result);
 277              		.loc 3 241 5 view .LVU78
 278              		.syntax unified
 279              	@ 241 "Middlewares/tensorflow/third_party/cmsis_nn/Include/Internal/arm_nn_compiler.h" 1
 280 009e 2FFA80F0 		sxtb16 r0, r0
 281              	@ 0 "" 2
 282              	.LVL30:
 242:Middlewares/tensorflow/third_party/cmsis_nn/Include/Internal/arm_nn_compiler.h **** }
 283              		.loc 3 242 5 view .LVU79
 242:Middlewares/tensorflow/third_party/cmsis_nn/Include/Internal/arm_nn_compiler.h **** }
 284              		.loc 3 242 5 is_stmt 0 view .LVU80
 285              		.thumb
 286              		.syntax unified
 287              	.LBE121:
 288              	.LBE120:
 688:Middlewares/tensorflow/third_party/cmsis_nn/Include/arm_nnsupportfunctions.h ****     #else
 289              		.loc 2 688 5 is_stmt 1 view .LVU81
 290              	.LBB122:
 291              	.LBI122:
 237:Middlewares/tensorflow/third_party/cmsis_nn/Include/Internal/arm_nn_compiler.h **** {
 292              		.loc 3 237 31 view .LVU82
 293              	.LBB123:
 239:Middlewares/tensorflow/third_party/cmsis_nn/Include/Internal/arm_nn_compiler.h **** 
 294              		.loc 3 239 5 view .LVU83
 241:Middlewares/tensorflow/third_party/cmsis_nn/Include/Internal/arm_nn_compiler.h ****     return (result);
 295              		.loc 3 241 5 view .LVU84
 296              		.syntax unified
 297              	@ 241 "Middlewares/tensorflow/third_party/cmsis_nn/Include/Internal/arm_nn_compiler.h" 1
 298 00a2 2FFA86F6 		sxtb16 r6, r6
 299              	@ 0 "" 2
 300              	.LVL31:
 242:Middlewares/tensorflow/third_party/cmsis_nn/Include/Internal/arm_nn_compiler.h **** }
 301              		.loc 3 242 5 view .LVU85
 242:Middlewares/tensorflow/third_party/cmsis_nn/Include/Internal/arm_nn_compiler.h **** }
ARM GAS  /tmp/ccRtV34n.s 			page 30


 302              		.loc 3 242 5 is_stmt 0 view .LVU86
 303              		.thumb
 304              		.syntax unified
 305              	.LBE123:
 306              	.LBE122:
 694:Middlewares/tensorflow/third_party/cmsis_nn/Include/arm_nnsupportfunctions.h **** }
 307              		.loc 2 694 5 is_stmt 1 view .LVU87
 694:Middlewares/tensorflow/third_party/cmsis_nn/Include/arm_nnsupportfunctions.h **** }
 308              		.loc 2 694 5 is_stmt 0 view .LVU88
 309              	.LBE115:
 310              	.LBE114:
 117:Middlewares/tensorflow/third_party/cmsis_nn/Source/BasicMathFunctions/arm_elementwise_mul_s8.c **** 
 311              		.loc 1 117 9 is_stmt 1 view .LVU89
 312              	.LBB124:
 313              	.LBI124:
 683:Middlewares/tensorflow/third_party/cmsis_nn/Include/arm_nnsupportfunctions.h **** {
 314              		.loc 2 683 36 view .LVU90
 315              	.LBB125:
 685:Middlewares/tensorflow/third_party/cmsis_nn/Include/arm_nnsupportfunctions.h ****     #ifndef ARM_MATH_BIG_ENDIAN
 316              		.loc 2 685 5 view .LVU91
 317              	.LBB126:
 318              	.LBI126:
 586:Middlewares/tensorflow/third_party/cmsis_nn/Include/arm_nnsupportfunctions.h **** {
 319              		.loc 2 586 30 view .LVU92
 320              	.LBB127:
 588:Middlewares/tensorflow/third_party/cmsis_nn/Include/arm_nnsupportfunctions.h ****     memcpy(&val, *in_s8, 4);
 321              		.loc 2 588 5 view .LVU93
 589:Middlewares/tensorflow/third_party/cmsis_nn/Include/arm_nnsupportfunctions.h ****     *in_s8 += 4;
 322              		.loc 2 589 5 view .LVU94
 323 00a6 079B     		ldr	r3, [sp, #28]
 324              	.LVL32:
 589:Middlewares/tensorflow/third_party/cmsis_nn/Include/arm_nnsupportfunctions.h ****     *in_s8 += 4;
 325              		.loc 2 589 5 is_stmt 0 view .LVU95
 326 00a8 53F8044B 		ldr	r4, [r3], #4	@ unaligned
 327 00ac 0793     		str	r3, [sp, #28]
 328              	.LVL33:
 590:Middlewares/tensorflow/third_party/cmsis_nn/Include/arm_nnsupportfunctions.h **** 
 329              		.loc 2 590 5 is_stmt 1 view .LVU96
 592:Middlewares/tensorflow/third_party/cmsis_nn/Include/arm_nnsupportfunctions.h **** }
 330              		.loc 2 592 5 view .LVU97
 592:Middlewares/tensorflow/third_party/cmsis_nn/Include/arm_nnsupportfunctions.h **** }
 331              		.loc 2 592 5 is_stmt 0 view .LVU98
 332              	.LBE127:
 333              	.LBE126:
 687:Middlewares/tensorflow/third_party/cmsis_nn/Include/arm_nnsupportfunctions.h ****     *out1 = SXTB16(inA);
 334              		.loc 2 687 5 is_stmt 1 view .LVU99
 335              	.LBB128:
 336              	.LBI128:
 254:Middlewares/tensorflow/third_party/cmsis_nn/Include/Internal/arm_nn_compiler.h **** {
 337              		.loc 3 254 31 view .LVU100
 338              	.LBB129:
 256:Middlewares/tensorflow/third_party/cmsis_nn/Include/Internal/arm_nn_compiler.h ****     if (op2 == 0U)
 339              		.loc 3 256 5 view .LVU101
 257:Middlewares/tensorflow/third_party/cmsis_nn/Include/Internal/arm_nn_compiler.h ****     {
 340              		.loc 3 257 5 view .LVU102
 341              		.loc 3 261 5 view .LVU103
 342              		.loc 3 261 25 is_stmt 0 view .LVU104
ARM GAS  /tmp/ccRtV34n.s 			page 31


 343 00ae 4FEA3425 		ror	r5, r4, #8
 344              	.LVL34:
 345              		.loc 3 261 25 view .LVU105
 346              	.LBE129:
 347              	.LBE128:
 348              	.LBB130:
 349              	.LBI130:
 237:Middlewares/tensorflow/third_party/cmsis_nn/Include/Internal/arm_nn_compiler.h **** {
 350              		.loc 3 237 31 is_stmt 1 view .LVU106
 351              	.LBB131:
 239:Middlewares/tensorflow/third_party/cmsis_nn/Include/Internal/arm_nn_compiler.h **** 
 352              		.loc 3 239 5 view .LVU107
 241:Middlewares/tensorflow/third_party/cmsis_nn/Include/Internal/arm_nn_compiler.h ****     return (result);
 353              		.loc 3 241 5 view .LVU108
 354              		.syntax unified
 355              	@ 241 "Middlewares/tensorflow/third_party/cmsis_nn/Include/Internal/arm_nn_compiler.h" 1
 356 00b2 2FFA85F5 		sxtb16 r5, r5
 357              	@ 0 "" 2
 358              	.LVL35:
 242:Middlewares/tensorflow/third_party/cmsis_nn/Include/Internal/arm_nn_compiler.h **** }
 359              		.loc 3 242 5 view .LVU109
 242:Middlewares/tensorflow/third_party/cmsis_nn/Include/Internal/arm_nn_compiler.h **** }
 360              		.loc 3 242 5 is_stmt 0 view .LVU110
 361              		.thumb
 362              		.syntax unified
 363              	.LBE131:
 364              	.LBE130:
 688:Middlewares/tensorflow/third_party/cmsis_nn/Include/arm_nnsupportfunctions.h ****     #else
 365              		.loc 2 688 5 is_stmt 1 view .LVU111
 366              	.LBB132:
 367              	.LBI132:
 237:Middlewares/tensorflow/third_party/cmsis_nn/Include/Internal/arm_nn_compiler.h **** {
 368              		.loc 3 237 31 view .LVU112
 369              	.LBB133:
 239:Middlewares/tensorflow/third_party/cmsis_nn/Include/Internal/arm_nn_compiler.h **** 
 370              		.loc 3 239 5 view .LVU113
 241:Middlewares/tensorflow/third_party/cmsis_nn/Include/Internal/arm_nn_compiler.h ****     return (result);
 371              		.loc 3 241 5 view .LVU114
 372              		.syntax unified
 373              	@ 241 "Middlewares/tensorflow/third_party/cmsis_nn/Include/Internal/arm_nn_compiler.h" 1
 374 00b6 2FFA84F4 		sxtb16 r4, r4
 375              	@ 0 "" 2
 376              	.LVL36:
 242:Middlewares/tensorflow/third_party/cmsis_nn/Include/Internal/arm_nn_compiler.h **** }
 377              		.loc 3 242 5 view .LVU115
 242:Middlewares/tensorflow/third_party/cmsis_nn/Include/Internal/arm_nn_compiler.h **** }
 378              		.loc 3 242 5 is_stmt 0 view .LVU116
 379              		.thumb
 380              		.syntax unified
 381              	.LBE133:
 382              	.LBE132:
 694:Middlewares/tensorflow/third_party/cmsis_nn/Include/arm_nnsupportfunctions.h **** }
 383              		.loc 2 694 5 is_stmt 1 view .LVU117
 694:Middlewares/tensorflow/third_party/cmsis_nn/Include/arm_nnsupportfunctions.h **** }
 384              		.loc 2 694 5 is_stmt 0 view .LVU118
 385              	.LBE125:
 386              	.LBE124:
ARM GAS  /tmp/ccRtV34n.s 			page 32


 119:Middlewares/tensorflow/third_party/cmsis_nn/Source/BasicMathFunctions/arm_elementwise_mul_s8.c ****         b_1 = SADD16(b_1, offset_1_packed);
 387              		.loc 1 119 9 is_stmt 1 view .LVU119
 119:Middlewares/tensorflow/third_party/cmsis_nn/Source/BasicMathFunctions/arm_elementwise_mul_s8.c ****         b_1 = SADD16(b_1, offset_1_packed);
 388              		.loc 1 119 15 is_stmt 0 view .LVU120
 389 00ba 0A9F     		ldr	r7, [sp, #40]
 390 00bc 3946     		mov	r1, r7
 391 00be FFF7FEFF 		bl	__sadd16
 392              	.LVL37:
 119:Middlewares/tensorflow/third_party/cmsis_nn/Source/BasicMathFunctions/arm_elementwise_mul_s8.c ****         b_1 = SADD16(b_1, offset_1_packed);
 393              		.loc 1 119 15 view .LVU121
 394 00c2 0290     		str	r0, [sp, #8]
 395              	.LVL38:
 120:Middlewares/tensorflow/third_party/cmsis_nn/Source/BasicMathFunctions/arm_elementwise_mul_s8.c **** 
 396              		.loc 1 120 9 is_stmt 1 view .LVU122
 120:Middlewares/tensorflow/third_party/cmsis_nn/Source/BasicMathFunctions/arm_elementwise_mul_s8.c **** 
 397              		.loc 1 120 15 is_stmt 0 view .LVU123
 398 00c4 3946     		mov	r1, r7
 399 00c6 3046     		mov	r0, r6
 400              	.LVL39:
 120:Middlewares/tensorflow/third_party/cmsis_nn/Source/BasicMathFunctions/arm_elementwise_mul_s8.c **** 
 401              		.loc 1 120 15 view .LVU124
 402 00c8 FFF7FEFF 		bl	__sadd16
 403              	.LVL40:
 404 00cc 0646     		mov	r6, r0
 405              	.LVL41:
 122:Middlewares/tensorflow/third_party/cmsis_nn/Source/BasicMathFunctions/arm_elementwise_mul_s8.c ****         b_2 = SADD16(b_2, offset_2_packed);
 406              		.loc 1 122 9 is_stmt 1 view .LVU125
 122:Middlewares/tensorflow/third_party/cmsis_nn/Source/BasicMathFunctions/arm_elementwise_mul_s8.c ****         b_2 = SADD16(b_2, offset_2_packed);
 407              		.loc 1 122 15 is_stmt 0 view .LVU126
 408 00ce 0B9F     		ldr	r7, [sp, #44]
 409 00d0 3946     		mov	r1, r7
 410 00d2 2846     		mov	r0, r5
 411              	.LVL42:
 122:Middlewares/tensorflow/third_party/cmsis_nn/Source/BasicMathFunctions/arm_elementwise_mul_s8.c ****         b_2 = SADD16(b_2, offset_2_packed);
 412              		.loc 1 122 15 view .LVU127
 413 00d4 FFF7FEFF 		bl	__sadd16
 414              	.LVL43:
 415 00d8 0590     		str	r0, [sp, #20]
 416              	.LVL44:
 123:Middlewares/tensorflow/third_party/cmsis_nn/Source/BasicMathFunctions/arm_elementwise_mul_s8.c **** 
 417              		.loc 1 123 9 is_stmt 1 view .LVU128
 123:Middlewares/tensorflow/third_party/cmsis_nn/Source/BasicMathFunctions/arm_elementwise_mul_s8.c **** 
 418              		.loc 1 123 15 is_stmt 0 view .LVU129
 419 00da 3946     		mov	r1, r7
 420 00dc 2046     		mov	r0, r4
 421              	.LVL45:
 123:Middlewares/tensorflow/third_party/cmsis_nn/Source/BasicMathFunctions/arm_elementwise_mul_s8.c **** 
 422              		.loc 1 123 15 view .LVU130
 423 00de FFF7FEFF 		bl	__sadd16
 424              	.LVL46:
 126:Middlewares/tensorflow/third_party/cmsis_nn/Source/BasicMathFunctions/arm_elementwise_mul_s8.c ****         mul_res = arm_nn_requantize(mul_res, out_mult, out_shift) + out_offset;
 425              		.loc 1 126 9 is_stmt 1 view .LVU131
 426              	.LBB134:
 427              	.LBI134:
 262:Middlewares/tensorflow/third_party/cmsis_nn/Include/Internal/arm_nn_compiler.h **** }
 263:Middlewares/tensorflow/third_party/cmsis_nn/Include/Internal/arm_nn_compiler.h **** 
 264:Middlewares/tensorflow/third_party/cmsis_nn/Include/Internal/arm_nn_compiler.h **** __STATIC_FORCEINLINE uint32_t SXTB16_RORn(uint32_t op1, uint32_t rotate)
ARM GAS  /tmp/ccRtV34n.s 			page 33


 265:Middlewares/tensorflow/third_party/cmsis_nn/Include/Internal/arm_nn_compiler.h **** {
 266:Middlewares/tensorflow/third_party/cmsis_nn/Include/Internal/arm_nn_compiler.h ****     uint32_t result;
 267:Middlewares/tensorflow/third_party/cmsis_nn/Include/Internal/arm_nn_compiler.h ****     if (__builtin_constant_p(rotate) && ((rotate == 8U) || (rotate == 16U) || (rotate == 24U)))
 268:Middlewares/tensorflow/third_party/cmsis_nn/Include/Internal/arm_nn_compiler.h ****     {
 269:Middlewares/tensorflow/third_party/cmsis_nn/Include/Internal/arm_nn_compiler.h ****         __ASM volatile("sxtb16 %0, %1, ROR %2" : "=r"(result) : "r"(op1), "i"(rotate));
 270:Middlewares/tensorflow/third_party/cmsis_nn/Include/Internal/arm_nn_compiler.h ****     }
 271:Middlewares/tensorflow/third_party/cmsis_nn/Include/Internal/arm_nn_compiler.h ****     else
 272:Middlewares/tensorflow/third_party/cmsis_nn/Include/Internal/arm_nn_compiler.h ****     {
 273:Middlewares/tensorflow/third_party/cmsis_nn/Include/Internal/arm_nn_compiler.h ****         result = SXTB16(ROR(op1, rotate));
 274:Middlewares/tensorflow/third_party/cmsis_nn/Include/Internal/arm_nn_compiler.h ****     }
 275:Middlewares/tensorflow/third_party/cmsis_nn/Include/Internal/arm_nn_compiler.h ****     return result;
 276:Middlewares/tensorflow/third_party/cmsis_nn/Include/Internal/arm_nn_compiler.h **** }
 277:Middlewares/tensorflow/third_party/cmsis_nn/Include/Internal/arm_nn_compiler.h **** 
 278:Middlewares/tensorflow/third_party/cmsis_nn/Include/Internal/arm_nn_compiler.h **** __STATIC_FORCEINLINE uint32_t SXTAB16_RORn(uint32_t op1, uint32_t op2, uint32_t rotate)
 279:Middlewares/tensorflow/third_party/cmsis_nn/Include/Internal/arm_nn_compiler.h **** {
 280:Middlewares/tensorflow/third_party/cmsis_nn/Include/Internal/arm_nn_compiler.h ****     uint32_t result;
 281:Middlewares/tensorflow/third_party/cmsis_nn/Include/Internal/arm_nn_compiler.h ****     if (__builtin_constant_p(rotate) && ((rotate == 8U) || (rotate == 16U) || (rotate == 24U)))
 282:Middlewares/tensorflow/third_party/cmsis_nn/Include/Internal/arm_nn_compiler.h ****     {
 283:Middlewares/tensorflow/third_party/cmsis_nn/Include/Internal/arm_nn_compiler.h ****         __ASM volatile("sxtab16 %0, %1, %2, ROR %3" : "=r"(result) : "r"(op1), "r"(op2), "i"(rotate
 284:Middlewares/tensorflow/third_party/cmsis_nn/Include/Internal/arm_nn_compiler.h ****     }
 285:Middlewares/tensorflow/third_party/cmsis_nn/Include/Internal/arm_nn_compiler.h ****     else
 286:Middlewares/tensorflow/third_party/cmsis_nn/Include/Internal/arm_nn_compiler.h ****     {
 287:Middlewares/tensorflow/third_party/cmsis_nn/Include/Internal/arm_nn_compiler.h ****         result = SXTAB16(op1, ROR(op2, rotate));
 288:Middlewares/tensorflow/third_party/cmsis_nn/Include/Internal/arm_nn_compiler.h ****     }
 289:Middlewares/tensorflow/third_party/cmsis_nn/Include/Internal/arm_nn_compiler.h ****     return result;
 290:Middlewares/tensorflow/third_party/cmsis_nn/Include/Internal/arm_nn_compiler.h **** }
 291:Middlewares/tensorflow/third_party/cmsis_nn/Include/Internal/arm_nn_compiler.h **** 
 292:Middlewares/tensorflow/third_party/cmsis_nn/Include/Internal/arm_nn_compiler.h **** // Inline assembly routines for ACLE intrinsics that are not defined by GCC toolchain
 293:Middlewares/tensorflow/third_party/cmsis_nn/Include/Internal/arm_nn_compiler.h **** __STATIC_FORCEINLINE uint32_t SMULBB(uint32_t op1, uint32_t op2)
 428              		.loc 3 293 31 view .LVU132
 429              	.LBB135:
 294:Middlewares/tensorflow/third_party/cmsis_nn/Include/Internal/arm_nn_compiler.h **** {
 295:Middlewares/tensorflow/third_party/cmsis_nn/Include/Internal/arm_nn_compiler.h ****     uint32_t result;
 430              		.loc 3 295 5 view .LVU133
 296:Middlewares/tensorflow/third_party/cmsis_nn/Include/Internal/arm_nn_compiler.h **** 
 297:Middlewares/tensorflow/third_party/cmsis_nn/Include/Internal/arm_nn_compiler.h ****     __ASM volatile("smulbb %0, %1, %2" : "=r"(result) : "r"(op1), "r"(op2));
 431              		.loc 3 297 5 view .LVU134
 432              		.syntax unified
 433              	@ 297 "Middlewares/tensorflow/third_party/cmsis_nn/Include/Internal/arm_nn_compiler.h" 1
 434 00e2 16FB00F4 		smulbb r4, r6, r0
 435              	@ 0 "" 2
 436              	.LVL47:
 298:Middlewares/tensorflow/third_party/cmsis_nn/Include/Internal/arm_nn_compiler.h ****     return (result);
 437              		.loc 3 298 5 view .LVU135
 438              		.loc 3 298 5 is_stmt 0 view .LVU136
 439              		.thumb
 440              		.syntax unified
 441              	.LBE135:
 442              	.LBE134:
 127:Middlewares/tensorflow/third_party/cmsis_nn/Source/BasicMathFunctions/arm_elementwise_mul_s8.c **** 
 443              		.loc 1 127 9 is_stmt 1 view .LVU137
 444              	.LBB136:
 445              	.LBI76:
 882:Middlewares/tensorflow/third_party/cmsis_nn/Include/arm_nnsupportfunctions.h **** {
 446              		.loc 2 882 30 view .LVU138
 447              	.LBB84:
 448              		.loc 2 893 5 view .LVU139
ARM GAS  /tmp/ccRtV34n.s 			page 34


 449              		.loc 2 893 87 is_stmt 0 view .LVU140
 450 00e6 1B9B     		ldr	r3, [sp, #108]
 451 00e8 23EAE371 		bic	r1, r3, r3, asr #31
 452              		.loc 2 893 12 view .LVU141
 453 00ec 8C40     		lsls	r4, r4, r1
 454              	.LVL48:
 455              	.LBB81:
 456              	.LBI81:
 823:Middlewares/tensorflow/third_party/cmsis_nn/Include/arm_nnsupportfunctions.h **** {
 457              		.loc 2 823 30 is_stmt 1 view .LVU142
 458              	.LBB82:
 825:Middlewares/tensorflow/third_party/cmsis_nn/Include/arm_nnsupportfunctions.h ****     union arm_nn_long_long mult;
 459              		.loc 2 825 5 view .LVU143
 826:Middlewares/tensorflow/third_party/cmsis_nn/Include/arm_nnsupportfunctions.h **** 
 460              		.loc 2 826 5 view .LVU144
 829:Middlewares/tensorflow/third_party/cmsis_nn/Include/arm_nnsupportfunctions.h ****     mult.word.high = 0;
 461              		.loc 2 829 5 view .LVU145
 830:Middlewares/tensorflow/third_party/cmsis_nn/Include/arm_nnsupportfunctions.h **** 
 462              		.loc 2 830 5 view .LVU146
 833:Middlewares/tensorflow/third_party/cmsis_nn/Include/arm_nnsupportfunctions.h **** 
 463              		.loc 2 833 5 view .LVU147
 833:Middlewares/tensorflow/third_party/cmsis_nn/Include/arm_nnsupportfunctions.h **** 
 464              		.loc 2 833 26 is_stmt 0 view .LVU148
 465 00ee 4FF08043 		mov	r3, #1073741824
 466 00f2 0022     		movs	r2, #0
 833:Middlewares/tensorflow/third_party/cmsis_nn/Include/arm_nnsupportfunctions.h **** 
 467              		.loc 2 833 39 view .LVU149
 468 00f4 A246     		mov	r10, r4
 469 00f6 4FEAE47B 		asr	fp, r4, #31
 470 00fa CDE908AB 		strd	r10, [sp, #32]
 833:Middlewares/tensorflow/third_party/cmsis_nn/Include/arm_nnsupportfunctions.h **** 
 471              		.loc 2 833 51 view .LVU150
 472 00fe CA46     		mov	r10, r9
 473 0100 4FEAE97B 		asr	fp, r9, #31
 474 0104 CDE900AB 		strd	r10, [sp]
 475 0108 04FB0BF7 		mul	r7, r4, fp
 476 010c 099D     		ldr	r5, [sp, #36]
 477 010e 09FB0577 		mla	r7, r9, r5, r7
 478 0112 A4FB0945 		umull	r4, r5, r4, r9
 479              	.LVL49:
 833:Middlewares/tensorflow/third_party/cmsis_nn/Include/arm_nnsupportfunctions.h **** 
 480              		.loc 2 833 51 view .LVU151
 481 0116 3D44     		add	r5, r5, r7
 833:Middlewares/tensorflow/third_party/cmsis_nn/Include/arm_nnsupportfunctions.h **** 
 482              		.loc 2 833 37 view .LVU152
 483 0118 1B19     		adds	r3, r3, r4
 484 011a 45EB0202 		adc	r2, r5, r2
 837:Middlewares/tensorflow/third_party/cmsis_nn/Include/arm_nnsupportfunctions.h **** 
 485              		.loc 2 837 5 is_stmt 1 view .LVU153
 837:Middlewares/tensorflow/third_party/cmsis_nn/Include/arm_nnsupportfunctions.h **** 
 486              		.loc 2 837 39 is_stmt 0 view .LVU154
 487 011e DB0F     		lsrs	r3, r3, #31
 488 0120 43EA4203 		orr	r3, r3, r2, lsl #1
 489              	.LVL50:
 839:Middlewares/tensorflow/third_party/cmsis_nn/Include/arm_nnsupportfunctions.h **** }
 490              		.loc 2 839 5 is_stmt 1 view .LVU155
 839:Middlewares/tensorflow/third_party/cmsis_nn/Include/arm_nnsupportfunctions.h **** }
ARM GAS  /tmp/ccRtV34n.s 			page 35


 491              		.loc 2 839 5 is_stmt 0 view .LVU156
 492              	.LBE82:
 493              	.LBE81:
 494              		.loc 2 893 12 view .LVU157
 495 0124 1B9A     		ldr	r2, [sp, #108]
 496 0126 002A     		cmp	r2, #0
 497 0128 82DD     		ble	.L25
 498              		.loc 2 893 12 view .LVU158
 499 012a 0025     		movs	r5, #0
 500              	.L3:
 501              	.LVL51:
 502              	.LBB83:
 503              	.LBI78:
 850:Middlewares/tensorflow/third_party/cmsis_nn/Include/arm_nnsupportfunctions.h **** {
 504              		.loc 2 850 30 is_stmt 1 view .LVU159
 505              	.LBB80:
 852:Middlewares/tensorflow/third_party/cmsis_nn/Include/arm_nnsupportfunctions.h ****     const int32_t remainder_mask = (1 << exponent) - 1;
 506              		.loc 2 852 5 view .LVU160
 853:Middlewares/tensorflow/third_party/cmsis_nn/Include/arm_nnsupportfunctions.h ****     int32_t remainder = remainder_mask & dividend;
 507              		.loc 2 853 5 view .LVU161
 853:Middlewares/tensorflow/third_party/cmsis_nn/Include/arm_nnsupportfunctions.h ****     int32_t remainder = remainder_mask & dividend;
 508              		.loc 2 853 39 is_stmt 0 view .LVU162
 509 012c 0124     		movs	r4, #1
 510 012e AC40     		lsls	r4, r4, r5
 853:Middlewares/tensorflow/third_party/cmsis_nn/Include/arm_nnsupportfunctions.h ****     int32_t remainder = remainder_mask & dividend;
 511              		.loc 2 853 19 view .LVU163
 512 0130 013C     		subs	r4, r4, #1
 513              	.LVL52:
 854:Middlewares/tensorflow/third_party/cmsis_nn/Include/arm_nnsupportfunctions.h **** 
 514              		.loc 2 854 5 is_stmt 1 view .LVU164
 854:Middlewares/tensorflow/third_party/cmsis_nn/Include/arm_nnsupportfunctions.h **** 
 515              		.loc 2 854 13 is_stmt 0 view .LVU165
 516 0132 03EA0407 		and	r7, r3, r4
 517              	.LVL53:
 857:Middlewares/tensorflow/third_party/cmsis_nn/Include/arm_nnsupportfunctions.h **** 
 518              		.loc 2 857 5 is_stmt 1 view .LVU166
 860:Middlewares/tensorflow/third_party/cmsis_nn/Include/arm_nnsupportfunctions.h ****     if (result < 0)
 519              		.loc 2 860 5 view .LVU167
 860:Middlewares/tensorflow/third_party/cmsis_nn/Include/arm_nnsupportfunctions.h ****     if (result < 0)
 520              		.loc 2 860 13 is_stmt 0 view .LVU168
 521 0136 4FEA640C 		asr	ip, r4, #1
 522              	.LVL54:
 861:Middlewares/tensorflow/third_party/cmsis_nn/Include/arm_nnsupportfunctions.h ****     {
 523              		.loc 2 861 5 is_stmt 1 view .LVU169
 861:Middlewares/tensorflow/third_party/cmsis_nn/Include/arm_nnsupportfunctions.h ****     {
 524              		.loc 2 861 8 is_stmt 0 view .LVU170
 525 013a 2B41     		asrs	r3, r3, r5
 526              	.LVL55:
 861:Middlewares/tensorflow/third_party/cmsis_nn/Include/arm_nnsupportfunctions.h ****     {
 527              		.loc 2 861 8 view .LVU171
 528 013c 3FF57AAF 		bmi	.L26
 860:Middlewares/tensorflow/third_party/cmsis_nn/Include/arm_nnsupportfunctions.h ****     if (result < 0)
 529              		.loc 2 860 13 view .LVU172
 530 0140 6246     		mov	r2, ip
 531              	.LVL56:
 532              	.L4:
 865:Middlewares/tensorflow/third_party/cmsis_nn/Include/arm_nnsupportfunctions.h ****     {
ARM GAS  /tmp/ccRtV34n.s 			page 36


 533              		.loc 2 865 5 is_stmt 1 view .LVU173
 865:Middlewares/tensorflow/third_party/cmsis_nn/Include/arm_nnsupportfunctions.h ****     {
 534              		.loc 2 865 8 is_stmt 0 view .LVU174
 535 0142 9742     		cmp	r7, r2
 536 0144 00DD     		ble	.L5
 867:Middlewares/tensorflow/third_party/cmsis_nn/Include/arm_nnsupportfunctions.h ****     }
 537              		.loc 2 867 9 is_stmt 1 view .LVU175
 867:Middlewares/tensorflow/third_party/cmsis_nn/Include/arm_nnsupportfunctions.h ****     }
 538              		.loc 2 867 15 is_stmt 0 view .LVU176
 539 0146 0133     		adds	r3, r3, #1
 540              	.LVL57:
 541              	.L5:
 870:Middlewares/tensorflow/third_party/cmsis_nn/Include/arm_nnsupportfunctions.h **** }
 542              		.loc 2 870 5 is_stmt 1 view .LVU177
 870:Middlewares/tensorflow/third_party/cmsis_nn/Include/arm_nnsupportfunctions.h **** }
 543              		.loc 2 870 5 is_stmt 0 view .LVU178
 544              	.LBE80:
 545              	.LBE83:
 546              	.LBE84:
 547              	.LBE136:
 127:Middlewares/tensorflow/third_party/cmsis_nn/Source/BasicMathFunctions/arm_elementwise_mul_s8.c **** 
 548              		.loc 1 127 17 view .LVU179
 549 0148 199A     		ldr	r2, [sp, #100]
 550 014a 1344     		add	r3, r3, r2
 551              	.LVL58:
 129:Middlewares/tensorflow/third_party/cmsis_nn/Source/BasicMathFunctions/arm_elementwise_mul_s8.c ****         mul_res = MIN(mul_res, out_activation_max);
 552              		.loc 1 129 9 is_stmt 1 view .LVU180
 129:Middlewares/tensorflow/third_party/cmsis_nn/Source/BasicMathFunctions/arm_elementwise_mul_s8.c ****         mul_res = MIN(mul_res, out_activation_max);
 553              		.loc 1 129 17 is_stmt 0 view .LVU181
 554 014c 1C9A     		ldr	r2, [sp, #112]
 555 014e 9342     		cmp	r3, r2
 556 0150 B8BF     		it	lt
 557 0152 1346     		movlt	r3, r2
 558              	.LVL59:
 130:Middlewares/tensorflow/third_party/cmsis_nn/Source/BasicMathFunctions/arm_elementwise_mul_s8.c ****         r1 = (int8_t)mul_res;
 559              		.loc 1 130 9 is_stmt 1 view .LVU182
 130:Middlewares/tensorflow/third_party/cmsis_nn/Source/BasicMathFunctions/arm_elementwise_mul_s8.c ****         r1 = (int8_t)mul_res;
 560              		.loc 1 130 17 is_stmt 0 view .LVU183
 561 0154 4345     		cmp	r3, r8
 562 0156 A8BF     		it	ge
 563 0158 4346     		movge	r3, r8
 564              	.LVL60:
 131:Middlewares/tensorflow/third_party/cmsis_nn/Source/BasicMathFunctions/arm_elementwise_mul_s8.c **** 
 565              		.loc 1 131 9 is_stmt 1 view .LVU184
 131:Middlewares/tensorflow/third_party/cmsis_nn/Source/BasicMathFunctions/arm_elementwise_mul_s8.c **** 
 566              		.loc 1 131 12 is_stmt 0 view .LVU185
 567 015a 5BB2     		sxtb	r3, r3
 568              	.LVL61:
 131:Middlewares/tensorflow/third_party/cmsis_nn/Source/BasicMathFunctions/arm_elementwise_mul_s8.c **** 
 569              		.loc 1 131 12 view .LVU186
 570 015c 0893     		str	r3, [sp, #32]
 571              	.LVL62:
 134:Middlewares/tensorflow/third_party/cmsis_nn/Source/BasicMathFunctions/arm_elementwise_mul_s8.c ****         mul_res = arm_nn_requantize(mul_res, out_mult, out_shift) + out_offset;
 572              		.loc 1 134 9 is_stmt 1 view .LVU187
 573              	.LBB137:
 574              	.LBI137:
 299:Middlewares/tensorflow/third_party/cmsis_nn/Include/Internal/arm_nn_compiler.h **** }
ARM GAS  /tmp/ccRtV34n.s 			page 37


 300:Middlewares/tensorflow/third_party/cmsis_nn/Include/Internal/arm_nn_compiler.h **** 
 301:Middlewares/tensorflow/third_party/cmsis_nn/Include/Internal/arm_nn_compiler.h **** __STATIC_FORCEINLINE uint32_t SMULTT(uint32_t op1, uint32_t op2)
 575              		.loc 3 301 31 view .LVU188
 576              	.LBB138:
 302:Middlewares/tensorflow/third_party/cmsis_nn/Include/Internal/arm_nn_compiler.h **** {
 303:Middlewares/tensorflow/third_party/cmsis_nn/Include/Internal/arm_nn_compiler.h ****     uint32_t result;
 577              		.loc 3 303 5 view .LVU189
 304:Middlewares/tensorflow/third_party/cmsis_nn/Include/Internal/arm_nn_compiler.h **** 
 305:Middlewares/tensorflow/third_party/cmsis_nn/Include/Internal/arm_nn_compiler.h ****     __ASM volatile("smultt %0, %1, %2" : "=r"(result) : "r"(op1), "r"(op2));
 578              		.loc 3 305 5 view .LVU190
 579              		.syntax unified
 580              	@ 305 "Middlewares/tensorflow/third_party/cmsis_nn/Include/Internal/arm_nn_compiler.h" 1
 581 015e 16FB30F2 		smultt r2, r6, r0
 582              	@ 0 "" 2
 583              	.LVL63:
 306:Middlewares/tensorflow/third_party/cmsis_nn/Include/Internal/arm_nn_compiler.h ****     return (result);
 584              		.loc 3 306 5 view .LVU191
 585              		.loc 3 306 5 is_stmt 0 view .LVU192
 586              		.thumb
 587              		.syntax unified
 588              	.LBE138:
 589              	.LBE137:
 135:Middlewares/tensorflow/third_party/cmsis_nn/Source/BasicMathFunctions/arm_elementwise_mul_s8.c ****         mul_res = MAX(mul_res, out_activation_min);
 590              		.loc 1 135 9 is_stmt 1 view .LVU193
 591              	.LBB139:
 592              	.LBI85:
 882:Middlewares/tensorflow/third_party/cmsis_nn/Include/arm_nnsupportfunctions.h **** {
 593              		.loc 2 882 30 view .LVU194
 594              	.LBB93:
 595              		.loc 2 893 5 view .LVU195
 596              		.loc 2 893 12 is_stmt 0 view .LVU196
 597 0162 8A40     		lsls	r2, r2, r1
 598              	.LVL64:
 599              	.LBB90:
 600              	.LBI90:
 823:Middlewares/tensorflow/third_party/cmsis_nn/Include/arm_nnsupportfunctions.h **** {
 601              		.loc 2 823 30 is_stmt 1 view .LVU197
 602              	.LBB91:
 825:Middlewares/tensorflow/third_party/cmsis_nn/Include/arm_nnsupportfunctions.h ****     union arm_nn_long_long mult;
 603              		.loc 2 825 5 view .LVU198
 826:Middlewares/tensorflow/third_party/cmsis_nn/Include/arm_nnsupportfunctions.h **** 
 604              		.loc 2 826 5 view .LVU199
 829:Middlewares/tensorflow/third_party/cmsis_nn/Include/arm_nnsupportfunctions.h ****     mult.word.high = 0;
 605              		.loc 2 829 5 view .LVU200
 830:Middlewares/tensorflow/third_party/cmsis_nn/Include/arm_nnsupportfunctions.h **** 
 606              		.loc 2 830 5 view .LVU201
 833:Middlewares/tensorflow/third_party/cmsis_nn/Include/arm_nnsupportfunctions.h **** 
 607              		.loc 2 833 5 view .LVU202
 833:Middlewares/tensorflow/third_party/cmsis_nn/Include/arm_nnsupportfunctions.h **** 
 608              		.loc 2 833 26 is_stmt 0 view .LVU203
 609 0164 4FF08040 		mov	r0, #1073741824
 610              	.LVL65:
 833:Middlewares/tensorflow/third_party/cmsis_nn/Include/arm_nnsupportfunctions.h **** 
 611              		.loc 2 833 26 view .LVU204
 612 0168 4FF0000E 		mov	lr, #0
 833:Middlewares/tensorflow/third_party/cmsis_nn/Include/arm_nnsupportfunctions.h **** 
 613              		.loc 2 833 39 view .LVU205
ARM GAS  /tmp/ccRtV34n.s 			page 38


 614 016c 4FEAE27B 		asr	fp, r2, #31
 833:Middlewares/tensorflow/third_party/cmsis_nn/Include/arm_nnsupportfunctions.h **** 
 615              		.loc 2 833 51 view .LVU206
 616 0170 019B     		ldr	r3, [sp, #4]
 617 0172 02FB03F6 		mul	r6, r2, r3
 618              	.LVL66:
 833:Middlewares/tensorflow/third_party/cmsis_nn/Include/arm_nnsupportfunctions.h **** 
 619              		.loc 2 833 51 view .LVU207
 620 0176 09FB0B66 		mla	r6, r9, fp, r6
 621 017a A2FB0923 		umull	r2, r3, r2, r9
 622              	.LVL67:
 833:Middlewares/tensorflow/third_party/cmsis_nn/Include/arm_nnsupportfunctions.h **** 
 623              		.loc 2 833 51 view .LVU208
 624 017e 3344     		add	r3, r3, r6
 833:Middlewares/tensorflow/third_party/cmsis_nn/Include/arm_nnsupportfunctions.h **** 
 625              		.loc 2 833 37 view .LVU209
 626 0180 8018     		adds	r0, r0, r2
 627 0182 4EEB030E 		adc	lr, lr, r3
 837:Middlewares/tensorflow/third_party/cmsis_nn/Include/arm_nnsupportfunctions.h **** 
 628              		.loc 2 837 5 is_stmt 1 view .LVU210
 837:Middlewares/tensorflow/third_party/cmsis_nn/Include/arm_nnsupportfunctions.h **** 
 629              		.loc 2 837 39 is_stmt 0 view .LVU211
 630 0186 C00F     		lsrs	r0, r0, #31
 631 0188 40EA4E00 		orr	r0, r0, lr, lsl #1
 632              	.LVL68:
 839:Middlewares/tensorflow/third_party/cmsis_nn/Include/arm_nnsupportfunctions.h **** }
 633              		.loc 2 839 5 is_stmt 1 view .LVU212
 839:Middlewares/tensorflow/third_party/cmsis_nn/Include/arm_nnsupportfunctions.h **** }
 634              		.loc 2 839 5 is_stmt 0 view .LVU213
 635              	.LBE91:
 636              	.LBE90:
 637              	.LBB92:
 638              	.LBI87:
 850:Middlewares/tensorflow/third_party/cmsis_nn/Include/arm_nnsupportfunctions.h **** {
 639              		.loc 2 850 30 is_stmt 1 view .LVU214
 640              	.LBB89:
 852:Middlewares/tensorflow/third_party/cmsis_nn/Include/arm_nnsupportfunctions.h ****     const int32_t remainder_mask = (1 << exponent) - 1;
 641              		.loc 2 852 5 view .LVU215
 853:Middlewares/tensorflow/third_party/cmsis_nn/Include/arm_nnsupportfunctions.h ****     int32_t remainder = remainder_mask & dividend;
 642              		.loc 2 853 5 view .LVU216
 854:Middlewares/tensorflow/third_party/cmsis_nn/Include/arm_nnsupportfunctions.h **** 
 643              		.loc 2 854 5 view .LVU217
 854:Middlewares/tensorflow/third_party/cmsis_nn/Include/arm_nnsupportfunctions.h **** 
 644              		.loc 2 854 13 is_stmt 0 view .LVU218
 645 018c 00EA0403 		and	r3, r0, r4
 646              	.LVL69:
 857:Middlewares/tensorflow/third_party/cmsis_nn/Include/arm_nnsupportfunctions.h **** 
 647              		.loc 2 857 5 is_stmt 1 view .LVU219
 860:Middlewares/tensorflow/third_party/cmsis_nn/Include/arm_nnsupportfunctions.h ****     if (result < 0)
 648              		.loc 2 860 5 view .LVU220
 861:Middlewares/tensorflow/third_party/cmsis_nn/Include/arm_nnsupportfunctions.h ****     {
 649              		.loc 2 861 5 view .LVU221
 861:Middlewares/tensorflow/third_party/cmsis_nn/Include/arm_nnsupportfunctions.h ****     {
 650              		.loc 2 861 8 is_stmt 0 view .LVU222
 651 0190 2841     		asrs	r0, r0, r5
 652              	.LVL70:
 861:Middlewares/tensorflow/third_party/cmsis_nn/Include/arm_nnsupportfunctions.h ****     {
ARM GAS  /tmp/ccRtV34n.s 			page 39


 653              		.loc 2 861 8 view .LVU223
 654 0192 3FF552AF 		bmi	.L27
 860:Middlewares/tensorflow/third_party/cmsis_nn/Include/arm_nnsupportfunctions.h ****     if (result < 0)
 655              		.loc 2 860 13 view .LVU224
 656 0196 6246     		mov	r2, ip
 657              	.LVL71:
 658              	.L6:
 865:Middlewares/tensorflow/third_party/cmsis_nn/Include/arm_nnsupportfunctions.h ****     {
 659              		.loc 2 865 5 is_stmt 1 view .LVU225
 865:Middlewares/tensorflow/third_party/cmsis_nn/Include/arm_nnsupportfunctions.h ****     {
 660              		.loc 2 865 8 is_stmt 0 view .LVU226
 661 0198 9342     		cmp	r3, r2
 662 019a 00DD     		ble	.L7
 867:Middlewares/tensorflow/third_party/cmsis_nn/Include/arm_nnsupportfunctions.h ****     }
 663              		.loc 2 867 9 is_stmt 1 view .LVU227
 867:Middlewares/tensorflow/third_party/cmsis_nn/Include/arm_nnsupportfunctions.h ****     }
 664              		.loc 2 867 15 is_stmt 0 view .LVU228
 665 019c 0130     		adds	r0, r0, #1
 666              	.LVL72:
 667              	.L7:
 870:Middlewares/tensorflow/third_party/cmsis_nn/Include/arm_nnsupportfunctions.h **** }
 668              		.loc 2 870 5 is_stmt 1 view .LVU229
 870:Middlewares/tensorflow/third_party/cmsis_nn/Include/arm_nnsupportfunctions.h **** }
 669              		.loc 2 870 5 is_stmt 0 view .LVU230
 670              	.LBE89:
 671              	.LBE92:
 672              	.LBE93:
 673              	.LBE139:
 135:Middlewares/tensorflow/third_party/cmsis_nn/Source/BasicMathFunctions/arm_elementwise_mul_s8.c ****         mul_res = MAX(mul_res, out_activation_min);
 674              		.loc 1 135 17 view .LVU231
 675 019e 199B     		ldr	r3, [sp, #100]
 676 01a0 1844     		add	r0, r0, r3
 677              	.LVL73:
 136:Middlewares/tensorflow/third_party/cmsis_nn/Source/BasicMathFunctions/arm_elementwise_mul_s8.c ****         mul_res = MIN(mul_res, out_activation_max);
 678              		.loc 1 136 9 is_stmt 1 view .LVU232
 136:Middlewares/tensorflow/third_party/cmsis_nn/Source/BasicMathFunctions/arm_elementwise_mul_s8.c ****         mul_res = MIN(mul_res, out_activation_max);
 679              		.loc 1 136 17 is_stmt 0 view .LVU233
 680 01a2 1C9B     		ldr	r3, [sp, #112]
 681 01a4 9842     		cmp	r0, r3
 682 01a6 B8BF     		it	lt
 683 01a8 1846     		movlt	r0, r3
 684              	.LVL74:
 137:Middlewares/tensorflow/third_party/cmsis_nn/Source/BasicMathFunctions/arm_elementwise_mul_s8.c ****         r3 = (int8_t)mul_res;
 685              		.loc 1 137 9 is_stmt 1 view .LVU234
 137:Middlewares/tensorflow/third_party/cmsis_nn/Source/BasicMathFunctions/arm_elementwise_mul_s8.c ****         r3 = (int8_t)mul_res;
 686              		.loc 1 137 17 is_stmt 0 view .LVU235
 687 01aa 4045     		cmp	r0, r8
 688 01ac A8BF     		it	ge
 689 01ae 4046     		movge	r0, r8
 690              	.LVL75:
 138:Middlewares/tensorflow/third_party/cmsis_nn/Source/BasicMathFunctions/arm_elementwise_mul_s8.c **** 
 691              		.loc 1 138 9 is_stmt 1 view .LVU236
 138:Middlewares/tensorflow/third_party/cmsis_nn/Source/BasicMathFunctions/arm_elementwise_mul_s8.c **** 
 692              		.loc 1 138 12 is_stmt 0 view .LVU237
 693 01b0 43B2     		sxtb	r3, r0
 694              	.LVL76:
 141:Middlewares/tensorflow/third_party/cmsis_nn/Source/BasicMathFunctions/arm_elementwise_mul_s8.c ****         mul_res = arm_nn_requantize(mul_res, out_mult, out_shift) + out_offset;
ARM GAS  /tmp/ccRtV34n.s 			page 40


 695              		.loc 1 141 9 is_stmt 1 view .LVU238
 696              	.LBB140:
 697              	.LBI140:
 293:Middlewares/tensorflow/third_party/cmsis_nn/Include/Internal/arm_nn_compiler.h **** {
 698              		.loc 3 293 31 view .LVU239
 699              	.LBB141:
 295:Middlewares/tensorflow/third_party/cmsis_nn/Include/Internal/arm_nn_compiler.h **** 
 700              		.loc 3 295 5 view .LVU240
 297:Middlewares/tensorflow/third_party/cmsis_nn/Include/Internal/arm_nn_compiler.h ****     return (result);
 701              		.loc 3 297 5 view .LVU241
 702 01b2 029A     		ldr	r2, [sp, #8]
 703 01b4 0598     		ldr	r0, [sp, #20]
 704              	.LVL77:
 297:Middlewares/tensorflow/third_party/cmsis_nn/Include/Internal/arm_nn_compiler.h ****     return (result);
 705              		.loc 3 297 5 is_stmt 0 view .LVU242
 706              		.syntax unified
 707              	@ 297 "Middlewares/tensorflow/third_party/cmsis_nn/Include/Internal/arm_nn_compiler.h" 1
 708 01b6 12FB00F6 		smulbb r6, r2, r0
 709              	@ 0 "" 2
 710              	.LVL78:
 298:Middlewares/tensorflow/third_party/cmsis_nn/Include/Internal/arm_nn_compiler.h **** }
 711              		.loc 3 298 5 is_stmt 1 view .LVU243
 298:Middlewares/tensorflow/third_party/cmsis_nn/Include/Internal/arm_nn_compiler.h **** }
 712              		.loc 3 298 5 is_stmt 0 view .LVU244
 713              		.thumb
 714              		.syntax unified
 715              	.LBE141:
 716              	.LBE140:
 142:Middlewares/tensorflow/third_party/cmsis_nn/Source/BasicMathFunctions/arm_elementwise_mul_s8.c ****         mul_res = MAX(mul_res, out_activation_min);
 717              		.loc 1 142 9 is_stmt 1 view .LVU245
 718              	.LBB142:
 719              	.LBI94:
 882:Middlewares/tensorflow/third_party/cmsis_nn/Include/arm_nnsupportfunctions.h **** {
 720              		.loc 2 882 30 view .LVU246
 721              	.LBB102:
 722              		.loc 2 893 5 view .LVU247
 723              		.loc 2 893 12 is_stmt 0 view .LVU248
 724 01ba 8E40     		lsls	r6, r6, r1
 725              	.LVL79:
 726              	.LBB99:
 727              	.LBI99:
 823:Middlewares/tensorflow/third_party/cmsis_nn/Include/arm_nnsupportfunctions.h **** {
 728              		.loc 2 823 30 is_stmt 1 view .LVU249
 729              	.LBB100:
 825:Middlewares/tensorflow/third_party/cmsis_nn/Include/arm_nnsupportfunctions.h ****     union arm_nn_long_long mult;
 730              		.loc 2 825 5 view .LVU250
 826:Middlewares/tensorflow/third_party/cmsis_nn/Include/arm_nnsupportfunctions.h **** 
 731              		.loc 2 826 5 view .LVU251
 829:Middlewares/tensorflow/third_party/cmsis_nn/Include/arm_nnsupportfunctions.h ****     mult.word.high = 0;
 732              		.loc 2 829 5 view .LVU252
 830:Middlewares/tensorflow/third_party/cmsis_nn/Include/arm_nnsupportfunctions.h **** 
 733              		.loc 2 830 5 view .LVU253
 833:Middlewares/tensorflow/third_party/cmsis_nn/Include/arm_nnsupportfunctions.h **** 
 734              		.loc 2 833 5 view .LVU254
 833:Middlewares/tensorflow/third_party/cmsis_nn/Include/arm_nnsupportfunctions.h **** 
 735              		.loc 2 833 26 is_stmt 0 view .LVU255
 736 01bc 4FF08042 		mov	r2, #1073741824
ARM GAS  /tmp/ccRtV34n.s 			page 41


 737 01c0 0020     		movs	r0, #0
 833:Middlewares/tensorflow/third_party/cmsis_nn/Include/arm_nnsupportfunctions.h **** 
 738              		.loc 2 833 39 view .LVU256
 739 01c2 4FEAE67B 		asr	fp, r6, #31
 833:Middlewares/tensorflow/third_party/cmsis_nn/Include/arm_nnsupportfunctions.h **** 
 740              		.loc 2 833 51 view .LVU257
 741 01c6 019F     		ldr	r7, [sp, #4]
 742 01c8 06FB07FE 		mul	lr, r6, r7
 743 01cc 09FB0BEE 		mla	lr, r9, fp, lr
 744 01d0 A6FB0967 		umull	r6, r7, r6, r9
 745              	.LVL80:
 833:Middlewares/tensorflow/third_party/cmsis_nn/Include/arm_nnsupportfunctions.h **** 
 746              		.loc 2 833 51 view .LVU258
 747 01d4 7744     		add	r7, r7, lr
 833:Middlewares/tensorflow/third_party/cmsis_nn/Include/arm_nnsupportfunctions.h **** 
 748              		.loc 2 833 37 view .LVU259
 749 01d6 9219     		adds	r2, r2, r6
 750 01d8 47EB0000 		adc	r0, r7, r0
 837:Middlewares/tensorflow/third_party/cmsis_nn/Include/arm_nnsupportfunctions.h **** 
 751              		.loc 2 837 5 is_stmt 1 view .LVU260
 837:Middlewares/tensorflow/third_party/cmsis_nn/Include/arm_nnsupportfunctions.h **** 
 752              		.loc 2 837 39 is_stmt 0 view .LVU261
 753 01dc D20F     		lsrs	r2, r2, #31
 754 01de 42EA4002 		orr	r2, r2, r0, lsl #1
 755              	.LVL81:
 839:Middlewares/tensorflow/third_party/cmsis_nn/Include/arm_nnsupportfunctions.h **** }
 756              		.loc 2 839 5 is_stmt 1 view .LVU262
 839:Middlewares/tensorflow/third_party/cmsis_nn/Include/arm_nnsupportfunctions.h **** }
 757              		.loc 2 839 5 is_stmt 0 view .LVU263
 758              	.LBE100:
 759              	.LBE99:
 760              	.LBB101:
 761              	.LBI96:
 850:Middlewares/tensorflow/third_party/cmsis_nn/Include/arm_nnsupportfunctions.h **** {
 762              		.loc 2 850 30 is_stmt 1 view .LVU264
 763              	.LBB98:
 852:Middlewares/tensorflow/third_party/cmsis_nn/Include/arm_nnsupportfunctions.h ****     const int32_t remainder_mask = (1 << exponent) - 1;
 764              		.loc 2 852 5 view .LVU265
 853:Middlewares/tensorflow/third_party/cmsis_nn/Include/arm_nnsupportfunctions.h ****     int32_t remainder = remainder_mask & dividend;
 765              		.loc 2 853 5 view .LVU266
 854:Middlewares/tensorflow/third_party/cmsis_nn/Include/arm_nnsupportfunctions.h **** 
 766              		.loc 2 854 5 view .LVU267
 854:Middlewares/tensorflow/third_party/cmsis_nn/Include/arm_nnsupportfunctions.h **** 
 767              		.loc 2 854 13 is_stmt 0 view .LVU268
 768 01e2 02EA0400 		and	r0, r2, r4
 769              	.LVL82:
 857:Middlewares/tensorflow/third_party/cmsis_nn/Include/arm_nnsupportfunctions.h **** 
 770              		.loc 2 857 5 is_stmt 1 view .LVU269
 860:Middlewares/tensorflow/third_party/cmsis_nn/Include/arm_nnsupportfunctions.h ****     if (result < 0)
 771              		.loc 2 860 5 view .LVU270
 861:Middlewares/tensorflow/third_party/cmsis_nn/Include/arm_nnsupportfunctions.h ****     {
 772              		.loc 2 861 5 view .LVU271
 861:Middlewares/tensorflow/third_party/cmsis_nn/Include/arm_nnsupportfunctions.h ****     {
 773              		.loc 2 861 8 is_stmt 0 view .LVU272
 774 01e6 2A41     		asrs	r2, r2, r5
 775              	.LVL83:
 861:Middlewares/tensorflow/third_party/cmsis_nn/Include/arm_nnsupportfunctions.h ****     {
ARM GAS  /tmp/ccRtV34n.s 			page 42


 776              		.loc 2 861 8 view .LVU273
 777 01e8 3FF52AAF 		bmi	.L28
 860:Middlewares/tensorflow/third_party/cmsis_nn/Include/arm_nnsupportfunctions.h ****     if (result < 0)
 778              		.loc 2 860 13 view .LVU274
 779 01ec 6646     		mov	r6, ip
 780              	.LVL84:
 781              	.L8:
 865:Middlewares/tensorflow/third_party/cmsis_nn/Include/arm_nnsupportfunctions.h ****     {
 782              		.loc 2 865 5 is_stmt 1 view .LVU275
 865:Middlewares/tensorflow/third_party/cmsis_nn/Include/arm_nnsupportfunctions.h ****     {
 783              		.loc 2 865 8 is_stmt 0 view .LVU276
 784 01ee B042     		cmp	r0, r6
 785 01f0 00DD     		ble	.L9
 867:Middlewares/tensorflow/third_party/cmsis_nn/Include/arm_nnsupportfunctions.h ****     }
 786              		.loc 2 867 9 is_stmt 1 view .LVU277
 867:Middlewares/tensorflow/third_party/cmsis_nn/Include/arm_nnsupportfunctions.h ****     }
 787              		.loc 2 867 15 is_stmt 0 view .LVU278
 788 01f2 0132     		adds	r2, r2, #1
 789              	.LVL85:
 790              	.L9:
 870:Middlewares/tensorflow/third_party/cmsis_nn/Include/arm_nnsupportfunctions.h **** }
 791              		.loc 2 870 5 is_stmt 1 view .LVU279
 870:Middlewares/tensorflow/third_party/cmsis_nn/Include/arm_nnsupportfunctions.h **** }
 792              		.loc 2 870 5 is_stmt 0 view .LVU280
 793              	.LBE98:
 794              	.LBE101:
 795              	.LBE102:
 796              	.LBE142:
 142:Middlewares/tensorflow/third_party/cmsis_nn/Source/BasicMathFunctions/arm_elementwise_mul_s8.c ****         mul_res = MAX(mul_res, out_activation_min);
 797              		.loc 1 142 17 view .LVU281
 798 01f4 1998     		ldr	r0, [sp, #100]
 799 01f6 0244     		add	r2, r2, r0
 800              	.LVL86:
 143:Middlewares/tensorflow/third_party/cmsis_nn/Source/BasicMathFunctions/arm_elementwise_mul_s8.c ****         mul_res = MIN(mul_res, out_activation_max);
 801              		.loc 1 143 9 is_stmt 1 view .LVU282
 143:Middlewares/tensorflow/third_party/cmsis_nn/Source/BasicMathFunctions/arm_elementwise_mul_s8.c ****         mul_res = MIN(mul_res, out_activation_max);
 802              		.loc 1 143 17 is_stmt 0 view .LVU283
 803 01f8 1C98     		ldr	r0, [sp, #112]
 804 01fa 8242     		cmp	r2, r0
 805 01fc B8BF     		it	lt
 806 01fe 0246     		movlt	r2, r0
 807              	.LVL87:
 144:Middlewares/tensorflow/third_party/cmsis_nn/Source/BasicMathFunctions/arm_elementwise_mul_s8.c ****         r2 = (int8_t)mul_res;
 808              		.loc 1 144 9 is_stmt 1 view .LVU284
 144:Middlewares/tensorflow/third_party/cmsis_nn/Source/BasicMathFunctions/arm_elementwise_mul_s8.c ****         r2 = (int8_t)mul_res;
 809              		.loc 1 144 17 is_stmt 0 view .LVU285
 810 0200 4245     		cmp	r2, r8
 811 0202 A8BF     		it	ge
 812 0204 4246     		movge	r2, r8
 813              	.LVL88:
 145:Middlewares/tensorflow/third_party/cmsis_nn/Source/BasicMathFunctions/arm_elementwise_mul_s8.c **** 
 814              		.loc 1 145 9 is_stmt 1 view .LVU286
 145:Middlewares/tensorflow/third_party/cmsis_nn/Source/BasicMathFunctions/arm_elementwise_mul_s8.c **** 
 815              		.loc 1 145 12 is_stmt 0 view .LVU287
 816 0206 4FFA82FE 		sxtb	lr, r2
 817              	.LVL89:
 148:Middlewares/tensorflow/third_party/cmsis_nn/Source/BasicMathFunctions/arm_elementwise_mul_s8.c ****         mul_res = arm_nn_requantize(mul_res, out_mult, out_shift) + out_offset;
ARM GAS  /tmp/ccRtV34n.s 			page 43


 818              		.loc 1 148 9 is_stmt 1 view .LVU288
 819              	.LBB143:
 820              	.LBI143:
 301:Middlewares/tensorflow/third_party/cmsis_nn/Include/Internal/arm_nn_compiler.h **** {
 821              		.loc 3 301 31 view .LVU289
 822              	.LBB144:
 303:Middlewares/tensorflow/third_party/cmsis_nn/Include/Internal/arm_nn_compiler.h **** 
 823              		.loc 3 303 5 view .LVU290
 305:Middlewares/tensorflow/third_party/cmsis_nn/Include/Internal/arm_nn_compiler.h ****     return (result);
 824              		.loc 3 305 5 view .LVU291
 825 020a 029A     		ldr	r2, [sp, #8]
 826              	.LVL90:
 305:Middlewares/tensorflow/third_party/cmsis_nn/Include/Internal/arm_nn_compiler.h ****     return (result);
 827              		.loc 3 305 5 is_stmt 0 view .LVU292
 828 020c 0598     		ldr	r0, [sp, #20]
 829              		.syntax unified
 830              	@ 305 "Middlewares/tensorflow/third_party/cmsis_nn/Include/Internal/arm_nn_compiler.h" 1
 831 020e 12FB30F0 		smultt r0, r2, r0
 832              	@ 0 "" 2
 833              	.LVL91:
 834              		.loc 3 306 5 is_stmt 1 view .LVU293
 835              		.loc 3 306 5 is_stmt 0 view .LVU294
 836              		.thumb
 837              		.syntax unified
 838              	.LBE144:
 839              	.LBE143:
 149:Middlewares/tensorflow/third_party/cmsis_nn/Source/BasicMathFunctions/arm_elementwise_mul_s8.c ****         mul_res = MAX(mul_res, out_activation_min);
 840              		.loc 1 149 9 is_stmt 1 view .LVU295
 841              	.LBB145:
 842              	.LBI103:
 882:Middlewares/tensorflow/third_party/cmsis_nn/Include/arm_nnsupportfunctions.h **** {
 843              		.loc 2 882 30 view .LVU296
 844              	.LBB111:
 845              		.loc 2 893 5 view .LVU297
 846              		.loc 2 893 12 is_stmt 0 view .LVU298
 847 0212 8840     		lsls	r0, r0, r1
 848              	.LVL92:
 849              	.LBB108:
 850              	.LBI108:
 823:Middlewares/tensorflow/third_party/cmsis_nn/Include/arm_nnsupportfunctions.h **** {
 851              		.loc 2 823 30 is_stmt 1 view .LVU299
 852              	.LBB109:
 825:Middlewares/tensorflow/third_party/cmsis_nn/Include/arm_nnsupportfunctions.h ****     union arm_nn_long_long mult;
 853              		.loc 2 825 5 view .LVU300
 826:Middlewares/tensorflow/third_party/cmsis_nn/Include/arm_nnsupportfunctions.h **** 
 854              		.loc 2 826 5 view .LVU301
 829:Middlewares/tensorflow/third_party/cmsis_nn/Include/arm_nnsupportfunctions.h ****     mult.word.high = 0;
 855              		.loc 2 829 5 view .LVU302
 830:Middlewares/tensorflow/third_party/cmsis_nn/Include/arm_nnsupportfunctions.h **** 
 856              		.loc 2 830 5 view .LVU303
 833:Middlewares/tensorflow/third_party/cmsis_nn/Include/arm_nnsupportfunctions.h **** 
 857              		.loc 2 833 5 view .LVU304
 833:Middlewares/tensorflow/third_party/cmsis_nn/Include/arm_nnsupportfunctions.h **** 
 858              		.loc 2 833 26 is_stmt 0 view .LVU305
 859 0214 4FF08042 		mov	r2, #1073741824
 860 0218 4FF0000A 		mov	r10, #0
 833:Middlewares/tensorflow/third_party/cmsis_nn/Include/arm_nnsupportfunctions.h **** 
ARM GAS  /tmp/ccRtV34n.s 			page 44


 861              		.loc 2 833 39 view .LVU306
 862 021c 0646     		mov	r6, r0
 863 021e C717     		asrs	r7, r0, #31
 864 0220 CDE90267 		strd	r6, [sp, #8]
 865              	.LVL93:
 833:Middlewares/tensorflow/third_party/cmsis_nn/Include/arm_nnsupportfunctions.h **** 
 866              		.loc 2 833 51 view .LVU307
 867 0224 019E     		ldr	r6, [sp, #4]
 868 0226 00FB06F6 		mul	r6, r0, r6
 869 022a 0399     		ldr	r1, [sp, #12]
 870 022c 09FB0166 		mla	r6, r9, r1, r6
 871 0230 A0FB0901 		umull	r0, r1, r0, r9
 872              	.LVL94:
 833:Middlewares/tensorflow/third_party/cmsis_nn/Include/arm_nnsupportfunctions.h **** 
 873              		.loc 2 833 51 view .LVU308
 874 0234 3144     		add	r1, r1, r6
 833:Middlewares/tensorflow/third_party/cmsis_nn/Include/arm_nnsupportfunctions.h **** 
 875              		.loc 2 833 37 view .LVU309
 876 0236 1218     		adds	r2, r2, r0
 877 0238 4AEB010A 		adc	r10, r10, r1
 837:Middlewares/tensorflow/third_party/cmsis_nn/Include/arm_nnsupportfunctions.h **** 
 878              		.loc 2 837 5 is_stmt 1 view .LVU310
 837:Middlewares/tensorflow/third_party/cmsis_nn/Include/arm_nnsupportfunctions.h **** 
 879              		.loc 2 837 39 is_stmt 0 view .LVU311
 880 023c D20F     		lsrs	r2, r2, #31
 881 023e 42EA4A02 		orr	r2, r2, r10, lsl #1
 882              	.LVL95:
 839:Middlewares/tensorflow/third_party/cmsis_nn/Include/arm_nnsupportfunctions.h **** }
 883              		.loc 2 839 5 is_stmt 1 view .LVU312
 839:Middlewares/tensorflow/third_party/cmsis_nn/Include/arm_nnsupportfunctions.h **** }
 884              		.loc 2 839 5 is_stmt 0 view .LVU313
 885              	.LBE109:
 886              	.LBE108:
 887              	.LBB110:
 888              	.LBI105:
 850:Middlewares/tensorflow/third_party/cmsis_nn/Include/arm_nnsupportfunctions.h **** {
 889              		.loc 2 850 30 is_stmt 1 view .LVU314
 890              	.LBB107:
 852:Middlewares/tensorflow/third_party/cmsis_nn/Include/arm_nnsupportfunctions.h ****     const int32_t remainder_mask = (1 << exponent) - 1;
 891              		.loc 2 852 5 view .LVU315
 853:Middlewares/tensorflow/third_party/cmsis_nn/Include/arm_nnsupportfunctions.h ****     int32_t remainder = remainder_mask & dividend;
 892              		.loc 2 853 5 view .LVU316
 854:Middlewares/tensorflow/third_party/cmsis_nn/Include/arm_nnsupportfunctions.h **** 
 893              		.loc 2 854 5 view .LVU317
 854:Middlewares/tensorflow/third_party/cmsis_nn/Include/arm_nnsupportfunctions.h **** 
 894              		.loc 2 854 13 is_stmt 0 view .LVU318
 895 0242 1440     		ands	r4, r4, r2
 896              	.LVL96:
 857:Middlewares/tensorflow/third_party/cmsis_nn/Include/arm_nnsupportfunctions.h **** 
 897              		.loc 2 857 5 is_stmt 1 view .LVU319
 860:Middlewares/tensorflow/third_party/cmsis_nn/Include/arm_nnsupportfunctions.h ****     if (result < 0)
 898              		.loc 2 860 5 view .LVU320
 861:Middlewares/tensorflow/third_party/cmsis_nn/Include/arm_nnsupportfunctions.h ****     {
 899              		.loc 2 861 5 view .LVU321
 861:Middlewares/tensorflow/third_party/cmsis_nn/Include/arm_nnsupportfunctions.h ****     {
 900              		.loc 2 861 8 is_stmt 0 view .LVU322
 901 0244 2A41     		asrs	r2, r2, r5
ARM GAS  /tmp/ccRtV34n.s 			page 45


 902              	.LVL97:
 861:Middlewares/tensorflow/third_party/cmsis_nn/Include/arm_nnsupportfunctions.h ****     {
 903              		.loc 2 861 8 view .LVU323
 904 0246 3FF5FEAE 		bmi	.L29
 905              	.L10:
 865:Middlewares/tensorflow/third_party/cmsis_nn/Include/arm_nnsupportfunctions.h ****     {
 906              		.loc 2 865 5 is_stmt 1 view .LVU324
 865:Middlewares/tensorflow/third_party/cmsis_nn/Include/arm_nnsupportfunctions.h ****     {
 907              		.loc 2 865 8 is_stmt 0 view .LVU325
 908 024a 6445     		cmp	r4, ip
 909 024c 7FF7FEAE 		ble	.L11
 867:Middlewares/tensorflow/third_party/cmsis_nn/Include/arm_nnsupportfunctions.h ****     }
 910              		.loc 2 867 9 is_stmt 1 view .LVU326
 867:Middlewares/tensorflow/third_party/cmsis_nn/Include/arm_nnsupportfunctions.h ****     }
 911              		.loc 2 867 15 is_stmt 0 view .LVU327
 912 0250 0132     		adds	r2, r2, #1
 913              	.LVL98:
 867:Middlewares/tensorflow/third_party/cmsis_nn/Include/arm_nnsupportfunctions.h ****     }
 914              		.loc 2 867 15 view .LVU328
 915 0252 FBE6     		b	.L11
 916              	.LVL99:
 917              	.L24:
 867:Middlewares/tensorflow/third_party/cmsis_nn/Include/arm_nnsupportfunctions.h ****     }
 918              		.loc 2 867 15 view .LVU329
 919              	.LBE107:
 920              	.LBE110:
 921              	.LBE111:
 922              	.LBE145:
 923              	.LBE146:
 157:Middlewares/tensorflow/third_party/cmsis_nn/Source/BasicMathFunctions/arm_elementwise_mul_s8.c ****     }
 158:Middlewares/tensorflow/third_party/cmsis_nn/Source/BasicMathFunctions/arm_elementwise_mul_s8.c **** 
 159:Middlewares/tensorflow/third_party/cmsis_nn/Source/BasicMathFunctions/arm_elementwise_mul_s8.c ****     loop_count = block_size & 0x3;
 924              		.loc 1 159 5 is_stmt 1 view .LVU330
 925              		.loc 1 159 16 is_stmt 0 view .LVU331
 926 0254 1E9B     		ldr	r3, [sp, #120]
 927              	.LVL100:
 928              		.loc 1 159 16 view .LVU332
 929 0256 03F0030C 		and	ip, r3, #3
 930              	.LVL101:
 160:Middlewares/tensorflow/third_party/cmsis_nn/Source/BasicMathFunctions/arm_elementwise_mul_s8.c ****     #else
 161:Middlewares/tensorflow/third_party/cmsis_nn/Source/BasicMathFunctions/arm_elementwise_mul_s8.c ****     loop_count = block_size;
 162:Middlewares/tensorflow/third_party/cmsis_nn/Source/BasicMathFunctions/arm_elementwise_mul_s8.c ****     #endif
 163:Middlewares/tensorflow/third_party/cmsis_nn/Source/BasicMathFunctions/arm_elementwise_mul_s8.c **** 
 164:Middlewares/tensorflow/third_party/cmsis_nn/Source/BasicMathFunctions/arm_elementwise_mul_s8.c ****     while (loop_count > 0)
 931              		.loc 1 164 5 is_stmt 1 view .LVU333
 932 025a 069A     		ldr	r2, [sp, #24]
 933 025c 079C     		ldr	r4, [sp, #28]
 934 025e CE46     		mov	lr, r9
 935 0260 DDF86CA0 		ldr	r10, [sp, #108]
 936 0264 DDF874B0 		ldr	fp, [sp, #116]
 937              		.loc 1 164 11 is_stmt 0 view .LVU334
 938 0268 13E0     		b	.L13
 939              	.LVL102:
 940              	.L31:
 941              	.LBB147:
 942              	.LBB148:
 943              		.loc 2 893 12 view .LVU335
ARM GAS  /tmp/ccRtV34n.s 			page 46


 944 026a CAF10001 		rsb	r1, r10, #0
 945 026e 3BE0     		b	.L14
 946              	.LVL103:
 947              	.L32:
 948              	.LBB149:
 949              	.LBB150:
 863:Middlewares/tensorflow/third_party/cmsis_nn/Include/arm_nnsupportfunctions.h ****     }
 950              		.loc 2 863 9 is_stmt 1 view .LVU336
 863:Middlewares/tensorflow/third_party/cmsis_nn/Include/arm_nnsupportfunctions.h ****     }
 951              		.loc 2 863 18 is_stmt 0 view .LVU337
 952 0270 0133     		adds	r3, r3, #1
 953              	.LVL104:
 863:Middlewares/tensorflow/third_party/cmsis_nn/Include/arm_nnsupportfunctions.h ****     }
 954              		.loc 2 863 18 view .LVU338
 955 0272 41E0     		b	.L15
 956              	.LVL105:
 957              	.L16:
 870:Middlewares/tensorflow/third_party/cmsis_nn/Include/arm_nnsupportfunctions.h **** }
 958              		.loc 2 870 5 is_stmt 1 view .LVU339
 870:Middlewares/tensorflow/third_party/cmsis_nn/Include/arm_nnsupportfunctions.h **** }
 959              		.loc 2 870 5 is_stmt 0 view .LVU340
 960              	.LBE150:
 961              	.LBE149:
 962              	.LBE148:
 963              	.LBE147:
 165:Middlewares/tensorflow/third_party/cmsis_nn/Source/BasicMathFunctions/arm_elementwise_mul_s8.c ****     {
 166:Middlewares/tensorflow/third_party/cmsis_nn/Source/BasicMathFunctions/arm_elementwise_mul_s8.c ****         /* C = A * B */
 167:Middlewares/tensorflow/third_party/cmsis_nn/Source/BasicMathFunctions/arm_elementwise_mul_s8.c **** 
 168:Middlewares/tensorflow/third_party/cmsis_nn/Source/BasicMathFunctions/arm_elementwise_mul_s8.c ****         input_1 = *input_1_vect++ + input_1_offset;
 169:Middlewares/tensorflow/third_party/cmsis_nn/Source/BasicMathFunctions/arm_elementwise_mul_s8.c ****         input_2 = *input_2_vect++ + input_2_offset;
 170:Middlewares/tensorflow/third_party/cmsis_nn/Source/BasicMathFunctions/arm_elementwise_mul_s8.c **** 
 171:Middlewares/tensorflow/third_party/cmsis_nn/Source/BasicMathFunctions/arm_elementwise_mul_s8.c ****         mul_res = input_1 * input_2;
 172:Middlewares/tensorflow/third_party/cmsis_nn/Source/BasicMathFunctions/arm_elementwise_mul_s8.c ****         mul_res = arm_nn_requantize(mul_res, out_mult, out_shift) + out_offset;
 964              		.loc 1 172 17 view .LVU341
 965 0274 199B     		ldr	r3, [sp, #100]
 966 0276 1D44     		add	r5, r5, r3
 967              	.LVL106:
 173:Middlewares/tensorflow/third_party/cmsis_nn/Source/BasicMathFunctions/arm_elementwise_mul_s8.c **** 
 174:Middlewares/tensorflow/third_party/cmsis_nn/Source/BasicMathFunctions/arm_elementwise_mul_s8.c ****         mul_res = MAX(mul_res, out_activation_min);
 968              		.loc 1 174 9 is_stmt 1 view .LVU342
 969              		.loc 1 174 17 is_stmt 0 view .LVU343
 970 0278 1C9B     		ldr	r3, [sp, #112]
 971 027a 9D42     		cmp	r5, r3
 972 027c B8BF     		it	lt
 973 027e 1D46     		movlt	r5, r3
 974              	.LVL107:
 175:Middlewares/tensorflow/third_party/cmsis_nn/Source/BasicMathFunctions/arm_elementwise_mul_s8.c ****         mul_res = MIN(mul_res, out_activation_max);
 975              		.loc 1 175 9 is_stmt 1 view .LVU344
 976              		.loc 1 175 17 is_stmt 0 view .LVU345
 977 0280 5D45     		cmp	r5, fp
 978 0282 A8BF     		it	ge
 979 0284 5D46     		movge	r5, fp
 980              	.LVL108:
 176:Middlewares/tensorflow/third_party/cmsis_nn/Source/BasicMathFunctions/arm_elementwise_mul_s8.c **** 
 177:Middlewares/tensorflow/third_party/cmsis_nn/Source/BasicMathFunctions/arm_elementwise_mul_s8.c ****         *output++ = (int8_t)mul_res;
 981              		.loc 1 177 9 is_stmt 1 view .LVU346
 982              		.loc 1 177 16 is_stmt 0 view .LVU347
ARM GAS  /tmp/ccRtV34n.s 			page 47


 983 0286 189B     		ldr	r3, [sp, #96]
 984              	.LVL109:
 985              		.loc 1 177 19 view .LVU348
 986 0288 03F8015B 		strb	r5, [r3], #1
 987              	.LVL110:
 178:Middlewares/tensorflow/third_party/cmsis_nn/Source/BasicMathFunctions/arm_elementwise_mul_s8.c **** 
 179:Middlewares/tensorflow/third_party/cmsis_nn/Source/BasicMathFunctions/arm_elementwise_mul_s8.c ****         /* Decrement loop counter */
 180:Middlewares/tensorflow/third_party/cmsis_nn/Source/BasicMathFunctions/arm_elementwise_mul_s8.c ****         loop_count--;
 988              		.loc 1 180 9 is_stmt 1 view .LVU349
 989              		.loc 1 180 19 is_stmt 0 view .LVU350
 990 028c 0CF1FF3C 		add	ip, ip, #-1
 991              	.LVL111:
 177:Middlewares/tensorflow/third_party/cmsis_nn/Source/BasicMathFunctions/arm_elementwise_mul_s8.c **** 
 992              		.loc 1 177 16 view .LVU351
 993 0290 1893     		str	r3, [sp, #96]
 994              	.LVL112:
 995              	.L13:
 164:Middlewares/tensorflow/third_party/cmsis_nn/Source/BasicMathFunctions/arm_elementwise_mul_s8.c ****     {
 996              		.loc 1 164 11 is_stmt 1 view .LVU352
 997 0292 BCF1000F 		cmp	ip, #0
 998 0296 33DD     		ble	.L30
 168:Middlewares/tensorflow/third_party/cmsis_nn/Source/BasicMathFunctions/arm_elementwise_mul_s8.c ****         input_2 = *input_2_vect++ + input_2_offset;
 999              		.loc 1 168 9 view .LVU353
 1000              	.LVL113:
 168:Middlewares/tensorflow/third_party/cmsis_nn/Source/BasicMathFunctions/arm_elementwise_mul_s8.c ****         input_2 = *input_2_vect++ + input_2_offset;
 1001              		.loc 1 168 19 is_stmt 0 view .LVU354
 1002 0298 12F9010B 		ldrsb	r0, [r2], #1
 1003              	.LVL114:
 168:Middlewares/tensorflow/third_party/cmsis_nn/Source/BasicMathFunctions/arm_elementwise_mul_s8.c ****         input_2 = *input_2_vect++ + input_2_offset;
 1004              		.loc 1 168 17 view .LVU355
 1005 029c 0C9B     		ldr	r3, [sp, #48]
 1006 029e C318     		adds	r3, r0, r3
