ARM GAS  /tmp/ccCcjmBN.s 			page 1


   1              		.cpu cortex-m4
   2              		.eabi_attribute 27, 1
   3              		.eabi_attribute 28, 1
   4              		.eabi_attribute 20, 1
   5              		.eabi_attribute 21, 1
   6              		.eabi_attribute 23, 3
   7              		.eabi_attribute 24, 1
   8              		.eabi_attribute 25, 1
   9              		.eabi_attribute 26, 1
  10              		.eabi_attribute 30, 1
  11              		.eabi_attribute 34, 1
  12              		.eabi_attribute 18, 4
  13              		.file	"arm_depthwise_conv_wrapper_s8.c"
  14              		.text
  15              	.Ltext0:
  16              		.cfi_sections	.debug_frame
  17              		.section	.text.arm_depthwise_conv_wrapper_s8,"ax",%progbits
  18              		.align	1
  19              		.global	arm_depthwise_conv_wrapper_s8
  20              		.arch armv7e-m
  21              		.syntax unified
  22              		.thumb
  23              		.thumb_func
  24              		.fpu fpv4-sp-d16
  26              	arm_depthwise_conv_wrapper_s8:
  27              	.LVL0:
  28              	.LFB0:
  29              		.file 1 "Middlewares/tensorflow/third_party/cmsis_nn/Source/ConvolutionFunctions/arm_depthwise_con
   1:Middlewares/tensorflow/third_party/cmsis_nn/Source/ConvolutionFunctions/arm_depthwise_conv_wrapper_s8.c **** /*
   2:Middlewares/tensorflow/third_party/cmsis_nn/Source/ConvolutionFunctions/arm_depthwise_conv_wrapper_s8.c ****  * SPDX-FileCopyrightText: Copyright 2010-2023 Arm Limited and/or its affiliates <open-source-offic
   3:Middlewares/tensorflow/third_party/cmsis_nn/Source/ConvolutionFunctions/arm_depthwise_conv_wrapper_s8.c ****  *
   4:Middlewares/tensorflow/third_party/cmsis_nn/Source/ConvolutionFunctions/arm_depthwise_conv_wrapper_s8.c ****  * SPDX-License-Identifier: Apache-2.0
   5:Middlewares/tensorflow/third_party/cmsis_nn/Source/ConvolutionFunctions/arm_depthwise_conv_wrapper_s8.c ****  *
   6:Middlewares/tensorflow/third_party/cmsis_nn/Source/ConvolutionFunctions/arm_depthwise_conv_wrapper_s8.c ****  * Licensed under the Apache License, Version 2.0 (the License); you may
   7:Middlewares/tensorflow/third_party/cmsis_nn/Source/ConvolutionFunctions/arm_depthwise_conv_wrapper_s8.c ****  * not use this file except in compliance with the License.
   8:Middlewares/tensorflow/third_party/cmsis_nn/Source/ConvolutionFunctions/arm_depthwise_conv_wrapper_s8.c ****  * You may obtain a copy of the License at
   9:Middlewares/tensorflow/third_party/cmsis_nn/Source/ConvolutionFunctions/arm_depthwise_conv_wrapper_s8.c ****  *
  10:Middlewares/tensorflow/third_party/cmsis_nn/Source/ConvolutionFunctions/arm_depthwise_conv_wrapper_s8.c ****  * www.apache.org/licenses/LICENSE-2.0
  11:Middlewares/tensorflow/third_party/cmsis_nn/Source/ConvolutionFunctions/arm_depthwise_conv_wrapper_s8.c ****  *
  12:Middlewares/tensorflow/third_party/cmsis_nn/Source/ConvolutionFunctions/arm_depthwise_conv_wrapper_s8.c ****  * Unless required by applicable law or agreed to in writing, software
  13:Middlewares/tensorflow/third_party/cmsis_nn/Source/ConvolutionFunctions/arm_depthwise_conv_wrapper_s8.c ****  * distributed under the License is distributed on an AS IS BASIS, WITHOUT
  14:Middlewares/tensorflow/third_party/cmsis_nn/Source/ConvolutionFunctions/arm_depthwise_conv_wrapper_s8.c ****  * WARRANTIES OR CONDITIONS OF ANY KIND, either express or implied.
  15:Middlewares/tensorflow/third_party/cmsis_nn/Source/ConvolutionFunctions/arm_depthwise_conv_wrapper_s8.c ****  * See the License for the specific language governing permissions and
  16:Middlewares/tensorflow/third_party/cmsis_nn/Source/ConvolutionFunctions/arm_depthwise_conv_wrapper_s8.c ****  * limitations under the License.
  17:Middlewares/tensorflow/third_party/cmsis_nn/Source/ConvolutionFunctions/arm_depthwise_conv_wrapper_s8.c ****  */
  18:Middlewares/tensorflow/third_party/cmsis_nn/Source/ConvolutionFunctions/arm_depthwise_conv_wrapper_s8.c **** 
  19:Middlewares/tensorflow/third_party/cmsis_nn/Source/ConvolutionFunctions/arm_depthwise_conv_wrapper_s8.c **** /* ----------------------------------------------------------------------
  20:Middlewares/tensorflow/third_party/cmsis_nn/Source/ConvolutionFunctions/arm_depthwise_conv_wrapper_s8.c ****  * Project:      CMSIS NN Library
  21:Middlewares/tensorflow/third_party/cmsis_nn/Source/ConvolutionFunctions/arm_depthwise_conv_wrapper_s8.c ****  * Title:        arm_depthwise_conv_wrapper_s8.c
  22:Middlewares/tensorflow/third_party/cmsis_nn/Source/ConvolutionFunctions/arm_depthwise_conv_wrapper_s8.c ****  * Description:  Wrapper API to select appropriate depthwise conv API based
  23:Middlewares/tensorflow/third_party/cmsis_nn/Source/ConvolutionFunctions/arm_depthwise_conv_wrapper_s8.c ****  *               on dimensions.
  24:Middlewares/tensorflow/third_party/cmsis_nn/Source/ConvolutionFunctions/arm_depthwise_conv_wrapper_s8.c ****  *
  25:Middlewares/tensorflow/third_party/cmsis_nn/Source/ConvolutionFunctions/arm_depthwise_conv_wrapper_s8.c ****  * $Date:        13 January 2023
  26:Middlewares/tensorflow/third_party/cmsis_nn/Source/ConvolutionFunctions/arm_depthwise_conv_wrapper_s8.c ****  * $Revision:    V.2.1.0
  27:Middlewares/tensorflow/third_party/cmsis_nn/Source/ConvolutionFunctions/arm_depthwise_conv_wrapper_s8.c ****  *
  28:Middlewares/tensorflow/third_party/cmsis_nn/Source/ConvolutionFunctions/arm_depthwise_conv_wrapper_s8.c ****  * Target :  Arm(R) M-Profile Architecture
  29:Middlewares/tensorflow/third_party/cmsis_nn/Source/ConvolutionFunctions/arm_depthwise_conv_wrapper_s8.c ****  *
ARM GAS  /tmp/ccCcjmBN.s 			page 2


  30:Middlewares/tensorflow/third_party/cmsis_nn/Source/ConvolutionFunctions/arm_depthwise_conv_wrapper_s8.c ****  * -------------------------------------------------------------------- */
  31:Middlewares/tensorflow/third_party/cmsis_nn/Source/ConvolutionFunctions/arm_depthwise_conv_wrapper_s8.c **** 
  32:Middlewares/tensorflow/third_party/cmsis_nn/Source/ConvolutionFunctions/arm_depthwise_conv_wrapper_s8.c **** #include "arm_nnfunctions.h"
  33:Middlewares/tensorflow/third_party/cmsis_nn/Source/ConvolutionFunctions/arm_depthwise_conv_wrapper_s8.c **** 
  34:Middlewares/tensorflow/third_party/cmsis_nn/Source/ConvolutionFunctions/arm_depthwise_conv_wrapper_s8.c **** /**
  35:Middlewares/tensorflow/third_party/cmsis_nn/Source/ConvolutionFunctions/arm_depthwise_conv_wrapper_s8.c ****  *  @ingroup Public
  36:Middlewares/tensorflow/third_party/cmsis_nn/Source/ConvolutionFunctions/arm_depthwise_conv_wrapper_s8.c ****  */
  37:Middlewares/tensorflow/third_party/cmsis_nn/Source/ConvolutionFunctions/arm_depthwise_conv_wrapper_s8.c **** 
  38:Middlewares/tensorflow/third_party/cmsis_nn/Source/ConvolutionFunctions/arm_depthwise_conv_wrapper_s8.c **** /**
  39:Middlewares/tensorflow/third_party/cmsis_nn/Source/ConvolutionFunctions/arm_depthwise_conv_wrapper_s8.c ****  * @addtogroup NNConv
  40:Middlewares/tensorflow/third_party/cmsis_nn/Source/ConvolutionFunctions/arm_depthwise_conv_wrapper_s8.c ****  * @{
  41:Middlewares/tensorflow/third_party/cmsis_nn/Source/ConvolutionFunctions/arm_depthwise_conv_wrapper_s8.c ****  */
  42:Middlewares/tensorflow/third_party/cmsis_nn/Source/ConvolutionFunctions/arm_depthwise_conv_wrapper_s8.c **** 
  43:Middlewares/tensorflow/third_party/cmsis_nn/Source/ConvolutionFunctions/arm_depthwise_conv_wrapper_s8.c **** /*
  44:Middlewares/tensorflow/third_party/cmsis_nn/Source/ConvolutionFunctions/arm_depthwise_conv_wrapper_s8.c ****  *  s8 Depthwise conv wrapper function
  45:Middlewares/tensorflow/third_party/cmsis_nn/Source/ConvolutionFunctions/arm_depthwise_conv_wrapper_s8.c ****  *
  46:Middlewares/tensorflow/third_party/cmsis_nn/Source/ConvolutionFunctions/arm_depthwise_conv_wrapper_s8.c ****  *  Refer header file for details.
  47:Middlewares/tensorflow/third_party/cmsis_nn/Source/ConvolutionFunctions/arm_depthwise_conv_wrapper_s8.c ****  *
  48:Middlewares/tensorflow/third_party/cmsis_nn/Source/ConvolutionFunctions/arm_depthwise_conv_wrapper_s8.c ****  */
  49:Middlewares/tensorflow/third_party/cmsis_nn/Source/ConvolutionFunctions/arm_depthwise_conv_wrapper_s8.c **** arm_cmsis_nn_status arm_depthwise_conv_wrapper_s8(const cmsis_nn_context *ctx,
  50:Middlewares/tensorflow/third_party/cmsis_nn/Source/ConvolutionFunctions/arm_depthwise_conv_wrapper_s8.c ****                                                   const cmsis_nn_dw_conv_params *dw_conv_params,
  51:Middlewares/tensorflow/third_party/cmsis_nn/Source/ConvolutionFunctions/arm_depthwise_conv_wrapper_s8.c ****                                                   const cmsis_nn_per_channel_quant_params *quant_pa
  52:Middlewares/tensorflow/third_party/cmsis_nn/Source/ConvolutionFunctions/arm_depthwise_conv_wrapper_s8.c ****                                                   const cmsis_nn_dims *input_dims,
  53:Middlewares/tensorflow/third_party/cmsis_nn/Source/ConvolutionFunctions/arm_depthwise_conv_wrapper_s8.c ****                                                   const int8_t *input,
  54:Middlewares/tensorflow/third_party/cmsis_nn/Source/ConvolutionFunctions/arm_depthwise_conv_wrapper_s8.c ****                                                   const cmsis_nn_dims *filter_dims,
  55:Middlewares/tensorflow/third_party/cmsis_nn/Source/ConvolutionFunctions/arm_depthwise_conv_wrapper_s8.c ****                                                   const int8_t *filter,
  56:Middlewares/tensorflow/third_party/cmsis_nn/Source/ConvolutionFunctions/arm_depthwise_conv_wrapper_s8.c ****                                                   const cmsis_nn_dims *bias_dims,
  57:Middlewares/tensorflow/third_party/cmsis_nn/Source/ConvolutionFunctions/arm_depthwise_conv_wrapper_s8.c ****                                                   const int32_t *bias,
  58:Middlewares/tensorflow/third_party/cmsis_nn/Source/ConvolutionFunctions/arm_depthwise_conv_wrapper_s8.c ****                                                   const cmsis_nn_dims *output_dims,
  59:Middlewares/tensorflow/third_party/cmsis_nn/Source/ConvolutionFunctions/arm_depthwise_conv_wrapper_s8.c ****                                                   int8_t *output)
  60:Middlewares/tensorflow/third_party/cmsis_nn/Source/ConvolutionFunctions/arm_depthwise_conv_wrapper_s8.c **** {
  30              		.loc 1 60 1 view -0
  31              		.cfi_startproc
  32              		@ args = 28, pretend = 0, frame = 0
  33              		@ frame_needed = 0, uses_anonymous_args = 0
  34              		.loc 1 60 1 is_stmt 0 view .LVU1
  35 0000 30B5     		push	{r4, r5, lr}
  36              	.LCFI0:
  37              		.cfi_def_cfa_offset 12
  38              		.cfi_offset 4, -12
  39              		.cfi_offset 5, -8
  40              		.cfi_offset 14, -4
  41 0002 89B0     		sub	sp, sp, #36
  42              	.LCFI1:
  43              		.cfi_def_cfa_offset 48
  44 0004 0D9D     		ldr	r5, [sp, #52]
  61:Middlewares/tensorflow/third_party/cmsis_nn/Source/ConvolutionFunctions/arm_depthwise_conv_wrapper_s8.c ****     arm_cmsis_nn_status status = ARM_CMSIS_NN_SUCCESS;
  45              		.loc 1 61 5 is_stmt 1 view .LVU2
  46              	.LVL1:
  62:Middlewares/tensorflow/third_party/cmsis_nn/Source/ConvolutionFunctions/arm_depthwise_conv_wrapper_s8.c ****     if (1 == dw_conv_params->ch_mult && input_dims->n == 1 && dw_conv_params->dilation.w == 1 &&
  47              		.loc 1 62 5 view .LVU3
  48              		.loc 1 62 28 is_stmt 0 view .LVU4
  49 0006 8C68     		ldr	r4, [r1, #8]
  50              		.loc 1 62 8 view .LVU5
  51 0008 012C     		cmp	r4, #1
  52 000a 02D1     		bne	.L2
  53              		.loc 1 62 51 discriminator 1 view .LVU6
ARM GAS  /tmp/ccCcjmBN.s 			page 3


  54 000c 1C68     		ldr	r4, [r3]
  55              		.loc 1 62 38 discriminator 1 view .LVU7
  56 000e 012C     		cmp	r4, #1
  57 0010 10D0     		beq	.L6
  58              	.L2:
  63:Middlewares/tensorflow/third_party/cmsis_nn/Source/ConvolutionFunctions/arm_depthwise_conv_wrapper_s8.c ****         dw_conv_params->dilation.h == 1)
  64:Middlewares/tensorflow/third_party/cmsis_nn/Source/ConvolutionFunctions/arm_depthwise_conv_wrapper_s8.c ****     {
  65:Middlewares/tensorflow/third_party/cmsis_nn/Source/ConvolutionFunctions/arm_depthwise_conv_wrapper_s8.c **** #if !defined(ARM_MATH_MVEI)
  66:Middlewares/tensorflow/third_party/cmsis_nn/Source/ConvolutionFunctions/arm_depthwise_conv_wrapper_s8.c ****         if (filter_dims->w == 3 && filter_dims->h == 3 && dw_conv_params->padding.h <= 1 &&
  67:Middlewares/tensorflow/third_party/cmsis_nn/Source/ConvolutionFunctions/arm_depthwise_conv_wrapper_s8.c ****             dw_conv_params->padding.w <= 1)
  68:Middlewares/tensorflow/third_party/cmsis_nn/Source/ConvolutionFunctions/arm_depthwise_conv_wrapper_s8.c ****         {
  69:Middlewares/tensorflow/third_party/cmsis_nn/Source/ConvolutionFunctions/arm_depthwise_conv_wrapper_s8.c ****             status = arm_depthwise_conv_3x3_s8(ctx,
  70:Middlewares/tensorflow/third_party/cmsis_nn/Source/ConvolutionFunctions/arm_depthwise_conv_wrapper_s8.c ****                                                dw_conv_params,
  71:Middlewares/tensorflow/third_party/cmsis_nn/Source/ConvolutionFunctions/arm_depthwise_conv_wrapper_s8.c ****                                                quant_params,
  72:Middlewares/tensorflow/third_party/cmsis_nn/Source/ConvolutionFunctions/arm_depthwise_conv_wrapper_s8.c ****                                                input_dims,
  73:Middlewares/tensorflow/third_party/cmsis_nn/Source/ConvolutionFunctions/arm_depthwise_conv_wrapper_s8.c ****                                                input,
  74:Middlewares/tensorflow/third_party/cmsis_nn/Source/ConvolutionFunctions/arm_depthwise_conv_wrapper_s8.c ****                                                filter_dims,
  75:Middlewares/tensorflow/third_party/cmsis_nn/Source/ConvolutionFunctions/arm_depthwise_conv_wrapper_s8.c ****                                                filter,
  76:Middlewares/tensorflow/third_party/cmsis_nn/Source/ConvolutionFunctions/arm_depthwise_conv_wrapper_s8.c ****                                                bias_dims,
  77:Middlewares/tensorflow/third_party/cmsis_nn/Source/ConvolutionFunctions/arm_depthwise_conv_wrapper_s8.c ****                                                bias,
  78:Middlewares/tensorflow/third_party/cmsis_nn/Source/ConvolutionFunctions/arm_depthwise_conv_wrapper_s8.c ****                                                output_dims,
  79:Middlewares/tensorflow/third_party/cmsis_nn/Source/ConvolutionFunctions/arm_depthwise_conv_wrapper_s8.c ****                                                output);
  80:Middlewares/tensorflow/third_party/cmsis_nn/Source/ConvolutionFunctions/arm_depthwise_conv_wrapper_s8.c ****         }
  81:Middlewares/tensorflow/third_party/cmsis_nn/Source/ConvolutionFunctions/arm_depthwise_conv_wrapper_s8.c ****         else
  82:Middlewares/tensorflow/third_party/cmsis_nn/Source/ConvolutionFunctions/arm_depthwise_conv_wrapper_s8.c **** #endif
  83:Middlewares/tensorflow/third_party/cmsis_nn/Source/ConvolutionFunctions/arm_depthwise_conv_wrapper_s8.c ****         {
  84:Middlewares/tensorflow/third_party/cmsis_nn/Source/ConvolutionFunctions/arm_depthwise_conv_wrapper_s8.c ****             status = arm_depthwise_conv_s8_opt(ctx,
  85:Middlewares/tensorflow/third_party/cmsis_nn/Source/ConvolutionFunctions/arm_depthwise_conv_wrapper_s8.c ****                                                dw_conv_params,
  86:Middlewares/tensorflow/third_party/cmsis_nn/Source/ConvolutionFunctions/arm_depthwise_conv_wrapper_s8.c ****                                                quant_params,
  87:Middlewares/tensorflow/third_party/cmsis_nn/Source/ConvolutionFunctions/arm_depthwise_conv_wrapper_s8.c ****                                                input_dims,
  88:Middlewares/tensorflow/third_party/cmsis_nn/Source/ConvolutionFunctions/arm_depthwise_conv_wrapper_s8.c ****                                                input,
  89:Middlewares/tensorflow/third_party/cmsis_nn/Source/ConvolutionFunctions/arm_depthwise_conv_wrapper_s8.c ****                                                filter_dims,
  90:Middlewares/tensorflow/third_party/cmsis_nn/Source/ConvolutionFunctions/arm_depthwise_conv_wrapper_s8.c ****                                                filter,
  91:Middlewares/tensorflow/third_party/cmsis_nn/Source/ConvolutionFunctions/arm_depthwise_conv_wrapper_s8.c ****                                                bias_dims,
  92:Middlewares/tensorflow/third_party/cmsis_nn/Source/ConvolutionFunctions/arm_depthwise_conv_wrapper_s8.c ****                                                bias,
  93:Middlewares/tensorflow/third_party/cmsis_nn/Source/ConvolutionFunctions/arm_depthwise_conv_wrapper_s8.c ****                                                output_dims,
  94:Middlewares/tensorflow/third_party/cmsis_nn/Source/ConvolutionFunctions/arm_depthwise_conv_wrapper_s8.c ****                                                output);
  95:Middlewares/tensorflow/third_party/cmsis_nn/Source/ConvolutionFunctions/arm_depthwise_conv_wrapper_s8.c ****         }
  96:Middlewares/tensorflow/third_party/cmsis_nn/Source/ConvolutionFunctions/arm_depthwise_conv_wrapper_s8.c ****     }
  97:Middlewares/tensorflow/third_party/cmsis_nn/Source/ConvolutionFunctions/arm_depthwise_conv_wrapper_s8.c ****     else
  98:Middlewares/tensorflow/third_party/cmsis_nn/Source/ConvolutionFunctions/arm_depthwise_conv_wrapper_s8.c ****     {
  99:Middlewares/tensorflow/third_party/cmsis_nn/Source/ConvolutionFunctions/arm_depthwise_conv_wrapper_s8.c ****         status = arm_depthwise_conv_s8(ctx,
  59              		.loc 1 99 9 is_stmt 1 view .LVU8
  60              		.loc 1 99 18 is_stmt 0 view .LVU9
  61 0012 129C     		ldr	r4, [sp, #72]
  62 0014 0694     		str	r4, [sp, #24]
  63 0016 119C     		ldr	r4, [sp, #68]
  64 0018 0594     		str	r4, [sp, #20]
  65 001a 109C     		ldr	r4, [sp, #64]
  66 001c 0494     		str	r4, [sp, #16]
  67 001e 0F9C     		ldr	r4, [sp, #60]
  68 0020 0394     		str	r4, [sp, #12]
  69 0022 0E9C     		ldr	r4, [sp, #56]
  70 0024 0294     		str	r4, [sp, #8]
  71 0026 0195     		str	r5, [sp, #4]
  72 0028 0C9C     		ldr	r4, [sp, #48]
  73 002a 0094     		str	r4, [sp]
ARM GAS  /tmp/ccCcjmBN.s 			page 4


  74 002c FFF7FEFF 		bl	arm_depthwise_conv_s8
  75              	.LVL2:
  76              	.L4:
 100:Middlewares/tensorflow/third_party/cmsis_nn/Source/ConvolutionFunctions/arm_depthwise_conv_wrapper_s8.c ****                                        dw_conv_params,
 101:Middlewares/tensorflow/third_party/cmsis_nn/Source/ConvolutionFunctions/arm_depthwise_conv_wrapper_s8.c ****                                        quant_params,
 102:Middlewares/tensorflow/third_party/cmsis_nn/Source/ConvolutionFunctions/arm_depthwise_conv_wrapper_s8.c ****                                        input_dims,
 103:Middlewares/tensorflow/third_party/cmsis_nn/Source/ConvolutionFunctions/arm_depthwise_conv_wrapper_s8.c ****                                        input,
 104:Middlewares/tensorflow/third_party/cmsis_nn/Source/ConvolutionFunctions/arm_depthwise_conv_wrapper_s8.c ****                                        filter_dims,
 105:Middlewares/tensorflow/third_party/cmsis_nn/Source/ConvolutionFunctions/arm_depthwise_conv_wrapper_s8.c ****                                        filter,
 106:Middlewares/tensorflow/third_party/cmsis_nn/Source/ConvolutionFunctions/arm_depthwise_conv_wrapper_s8.c ****                                        bias_dims,
 107:Middlewares/tensorflow/third_party/cmsis_nn/Source/ConvolutionFunctions/arm_depthwise_conv_wrapper_s8.c ****                                        bias,
 108:Middlewares/tensorflow/third_party/cmsis_nn/Source/ConvolutionFunctions/arm_depthwise_conv_wrapper_s8.c ****                                        output_dims,
 109:Middlewares/tensorflow/third_party/cmsis_nn/Source/ConvolutionFunctions/arm_depthwise_conv_wrapper_s8.c ****                                        output);
 110:Middlewares/tensorflow/third_party/cmsis_nn/Source/ConvolutionFunctions/arm_depthwise_conv_wrapper_s8.c ****     }
 111:Middlewares/tensorflow/third_party/cmsis_nn/Source/ConvolutionFunctions/arm_depthwise_conv_wrapper_s8.c **** 
 112:Middlewares/tensorflow/third_party/cmsis_nn/Source/ConvolutionFunctions/arm_depthwise_conv_wrapper_s8.c ****     /* Return to application */
 113:Middlewares/tensorflow/third_party/cmsis_nn/Source/ConvolutionFunctions/arm_depthwise_conv_wrapper_s8.c ****     return status;
  77              		.loc 1 113 5 is_stmt 1 view .LVU10
 114:Middlewares/tensorflow/third_party/cmsis_nn/Source/ConvolutionFunctions/arm_depthwise_conv_wrapper_s8.c **** }
  78              		.loc 1 114 1 is_stmt 0 view .LVU11
  79 0030 09B0     		add	sp, sp, #36
  80              	.LCFI2:
  81              		.cfi_remember_state
  82              		.cfi_def_cfa_offset 12
  83              		@ sp needed
  84 0032 30BD     		pop	{r4, r5, pc}
  85              	.LVL3:
  86              	.L6:
  87              	.LCFI3:
  88              		.cfi_restore_state
  62:Middlewares/tensorflow/third_party/cmsis_nn/Source/ConvolutionFunctions/arm_depthwise_conv_wrapper_s8.c ****         dw_conv_params->dilation.h == 1)
  89              		.loc 1 62 87 discriminator 2 view .LVU12
  90 0034 CC69     		ldr	r4, [r1, #28]
  62:Middlewares/tensorflow/third_party/cmsis_nn/Source/ConvolutionFunctions/arm_depthwise_conv_wrapper_s8.c ****         dw_conv_params->dilation.h == 1)
  91              		.loc 1 62 60 discriminator 2 view .LVU13
  92 0036 012C     		cmp	r4, #1
  93 0038 EBD1     		bne	.L2
  63:Middlewares/tensorflow/third_party/cmsis_nn/Source/ConvolutionFunctions/arm_depthwise_conv_wrapper_s8.c ****     {
  94              		.loc 1 63 33 discriminator 3 view .LVU14
  95 003a 0C6A     		ldr	r4, [r1, #32]
  62:Middlewares/tensorflow/third_party/cmsis_nn/Source/ConvolutionFunctions/arm_depthwise_conv_wrapper_s8.c ****         dw_conv_params->dilation.h == 1)
  96              		.loc 1 62 95 discriminator 3 view .LVU15
  97 003c 012C     		cmp	r4, #1
  98 003e E8D1     		bne	.L2
  66:Middlewares/tensorflow/third_party/cmsis_nn/Source/ConvolutionFunctions/arm_depthwise_conv_wrapper_s8.c ****             dw_conv_params->padding.w <= 1)
  99              		.loc 1 66 9 is_stmt 1 view .LVU16
  66:Middlewares/tensorflow/third_party/cmsis_nn/Source/ConvolutionFunctions/arm_depthwise_conv_wrapper_s8.c ****             dw_conv_params->padding.w <= 1)
 100              		.loc 1 66 24 is_stmt 0 view .LVU17
 101 0040 AC68     		ldr	r4, [r5, #8]
  66:Middlewares/tensorflow/third_party/cmsis_nn/Source/ConvolutionFunctions/arm_depthwise_conv_wrapper_s8.c ****             dw_conv_params->padding.w <= 1)
 102              		.loc 1 66 12 view .LVU18
 103 0042 032C     		cmp	r4, #3
 104 0044 02D1     		bne	.L3
  66:Middlewares/tensorflow/third_party/cmsis_nn/Source/ConvolutionFunctions/arm_depthwise_conv_wrapper_s8.c ****             dw_conv_params->padding.w <= 1)
 105              		.loc 1 66 47 discriminator 1 view .LVU19
 106 0046 6C68     		ldr	r4, [r5, #4]
  66:Middlewares/tensorflow/third_party/cmsis_nn/Source/ConvolutionFunctions/arm_depthwise_conv_wrapper_s8.c ****             dw_conv_params->padding.w <= 1)
ARM GAS  /tmp/ccCcjmBN.s 			page 5


 107              		.loc 1 66 33 discriminator 1 view .LVU20
 108 0048 032C     		cmp	r4, #3
 109 004a 0FD0     		beq	.L7
 110              	.L3:
  84:Middlewares/tensorflow/third_party/cmsis_nn/Source/ConvolutionFunctions/arm_depthwise_conv_wrapper_s8.c ****                                                dw_conv_params,
 111              		.loc 1 84 13 is_stmt 1 view .LVU21
  84:Middlewares/tensorflow/third_party/cmsis_nn/Source/ConvolutionFunctions/arm_depthwise_conv_wrapper_s8.c ****                                                dw_conv_params,
 112              		.loc 1 84 22 is_stmt 0 view .LVU22
 113 004c 129C     		ldr	r4, [sp, #72]
 114 004e 0694     		str	r4, [sp, #24]
 115 0050 119C     		ldr	r4, [sp, #68]
 116 0052 0594     		str	r4, [sp, #20]
 117 0054 109C     		ldr	r4, [sp, #64]
 118 0056 0494     		str	r4, [sp, #16]
 119 0058 0F9C     		ldr	r4, [sp, #60]
 120 005a 0394     		str	r4, [sp, #12]
 121 005c 0E9C     		ldr	r4, [sp, #56]
 122 005e 0294     		str	r4, [sp, #8]
 123 0060 0195     		str	r5, [sp, #4]
 124 0062 0C9C     		ldr	r4, [sp, #48]
 125 0064 0094     		str	r4, [sp]
 126 0066 FFF7FEFF 		bl	arm_depthwise_conv_s8_opt
 127              	.LVL4:
  84:Middlewares/tensorflow/third_party/cmsis_nn/Source/ConvolutionFunctions/arm_depthwise_conv_wrapper_s8.c ****                                                dw_conv_params,
 128              		.loc 1 84 22 view .LVU23
 129 006a E1E7     		b	.L4
 130              	.LVL5:
 131              	.L7:
  66:Middlewares/tensorflow/third_party/cmsis_nn/Source/ConvolutionFunctions/arm_depthwise_conv_wrapper_s8.c ****             dw_conv_params->padding.w <= 1)
 132              		.loc 1 66 82 discriminator 2 view .LVU24
 133 006c 8C69     		ldr	r4, [r1, #24]
  66:Middlewares/tensorflow/third_party/cmsis_nn/Source/ConvolutionFunctions/arm_depthwise_conv_wrapper_s8.c ****             dw_conv_params->padding.w <= 1)
 134              		.loc 1 66 56 discriminator 2 view .LVU25
 135 006e 012C     		cmp	r4, #1
 136 0070 ECDC     		bgt	.L3
  67:Middlewares/tensorflow/third_party/cmsis_nn/Source/ConvolutionFunctions/arm_depthwise_conv_wrapper_s8.c ****         {
 137              		.loc 1 67 36 discriminator 3 view .LVU26
 138 0072 4C69     		ldr	r4, [r1, #20]
  66:Middlewares/tensorflow/third_party/cmsis_nn/Source/ConvolutionFunctions/arm_depthwise_conv_wrapper_s8.c ****             dw_conv_params->padding.w <= 1)
 139              		.loc 1 66 90 discriminator 3 view .LVU27
 140 0074 012C     		cmp	r4, #1
 141 0076 E9DC     		bgt	.L3
  69:Middlewares/tensorflow/third_party/cmsis_nn/Source/ConvolutionFunctions/arm_depthwise_conv_wrapper_s8.c ****                                                dw_conv_params,
 142              		.loc 1 69 13 is_stmt 1 view .LVU28
  69:Middlewares/tensorflow/third_party/cmsis_nn/Source/ConvolutionFunctions/arm_depthwise_conv_wrapper_s8.c ****                                                dw_conv_params,
 143              		.loc 1 69 22 is_stmt 0 view .LVU29
 144 0078 129C     		ldr	r4, [sp, #72]
 145 007a 0694     		str	r4, [sp, #24]
 146 007c 119C     		ldr	r4, [sp, #68]
 147 007e 0594     		str	r4, [sp, #20]
 148 0080 109C     		ldr	r4, [sp, #64]
 149 0082 0494     		str	r4, [sp, #16]
 150 0084 0F9C     		ldr	r4, [sp, #60]
 151 0086 0394     		str	r4, [sp, #12]
 152 0088 0E9C     		ldr	r4, [sp, #56]
 153 008a 0294     		str	r4, [sp, #8]
 154 008c 0195     		str	r5, [sp, #4]
ARM GAS  /tmp/ccCcjmBN.s 			page 6


 155 008e 0C9C     		ldr	r4, [sp, #48]
 156 0090 0094     		str	r4, [sp]
 157 0092 FFF7FEFF 		bl	arm_depthwise_conv_3x3_s8
 158              	.LVL6:
  69:Middlewares/tensorflow/third_party/cmsis_nn/Source/ConvolutionFunctions/arm_depthwise_conv_wrapper_s8.c ****                                                dw_conv_params,
 159              		.loc 1 69 20 view .LVU30
 160 0096 CBE7     		b	.L4
 161              		.cfi_endproc
 162              	.LFE0:
 164              		.text
 165              	.Letext0:
 166              		.file 2 "/usr/lib/gcc/arm-none-eabi/9.2.1/include/stdint.h"
 167              		.file 3 "/usr/lib/gcc/arm-none-eabi/9.2.1/include/stddef.h"
 168              		.file 4 "/usr/include/newlib/sys/_types.h"
 169              		.file 5 "/usr/include/newlib/sys/reent.h"
 170              		.file 6 "/usr/include/newlib/sys/lock.h"
 171              		.file 7 "Middlewares/tensorflow/third_party/cmsis_nn/Include/arm_nn_types.h"
 172              		.file 8 "Middlewares/tensorflow/third_party/cmsis_nn/Include/arm_nnfunctions.h"
ARM GAS  /tmp/ccCcjmBN.s 			page 7

