ARM GAS  /tmp/ccReUFVW.s 			page 1


   1              		.cpu cortex-m4
   2              		.eabi_attribute 27, 1
   3              		.eabi_attribute 28, 1
   4              		.eabi_attribute 20, 1
   5              		.eabi_attribute 21, 1
   6              		.eabi_attribute 23, 3
   7              		.eabi_attribute 24, 1
   8              		.eabi_attribute 25, 1
   9              		.eabi_attribute 26, 1
  10              		.eabi_attribute 30, 1
  11              		.eabi_attribute 34, 1
  12              		.eabi_attribute 18, 4
  13              		.file	"arm_svdf_s8.c"
  14              		.text
  15              	.Ltext0:
  16              		.cfi_sections	.debug_frame
  17              		.section	.text.arm_svdf_s8,"ax",%progbits
  18              		.align	1
  19              		.global	arm_svdf_s8
  20              		.arch armv7e-m
  21              		.syntax unified
  22              		.thumb
  23              		.thumb_func
  24              		.fpu fpv4-sp-d16
  26              	arm_svdf_s8:
  27              	.LVL0:
  28              	.LFB47:
  29              		.file 1 "Middlewares/tensorflow/third_party/cmsis_nn/Source/SVDFunctions/arm_svdf_s8.c"
   1:Middlewares/tensorflow/third_party/cmsis_nn/Source/SVDFunctions/arm_svdf_s8.c **** /*
   2:Middlewares/tensorflow/third_party/cmsis_nn/Source/SVDFunctions/arm_svdf_s8.c ****  * SPDX-FileCopyrightText: Copyright 2010-2023 Arm Limited and/or its affiliates <open-source-offic
   3:Middlewares/tensorflow/third_party/cmsis_nn/Source/SVDFunctions/arm_svdf_s8.c ****  *
   4:Middlewares/tensorflow/third_party/cmsis_nn/Source/SVDFunctions/arm_svdf_s8.c ****  * SPDX-License-Identifier: Apache-2.0
   5:Middlewares/tensorflow/third_party/cmsis_nn/Source/SVDFunctions/arm_svdf_s8.c ****  *
   6:Middlewares/tensorflow/third_party/cmsis_nn/Source/SVDFunctions/arm_svdf_s8.c ****  * Licensed under the Apache License, Version 2.0 (the License); you may
   7:Middlewares/tensorflow/third_party/cmsis_nn/Source/SVDFunctions/arm_svdf_s8.c ****  * not use this file except in compliance with the License.
   8:Middlewares/tensorflow/third_party/cmsis_nn/Source/SVDFunctions/arm_svdf_s8.c ****  * You may obtain a copy of the License at
   9:Middlewares/tensorflow/third_party/cmsis_nn/Source/SVDFunctions/arm_svdf_s8.c ****  *
  10:Middlewares/tensorflow/third_party/cmsis_nn/Source/SVDFunctions/arm_svdf_s8.c ****  * www.apache.org/licenses/LICENSE-2.0
  11:Middlewares/tensorflow/third_party/cmsis_nn/Source/SVDFunctions/arm_svdf_s8.c ****  *
  12:Middlewares/tensorflow/third_party/cmsis_nn/Source/SVDFunctions/arm_svdf_s8.c ****  * Unless required by applicable law or agreed to in writing, software
  13:Middlewares/tensorflow/third_party/cmsis_nn/Source/SVDFunctions/arm_svdf_s8.c ****  * distributed under the License is distributed on an AS IS BASIS, WITHOUT
  14:Middlewares/tensorflow/third_party/cmsis_nn/Source/SVDFunctions/arm_svdf_s8.c ****  * WARRANTIES OR CONDITIONS OF ANY KIND, either express or implied.
  15:Middlewares/tensorflow/third_party/cmsis_nn/Source/SVDFunctions/arm_svdf_s8.c ****  * See the License for the specific language governing permissions and
  16:Middlewares/tensorflow/third_party/cmsis_nn/Source/SVDFunctions/arm_svdf_s8.c ****  * limitations under the License.
  17:Middlewares/tensorflow/third_party/cmsis_nn/Source/SVDFunctions/arm_svdf_s8.c ****  */
  18:Middlewares/tensorflow/third_party/cmsis_nn/Source/SVDFunctions/arm_svdf_s8.c **** 
  19:Middlewares/tensorflow/third_party/cmsis_nn/Source/SVDFunctions/arm_svdf_s8.c **** /* ----------------------------------------------------------------------
  20:Middlewares/tensorflow/third_party/cmsis_nn/Source/SVDFunctions/arm_svdf_s8.c ****  * Project:      CMSIS NN Library
  21:Middlewares/tensorflow/third_party/cmsis_nn/Source/SVDFunctions/arm_svdf_s8.c ****  * Title:        arm_svdf_s8.c
  22:Middlewares/tensorflow/third_party/cmsis_nn/Source/SVDFunctions/arm_svdf_s8.c ****  * Description:  S8 basic SVDF layer function
  23:Middlewares/tensorflow/third_party/cmsis_nn/Source/SVDFunctions/arm_svdf_s8.c ****  *
  24:Middlewares/tensorflow/third_party/cmsis_nn/Source/SVDFunctions/arm_svdf_s8.c ****  * $Date:        5 January 2023
  25:Middlewares/tensorflow/third_party/cmsis_nn/Source/SVDFunctions/arm_svdf_s8.c ****  * $Revision:    V.5.1.0
  26:Middlewares/tensorflow/third_party/cmsis_nn/Source/SVDFunctions/arm_svdf_s8.c ****  *
  27:Middlewares/tensorflow/third_party/cmsis_nn/Source/SVDFunctions/arm_svdf_s8.c ****  * Target :  Arm(R) M-Profile Architecture
  28:Middlewares/tensorflow/third_party/cmsis_nn/Source/SVDFunctions/arm_svdf_s8.c ****  *
  29:Middlewares/tensorflow/third_party/cmsis_nn/Source/SVDFunctions/arm_svdf_s8.c ****  * -------------------------------------------------------------------- */
ARM GAS  /tmp/ccReUFVW.s 			page 2


  30:Middlewares/tensorflow/third_party/cmsis_nn/Source/SVDFunctions/arm_svdf_s8.c **** 
  31:Middlewares/tensorflow/third_party/cmsis_nn/Source/SVDFunctions/arm_svdf_s8.c **** #include "arm_nnfunctions.h"
  32:Middlewares/tensorflow/third_party/cmsis_nn/Source/SVDFunctions/arm_svdf_s8.c **** #include "arm_nnsupportfunctions.h"
  33:Middlewares/tensorflow/third_party/cmsis_nn/Source/SVDFunctions/arm_svdf_s8.c **** 
  34:Middlewares/tensorflow/third_party/cmsis_nn/Source/SVDFunctions/arm_svdf_s8.c **** /**
  35:Middlewares/tensorflow/third_party/cmsis_nn/Source/SVDFunctions/arm_svdf_s8.c ****  * @ingroup Public
  36:Middlewares/tensorflow/third_party/cmsis_nn/Source/SVDFunctions/arm_svdf_s8.c ****  */
  37:Middlewares/tensorflow/third_party/cmsis_nn/Source/SVDFunctions/arm_svdf_s8.c **** 
  38:Middlewares/tensorflow/third_party/cmsis_nn/Source/SVDFunctions/arm_svdf_s8.c **** /**
  39:Middlewares/tensorflow/third_party/cmsis_nn/Source/SVDFunctions/arm_svdf_s8.c ****  * @addtogroup SVDF
  40:Middlewares/tensorflow/third_party/cmsis_nn/Source/SVDFunctions/arm_svdf_s8.c ****  * @{
  41:Middlewares/tensorflow/third_party/cmsis_nn/Source/SVDFunctions/arm_svdf_s8.c ****  */
  42:Middlewares/tensorflow/third_party/cmsis_nn/Source/SVDFunctions/arm_svdf_s8.c **** 
  43:Middlewares/tensorflow/third_party/cmsis_nn/Source/SVDFunctions/arm_svdf_s8.c **** /*
  44:Middlewares/tensorflow/third_party/cmsis_nn/Source/SVDFunctions/arm_svdf_s8.c ****  * S8 SVDF layer function for TensorFlow Lite with 8 bit state tensor
  45:Middlewares/tensorflow/third_party/cmsis_nn/Source/SVDFunctions/arm_svdf_s8.c ****  *
  46:Middlewares/tensorflow/third_party/cmsis_nn/Source/SVDFunctions/arm_svdf_s8.c ****  * Refer to header file for details.
  47:Middlewares/tensorflow/third_party/cmsis_nn/Source/SVDFunctions/arm_svdf_s8.c ****  *
  48:Middlewares/tensorflow/third_party/cmsis_nn/Source/SVDFunctions/arm_svdf_s8.c ****  */
  49:Middlewares/tensorflow/third_party/cmsis_nn/Source/SVDFunctions/arm_svdf_s8.c **** 
  50:Middlewares/tensorflow/third_party/cmsis_nn/Source/SVDFunctions/arm_svdf_s8.c **** arm_cmsis_nn_status arm_svdf_s8(const cmsis_nn_context *input_ctx,
  51:Middlewares/tensorflow/third_party/cmsis_nn/Source/SVDFunctions/arm_svdf_s8.c ****                                 const cmsis_nn_context *output_ctx,
  52:Middlewares/tensorflow/third_party/cmsis_nn/Source/SVDFunctions/arm_svdf_s8.c ****                                 const cmsis_nn_svdf_params *svdf_params,
  53:Middlewares/tensorflow/third_party/cmsis_nn/Source/SVDFunctions/arm_svdf_s8.c ****                                 const cmsis_nn_per_tensor_quant_params *input_quant_params,
  54:Middlewares/tensorflow/third_party/cmsis_nn/Source/SVDFunctions/arm_svdf_s8.c ****                                 const cmsis_nn_per_tensor_quant_params *output_quant_params,
  55:Middlewares/tensorflow/third_party/cmsis_nn/Source/SVDFunctions/arm_svdf_s8.c ****                                 const cmsis_nn_dims *input_dims,
  56:Middlewares/tensorflow/third_party/cmsis_nn/Source/SVDFunctions/arm_svdf_s8.c ****                                 const int8_t *input_data,
  57:Middlewares/tensorflow/third_party/cmsis_nn/Source/SVDFunctions/arm_svdf_s8.c ****                                 const cmsis_nn_dims *state_dims,
  58:Middlewares/tensorflow/third_party/cmsis_nn/Source/SVDFunctions/arm_svdf_s8.c ****                                 int8_t *state_data,
  59:Middlewares/tensorflow/third_party/cmsis_nn/Source/SVDFunctions/arm_svdf_s8.c ****                                 const cmsis_nn_dims *weights_feature_dims,
  60:Middlewares/tensorflow/third_party/cmsis_nn/Source/SVDFunctions/arm_svdf_s8.c ****                                 const int8_t *weights_feature_data,
  61:Middlewares/tensorflow/third_party/cmsis_nn/Source/SVDFunctions/arm_svdf_s8.c ****                                 const cmsis_nn_dims *weights_time_dims,
  62:Middlewares/tensorflow/third_party/cmsis_nn/Source/SVDFunctions/arm_svdf_s8.c ****                                 const int8_t *weights_time_data,
  63:Middlewares/tensorflow/third_party/cmsis_nn/Source/SVDFunctions/arm_svdf_s8.c ****                                 const cmsis_nn_dims *bias_dims,
  64:Middlewares/tensorflow/third_party/cmsis_nn/Source/SVDFunctions/arm_svdf_s8.c ****                                 const int32_t *bias_data,
  65:Middlewares/tensorflow/third_party/cmsis_nn/Source/SVDFunctions/arm_svdf_s8.c ****                                 const cmsis_nn_dims *output_dims,
  66:Middlewares/tensorflow/third_party/cmsis_nn/Source/SVDFunctions/arm_svdf_s8.c ****                                 int8_t *output_data)
  67:Middlewares/tensorflow/third_party/cmsis_nn/Source/SVDFunctions/arm_svdf_s8.c **** {
  30              		.loc 1 67 1 view -0
  31              		.cfi_startproc
  32              		@ args = 52, pretend = 0, frame = 56
  33              		@ frame_needed = 0, uses_anonymous_args = 0
  34              		.loc 1 67 1 is_stmt 0 view .LVU1
  35 0000 2DE9F04F 		push	{r4, r5, r6, r7, r8, r9, r10, fp, lr}
  36              	.LCFI0:
  37              		.cfi_def_cfa_offset 36
  38              		.cfi_offset 4, -36
  39              		.cfi_offset 5, -32
  40              		.cfi_offset 6, -28
  41              		.cfi_offset 7, -24
  42              		.cfi_offset 8, -20
  43              		.cfi_offset 9, -16
  44              		.cfi_offset 10, -12
  45              		.cfi_offset 11, -8
  46              		.cfi_offset 14, -4
  47 0004 99B0     		sub	sp, sp, #100
  48              	.LCFI1:
ARM GAS  /tmp/ccReUFVW.s 			page 3


  49              		.cfi_def_cfa_offset 136
  50 0006 229E     		ldr	r6, [sp, #136]
  51 0008 239C     		ldr	r4, [sp, #140]
  52 000a 269D     		ldr	r5, [sp, #152]
  68:Middlewares/tensorflow/third_party/cmsis_nn/Source/SVDFunctions/arm_svdf_s8.c ****     (void)bias_dims;
  53              		.loc 1 68 5 is_stmt 1 view .LVU2
  69:Middlewares/tensorflow/third_party/cmsis_nn/Source/SVDFunctions/arm_svdf_s8.c ****     (void)state_dims;
  54              		.loc 1 69 5 view .LVU3
  70:Middlewares/tensorflow/third_party/cmsis_nn/Source/SVDFunctions/arm_svdf_s8.c ****     (void)output_dims;
  55              		.loc 1 70 5 view .LVU4
  71:Middlewares/tensorflow/third_party/cmsis_nn/Source/SVDFunctions/arm_svdf_s8.c **** 
  72:Middlewares/tensorflow/third_party/cmsis_nn/Source/SVDFunctions/arm_svdf_s8.c ****     const int32_t multiplier_in = input_quant_params->multiplier;
  56              		.loc 1 72 5 view .LVU5
  57              		.loc 1 72 19 is_stmt 0 view .LVU6
  58 000c 1F68     		ldr	r7, [r3]
  59 000e 0C97     		str	r7, [sp, #48]
  60              	.LVL1:
  73:Middlewares/tensorflow/third_party/cmsis_nn/Source/SVDFunctions/arm_svdf_s8.c ****     const int32_t shift_in = input_quant_params->shift;
  61              		.loc 1 73 5 is_stmt 1 view .LVU7
  62              		.loc 1 73 19 is_stmt 0 view .LVU8
  63 0010 5B68     		ldr	r3, [r3, #4]
  64              	.LVL2:
  65              		.loc 1 73 19 view .LVU9
  66 0012 0D93     		str	r3, [sp, #52]
  67              	.LVL3:
  74:Middlewares/tensorflow/third_party/cmsis_nn/Source/SVDFunctions/arm_svdf_s8.c ****     const int32_t multiplier_out = output_quant_params->multiplier;
  68              		.loc 1 74 5 is_stmt 1 view .LVU10
  69              		.loc 1 74 19 is_stmt 0 view .LVU11
  70 0014 3368     		ldr	r3, [r6]
  71              	.LVL4:
  72              		.loc 1 74 19 view .LVU12
  73 0016 1393     		str	r3, [sp, #76]
  74              	.LVL5:
  75:Middlewares/tensorflow/third_party/cmsis_nn/Source/SVDFunctions/arm_svdf_s8.c ****     const int32_t shift_2 = output_quant_params->shift;
  75              		.loc 1 75 5 is_stmt 1 view .LVU13
  76              		.loc 1 75 19 is_stmt 0 view .LVU14
  77 0018 7368     		ldr	r3, [r6, #4]
  78              	.LVL6:
  79              		.loc 1 75 19 view .LVU15
  80 001a 1493     		str	r3, [sp, #80]
  81              	.LVL7:
  76:Middlewares/tensorflow/third_party/cmsis_nn/Source/SVDFunctions/arm_svdf_s8.c ****     const int32_t zp_in = svdf_params->input_offset;
  82              		.loc 1 76 5 is_stmt 1 view .LVU16
  83              		.loc 1 76 19 is_stmt 0 view .LVU17
  84 001c D2F804B0 		ldr	fp, [r2, #4]
  85              	.LVL8:
  77:Middlewares/tensorflow/third_party/cmsis_nn/Source/SVDFunctions/arm_svdf_s8.c ****     const int32_t zp_out = svdf_params->output_offset;
  86              		.loc 1 77 5 is_stmt 1 view .LVU18
  87              		.loc 1 77 19 is_stmt 0 view .LVU19
  88 0020 9368     		ldr	r3, [r2, #8]
  89              	.LVL9:
  90              		.loc 1 77 19 view .LVU20
  91 0022 1593     		str	r3, [sp, #84]
  92              	.LVL10:
  78:Middlewares/tensorflow/third_party/cmsis_nn/Source/SVDFunctions/arm_svdf_s8.c ****     const int32_t in_activation_min = svdf_params->input_activation.min;
  93              		.loc 1 78 5 is_stmt 1 view .LVU21
  94              		.loc 1 78 19 is_stmt 0 view .LVU22
ARM GAS  /tmp/ccReUFVW.s 			page 4


  95 0024 D2F80CA0 		ldr	r10, [r2, #12]
  96              	.LVL11:
  79:Middlewares/tensorflow/third_party/cmsis_nn/Source/SVDFunctions/arm_svdf_s8.c ****     const int32_t in_activation_max = svdf_params->input_activation.max;
  97              		.loc 1 79 5 is_stmt 1 view .LVU23
  98              		.loc 1 79 19 is_stmt 0 view .LVU24
  99 0028 D2F81090 		ldr	r9, [r2, #16]
 100              	.LVL12:
  80:Middlewares/tensorflow/third_party/cmsis_nn/Source/SVDFunctions/arm_svdf_s8.c ****     const int32_t out_activation_min = svdf_params->output_activation.min;
 101              		.loc 1 80 5 is_stmt 1 view .LVU25
 102              		.loc 1 80 19 is_stmt 0 view .LVU26
 103 002c 5369     		ldr	r3, [r2, #20]
 104              	.LVL13:
 105              		.loc 1 80 19 view .LVU27
 106 002e 0E93     		str	r3, [sp, #56]
 107              	.LVL14:
  81:Middlewares/tensorflow/third_party/cmsis_nn/Source/SVDFunctions/arm_svdf_s8.c ****     const int32_t out_activation_max = svdf_params->output_activation.max;
 108              		.loc 1 81 5 is_stmt 1 view .LVU28
 109              		.loc 1 81 19 is_stmt 0 view .LVU29
 110 0030 9369     		ldr	r3, [r2, #24]
 111              	.LVL15:
 112              		.loc 1 81 19 view .LVU30
 113 0032 1693     		str	r3, [sp, #88]
 114              	.LVL16:
  82:Middlewares/tensorflow/third_party/cmsis_nn/Source/SVDFunctions/arm_svdf_s8.c ****     const int16_t rank = svdf_params->rank;
 115              		.loc 1 82 5 is_stmt 1 view .LVU31
 116              		.loc 1 82 19 is_stmt 0 view .LVU32
 117 0034 B2F90030 		ldrsh	r3, [r2]
 118              	.LVL17:
  83:Middlewares/tensorflow/third_party/cmsis_nn/Source/SVDFunctions/arm_svdf_s8.c **** 
  84:Middlewares/tensorflow/third_party/cmsis_nn/Source/SVDFunctions/arm_svdf_s8.c ****     const int32_t input_batches = input_dims->n;
 119              		.loc 1 84 5 is_stmt 1 view .LVU33
 120              		.loc 1 84 19 is_stmt 0 view .LVU34
 121 0038 2268     		ldr	r2, [r4]
 122              	.LVL18:
 123              		.loc 1 84 19 view .LVU35
 124 003a 0B92     		str	r2, [sp, #44]
 125              	.LVL19:
  85:Middlewares/tensorflow/third_party/cmsis_nn/Source/SVDFunctions/arm_svdf_s8.c ****     const int32_t input_height = input_dims->h;
 126              		.loc 1 85 5 is_stmt 1 view .LVU36
 127              		.loc 1 85 19 is_stmt 0 view .LVU37
 128 003c D4F80480 		ldr	r8, [r4, #4]
 129              	.LVL20:
  86:Middlewares/tensorflow/third_party/cmsis_nn/Source/SVDFunctions/arm_svdf_s8.c ****     const int32_t feature_batches = weights_feature_dims->n;
 130              		.loc 1 86 5 is_stmt 1 view .LVU38
 131              		.loc 1 86 19 is_stmt 0 view .LVU39
 132 0040 279A     		ldr	r2, [sp, #156]
 133              	.LVL21:
 134              		.loc 1 86 19 view .LVU40
 135 0042 1468     		ldr	r4, [r2]
 136              	.LVL22:
 137              		.loc 1 86 19 view .LVU41
 138 0044 1094     		str	r4, [sp, #64]
 139              	.LVL23:
  87:Middlewares/tensorflow/third_party/cmsis_nn/Source/SVDFunctions/arm_svdf_s8.c ****     const int32_t time_batches = weights_time_dims->h;
 140              		.loc 1 87 5 is_stmt 1 view .LVU42
 141              		.loc 1 87 19 is_stmt 0 view .LVU43
 142 0046 299A     		ldr	r2, [sp, #164]
ARM GAS  /tmp/ccReUFVW.s 			page 5


 143 0048 5668     		ldr	r6, [r2, #4]
 144              	.LVL24:
  88:Middlewares/tensorflow/third_party/cmsis_nn/Source/SVDFunctions/arm_svdf_s8.c ****     const int32_t unit_count = feature_batches / rank;
 145              		.loc 1 88 5 is_stmt 1 view .LVU44
 146              		.loc 1 88 48 is_stmt 0 view .LVU45
 147 004a 1F46     		mov	r7, r3
 148              	.LVL25:
 149              		.loc 1 88 19 view .LVU46
 150 004c 94FBF3F3 		sdiv	r3, r4, r3
 151              	.LVL26:
 152              		.loc 1 88 19 view .LVU47
 153 0050 0F93     		str	r3, [sp, #60]
 154              	.LVL27:
  89:Middlewares/tensorflow/third_party/cmsis_nn/Source/SVDFunctions/arm_svdf_s8.c **** 
  90:Middlewares/tensorflow/third_party/cmsis_nn/Source/SVDFunctions/arm_svdf_s8.c ****     if (input_ctx->buf == NULL)
 155              		.loc 1 90 5 is_stmt 1 view .LVU48
 156              		.loc 1 90 18 is_stmt 0 view .LVU49
 157 0052 0368     		ldr	r3, [r0]
 158              	.LVL28:
 159              		.loc 1 90 18 view .LVU50
 160 0054 1193     		str	r3, [sp, #68]
 161              		.loc 1 90 8 view .LVU51
 162 0056 002B     		cmp	r3, #0
 163 0058 00F08F81 		beq	.L43
  91:Middlewares/tensorflow/third_party/cmsis_nn/Source/SVDFunctions/arm_svdf_s8.c ****     {
  92:Middlewares/tensorflow/third_party/cmsis_nn/Source/SVDFunctions/arm_svdf_s8.c ****         return ARM_CMSIS_NN_ARG_ERROR;
  93:Middlewares/tensorflow/third_party/cmsis_nn/Source/SVDFunctions/arm_svdf_s8.c ****     }
  94:Middlewares/tensorflow/third_party/cmsis_nn/Source/SVDFunctions/arm_svdf_s8.c ****     int32_t *buffer_a = (int32_t *)input_ctx->buf;
 164              		.loc 1 94 5 is_stmt 1 view .LVU52
 165              	.LVL29:
  95:Middlewares/tensorflow/third_party/cmsis_nn/Source/SVDFunctions/arm_svdf_s8.c **** 
  96:Middlewares/tensorflow/third_party/cmsis_nn/Source/SVDFunctions/arm_svdf_s8.c ****     if (output_ctx->buf == NULL)
 166              		.loc 1 96 5 view .LVU53
 167              		.loc 1 96 19 is_stmt 0 view .LVU54
 168 005c 0B68     		ldr	r3, [r1]
 169              	.LVL30:
 170              		.loc 1 96 19 view .LVU55
 171 005e 1293     		str	r3, [sp, #72]
 172              		.loc 1 96 8 view .LVU56
 173 0060 002B     		cmp	r3, #0
 174 0062 00F08D81 		beq	.L44
  97:Middlewares/tensorflow/third_party/cmsis_nn/Source/SVDFunctions/arm_svdf_s8.c ****     {
  98:Middlewares/tensorflow/third_party/cmsis_nn/Source/SVDFunctions/arm_svdf_s8.c ****         return ARM_CMSIS_NN_ARG_ERROR;
  99:Middlewares/tensorflow/third_party/cmsis_nn/Source/SVDFunctions/arm_svdf_s8.c ****     }
 100:Middlewares/tensorflow/third_party/cmsis_nn/Source/SVDFunctions/arm_svdf_s8.c ****     int32_t *buffer_b = (int32_t *)output_ctx->buf;
 175              		.loc 1 100 5 is_stmt 1 view .LVU57
 176              	.LVL31:
 101:Middlewares/tensorflow/third_party/cmsis_nn/Source/SVDFunctions/arm_svdf_s8.c **** 
 102:Middlewares/tensorflow/third_party/cmsis_nn/Source/SVDFunctions/arm_svdf_s8.c ****     // Left shift state
 103:Middlewares/tensorflow/third_party/cmsis_nn/Source/SVDFunctions/arm_svdf_s8.c ****     memmove((int8_t *)state_data,
 177              		.loc 1 103 5 view .LVU58
 104:Middlewares/tensorflow/third_party/cmsis_nn/Source/SVDFunctions/arm_svdf_s8.c ****             (int8_t *)state_data + 1,
 105:Middlewares/tensorflow/third_party/cmsis_nn/Source/SVDFunctions/arm_svdf_s8.c ****             (size_t)((input_batches * feature_batches * time_batches - 1) * (int32_t)sizeof(int8_t)
 178              		.loc 1 105 37 is_stmt 0 view .LVU59
 179 0066 0B99     		ldr	r1, [sp, #44]
 180              	.LVL32:
 181              		.loc 1 105 37 view .LVU60
ARM GAS  /tmp/ccReUFVW.s 			page 6


 182 0068 04FB01F2 		mul	r2, r4, r1
 183              		.loc 1 105 55 view .LVU61
 184 006c 06FB02F2 		mul	r2, r6, r2
 103:Middlewares/tensorflow/third_party/cmsis_nn/Source/SVDFunctions/arm_svdf_s8.c ****             (int8_t *)state_data + 1,
 185              		.loc 1 103 5 view .LVU62
 186 0070 013A     		subs	r2, r2, #1
 187 0072 691C     		adds	r1, r5, #1
 188 0074 2846     		mov	r0, r5
 189              	.LVL33:
 103:Middlewares/tensorflow/third_party/cmsis_nn/Source/SVDFunctions/arm_svdf_s8.c ****             (int8_t *)state_data + 1,
 190              		.loc 1 103 5 view .LVU63
 191 0076 FFF7FEFF 		bl	memmove
 192              	.LVL34:
 106:Middlewares/tensorflow/third_party/cmsis_nn/Source/SVDFunctions/arm_svdf_s8.c **** 
 107:Middlewares/tensorflow/third_party/cmsis_nn/Source/SVDFunctions/arm_svdf_s8.c ****     // Matrix multiplication input * feature weight
 108:Middlewares/tensorflow/third_party/cmsis_nn/Source/SVDFunctions/arm_svdf_s8.c ****     for (int i_batch = 0; i_batch < input_batches; i_batch++)
 193              		.loc 1 108 5 is_stmt 1 view .LVU64
 194              	.LBB85:
 195              		.loc 1 108 10 view .LVU65
 196              		.loc 1 108 14 is_stmt 0 view .LVU66
 197 007a 0024     		movs	r4, #0
 198              	.LVL35:
 199              		.loc 1 108 14 view .LVU67
 200 007c 1797     		str	r7, [sp, #92]
 201 007e 4746     		mov	r7, r8
 202              	.LVL36:
 203              		.loc 1 108 14 view .LVU68
 204 0080 A846     		mov	r8, r5
 205              	.LVL37:
 206              		.loc 1 108 14 view .LVU69
 207 0082 109D     		ldr	r5, [sp, #64]
 208              		.loc 1 108 5 view .LVU70
 209 0084 00E0     		b	.L3
 210              	.LVL38:
 211              	.L57:
 212              		.loc 1 108 52 is_stmt 1 discriminator 2 view .LVU71
 213              		.loc 1 108 59 is_stmt 0 discriminator 2 view .LVU72
 214 0086 0134     		adds	r4, r4, #1
 215              	.LVL39:
 216              	.L3:
 217              		.loc 1 108 27 is_stmt 1 discriminator 1 view .LVU73
 218              		.loc 1 108 5 is_stmt 0 discriminator 1 view .LVU74
 219 0088 0B9B     		ldr	r3, [sp, #44]
 220 008a 9C42     		cmp	r4, r3
 221 008c 1FDA     		bge	.L56
 222              	.LBB86:
 109:Middlewares/tensorflow/third_party/cmsis_nn/Source/SVDFunctions/arm_svdf_s8.c ****     {
 110:Middlewares/tensorflow/third_party/cmsis_nn/Source/SVDFunctions/arm_svdf_s8.c ****         int8_t *res_ptr = state_data + (time_batches * i_batch * feature_batches) + (time_batches -
 223              		.loc 1 110 9 is_stmt 1 view .LVU75
 224              		.loc 1 110 54 is_stmt 0 view .LVU76
 225 008e 06FB04F3 		mul	r3, r6, r4
 226              		.loc 1 110 83 view .LVU77
 227 0092 05FB0363 		mla	r3, r5, r3, r6
 228 0096 013B     		subs	r3, r3, #1
 229              	.LVL40:
 111:Middlewares/tensorflow/third_party/cmsis_nn/Source/SVDFunctions/arm_svdf_s8.c ****         const int8_t *weight = weights_feature_data;
 230              		.loc 1 111 9 is_stmt 1 view .LVU78
ARM GAS  /tmp/ccReUFVW.s 			page 7


 112:Middlewares/tensorflow/third_party/cmsis_nn/Source/SVDFunctions/arm_svdf_s8.c ****         const int8_t *input = input_data + i_batch * input_height;
 231              		.loc 1 112 9 view .LVU79
 113:Middlewares/tensorflow/third_party/cmsis_nn/Source/SVDFunctions/arm_svdf_s8.c **** 
 114:Middlewares/tensorflow/third_party/cmsis_nn/Source/SVDFunctions/arm_svdf_s8.c ****         arm_cmsis_nn_status res = arm_nn_vec_mat_mult_t_s8(input,
 232              		.loc 1 114 9 view .LVU80
 233              		.loc 1 114 35 is_stmt 0 view .LVU81
 234 0098 0896     		str	r6, [sp, #32]
 235 009a CDF81C90 		str	r9, [sp, #28]
 236 009e CDF818A0 		str	r10, [sp, #24]
 237 00a2 0595     		str	r5, [sp, #20]
 238 00a4 0497     		str	r7, [sp, #16]
 239 00a6 0D9A     		ldr	r2, [sp, #52]
 240 00a8 0392     		str	r2, [sp, #12]
 241 00aa 0C9A     		ldr	r2, [sp, #48]
 242 00ac 0292     		str	r2, [sp, #8]
 243 00ae 0022     		movs	r2, #0
 244 00b0 0192     		str	r2, [sp, #4]
 245 00b2 CBF10001 		rsb	r1, fp, #0
 246 00b6 0091     		str	r1, [sp]
 247 00b8 4344     		add	r3, r3, r8
 248              	.LVL41:
 249              		.loc 1 114 35 view .LVU82
 250 00ba 2899     		ldr	r1, [sp, #160]
 251 00bc 2498     		ldr	r0, [sp, #144]
 252 00be 07FB0400 		mla	r0, r7, r4, r0
 253              	.LVL42:
 254              		.loc 1 114 35 view .LVU83
 255 00c2 FFF7FEFF 		bl	arm_nn_vec_mat_mult_t_s8
 256              	.LVL43:
 115:Middlewares/tensorflow/third_party/cmsis_nn/Source/SVDFunctions/arm_svdf_s8.c ****                                                            weight,
 116:Middlewares/tensorflow/third_party/cmsis_nn/Source/SVDFunctions/arm_svdf_s8.c ****                                                            NULL,
 117:Middlewares/tensorflow/third_party/cmsis_nn/Source/SVDFunctions/arm_svdf_s8.c ****                                                            res_ptr,
 118:Middlewares/tensorflow/third_party/cmsis_nn/Source/SVDFunctions/arm_svdf_s8.c ****                                                            -zp_in,
 119:Middlewares/tensorflow/third_party/cmsis_nn/Source/SVDFunctions/arm_svdf_s8.c ****                                                            0,
 120:Middlewares/tensorflow/third_party/cmsis_nn/Source/SVDFunctions/arm_svdf_s8.c ****                                                            multiplier_in,
 121:Middlewares/tensorflow/third_party/cmsis_nn/Source/SVDFunctions/arm_svdf_s8.c ****                                                            shift_in,
 122:Middlewares/tensorflow/third_party/cmsis_nn/Source/SVDFunctions/arm_svdf_s8.c ****                                                            input_height,
 123:Middlewares/tensorflow/third_party/cmsis_nn/Source/SVDFunctions/arm_svdf_s8.c ****                                                            feature_batches,
 124:Middlewares/tensorflow/third_party/cmsis_nn/Source/SVDFunctions/arm_svdf_s8.c ****                                                            in_activation_min,
 125:Middlewares/tensorflow/third_party/cmsis_nn/Source/SVDFunctions/arm_svdf_s8.c ****                                                            in_activation_max,
 126:Middlewares/tensorflow/third_party/cmsis_nn/Source/SVDFunctions/arm_svdf_s8.c ****                                                            time_batches);
 127:Middlewares/tensorflow/third_party/cmsis_nn/Source/SVDFunctions/arm_svdf_s8.c **** 
 128:Middlewares/tensorflow/third_party/cmsis_nn/Source/SVDFunctions/arm_svdf_s8.c ****         if (res != ARM_CMSIS_NN_SUCCESS)
 257              		.loc 1 128 9 is_stmt 1 view .LVU84
 258              		.loc 1 128 12 is_stmt 0 view .LVU85
 259 00c6 0346     		mov	r3, r0
 260 00c8 0028     		cmp	r0, #0
 261 00ca DCD0     		beq	.L57
 262 00cc 51E1     		b	.L2
 263              	.LVL44:
 264              	.L56:
 265              		.loc 1 128 12 view .LVU86
 266 00ce 179F     		ldr	r7, [sp, #92]
 267              	.LVL45:
 268              		.loc 1 128 12 view .LVU87
 269 00d0 4546     		mov	r5, r8
 270              	.LBE86:
ARM GAS  /tmp/ccReUFVW.s 			page 8


 271              	.LBE85:
 272              	.LBB87:
 129:Middlewares/tensorflow/third_party/cmsis_nn/Source/SVDFunctions/arm_svdf_s8.c ****         {
 130:Middlewares/tensorflow/third_party/cmsis_nn/Source/SVDFunctions/arm_svdf_s8.c ****             return res;
 131:Middlewares/tensorflow/third_party/cmsis_nn/Source/SVDFunctions/arm_svdf_s8.c ****         }
 132:Middlewares/tensorflow/third_party/cmsis_nn/Source/SVDFunctions/arm_svdf_s8.c ****     }
 133:Middlewares/tensorflow/third_party/cmsis_nn/Source/SVDFunctions/arm_svdf_s8.c **** 
 134:Middlewares/tensorflow/third_party/cmsis_nn/Source/SVDFunctions/arm_svdf_s8.c ****     // Matrix multiplicate time weight * state tensors
 135:Middlewares/tensorflow/third_party/cmsis_nn/Source/SVDFunctions/arm_svdf_s8.c ****     {
 136:Middlewares/tensorflow/third_party/cmsis_nn/Source/SVDFunctions/arm_svdf_s8.c ****         int32_t *ptr_a = buffer_a;
 273              		.loc 1 136 18 view .LVU88
 274 00d2 DDF844B0 		ldr	fp, [sp, #68]
 275              	.LVL46:
 276              	.LBB88:
 137:Middlewares/tensorflow/third_party/cmsis_nn/Source/SVDFunctions/arm_svdf_s8.c ****         const int8_t *v2 = state_data;
 138:Middlewares/tensorflow/third_party/cmsis_nn/Source/SVDFunctions/arm_svdf_s8.c ****         for (int i_batch = 0; i_batch < input_batches; i_batch++)
 277              		.loc 1 138 18 view .LVU89
 278 00d6 0023     		movs	r3, #0
 279 00d8 0C93     		str	r3, [sp, #48]
 280              	.LVL47:
 281              		.loc 1 138 18 view .LVU90
 282 00da 0D97     		str	r7, [sp, #52]
 283              	.LVL48:
 284              		.loc 1 138 18 view .LVU91
 285 00dc DDF840A0 		ldr	r10, [sp, #64]
 286              	.LVL49:
 287              		.loc 1 138 18 view .LVU92
 288 00e0 33E0     		b	.L5
 289              	.LVL50:
 290              	.L7:
 291              	.LBB89:
 292              	.LBB90:
 293              	.LBB91:
 294              	.LBB92:
 295              	.LBB93:
 139:Middlewares/tensorflow/third_party/cmsis_nn/Source/SVDFunctions/arm_svdf_s8.c ****         {
 140:Middlewares/tensorflow/third_party/cmsis_nn/Source/SVDFunctions/arm_svdf_s8.c ****             const int8_t *v1 = weights_time_data;
 141:Middlewares/tensorflow/third_party/cmsis_nn/Source/SVDFunctions/arm_svdf_s8.c **** 
 142:Middlewares/tensorflow/third_party/cmsis_nn/Source/SVDFunctions/arm_svdf_s8.c ****             for (int i_feature_batch = 0; i_feature_batch < feature_batches; i_feature_batch++)
 143:Middlewares/tensorflow/third_party/cmsis_nn/Source/SVDFunctions/arm_svdf_s8.c ****             {
 144:Middlewares/tensorflow/third_party/cmsis_nn/Source/SVDFunctions/arm_svdf_s8.c ****                 *ptr_a = 0;
 145:Middlewares/tensorflow/third_party/cmsis_nn/Source/SVDFunctions/arm_svdf_s8.c ****                 int32_t sum = 0;
 146:Middlewares/tensorflow/third_party/cmsis_nn/Source/SVDFunctions/arm_svdf_s8.c **** #if defined(ARM_MATH_DSP) && !defined(ARM_MATH_MVEI)
 147:Middlewares/tensorflow/third_party/cmsis_nn/Source/SVDFunctions/arm_svdf_s8.c ****                 // Perform matrix multiplication in blocks of four
 148:Middlewares/tensorflow/third_party/cmsis_nn/Source/SVDFunctions/arm_svdf_s8.c ****                 int j = 0;
 149:Middlewares/tensorflow/third_party/cmsis_nn/Source/SVDFunctions/arm_svdf_s8.c ****                 int32_t block_count = time_batches >> 2;
 150:Middlewares/tensorflow/third_party/cmsis_nn/Source/SVDFunctions/arm_svdf_s8.c ****                 for (int i = 0; i < block_count; i++)
 151:Middlewares/tensorflow/third_party/cmsis_nn/Source/SVDFunctions/arm_svdf_s8.c ****                 {
 152:Middlewares/tensorflow/third_party/cmsis_nn/Source/SVDFunctions/arm_svdf_s8.c ****                     j += 4;
 296              		.loc 1 152 21 is_stmt 1 discriminator 3 view .LVU93
 297              		.loc 1 152 23 is_stmt 0 discriminator 3 view .LVU94
 298 00e2 0430     		adds	r0, r0, #4
 299              	.LVL51:
 153:Middlewares/tensorflow/third_party/cmsis_nn/Source/SVDFunctions/arm_svdf_s8.c **** 
 154:Middlewares/tensorflow/third_party/cmsis_nn/Source/SVDFunctions/arm_svdf_s8.c ****                     int32_t r1_1, r1_2, r2_1, r2_2;
 300              		.loc 1 154 21 is_stmt 1 discriminator 3 view .LVU95
 155:Middlewares/tensorflow/third_party/cmsis_nn/Source/SVDFunctions/arm_svdf_s8.c ****                     v1 = read_and_pad_reordered(v1, &r1_1, &r1_2);
ARM GAS  /tmp/ccReUFVW.s 			page 9


 301              		.loc 1 155 21 discriminator 3 view .LVU96
 302              	.LBB94:
 303              	.LBI94:
 304              		.file 2 "Middlewares/tensorflow/third_party/cmsis_nn/Include/arm_nnsupportfunctions.h"
   1:Middlewares/tensorflow/third_party/cmsis_nn/Include/arm_nnsupportfunctions.h **** /*
   2:Middlewares/tensorflow/third_party/cmsis_nn/Include/arm_nnsupportfunctions.h ****  * SPDX-FileCopyrightText: Copyright 2010-2023 Arm Limited and/or its affiliates <open-source-offic
   3:Middlewares/tensorflow/third_party/cmsis_nn/Include/arm_nnsupportfunctions.h ****  *
   4:Middlewares/tensorflow/third_party/cmsis_nn/Include/arm_nnsupportfunctions.h ****  * SPDX-License-Identifier: Apache-2.0
   5:Middlewares/tensorflow/third_party/cmsis_nn/Include/arm_nnsupportfunctions.h ****  *
   6:Middlewares/tensorflow/third_party/cmsis_nn/Include/arm_nnsupportfunctions.h ****  * Licensed under the Apache License, Version 2.0 (the License); you may
   7:Middlewares/tensorflow/third_party/cmsis_nn/Include/arm_nnsupportfunctions.h ****  * not use this file except in compliance with the License.
   8:Middlewares/tensorflow/third_party/cmsis_nn/Include/arm_nnsupportfunctions.h ****  * You may obtain a copy of the License at
   9:Middlewares/tensorflow/third_party/cmsis_nn/Include/arm_nnsupportfunctions.h ****  *
  10:Middlewares/tensorflow/third_party/cmsis_nn/Include/arm_nnsupportfunctions.h ****  * www.apache.org/licenses/LICENSE-2.0
  11:Middlewares/tensorflow/third_party/cmsis_nn/Include/arm_nnsupportfunctions.h ****  *
  12:Middlewares/tensorflow/third_party/cmsis_nn/Include/arm_nnsupportfunctions.h ****  * Unless required by applicable law or agreed to in writing, software
  13:Middlewares/tensorflow/third_party/cmsis_nn/Include/arm_nnsupportfunctions.h ****  * distributed under the License is distributed on an AS IS BASIS, WITHOUT
  14:Middlewares/tensorflow/third_party/cmsis_nn/Include/arm_nnsupportfunctions.h ****  * WARRANTIES OR CONDITIONS OF ANY KIND, either express or implied.
  15:Middlewares/tensorflow/third_party/cmsis_nn/Include/arm_nnsupportfunctions.h ****  * See the License for the specific language governing permissions and
  16:Middlewares/tensorflow/third_party/cmsis_nn/Include/arm_nnsupportfunctions.h ****  * limitations under the License.
  17:Middlewares/tensorflow/third_party/cmsis_nn/Include/arm_nnsupportfunctions.h ****  */
  18:Middlewares/tensorflow/third_party/cmsis_nn/Include/arm_nnsupportfunctions.h **** 
  19:Middlewares/tensorflow/third_party/cmsis_nn/Include/arm_nnsupportfunctions.h **** /* ----------------------------------------------------------------------
  20:Middlewares/tensorflow/third_party/cmsis_nn/Include/arm_nnsupportfunctions.h ****  * Project:      CMSIS NN Library
  21:Middlewares/tensorflow/third_party/cmsis_nn/Include/arm_nnsupportfunctions.h ****  * Title:        arm_nnsupportfunctions.h
  22:Middlewares/tensorflow/third_party/cmsis_nn/Include/arm_nnsupportfunctions.h ****  * Description:  Public header file of support functions for CMSIS NN Library
  23:Middlewares/tensorflow/third_party/cmsis_nn/Include/arm_nnsupportfunctions.h ****  *
  24:Middlewares/tensorflow/third_party/cmsis_nn/Include/arm_nnsupportfunctions.h ****  * $Date:        13 Februari 2023
  25:Middlewares/tensorflow/third_party/cmsis_nn/Include/arm_nnsupportfunctions.h ****  * $Revision:    V.15.0.0
  26:Middlewares/tensorflow/third_party/cmsis_nn/Include/arm_nnsupportfunctions.h ****  *
  27:Middlewares/tensorflow/third_party/cmsis_nn/Include/arm_nnsupportfunctions.h ****  * Target :  Arm(R) M-Profile Architecture
  28:Middlewares/tensorflow/third_party/cmsis_nn/Include/arm_nnsupportfunctions.h ****  * -------------------------------------------------------------------- */
  29:Middlewares/tensorflow/third_party/cmsis_nn/Include/arm_nnsupportfunctions.h **** 
  30:Middlewares/tensorflow/third_party/cmsis_nn/Include/arm_nnsupportfunctions.h **** #ifndef _ARM_NNSUPPORTFUNCTIONS_H_
  31:Middlewares/tensorflow/third_party/cmsis_nn/Include/arm_nnsupportfunctions.h **** #define _ARM_NNSUPPORTFUNCTIONS_H_
  32:Middlewares/tensorflow/third_party/cmsis_nn/Include/arm_nnsupportfunctions.h **** 
  33:Middlewares/tensorflow/third_party/cmsis_nn/Include/arm_nnsupportfunctions.h **** #include "Internal/arm_nn_compiler.h"
  34:Middlewares/tensorflow/third_party/cmsis_nn/Include/arm_nnsupportfunctions.h **** #include "arm_nn_math_types.h"
  35:Middlewares/tensorflow/third_party/cmsis_nn/Include/arm_nnsupportfunctions.h **** #include "arm_nn_types.h"
  36:Middlewares/tensorflow/third_party/cmsis_nn/Include/arm_nnsupportfunctions.h **** 
  37:Middlewares/tensorflow/third_party/cmsis_nn/Include/arm_nnsupportfunctions.h **** #include <stdbool.h>
  38:Middlewares/tensorflow/third_party/cmsis_nn/Include/arm_nnsupportfunctions.h **** 
  39:Middlewares/tensorflow/third_party/cmsis_nn/Include/arm_nnsupportfunctions.h **** #ifdef __cplusplus
  40:Middlewares/tensorflow/third_party/cmsis_nn/Include/arm_nnsupportfunctions.h **** extern "C" {
  41:Middlewares/tensorflow/third_party/cmsis_nn/Include/arm_nnsupportfunctions.h **** #endif
  42:Middlewares/tensorflow/third_party/cmsis_nn/Include/arm_nnsupportfunctions.h **** 
  43:Middlewares/tensorflow/third_party/cmsis_nn/Include/arm_nnsupportfunctions.h **** #define USE_FAST_DW_CONV_S16_FUNCTION(dw_conv_params, filter_dims, input_dims)                     
  44:Middlewares/tensorflow/third_party/cmsis_nn/Include/arm_nnsupportfunctions.h ****     (dw_conv_params->ch_mult == 1 && dw_conv_params->dilation.w == 1 && dw_conv_params->dilation.h 
  45:Middlewares/tensorflow/third_party/cmsis_nn/Include/arm_nnsupportfunctions.h ****      filter_dims->w * filter_dims->h < 512)
  46:Middlewares/tensorflow/third_party/cmsis_nn/Include/arm_nnsupportfunctions.h **** 
  47:Middlewares/tensorflow/third_party/cmsis_nn/Include/arm_nnsupportfunctions.h **** #define LEFT_SHIFT(_shift) (_shift > 0 ? _shift : 0)
  48:Middlewares/tensorflow/third_party/cmsis_nn/Include/arm_nnsupportfunctions.h **** #define RIGHT_SHIFT(_shift) (_shift > 0 ? 0 : -_shift)
  49:Middlewares/tensorflow/third_party/cmsis_nn/Include/arm_nnsupportfunctions.h **** #define MASK_IF_ZERO(x) (x) == 0 ? ~0 : 0
  50:Middlewares/tensorflow/third_party/cmsis_nn/Include/arm_nnsupportfunctions.h **** #define MASK_IF_NON_ZERO(x) (x) != 0 ? ~0 : 0
  51:Middlewares/tensorflow/third_party/cmsis_nn/Include/arm_nnsupportfunctions.h **** #define SELECT_USING_MASK(mask, a, b) ((mask) & (a)) ^ (~(mask) & (b))
  52:Middlewares/tensorflow/third_party/cmsis_nn/Include/arm_nnsupportfunctions.h **** 
  53:Middlewares/tensorflow/third_party/cmsis_nn/Include/arm_nnsupportfunctions.h **** #define MAX(A, B) ((A) > (B) ? (A) : (B))
ARM GAS  /tmp/ccReUFVW.s 			page 10


  54:Middlewares/tensorflow/third_party/cmsis_nn/Include/arm_nnsupportfunctions.h **** #define MIN(A, B) ((A) < (B) ? (A) : (B))
  55:Middlewares/tensorflow/third_party/cmsis_nn/Include/arm_nnsupportfunctions.h **** #define CLAMP(x, h, l) MAX(MIN((x), (h)), (l))
  56:Middlewares/tensorflow/third_party/cmsis_nn/Include/arm_nnsupportfunctions.h **** #define REDUCE_MULTIPLIER(_mult) ((_mult < 0x7FFF0000) ? ((_mult + (1 << 15)) >> 16) : 0x7FFF)
  57:Middlewares/tensorflow/third_party/cmsis_nn/Include/arm_nnsupportfunctions.h **** 
  58:Middlewares/tensorflow/third_party/cmsis_nn/Include/arm_nnsupportfunctions.h **** // Number of channels processed in a block for DW Conv(MVE)
  59:Middlewares/tensorflow/third_party/cmsis_nn/Include/arm_nnsupportfunctions.h **** // Requirement: Greater than 0 & less than 128
  60:Middlewares/tensorflow/third_party/cmsis_nn/Include/arm_nnsupportfunctions.h **** // This can be fine tuned to match number of input channels for best performance.
  61:Middlewares/tensorflow/third_party/cmsis_nn/Include/arm_nnsupportfunctions.h **** // A layer with lower number of channels than CH_IN_BLOCK_MVE will result in higher
  62:Middlewares/tensorflow/third_party/cmsis_nn/Include/arm_nnsupportfunctions.h **** // scratch buffer usage and a layer with higher number of channels than CH_IN_BLOCK_MVE
  63:Middlewares/tensorflow/third_party/cmsis_nn/Include/arm_nnsupportfunctions.h **** // will result in lower scratch buffer usage.
  64:Middlewares/tensorflow/third_party/cmsis_nn/Include/arm_nnsupportfunctions.h **** #define CH_IN_BLOCK_MVE (124)
  65:Middlewares/tensorflow/third_party/cmsis_nn/Include/arm_nnsupportfunctions.h **** 
  66:Middlewares/tensorflow/third_party/cmsis_nn/Include/arm_nnsupportfunctions.h **** /**
  67:Middlewares/tensorflow/third_party/cmsis_nn/Include/arm_nnsupportfunctions.h ****  * @brief definition to pack four 8 bit values.
  68:Middlewares/tensorflow/third_party/cmsis_nn/Include/arm_nnsupportfunctions.h ****  */
  69:Middlewares/tensorflow/third_party/cmsis_nn/Include/arm_nnsupportfunctions.h **** #define PACK_S8x4_32x1(v0, v1, v2, v3)                                                             
  70:Middlewares/tensorflow/third_party/cmsis_nn/Include/arm_nnsupportfunctions.h ****     ((((int32_t)(v0) << 0) & (int32_t)0x000000FF) | (((int32_t)(v1) << 8) & (int32_t)0x0000FF00) | 
  71:Middlewares/tensorflow/third_party/cmsis_nn/Include/arm_nnsupportfunctions.h ****      (((int32_t)(v2) << 16) & (int32_t)0x00FF0000) | (((int32_t)(v3) << 24) & (int32_t)0xFF000000))
  72:Middlewares/tensorflow/third_party/cmsis_nn/Include/arm_nnsupportfunctions.h **** 
  73:Middlewares/tensorflow/third_party/cmsis_nn/Include/arm_nnsupportfunctions.h **** /**
  74:Middlewares/tensorflow/third_party/cmsis_nn/Include/arm_nnsupportfunctions.h ****  * @brief definition to pack two 16 bit values.
  75:Middlewares/tensorflow/third_party/cmsis_nn/Include/arm_nnsupportfunctions.h ****  */
  76:Middlewares/tensorflow/third_party/cmsis_nn/Include/arm_nnsupportfunctions.h **** #define PACK_Q15x2_32x1(v0, v1) (((int32_t)v0 & (int32_t)0xFFFF) | ((int32_t)v1 << 16))
  77:Middlewares/tensorflow/third_party/cmsis_nn/Include/arm_nnsupportfunctions.h **** 
  78:Middlewares/tensorflow/third_party/cmsis_nn/Include/arm_nnsupportfunctions.h **** /**
  79:Middlewares/tensorflow/third_party/cmsis_nn/Include/arm_nnsupportfunctions.h ****  * @brief Union for SIMD access of q31/s16/s8 types
  80:Middlewares/tensorflow/third_party/cmsis_nn/Include/arm_nnsupportfunctions.h ****  */
  81:Middlewares/tensorflow/third_party/cmsis_nn/Include/arm_nnsupportfunctions.h **** union arm_nnword
  82:Middlewares/tensorflow/third_party/cmsis_nn/Include/arm_nnsupportfunctions.h **** {
  83:Middlewares/tensorflow/third_party/cmsis_nn/Include/arm_nnsupportfunctions.h ****     int32_t word;
  84:Middlewares/tensorflow/third_party/cmsis_nn/Include/arm_nnsupportfunctions.h ****     /**< q31 type */
  85:Middlewares/tensorflow/third_party/cmsis_nn/Include/arm_nnsupportfunctions.h ****     int16_t half_words[2];
  86:Middlewares/tensorflow/third_party/cmsis_nn/Include/arm_nnsupportfunctions.h ****     /**< s16 type */
  87:Middlewares/tensorflow/third_party/cmsis_nn/Include/arm_nnsupportfunctions.h ****     int8_t bytes[4];
  88:Middlewares/tensorflow/third_party/cmsis_nn/Include/arm_nnsupportfunctions.h ****     /**< s8 type */
  89:Middlewares/tensorflow/third_party/cmsis_nn/Include/arm_nnsupportfunctions.h **** };
  90:Middlewares/tensorflow/third_party/cmsis_nn/Include/arm_nnsupportfunctions.h **** 
  91:Middlewares/tensorflow/third_party/cmsis_nn/Include/arm_nnsupportfunctions.h **** /**
  92:Middlewares/tensorflow/third_party/cmsis_nn/Include/arm_nnsupportfunctions.h ****  * @brief Union for data type long long
  93:Middlewares/tensorflow/third_party/cmsis_nn/Include/arm_nnsupportfunctions.h ****  */
  94:Middlewares/tensorflow/third_party/cmsis_nn/Include/arm_nnsupportfunctions.h **** struct arm_nn_double
  95:Middlewares/tensorflow/third_party/cmsis_nn/Include/arm_nnsupportfunctions.h **** {
  96:Middlewares/tensorflow/third_party/cmsis_nn/Include/arm_nnsupportfunctions.h ****     uint32_t low;
  97:Middlewares/tensorflow/third_party/cmsis_nn/Include/arm_nnsupportfunctions.h ****     int32_t high;
  98:Middlewares/tensorflow/third_party/cmsis_nn/Include/arm_nnsupportfunctions.h **** };
  99:Middlewares/tensorflow/third_party/cmsis_nn/Include/arm_nnsupportfunctions.h **** 
 100:Middlewares/tensorflow/third_party/cmsis_nn/Include/arm_nnsupportfunctions.h **** union arm_nn_long_long
 101:Middlewares/tensorflow/third_party/cmsis_nn/Include/arm_nnsupportfunctions.h **** {
 102:Middlewares/tensorflow/third_party/cmsis_nn/Include/arm_nnsupportfunctions.h ****     int64_t long_long;
 103:Middlewares/tensorflow/third_party/cmsis_nn/Include/arm_nnsupportfunctions.h ****     struct arm_nn_double word;
 104:Middlewares/tensorflow/third_party/cmsis_nn/Include/arm_nnsupportfunctions.h **** };
 105:Middlewares/tensorflow/third_party/cmsis_nn/Include/arm_nnsupportfunctions.h **** 
 106:Middlewares/tensorflow/third_party/cmsis_nn/Include/arm_nnsupportfunctions.h **** /**
 107:Middlewares/tensorflow/third_party/cmsis_nn/Include/arm_nnsupportfunctions.h ****  * @defgroup groupSupport Private
 108:Middlewares/tensorflow/third_party/cmsis_nn/Include/arm_nnsupportfunctions.h ****  *
 109:Middlewares/tensorflow/third_party/cmsis_nn/Include/arm_nnsupportfunctions.h ****  * Internal Support functions. Not intended to be called direclty by a CMSIS-NN user.
 110:Middlewares/tensorflow/third_party/cmsis_nn/Include/arm_nnsupportfunctions.h ****  *
ARM GAS  /tmp/ccReUFVW.s 			page 11


 111:Middlewares/tensorflow/third_party/cmsis_nn/Include/arm_nnsupportfunctions.h ****  */
 112:Middlewares/tensorflow/third_party/cmsis_nn/Include/arm_nnsupportfunctions.h **** 
 113:Middlewares/tensorflow/third_party/cmsis_nn/Include/arm_nnsupportfunctions.h **** /**
 114:Middlewares/tensorflow/third_party/cmsis_nn/Include/arm_nnsupportfunctions.h ****  * @defgroup supportConversion Data Conversion
 115:Middlewares/tensorflow/third_party/cmsis_nn/Include/arm_nnsupportfunctions.h ****  *
 116:Middlewares/tensorflow/third_party/cmsis_nn/Include/arm_nnsupportfunctions.h ****  * Perform data type conversion in-between neural network operations
 117:Middlewares/tensorflow/third_party/cmsis_nn/Include/arm_nnsupportfunctions.h ****  *
 118:Middlewares/tensorflow/third_party/cmsis_nn/Include/arm_nnsupportfunctions.h ****  */
 119:Middlewares/tensorflow/third_party/cmsis_nn/Include/arm_nnsupportfunctions.h **** 
 120:Middlewares/tensorflow/third_party/cmsis_nn/Include/arm_nnsupportfunctions.h **** /**
 121:Middlewares/tensorflow/third_party/cmsis_nn/Include/arm_nnsupportfunctions.h ****  * @brief Converts the elements from a s8 vector to a s16 vector with an added offset
 122:Middlewares/tensorflow/third_party/cmsis_nn/Include/arm_nnsupportfunctions.h ****  * @param[in]    src        pointer to the s8 input vector
 123:Middlewares/tensorflow/third_party/cmsis_nn/Include/arm_nnsupportfunctions.h ****  * @param[out]   dst        pointer to the s16 output vector
 124:Middlewares/tensorflow/third_party/cmsis_nn/Include/arm_nnsupportfunctions.h ****  * @param[in]    block_size length of the input vector
 125:Middlewares/tensorflow/third_party/cmsis_nn/Include/arm_nnsupportfunctions.h ****  * @param[in]    offset     s8 offset to be added to each input vector element.
 126:Middlewares/tensorflow/third_party/cmsis_nn/Include/arm_nnsupportfunctions.h ****  *
 127:Middlewares/tensorflow/third_party/cmsis_nn/Include/arm_nnsupportfunctions.h ****  * \par Description:
 128:Middlewares/tensorflow/third_party/cmsis_nn/Include/arm_nnsupportfunctions.h ****  *
 129:Middlewares/tensorflow/third_party/cmsis_nn/Include/arm_nnsupportfunctions.h ****  * The equation used for the conversion process is:
 130:Middlewares/tensorflow/third_party/cmsis_nn/Include/arm_nnsupportfunctions.h ****  *
 131:Middlewares/tensorflow/third_party/cmsis_nn/Include/arm_nnsupportfunctions.h ****  * <pre>
 132:Middlewares/tensorflow/third_party/cmsis_nn/Include/arm_nnsupportfunctions.h ****  *  dst[n] = (int16_t) src[n] + offset;   0 <= n < block_size.
 133:Middlewares/tensorflow/third_party/cmsis_nn/Include/arm_nnsupportfunctions.h ****  * </pre>
 134:Middlewares/tensorflow/third_party/cmsis_nn/Include/arm_nnsupportfunctions.h ****  *
 135:Middlewares/tensorflow/third_party/cmsis_nn/Include/arm_nnsupportfunctions.h ****  */
 136:Middlewares/tensorflow/third_party/cmsis_nn/Include/arm_nnsupportfunctions.h **** void arm_q7_to_q15_with_offset(const int8_t *src, int16_t *dst, uint32_t block_size, int16_t offset
 137:Middlewares/tensorflow/third_party/cmsis_nn/Include/arm_nnsupportfunctions.h **** 
 138:Middlewares/tensorflow/third_party/cmsis_nn/Include/arm_nnsupportfunctions.h **** /**
 139:Middlewares/tensorflow/third_party/cmsis_nn/Include/arm_nnsupportfunctions.h ****  * @brief Depthwise conv on an im2col buffer where the input channel equals output channel.
 140:Middlewares/tensorflow/third_party/cmsis_nn/Include/arm_nnsupportfunctions.h ****  * @param[in]    row     pointer to row
 141:Middlewares/tensorflow/third_party/cmsis_nn/Include/arm_nnsupportfunctions.h ****  * @param[in]    col     pointer to im2col buffer, always consists of 2 columns.
 142:Middlewares/tensorflow/third_party/cmsis_nn/Include/arm_nnsupportfunctions.h ****  * @param[in]    num_ch   number of channels
 143:Middlewares/tensorflow/third_party/cmsis_nn/Include/arm_nnsupportfunctions.h ****  * @param[in]    out_shift  pointer to per output channel requantization shift parameter.
 144:Middlewares/tensorflow/third_party/cmsis_nn/Include/arm_nnsupportfunctions.h ****  * @param[in]    out_mult   pointer to per output channel requantization multiplier parameter.
 145:Middlewares/tensorflow/third_party/cmsis_nn/Include/arm_nnsupportfunctions.h ****  * @param[in]    out_offset      output tensor offset.
 146:Middlewares/tensorflow/third_party/cmsis_nn/Include/arm_nnsupportfunctions.h ****  * @param[in]    activation_min   minimum value to clamp the output to. Range : int8
 147:Middlewares/tensorflow/third_party/cmsis_nn/Include/arm_nnsupportfunctions.h ****  * @param[in]    activation_max   maximum value to clamp the output to. Range : int8
 148:Middlewares/tensorflow/third_party/cmsis_nn/Include/arm_nnsupportfunctions.h ****  * @param[in]    kernel_size   number of elements in one column.
 149:Middlewares/tensorflow/third_party/cmsis_nn/Include/arm_nnsupportfunctions.h ****  * @param[in]    output_bias per output channel bias. Range : int32
 150:Middlewares/tensorflow/third_party/cmsis_nn/Include/arm_nnsupportfunctions.h ****  * @param[out]   out         pointer to output
 151:Middlewares/tensorflow/third_party/cmsis_nn/Include/arm_nnsupportfunctions.h ****  * @return     The function returns one of the two
 152:Middlewares/tensorflow/third_party/cmsis_nn/Include/arm_nnsupportfunctions.h ****  *              1. The incremented output pointer for a successful operation or
 153:Middlewares/tensorflow/third_party/cmsis_nn/Include/arm_nnsupportfunctions.h ****  *              2. NULL if implementation is not available.
 154:Middlewares/tensorflow/third_party/cmsis_nn/Include/arm_nnsupportfunctions.h ****  *
 155:Middlewares/tensorflow/third_party/cmsis_nn/Include/arm_nnsupportfunctions.h ****  * @details     Supported framework: TensorFlow Lite micro.
 156:Middlewares/tensorflow/third_party/cmsis_nn/Include/arm_nnsupportfunctions.h ****  */
 157:Middlewares/tensorflow/third_party/cmsis_nn/Include/arm_nnsupportfunctions.h **** int8_t *arm_nn_depthwise_conv_s8_core(const int8_t *row,
 158:Middlewares/tensorflow/third_party/cmsis_nn/Include/arm_nnsupportfunctions.h ****                                       const int16_t *col,
 159:Middlewares/tensorflow/third_party/cmsis_nn/Include/arm_nnsupportfunctions.h ****                                       const uint16_t num_ch,
 160:Middlewares/tensorflow/third_party/cmsis_nn/Include/arm_nnsupportfunctions.h ****                                       const int32_t *out_shift,
 161:Middlewares/tensorflow/third_party/cmsis_nn/Include/arm_nnsupportfunctions.h ****                                       const int32_t *out_mult,
 162:Middlewares/tensorflow/third_party/cmsis_nn/Include/arm_nnsupportfunctions.h ****                                       const int32_t out_offset,
 163:Middlewares/tensorflow/third_party/cmsis_nn/Include/arm_nnsupportfunctions.h ****                                       const int32_t activation_min,
 164:Middlewares/tensorflow/third_party/cmsis_nn/Include/arm_nnsupportfunctions.h ****                                       const int32_t activation_max,
 165:Middlewares/tensorflow/third_party/cmsis_nn/Include/arm_nnsupportfunctions.h ****                                       const uint16_t kernel_size,
 166:Middlewares/tensorflow/third_party/cmsis_nn/Include/arm_nnsupportfunctions.h ****                                       const int32_t *const output_bias,
 167:Middlewares/tensorflow/third_party/cmsis_nn/Include/arm_nnsupportfunctions.h ****                                       int8_t *out);
ARM GAS  /tmp/ccReUFVW.s 			page 12


 168:Middlewares/tensorflow/third_party/cmsis_nn/Include/arm_nnsupportfunctions.h **** 
 169:Middlewares/tensorflow/third_party/cmsis_nn/Include/arm_nnsupportfunctions.h **** /**
 170:Middlewares/tensorflow/third_party/cmsis_nn/Include/arm_nnsupportfunctions.h ****  * @brief General Matrix-multiplication function with per-channel requantization.
 171:Middlewares/tensorflow/third_party/cmsis_nn/Include/arm_nnsupportfunctions.h ****  * @param[in]       input_row    pointer to row operand
 172:Middlewares/tensorflow/third_party/cmsis_nn/Include/arm_nnsupportfunctions.h ****  * @param[in]       input_col    pointer to col operand
 173:Middlewares/tensorflow/third_party/cmsis_nn/Include/arm_nnsupportfunctions.h ****  * @param[in]       output_ch    number of rows of input_row
 174:Middlewares/tensorflow/third_party/cmsis_nn/Include/arm_nnsupportfunctions.h ****  * @param[in]       col_batches  number of column batches. Range: 1 to 4
 175:Middlewares/tensorflow/third_party/cmsis_nn/Include/arm_nnsupportfunctions.h ****  * @param[in]       output_shift  pointer to per output channel requantization shift parameter.
 176:Middlewares/tensorflow/third_party/cmsis_nn/Include/arm_nnsupportfunctions.h ****  * @param[in]       output_mult   pointer to per output channel requantization multiplier parameter
 177:Middlewares/tensorflow/third_party/cmsis_nn/Include/arm_nnsupportfunctions.h ****  * @param[in]       out_offset    output tensor offset.
 178:Middlewares/tensorflow/third_party/cmsis_nn/Include/arm_nnsupportfunctions.h ****  * @param[in]       col_offset    input tensor(col) offset.
 179:Middlewares/tensorflow/third_party/cmsis_nn/Include/arm_nnsupportfunctions.h ****  * @param[in]       row_offset    kernel offset(row). Not used.
 180:Middlewares/tensorflow/third_party/cmsis_nn/Include/arm_nnsupportfunctions.h ****  * @param[in]       out_activation_min   minimum value to clamp the output to. Range : int8
 181:Middlewares/tensorflow/third_party/cmsis_nn/Include/arm_nnsupportfunctions.h ****  * @param[in]       out_activation_max   maximum value to clamp the output to. Range : int8
 182:Middlewares/tensorflow/third_party/cmsis_nn/Include/arm_nnsupportfunctions.h ****  * @param[in]       row_len       number of elements in each row
 183:Middlewares/tensorflow/third_party/cmsis_nn/Include/arm_nnsupportfunctions.h ****  * @param[in]       bias          per output channel bias. Range : int32
 184:Middlewares/tensorflow/third_party/cmsis_nn/Include/arm_nnsupportfunctions.h ****  * @param[in,out]   out           pointer to output
 185:Middlewares/tensorflow/third_party/cmsis_nn/Include/arm_nnsupportfunctions.h ****  * @return     The function returns one of the two
 186:Middlewares/tensorflow/third_party/cmsis_nn/Include/arm_nnsupportfunctions.h ****  *              1. The incremented output pointer for a successful operation or
 187:Middlewares/tensorflow/third_party/cmsis_nn/Include/arm_nnsupportfunctions.h ****  *              2. NULL if implementation is not available.
 188:Middlewares/tensorflow/third_party/cmsis_nn/Include/arm_nnsupportfunctions.h ****  *
 189:Middlewares/tensorflow/third_party/cmsis_nn/Include/arm_nnsupportfunctions.h ****  * @details   Supported framework: TensorFlow Lite
 190:Middlewares/tensorflow/third_party/cmsis_nn/Include/arm_nnsupportfunctions.h ****  */
 191:Middlewares/tensorflow/third_party/cmsis_nn/Include/arm_nnsupportfunctions.h **** int8_t *arm_nn_mat_mult_s8(const int8_t *input_row,
 192:Middlewares/tensorflow/third_party/cmsis_nn/Include/arm_nnsupportfunctions.h ****                            const int8_t *input_col,
 193:Middlewares/tensorflow/third_party/cmsis_nn/Include/arm_nnsupportfunctions.h ****                            const uint16_t output_ch,
 194:Middlewares/tensorflow/third_party/cmsis_nn/Include/arm_nnsupportfunctions.h ****                            const uint16_t col_batches,
 195:Middlewares/tensorflow/third_party/cmsis_nn/Include/arm_nnsupportfunctions.h ****                            const int32_t *output_shift,
 196:Middlewares/tensorflow/third_party/cmsis_nn/Include/arm_nnsupportfunctions.h ****                            const int32_t *output_mult,
 197:Middlewares/tensorflow/third_party/cmsis_nn/Include/arm_nnsupportfunctions.h ****                            const int32_t out_offset,
 198:Middlewares/tensorflow/third_party/cmsis_nn/Include/arm_nnsupportfunctions.h ****                            const int32_t col_offset,
 199:Middlewares/tensorflow/third_party/cmsis_nn/Include/arm_nnsupportfunctions.h ****                            const int32_t row_offset,
 200:Middlewares/tensorflow/third_party/cmsis_nn/Include/arm_nnsupportfunctions.h ****                            const int16_t out_activation_min,
 201:Middlewares/tensorflow/third_party/cmsis_nn/Include/arm_nnsupportfunctions.h ****                            const int16_t out_activation_max,
 202:Middlewares/tensorflow/third_party/cmsis_nn/Include/arm_nnsupportfunctions.h ****                            const uint16_t row_len,
 203:Middlewares/tensorflow/third_party/cmsis_nn/Include/arm_nnsupportfunctions.h ****                            const int32_t *const bias,
 204:Middlewares/tensorflow/third_party/cmsis_nn/Include/arm_nnsupportfunctions.h ****                            int8_t *out);
 205:Middlewares/tensorflow/third_party/cmsis_nn/Include/arm_nnsupportfunctions.h **** /**
 206:Middlewares/tensorflow/third_party/cmsis_nn/Include/arm_nnsupportfunctions.h ****  * @brief Matrix-multiplication function for convolution with per-channel requantization for 16 bit
 207:Middlewares/tensorflow/third_party/cmsis_nn/Include/arm_nnsupportfunctions.h ****  * @param[in]       input_a     pointer to operand A
 208:Middlewares/tensorflow/third_party/cmsis_nn/Include/arm_nnsupportfunctions.h ****  * @param[in]       input_b     pointer to operand B, always consists of 2 vectors.
 209:Middlewares/tensorflow/third_party/cmsis_nn/Include/arm_nnsupportfunctions.h ****  * @param[in]       output_ch   number of rows of A
 210:Middlewares/tensorflow/third_party/cmsis_nn/Include/arm_nnsupportfunctions.h ****  * @param[in]       out_shift  pointer to per output channel requantization shift parameter.
 211:Middlewares/tensorflow/third_party/cmsis_nn/Include/arm_nnsupportfunctions.h ****  * @param[in]       out_mult   pointer to per output channel requantization multiplier parameter.
 212:Middlewares/tensorflow/third_party/cmsis_nn/Include/arm_nnsupportfunctions.h ****  * @param[in]       activation_min   minimum value to clamp the output to. Range : int16
 213:Middlewares/tensorflow/third_party/cmsis_nn/Include/arm_nnsupportfunctions.h ****  * @param[in]       activation_max   maximum value to clamp the output to. Range : int16
 214:Middlewares/tensorflow/third_party/cmsis_nn/Include/arm_nnsupportfunctions.h ****  * @param[in]       num_col_a   number of columns of A
 215:Middlewares/tensorflow/third_party/cmsis_nn/Include/arm_nnsupportfunctions.h ****  * @param[in]       output_bias per output channel bias. Range : int64
 216:Middlewares/tensorflow/third_party/cmsis_nn/Include/arm_nnsupportfunctions.h ****  * @param[in,out]   out_0       pointer to output
 217:Middlewares/tensorflow/third_party/cmsis_nn/Include/arm_nnsupportfunctions.h ****  * @return     The function returns one of the two
 218:Middlewares/tensorflow/third_party/cmsis_nn/Include/arm_nnsupportfunctions.h ****  *              1. The incremented output pointer for a successful operation or
 219:Middlewares/tensorflow/third_party/cmsis_nn/Include/arm_nnsupportfunctions.h ****  *              2. NULL if implementation is not available.
 220:Middlewares/tensorflow/third_party/cmsis_nn/Include/arm_nnsupportfunctions.h ****  *
 221:Middlewares/tensorflow/third_party/cmsis_nn/Include/arm_nnsupportfunctions.h ****  * @details   This function does the matrix multiplication of weight matrix for all output channels
 222:Middlewares/tensorflow/third_party/cmsis_nn/Include/arm_nnsupportfunctions.h ****  *            with 2 columns from im2col and produces two elements/output_channel. The outputs are
 223:Middlewares/tensorflow/third_party/cmsis_nn/Include/arm_nnsupportfunctions.h ****  *            clamped in the range provided by activation min and max.
 224:Middlewares/tensorflow/third_party/cmsis_nn/Include/arm_nnsupportfunctions.h ****  *            Supported framework: TensorFlow Lite micro.
ARM GAS  /tmp/ccReUFVW.s 			page 13


 225:Middlewares/tensorflow/third_party/cmsis_nn/Include/arm_nnsupportfunctions.h ****  */
 226:Middlewares/tensorflow/third_party/cmsis_nn/Include/arm_nnsupportfunctions.h **** int16_t *arm_nn_mat_mult_kernel_s16(const int8_t *input_a,
 227:Middlewares/tensorflow/third_party/cmsis_nn/Include/arm_nnsupportfunctions.h ****                                     const int16_t *input_b,
 228:Middlewares/tensorflow/third_party/cmsis_nn/Include/arm_nnsupportfunctions.h ****                                     const int32_t output_ch,
 229:Middlewares/tensorflow/third_party/cmsis_nn/Include/arm_nnsupportfunctions.h ****                                     const int32_t *out_shift,
 230:Middlewares/tensorflow/third_party/cmsis_nn/Include/arm_nnsupportfunctions.h ****                                     const int32_t *out_mult,
 231:Middlewares/tensorflow/third_party/cmsis_nn/Include/arm_nnsupportfunctions.h ****                                     const int16_t activation_min,
 232:Middlewares/tensorflow/third_party/cmsis_nn/Include/arm_nnsupportfunctions.h ****                                     const int16_t activation_max,
 233:Middlewares/tensorflow/third_party/cmsis_nn/Include/arm_nnsupportfunctions.h ****                                     const int32_t num_col_a,
 234:Middlewares/tensorflow/third_party/cmsis_nn/Include/arm_nnsupportfunctions.h ****                                     const int64_t *const output_bias,
 235:Middlewares/tensorflow/third_party/cmsis_nn/Include/arm_nnsupportfunctions.h ****                                     int16_t *out_0);
 236:Middlewares/tensorflow/third_party/cmsis_nn/Include/arm_nnsupportfunctions.h **** 
 237:Middlewares/tensorflow/third_party/cmsis_nn/Include/arm_nnsupportfunctions.h **** /**
 238:Middlewares/tensorflow/third_party/cmsis_nn/Include/arm_nnsupportfunctions.h ****  * @brief General Vector by Matrix multiplication with requantization and storage of result.
 239:Middlewares/tensorflow/third_party/cmsis_nn/Include/arm_nnsupportfunctions.h ****  * @param[in]       row_elements          number of row elements
 240:Middlewares/tensorflow/third_party/cmsis_nn/Include/arm_nnsupportfunctions.h ****  * @param[in]       skipped_row_elements  number of row elements skipped due to padding.
 241:Middlewares/tensorflow/third_party/cmsis_nn/Include/arm_nnsupportfunctions.h ****  *                                        row_elements + skipped_row_elements = (kernel_x * kernel_
 242:Middlewares/tensorflow/third_party/cmsis_nn/Include/arm_nnsupportfunctions.h ****  * @param[in]       row_base_ref          pointer to row operand
 243:Middlewares/tensorflow/third_party/cmsis_nn/Include/arm_nnsupportfunctions.h ****  * @param[in]       col_base_ref          pointer to col operand
 244:Middlewares/tensorflow/third_party/cmsis_nn/Include/arm_nnsupportfunctions.h ****  * @param[out]      out_ch                Number of output channels
 245:Middlewares/tensorflow/third_party/cmsis_nn/Include/arm_nnsupportfunctions.h ****  * @param[in]       conv_params           Pointer to convolution parameters like offsets and activa
 246:Middlewares/tensorflow/third_party/cmsis_nn/Include/arm_nnsupportfunctions.h ****  * @param[in]       quant_params          Pointer to per-channel quantization parameters
 247:Middlewares/tensorflow/third_party/cmsis_nn/Include/arm_nnsupportfunctions.h ****  * @param[in]       bias                  Pointer to optional per-channel bias
 248:Middlewares/tensorflow/third_party/cmsis_nn/Include/arm_nnsupportfunctions.h ****  * @param[out]      output                Pointer to output where int8 results are stored.
 249:Middlewares/tensorflow/third_party/cmsis_nn/Include/arm_nnsupportfunctions.h ****  * @return     The function performs matrix(row_base_ref) multiplication with vector(col_base_ref) 
 250:Middlewares/tensorflow/third_party/cmsis_nn/Include/arm_nnsupportfunctions.h ****  *             scaled result is stored in memory.
 251:Middlewares/tensorflow/third_party/cmsis_nn/Include/arm_nnsupportfunctions.h ****  *
 252:Middlewares/tensorflow/third_party/cmsis_nn/Include/arm_nnsupportfunctions.h ****  * @details Pseudo-code
 253:Middlewares/tensorflow/third_party/cmsis_nn/Include/arm_nnsupportfunctions.h ****  *      *output = 0
 254:Middlewares/tensorflow/third_party/cmsis_nn/Include/arm_nnsupportfunctions.h ****  *      sum_col = 0
 255:Middlewares/tensorflow/third_party/cmsis_nn/Include/arm_nnsupportfunctions.h ****  *      for (j = 0; j < out_ch; j++)
 256:Middlewares/tensorflow/third_party/cmsis_nn/Include/arm_nnsupportfunctions.h ****  *      for (i = 0; i < row_elements; i++)
 257:Middlewares/tensorflow/third_party/cmsis_nn/Include/arm_nnsupportfunctions.h ****  *          *output += row_base_ref[i] * col_base_ref[i]
 258:Middlewares/tensorflow/third_party/cmsis_nn/Include/arm_nnsupportfunctions.h ****  *          sum_col += col_base_ref[i]
 259:Middlewares/tensorflow/third_party/cmsis_nn/Include/arm_nnsupportfunctions.h ****  *      scale sum_col using quant_params and bias
 260:Middlewares/tensorflow/third_party/cmsis_nn/Include/arm_nnsupportfunctions.h ****  *      store result in 'output'
 261:Middlewares/tensorflow/third_party/cmsis_nn/Include/arm_nnsupportfunctions.h ****  *
 262:Middlewares/tensorflow/third_party/cmsis_nn/Include/arm_nnsupportfunctions.h ****  *
 263:Middlewares/tensorflow/third_party/cmsis_nn/Include/arm_nnsupportfunctions.h ****  */
 264:Middlewares/tensorflow/third_party/cmsis_nn/Include/arm_nnsupportfunctions.h **** arm_cmsis_nn_status arm_nn_mat_mul_core_1x_s8(int32_t row_elements,
 265:Middlewares/tensorflow/third_party/cmsis_nn/Include/arm_nnsupportfunctions.h ****                                               const int32_t skipped_row_elements,
 266:Middlewares/tensorflow/third_party/cmsis_nn/Include/arm_nnsupportfunctions.h ****                                               const int8_t *row_base_ref,
 267:Middlewares/tensorflow/third_party/cmsis_nn/Include/arm_nnsupportfunctions.h ****                                               const int8_t *col_base_ref,
 268:Middlewares/tensorflow/third_party/cmsis_nn/Include/arm_nnsupportfunctions.h ****                                               const int32_t out_ch,
 269:Middlewares/tensorflow/third_party/cmsis_nn/Include/arm_nnsupportfunctions.h ****                                               const cmsis_nn_conv_params *conv_params,
 270:Middlewares/tensorflow/third_party/cmsis_nn/Include/arm_nnsupportfunctions.h ****                                               const cmsis_nn_per_channel_quant_params *quant_params
 271:Middlewares/tensorflow/third_party/cmsis_nn/Include/arm_nnsupportfunctions.h ****                                               const int32_t *bias,
 272:Middlewares/tensorflow/third_party/cmsis_nn/Include/arm_nnsupportfunctions.h ****                                               int8_t *output);
 273:Middlewares/tensorflow/third_party/cmsis_nn/Include/arm_nnsupportfunctions.h **** 
 274:Middlewares/tensorflow/third_party/cmsis_nn/Include/arm_nnsupportfunctions.h **** /**
 275:Middlewares/tensorflow/third_party/cmsis_nn/Include/arm_nnsupportfunctions.h ****  * @brief Matrix-multiplication with requantization & activation function for four rows and one col
 276:Middlewares/tensorflow/third_party/cmsis_nn/Include/arm_nnsupportfunctions.h ****  * @param[in]       row_elements  number of row elements
 277:Middlewares/tensorflow/third_party/cmsis_nn/Include/arm_nnsupportfunctions.h ****  * @param[in]       offset        offset between rows. Can be the same as row_elements.
 278:Middlewares/tensorflow/third_party/cmsis_nn/Include/arm_nnsupportfunctions.h ****  *                                For e.g, in a 1x1 conv scenario with stride as 1.
 279:Middlewares/tensorflow/third_party/cmsis_nn/Include/arm_nnsupportfunctions.h ****  * @param[in]       row_base      pointer to row operand
 280:Middlewares/tensorflow/third_party/cmsis_nn/Include/arm_nnsupportfunctions.h ****  * @param[in]       col_base      pointer to col operand
 281:Middlewares/tensorflow/third_party/cmsis_nn/Include/arm_nnsupportfunctions.h ****  * @param[in]       out_ch        Number of output channels
ARM GAS  /tmp/ccReUFVW.s 			page 14


 282:Middlewares/tensorflow/third_party/cmsis_nn/Include/arm_nnsupportfunctions.h ****  * @param[in]       conv_params   Pointer to convolution parameters like offsets and activation val
 283:Middlewares/tensorflow/third_party/cmsis_nn/Include/arm_nnsupportfunctions.h ****  * @param[in]       quant_params  Pointer to per-channel quantization parameters
 284:Middlewares/tensorflow/third_party/cmsis_nn/Include/arm_nnsupportfunctions.h ****  * @param[in]       bias          Pointer to per-channel bias
 285:Middlewares/tensorflow/third_party/cmsis_nn/Include/arm_nnsupportfunctions.h ****  * @param[out]      output        Pointer to output where int8 results are stored.
 286:Middlewares/tensorflow/third_party/cmsis_nn/Include/arm_nnsupportfunctions.h ****  *
 287:Middlewares/tensorflow/third_party/cmsis_nn/Include/arm_nnsupportfunctions.h ****  * @return     The function returns the updated output pointer or NULL if implementation is not ava
 288:Middlewares/tensorflow/third_party/cmsis_nn/Include/arm_nnsupportfunctions.h ****  *
 289:Middlewares/tensorflow/third_party/cmsis_nn/Include/arm_nnsupportfunctions.h ****  * @details Compliant to TFLM int8 specification. MVE implementation only
 290:Middlewares/tensorflow/third_party/cmsis_nn/Include/arm_nnsupportfunctions.h ****  */
 291:Middlewares/tensorflow/third_party/cmsis_nn/Include/arm_nnsupportfunctions.h **** int8_t *arm_nn_mat_mul_core_4x_s8(const int32_t row_elements,
 292:Middlewares/tensorflow/third_party/cmsis_nn/Include/arm_nnsupportfunctions.h ****                                   const int32_t offset,
 293:Middlewares/tensorflow/third_party/cmsis_nn/Include/arm_nnsupportfunctions.h ****                                   const int8_t *row_base,
 294:Middlewares/tensorflow/third_party/cmsis_nn/Include/arm_nnsupportfunctions.h ****                                   const int8_t *col_base,
 295:Middlewares/tensorflow/third_party/cmsis_nn/Include/arm_nnsupportfunctions.h ****                                   const int32_t out_ch,
 296:Middlewares/tensorflow/third_party/cmsis_nn/Include/arm_nnsupportfunctions.h ****                                   const cmsis_nn_conv_params *conv_params,
 297:Middlewares/tensorflow/third_party/cmsis_nn/Include/arm_nnsupportfunctions.h ****                                   const cmsis_nn_per_channel_quant_params *quant_params,
 298:Middlewares/tensorflow/third_party/cmsis_nn/Include/arm_nnsupportfunctions.h ****                                   const int32_t *bias,
 299:Middlewares/tensorflow/third_party/cmsis_nn/Include/arm_nnsupportfunctions.h ****                                   int8_t *output);
 300:Middlewares/tensorflow/third_party/cmsis_nn/Include/arm_nnsupportfunctions.h **** 
 301:Middlewares/tensorflow/third_party/cmsis_nn/Include/arm_nnsupportfunctions.h **** /**
 302:Middlewares/tensorflow/third_party/cmsis_nn/Include/arm_nnsupportfunctions.h ****  * @brief General Matrix-multiplication function with per-channel requantization.
 303:Middlewares/tensorflow/third_party/cmsis_nn/Include/arm_nnsupportfunctions.h ****  *        This function assumes:
 304:Middlewares/tensorflow/third_party/cmsis_nn/Include/arm_nnsupportfunctions.h ****  *        - LHS input matrix NOT transposed (nt)
 305:Middlewares/tensorflow/third_party/cmsis_nn/Include/arm_nnsupportfunctions.h ****  *        - RHS input matrix transposed (t)
 306:Middlewares/tensorflow/third_party/cmsis_nn/Include/arm_nnsupportfunctions.h ****  *
 307:Middlewares/tensorflow/third_party/cmsis_nn/Include/arm_nnsupportfunctions.h ****  *  @note This operation also performs the broadcast bias addition before the requantization
 308:Middlewares/tensorflow/third_party/cmsis_nn/Include/arm_nnsupportfunctions.h ****  *
 309:Middlewares/tensorflow/third_party/cmsis_nn/Include/arm_nnsupportfunctions.h ****  * @param[in]  lhs                Pointer to the LHS input matrix
 310:Middlewares/tensorflow/third_party/cmsis_nn/Include/arm_nnsupportfunctions.h ****  * @param[in]  rhs                Pointer to the RHS input matrix
 311:Middlewares/tensorflow/third_party/cmsis_nn/Include/arm_nnsupportfunctions.h ****  * @param[in]  bias               Pointer to the bias vector. The length of this vector is equal to
 312:Middlewares/tensorflow/third_party/cmsis_nn/Include/arm_nnsupportfunctions.h ****  * output columns (or RHS input rows)
 313:Middlewares/tensorflow/third_party/cmsis_nn/Include/arm_nnsupportfunctions.h ****  * @param[out] dst                Pointer to the output matrix with "m" rows and "n" columns
 314:Middlewares/tensorflow/third_party/cmsis_nn/Include/arm_nnsupportfunctions.h ****  * @param[in]  dst_multipliers    Pointer to the multipliers vector needed for the per-channel requ
 315:Middlewares/tensorflow/third_party/cmsis_nn/Include/arm_nnsupportfunctions.h ****  *                                The length of this vector is equal to the number of output column
 316:Middlewares/tensorflow/third_party/cmsis_nn/Include/arm_nnsupportfunctions.h ****  * rows)
 317:Middlewares/tensorflow/third_party/cmsis_nn/Include/arm_nnsupportfunctions.h ****  * @param[in]  dst_shifts         Pointer to the shifts vector needed for the per-channel requantiz
 318:Middlewares/tensorflow/third_party/cmsis_nn/Include/arm_nnsupportfunctions.h ****  * of this vector is equal to the number of output columns (or RHS input rows)
 319:Middlewares/tensorflow/third_party/cmsis_nn/Include/arm_nnsupportfunctions.h ****  * @param[in]  lhs_rows           Number of LHS input rows
 320:Middlewares/tensorflow/third_party/cmsis_nn/Include/arm_nnsupportfunctions.h ****  * @param[in]  rhs_rows           Number of RHS input rows
 321:Middlewares/tensorflow/third_party/cmsis_nn/Include/arm_nnsupportfunctions.h ****  * @param[in]  rhs_cols           Number of LHS/RHS input columns
 322:Middlewares/tensorflow/third_party/cmsis_nn/Include/arm_nnsupportfunctions.h ****  * @param[in]  lhs_offset         Offset to be applied to the LHS input value
 323:Middlewares/tensorflow/third_party/cmsis_nn/Include/arm_nnsupportfunctions.h ****  * @param[in]  dst_offset         Offset to be applied the output result
 324:Middlewares/tensorflow/third_party/cmsis_nn/Include/arm_nnsupportfunctions.h ****  * @param[in]  activation_min     Minimum value to clamp down the output. Range : int8
 325:Middlewares/tensorflow/third_party/cmsis_nn/Include/arm_nnsupportfunctions.h ****  * @param[in]  activation_max     Maximum value to clamp up the output. Range : int8
 326:Middlewares/tensorflow/third_party/cmsis_nn/Include/arm_nnsupportfunctions.h ****  * @param[in]  rhs_cols_offset    Offset between input columns. Used to handle non-unity strides
 327:Middlewares/tensorflow/third_party/cmsis_nn/Include/arm_nnsupportfunctions.h ****  *                                Expected value : x * rhs_cols, where x >= 1
 328:Middlewares/tensorflow/third_party/cmsis_nn/Include/arm_nnsupportfunctions.h ****  *
 329:Middlewares/tensorflow/third_party/cmsis_nn/Include/arm_nnsupportfunctions.h ****  * @return     The function returns <code>ARM_CMSIS_NN_SUCCESS</code>
 330:Middlewares/tensorflow/third_party/cmsis_nn/Include/arm_nnsupportfunctions.h ****  *
 331:Middlewares/tensorflow/third_party/cmsis_nn/Include/arm_nnsupportfunctions.h ****  */
 332:Middlewares/tensorflow/third_party/cmsis_nn/Include/arm_nnsupportfunctions.h **** arm_cmsis_nn_status arm_nn_mat_mult_nt_t_s8(const int8_t *lhs,
 333:Middlewares/tensorflow/third_party/cmsis_nn/Include/arm_nnsupportfunctions.h ****                                             const int8_t *rhs,
 334:Middlewares/tensorflow/third_party/cmsis_nn/Include/arm_nnsupportfunctions.h ****                                             const int32_t *bias,
 335:Middlewares/tensorflow/third_party/cmsis_nn/Include/arm_nnsupportfunctions.h ****                                             int8_t *dst,
 336:Middlewares/tensorflow/third_party/cmsis_nn/Include/arm_nnsupportfunctions.h ****                                             const int32_t *dst_multipliers,
 337:Middlewares/tensorflow/third_party/cmsis_nn/Include/arm_nnsupportfunctions.h ****                                             const int32_t *dst_shifts,
 338:Middlewares/tensorflow/third_party/cmsis_nn/Include/arm_nnsupportfunctions.h ****                                             const int32_t lhs_rows,
ARM GAS  /tmp/ccReUFVW.s 			page 15


 339:Middlewares/tensorflow/third_party/cmsis_nn/Include/arm_nnsupportfunctions.h ****                                             const int32_t rhs_rows,
 340:Middlewares/tensorflow/third_party/cmsis_nn/Include/arm_nnsupportfunctions.h ****                                             const int32_t rhs_cols,
 341:Middlewares/tensorflow/third_party/cmsis_nn/Include/arm_nnsupportfunctions.h ****                                             const int32_t lhs_offset,
 342:Middlewares/tensorflow/third_party/cmsis_nn/Include/arm_nnsupportfunctions.h ****                                             const int32_t dst_offset,
 343:Middlewares/tensorflow/third_party/cmsis_nn/Include/arm_nnsupportfunctions.h ****                                             const int32_t activation_min,
 344:Middlewares/tensorflow/third_party/cmsis_nn/Include/arm_nnsupportfunctions.h ****                                             const int32_t activation_max,
 345:Middlewares/tensorflow/third_party/cmsis_nn/Include/arm_nnsupportfunctions.h ****                                             const int32_t rhs_cols_offset);
 346:Middlewares/tensorflow/third_party/cmsis_nn/Include/arm_nnsupportfunctions.h **** 
 347:Middlewares/tensorflow/third_party/cmsis_nn/Include/arm_nnsupportfunctions.h **** /**
 348:Middlewares/tensorflow/third_party/cmsis_nn/Include/arm_nnsupportfunctions.h ****  * @brief s8 Vector by Matrix (transposed) multiplication
 349:Middlewares/tensorflow/third_party/cmsis_nn/Include/arm_nnsupportfunctions.h ****  *
 350:Middlewares/tensorflow/third_party/cmsis_nn/Include/arm_nnsupportfunctions.h ****  * @param[in]      lhs             Input left-hand side vector
 351:Middlewares/tensorflow/third_party/cmsis_nn/Include/arm_nnsupportfunctions.h ****  * @param[in]      rhs             Input right-hand side matrix (transposed)
 352:Middlewares/tensorflow/third_party/cmsis_nn/Include/arm_nnsupportfunctions.h ****  * @param[in]      bias            Input bias
 353:Middlewares/tensorflow/third_party/cmsis_nn/Include/arm_nnsupportfunctions.h ****  * @param[out]     dst             Output vector
 354:Middlewares/tensorflow/third_party/cmsis_nn/Include/arm_nnsupportfunctions.h ****  * @param[in]      lhs_offset      Offset to be added to the input values of the left-hand side vec
 355:Middlewares/tensorflow/third_party/cmsis_nn/Include/arm_nnsupportfunctions.h ****  *                                 Range: -127 to 128
 356:Middlewares/tensorflow/third_party/cmsis_nn/Include/arm_nnsupportfunctions.h ****  * @param[in]      dst_offset      Offset to be added to the output values. Range: -127 to 128
 357:Middlewares/tensorflow/third_party/cmsis_nn/Include/arm_nnsupportfunctions.h ****  * @param[in]      dst_multiplier  Output multiplier
 358:Middlewares/tensorflow/third_party/cmsis_nn/Include/arm_nnsupportfunctions.h ****  * @param[in]      dst_shift       Output shift
 359:Middlewares/tensorflow/third_party/cmsis_nn/Include/arm_nnsupportfunctions.h ****  * @param[in]      rhs_cols        Number of columns in the right-hand side input matrix
 360:Middlewares/tensorflow/third_party/cmsis_nn/Include/arm_nnsupportfunctions.h ****  * @param[in]      rhs_rows        Number of rows in the right-hand side input matrix
 361:Middlewares/tensorflow/third_party/cmsis_nn/Include/arm_nnsupportfunctions.h ****  * @param[in]      activation_min  Minimum value to clamp the output to. Range: int8
 362:Middlewares/tensorflow/third_party/cmsis_nn/Include/arm_nnsupportfunctions.h ****  * @param[in]      activation_max  Maximum value to clamp the output to. Range: int8
 363:Middlewares/tensorflow/third_party/cmsis_nn/Include/arm_nnsupportfunctions.h ****  * @param[in]      address_offset  Memory position offset for dst. First output is stored at 'dst',
 364:Middlewares/tensorflow/third_party/cmsis_nn/Include/arm_nnsupportfunctions.h ****  *                                 second at 'dst + address_offset' and so on. Default value is typ
 365:Middlewares/tensorflow/third_party/cmsis_nn/Include/arm_nnsupportfunctions.h ****  *
 366:Middlewares/tensorflow/third_party/cmsis_nn/Include/arm_nnsupportfunctions.h ****  * @return         The function returns <code>ARM_CMSIS_NN_SUCCESS</code>
 367:Middlewares/tensorflow/third_party/cmsis_nn/Include/arm_nnsupportfunctions.h ****  *
 368:Middlewares/tensorflow/third_party/cmsis_nn/Include/arm_nnsupportfunctions.h ****  */
 369:Middlewares/tensorflow/third_party/cmsis_nn/Include/arm_nnsupportfunctions.h **** arm_cmsis_nn_status arm_nn_vec_mat_mult_t_s8(const int8_t *lhs,
 370:Middlewares/tensorflow/third_party/cmsis_nn/Include/arm_nnsupportfunctions.h ****                                              const int8_t *rhs,
 371:Middlewares/tensorflow/third_party/cmsis_nn/Include/arm_nnsupportfunctions.h ****                                              const int32_t *bias,
 372:Middlewares/tensorflow/third_party/cmsis_nn/Include/arm_nnsupportfunctions.h ****                                              int8_t *dst,
 373:Middlewares/tensorflow/third_party/cmsis_nn/Include/arm_nnsupportfunctions.h ****                                              const int32_t lhs_offset,
 374:Middlewares/tensorflow/third_party/cmsis_nn/Include/arm_nnsupportfunctions.h ****                                              const int32_t dst_offset,
 375:Middlewares/tensorflow/third_party/cmsis_nn/Include/arm_nnsupportfunctions.h ****                                              const int32_t dst_multiplier,
 376:Middlewares/tensorflow/third_party/cmsis_nn/Include/arm_nnsupportfunctions.h ****                                              const int32_t dst_shift,
 377:Middlewares/tensorflow/third_party/cmsis_nn/Include/arm_nnsupportfunctions.h ****                                              const int32_t rhs_cols,
 378:Middlewares/tensorflow/third_party/cmsis_nn/Include/arm_nnsupportfunctions.h ****                                              const int32_t rhs_rows,
 379:Middlewares/tensorflow/third_party/cmsis_nn/Include/arm_nnsupportfunctions.h ****                                              const int32_t activation_min,
 380:Middlewares/tensorflow/third_party/cmsis_nn/Include/arm_nnsupportfunctions.h ****                                              const int32_t activation_max,
 381:Middlewares/tensorflow/third_party/cmsis_nn/Include/arm_nnsupportfunctions.h ****                                              const int32_t address_offset);
 382:Middlewares/tensorflow/third_party/cmsis_nn/Include/arm_nnsupportfunctions.h **** 
 383:Middlewares/tensorflow/third_party/cmsis_nn/Include/arm_nnsupportfunctions.h **** /**
 384:Middlewares/tensorflow/third_party/cmsis_nn/Include/arm_nnsupportfunctions.h ****  * @brief s16 Vector by Matrix (transposed) multiplication
 385:Middlewares/tensorflow/third_party/cmsis_nn/Include/arm_nnsupportfunctions.h ****  *
 386:Middlewares/tensorflow/third_party/cmsis_nn/Include/arm_nnsupportfunctions.h ****  * @param[in]      lhs             Input left-hand side vector
 387:Middlewares/tensorflow/third_party/cmsis_nn/Include/arm_nnsupportfunctions.h ****  * @param[in]      rhs             Input right-hand side matrix (transposed)
 388:Middlewares/tensorflow/third_party/cmsis_nn/Include/arm_nnsupportfunctions.h ****  * @param[in]      bias            Input bias
 389:Middlewares/tensorflow/third_party/cmsis_nn/Include/arm_nnsupportfunctions.h ****  * @param[out]     dst             Output vector
 390:Middlewares/tensorflow/third_party/cmsis_nn/Include/arm_nnsupportfunctions.h ****  * @param[in]      dst_multiplier  Output multiplier
 391:Middlewares/tensorflow/third_party/cmsis_nn/Include/arm_nnsupportfunctions.h ****  * @param[in]      dst_shift       Output shift
 392:Middlewares/tensorflow/third_party/cmsis_nn/Include/arm_nnsupportfunctions.h ****  * @param[in]      rhs_cols        Number of columns in the right-hand side input matrix
 393:Middlewares/tensorflow/third_party/cmsis_nn/Include/arm_nnsupportfunctions.h ****  * @param[in]      rhs_rows        Number of rows in the right-hand side input matrix
 394:Middlewares/tensorflow/third_party/cmsis_nn/Include/arm_nnsupportfunctions.h ****  * @param[in]      activation_min  Minimum value to clamp the output to. Range: int16
 395:Middlewares/tensorflow/third_party/cmsis_nn/Include/arm_nnsupportfunctions.h ****  * @param[in]      activation_max  Maximum value to clamp the output to. Range: int16
ARM GAS  /tmp/ccReUFVW.s 			page 16


 396:Middlewares/tensorflow/third_party/cmsis_nn/Include/arm_nnsupportfunctions.h ****  *
 397:Middlewares/tensorflow/third_party/cmsis_nn/Include/arm_nnsupportfunctions.h ****  * @return         The function returns <code>ARM_CMSIS_NN_SUCCESS</code>
 398:Middlewares/tensorflow/third_party/cmsis_nn/Include/arm_nnsupportfunctions.h ****  *
 399:Middlewares/tensorflow/third_party/cmsis_nn/Include/arm_nnsupportfunctions.h ****  */
 400:Middlewares/tensorflow/third_party/cmsis_nn/Include/arm_nnsupportfunctions.h **** arm_cmsis_nn_status arm_nn_vec_mat_mult_t_s16(const int16_t *lhs,
 401:Middlewares/tensorflow/third_party/cmsis_nn/Include/arm_nnsupportfunctions.h ****                                               const int8_t *rhs,
 402:Middlewares/tensorflow/third_party/cmsis_nn/Include/arm_nnsupportfunctions.h ****                                               const int64_t *bias,
 403:Middlewares/tensorflow/third_party/cmsis_nn/Include/arm_nnsupportfunctions.h ****                                               int16_t *dst,
 404:Middlewares/tensorflow/third_party/cmsis_nn/Include/arm_nnsupportfunctions.h ****                                               const int32_t dst_multiplier,
 405:Middlewares/tensorflow/third_party/cmsis_nn/Include/arm_nnsupportfunctions.h ****                                               const int32_t dst_shift,
 406:Middlewares/tensorflow/third_party/cmsis_nn/Include/arm_nnsupportfunctions.h ****                                               const int32_t rhs_cols,
 407:Middlewares/tensorflow/third_party/cmsis_nn/Include/arm_nnsupportfunctions.h ****                                               const int32_t rhs_rows,
 408:Middlewares/tensorflow/third_party/cmsis_nn/Include/arm_nnsupportfunctions.h ****                                               const int32_t activation_min,
 409:Middlewares/tensorflow/third_party/cmsis_nn/Include/arm_nnsupportfunctions.h ****                                               const int32_t activation_max);
 410:Middlewares/tensorflow/third_party/cmsis_nn/Include/arm_nnsupportfunctions.h **** 
 411:Middlewares/tensorflow/third_party/cmsis_nn/Include/arm_nnsupportfunctions.h **** /**
 412:Middlewares/tensorflow/third_party/cmsis_nn/Include/arm_nnsupportfunctions.h ****  * @brief s8 Vector by Matrix (transposed) multiplication with s16 output
 413:Middlewares/tensorflow/third_party/cmsis_nn/Include/arm_nnsupportfunctions.h ****  *
 414:Middlewares/tensorflow/third_party/cmsis_nn/Include/arm_nnsupportfunctions.h ****  * @param[in]      lhs             Input left-hand side vector
 415:Middlewares/tensorflow/third_party/cmsis_nn/Include/arm_nnsupportfunctions.h ****  * @param[in]      rhs             Input right-hand side matrix (transposed)
 416:Middlewares/tensorflow/third_party/cmsis_nn/Include/arm_nnsupportfunctions.h ****  * @param[out]     dst             Output vector
 417:Middlewares/tensorflow/third_party/cmsis_nn/Include/arm_nnsupportfunctions.h ****  * @param[in]      lhs_offset      Offset to be added to the input values of the left-hand side
 418:Middlewares/tensorflow/third_party/cmsis_nn/Include/arm_nnsupportfunctions.h ****  *                                 vector. Range: -127 to 128
 419:Middlewares/tensorflow/third_party/cmsis_nn/Include/arm_nnsupportfunctions.h ****  * @param[in]      scatter_offset  Address offset for dst. First output is stored at 'dst', the
 420:Middlewares/tensorflow/third_party/cmsis_nn/Include/arm_nnsupportfunctions.h ****  *                                 second at 'dst + scatter_offset' and so on.
 421:Middlewares/tensorflow/third_party/cmsis_nn/Include/arm_nnsupportfunctions.h ****  * @param[in]      dst_multiplier  Output multiplier
 422:Middlewares/tensorflow/third_party/cmsis_nn/Include/arm_nnsupportfunctions.h ****  * @param[in]      dst_shift       Output shift
 423:Middlewares/tensorflow/third_party/cmsis_nn/Include/arm_nnsupportfunctions.h ****  * @param[in]      rhs_cols        Number of columns in the right-hand side input matrix
 424:Middlewares/tensorflow/third_party/cmsis_nn/Include/arm_nnsupportfunctions.h ****  * @param[in]      rhs_rows        Number of rows in the right-hand side input matrix
 425:Middlewares/tensorflow/third_party/cmsis_nn/Include/arm_nnsupportfunctions.h ****  * @param[in]      activation_min  Minimum value to clamp the output to. Range: int16
 426:Middlewares/tensorflow/third_party/cmsis_nn/Include/arm_nnsupportfunctions.h ****  * @param[in]      activation_max  Maximum value to clamp the output to. Range: int16
 427:Middlewares/tensorflow/third_party/cmsis_nn/Include/arm_nnsupportfunctions.h ****  *
 428:Middlewares/tensorflow/third_party/cmsis_nn/Include/arm_nnsupportfunctions.h ****  * @return         The function returns <code>ARM_CMSIS_NN_SUCCESS</code>
 429:Middlewares/tensorflow/third_party/cmsis_nn/Include/arm_nnsupportfunctions.h ****  *
 430:Middlewares/tensorflow/third_party/cmsis_nn/Include/arm_nnsupportfunctions.h ****  */
 431:Middlewares/tensorflow/third_party/cmsis_nn/Include/arm_nnsupportfunctions.h **** arm_cmsis_nn_status arm_nn_vec_mat_mult_t_svdf_s8(const int8_t *lhs,
 432:Middlewares/tensorflow/third_party/cmsis_nn/Include/arm_nnsupportfunctions.h ****                                                   const int8_t *rhs,
 433:Middlewares/tensorflow/third_party/cmsis_nn/Include/arm_nnsupportfunctions.h ****                                                   int16_t *dst,
 434:Middlewares/tensorflow/third_party/cmsis_nn/Include/arm_nnsupportfunctions.h ****                                                   const int32_t lhs_offset,
 435:Middlewares/tensorflow/third_party/cmsis_nn/Include/arm_nnsupportfunctions.h ****                                                   const int32_t scatter_offset,
 436:Middlewares/tensorflow/third_party/cmsis_nn/Include/arm_nnsupportfunctions.h ****                                                   const int32_t dst_multiplier,
 437:Middlewares/tensorflow/third_party/cmsis_nn/Include/arm_nnsupportfunctions.h ****                                                   const int32_t dst_shift,
 438:Middlewares/tensorflow/third_party/cmsis_nn/Include/arm_nnsupportfunctions.h ****                                                   const int32_t rhs_cols,
 439:Middlewares/tensorflow/third_party/cmsis_nn/Include/arm_nnsupportfunctions.h ****                                                   const int32_t rhs_rows,
 440:Middlewares/tensorflow/third_party/cmsis_nn/Include/arm_nnsupportfunctions.h ****                                                   const int32_t activation_min,
 441:Middlewares/tensorflow/third_party/cmsis_nn/Include/arm_nnsupportfunctions.h ****                                                   const int32_t activation_max);
 442:Middlewares/tensorflow/third_party/cmsis_nn/Include/arm_nnsupportfunctions.h **** 
 443:Middlewares/tensorflow/third_party/cmsis_nn/Include/arm_nnsupportfunctions.h **** /**
 444:Middlewares/tensorflow/third_party/cmsis_nn/Include/arm_nnsupportfunctions.h ****  * @brief Depthwise convolution of transposed rhs matrix with 4 lhs matrices. To be used in padded 
 445:Middlewares/tensorflow/third_party/cmsis_nn/Include/arm_nnsupportfunctions.h ****  *        the padding is -lhs_offset(Range: int8). Dimensions are the same for lhs and rhs.
 446:Middlewares/tensorflow/third_party/cmsis_nn/Include/arm_nnsupportfunctions.h ****  *
 447:Middlewares/tensorflow/third_party/cmsis_nn/Include/arm_nnsupportfunctions.h ****  * @param[in]      lhs             Input left-hand side matrix
 448:Middlewares/tensorflow/third_party/cmsis_nn/Include/arm_nnsupportfunctions.h ****  * @param[in]      rhs             Input right-hand side matrix (transposed)
 449:Middlewares/tensorflow/third_party/cmsis_nn/Include/arm_nnsupportfunctions.h ****  * @param[in]      lhs_offset      LHS matrix offset(input offset). Range: -127 to 128
 450:Middlewares/tensorflow/third_party/cmsis_nn/Include/arm_nnsupportfunctions.h ****  * @param[in]      active_ch       Subset of total_ch processed
 451:Middlewares/tensorflow/third_party/cmsis_nn/Include/arm_nnsupportfunctions.h ****  * @param[in]      total_ch        Number of channels in LHS/RHS
 452:Middlewares/tensorflow/third_party/cmsis_nn/Include/arm_nnsupportfunctions.h ****  * @param[in]      out_shift       Per channel output shift. Length of vector is equal to number of
ARM GAS  /tmp/ccReUFVW.s 			page 17


 453:Middlewares/tensorflow/third_party/cmsis_nn/Include/arm_nnsupportfunctions.h ****  * @param[in]      out_mult        Per channel output multiplier. Length of vector is equal to numb
 454:Middlewares/tensorflow/third_party/cmsis_nn/Include/arm_nnsupportfunctions.h ****  * @param[in]      out_offset      Offset to be added to the output values. Range: -127 to 128
 455:Middlewares/tensorflow/third_party/cmsis_nn/Include/arm_nnsupportfunctions.h ****  * @param[in]      activation_min  Minimum value to clamp the output to. Range: int8
 456:Middlewares/tensorflow/third_party/cmsis_nn/Include/arm_nnsupportfunctions.h ****  * @param[in]      activation_max  Maximum value to clamp the output to. Range: int8
 457:Middlewares/tensorflow/third_party/cmsis_nn/Include/arm_nnsupportfunctions.h ****  * @param[in]       row_x_col       (row_dimension * col_dimension) of LHS/RHS matrix
 458:Middlewares/tensorflow/third_party/cmsis_nn/Include/arm_nnsupportfunctions.h ****  * @param[in]      output_bias     Per channel output bias. Length of vector is equal to number of 
 459:Middlewares/tensorflow/third_party/cmsis_nn/Include/arm_nnsupportfunctions.h ****  * @param[in]      out             Output pointer
 460:Middlewares/tensorflow/third_party/cmsis_nn/Include/arm_nnsupportfunctions.h ****  *
 461:Middlewares/tensorflow/third_party/cmsis_nn/Include/arm_nnsupportfunctions.h ****  * @return         The function returns one of the two
 462:Middlewares/tensorflow/third_party/cmsis_nn/Include/arm_nnsupportfunctions.h ****  *                  - Updated output pointer if an implementation is available
 463:Middlewares/tensorflow/third_party/cmsis_nn/Include/arm_nnsupportfunctions.h ****  *                  - NULL if no implementation is available.
 464:Middlewares/tensorflow/third_party/cmsis_nn/Include/arm_nnsupportfunctions.h ****  *
 465:Middlewares/tensorflow/third_party/cmsis_nn/Include/arm_nnsupportfunctions.h ****  * @note           If number of channels is not a multiple of 4, upto 3 elements outside the bounda
 466:Middlewares/tensorflow/third_party/cmsis_nn/Include/arm_nnsupportfunctions.h ****  * out for the following.
 467:Middlewares/tensorflow/third_party/cmsis_nn/Include/arm_nnsupportfunctions.h ****  *                  - Output shift
 468:Middlewares/tensorflow/third_party/cmsis_nn/Include/arm_nnsupportfunctions.h ****  *                  - Output multiplier
 469:Middlewares/tensorflow/third_party/cmsis_nn/Include/arm_nnsupportfunctions.h ****  *                  - Output bias
 470:Middlewares/tensorflow/third_party/cmsis_nn/Include/arm_nnsupportfunctions.h ****  *                  - rhs
 471:Middlewares/tensorflow/third_party/cmsis_nn/Include/arm_nnsupportfunctions.h ****  */
 472:Middlewares/tensorflow/third_party/cmsis_nn/Include/arm_nnsupportfunctions.h **** arm_cmsis_nn_status arm_nn_depthwise_conv_nt_t_padded_s8(const int8_t *lhs,
 473:Middlewares/tensorflow/third_party/cmsis_nn/Include/arm_nnsupportfunctions.h ****                                                          const int8_t *rhs,
 474:Middlewares/tensorflow/third_party/cmsis_nn/Include/arm_nnsupportfunctions.h ****                                                          const int32_t lhs_offset,
 475:Middlewares/tensorflow/third_party/cmsis_nn/Include/arm_nnsupportfunctions.h ****                                                          const int32_t active_ch,
 476:Middlewares/tensorflow/third_party/cmsis_nn/Include/arm_nnsupportfunctions.h ****                                                          const int32_t total_ch,
 477:Middlewares/tensorflow/third_party/cmsis_nn/Include/arm_nnsupportfunctions.h ****                                                          const int32_t *out_shift,
 478:Middlewares/tensorflow/third_party/cmsis_nn/Include/arm_nnsupportfunctions.h ****                                                          const int32_t *out_mult,
 479:Middlewares/tensorflow/third_party/cmsis_nn/Include/arm_nnsupportfunctions.h ****                                                          const int32_t out_offset,
 480:Middlewares/tensorflow/third_party/cmsis_nn/Include/arm_nnsupportfunctions.h ****                                                          const int32_t activation_min,
 481:Middlewares/tensorflow/third_party/cmsis_nn/Include/arm_nnsupportfunctions.h ****                                                          const int32_t activation_max,
 482:Middlewares/tensorflow/third_party/cmsis_nn/Include/arm_nnsupportfunctions.h ****                                                          const uint16_t row_x_col,
 483:Middlewares/tensorflow/third_party/cmsis_nn/Include/arm_nnsupportfunctions.h ****                                                          const int32_t *const output_bias,
 484:Middlewares/tensorflow/third_party/cmsis_nn/Include/arm_nnsupportfunctions.h ****                                                          int8_t *out);
 485:Middlewares/tensorflow/third_party/cmsis_nn/Include/arm_nnsupportfunctions.h **** 
 486:Middlewares/tensorflow/third_party/cmsis_nn/Include/arm_nnsupportfunctions.h **** /**
 487:Middlewares/tensorflow/third_party/cmsis_nn/Include/arm_nnsupportfunctions.h ****  * @brief Depthwise convolution of transposed rhs matrix with 4 lhs matrices. To be used in non-pad
 488:Middlewares/tensorflow/third_party/cmsis_nn/Include/arm_nnsupportfunctions.h ****  *        Dimensions are the same for lhs and rhs.
 489:Middlewares/tensorflow/third_party/cmsis_nn/Include/arm_nnsupportfunctions.h ****  *
 490:Middlewares/tensorflow/third_party/cmsis_nn/Include/arm_nnsupportfunctions.h ****  * @param[in]      lhs             Input left-hand side matrix
 491:Middlewares/tensorflow/third_party/cmsis_nn/Include/arm_nnsupportfunctions.h ****  * @param[in]      rhs             Input right-hand side matrix (transposed)
 492:Middlewares/tensorflow/third_party/cmsis_nn/Include/arm_nnsupportfunctions.h ****  * @param[in]      lhs_offset      LHS matrix offset(input offset). Range: -127 to 128
 493:Middlewares/tensorflow/third_party/cmsis_nn/Include/arm_nnsupportfunctions.h ****  * @param[in]      active_ch       Subset of total_ch processed
 494:Middlewares/tensorflow/third_party/cmsis_nn/Include/arm_nnsupportfunctions.h ****  * @param[in]      total_ch        Number of channels in LHS/RHS
 495:Middlewares/tensorflow/third_party/cmsis_nn/Include/arm_nnsupportfunctions.h ****  * @param[in]      out_shift       Per channel output shift. Length of vector is equal to number of
 496:Middlewares/tensorflow/third_party/cmsis_nn/Include/arm_nnsupportfunctions.h ****  * @param[in]      out_mult        Per channel output multiplier. Length of vector is equal to numb
 497:Middlewares/tensorflow/third_party/cmsis_nn/Include/arm_nnsupportfunctions.h ****  * @param[in]      out_offset      Offset to be added to the output values. Range: -127 to 128
 498:Middlewares/tensorflow/third_party/cmsis_nn/Include/arm_nnsupportfunctions.h ****  * @param[in]      activation_min  Minimum value to clamp the output to. Range: int8
 499:Middlewares/tensorflow/third_party/cmsis_nn/Include/arm_nnsupportfunctions.h ****  * @param[in]      activation_max  Maximum value to clamp the output to. Range: int8
 500:Middlewares/tensorflow/third_party/cmsis_nn/Include/arm_nnsupportfunctions.h ****  * @param[in]       row_x_col       (row_dimension * col_dimension) of LHS/RHS matrix
 501:Middlewares/tensorflow/third_party/cmsis_nn/Include/arm_nnsupportfunctions.h ****  * @param[in]      output_bias     Per channel output bias. Length of vector is equal to number of 
 502:Middlewares/tensorflow/third_party/cmsis_nn/Include/arm_nnsupportfunctions.h ****  * @param[in]      out             Output pointer
 503:Middlewares/tensorflow/third_party/cmsis_nn/Include/arm_nnsupportfunctions.h ****  *
 504:Middlewares/tensorflow/third_party/cmsis_nn/Include/arm_nnsupportfunctions.h ****  * @return         The function returns one of the two
 505:Middlewares/tensorflow/third_party/cmsis_nn/Include/arm_nnsupportfunctions.h ****  *                  - Updated output pointer if an implementation is available
 506:Middlewares/tensorflow/third_party/cmsis_nn/Include/arm_nnsupportfunctions.h ****  *                  - NULL if no implementation is available.
 507:Middlewares/tensorflow/third_party/cmsis_nn/Include/arm_nnsupportfunctions.h ****  *
 508:Middlewares/tensorflow/third_party/cmsis_nn/Include/arm_nnsupportfunctions.h ****  * @note           If number of channels is not a multiple of 4, upto 3 elements outside the bounda
 509:Middlewares/tensorflow/third_party/cmsis_nn/Include/arm_nnsupportfunctions.h ****  * out for the following.
ARM GAS  /tmp/ccReUFVW.s 			page 18


 510:Middlewares/tensorflow/third_party/cmsis_nn/Include/arm_nnsupportfunctions.h ****  *                  - Output shift
 511:Middlewares/tensorflow/third_party/cmsis_nn/Include/arm_nnsupportfunctions.h ****  *                  - Output multiplier
 512:Middlewares/tensorflow/third_party/cmsis_nn/Include/arm_nnsupportfunctions.h ****  *                  - Output bias
 513:Middlewares/tensorflow/third_party/cmsis_nn/Include/arm_nnsupportfunctions.h ****  *                  - rhs
 514:Middlewares/tensorflow/third_party/cmsis_nn/Include/arm_nnsupportfunctions.h ****  */
 515:Middlewares/tensorflow/third_party/cmsis_nn/Include/arm_nnsupportfunctions.h **** arm_cmsis_nn_status arm_nn_depthwise_conv_nt_t_s8(const int8_t *lhs,
 516:Middlewares/tensorflow/third_party/cmsis_nn/Include/arm_nnsupportfunctions.h ****                                                   const int8_t *rhs,
 517:Middlewares/tensorflow/third_party/cmsis_nn/Include/arm_nnsupportfunctions.h ****                                                   const int32_t lhs_offset,
 518:Middlewares/tensorflow/third_party/cmsis_nn/Include/arm_nnsupportfunctions.h ****                                                   const int32_t active_ch,
 519:Middlewares/tensorflow/third_party/cmsis_nn/Include/arm_nnsupportfunctions.h ****                                                   const int32_t total_ch,
 520:Middlewares/tensorflow/third_party/cmsis_nn/Include/arm_nnsupportfunctions.h ****                                                   const int32_t *out_shift,
 521:Middlewares/tensorflow/third_party/cmsis_nn/Include/arm_nnsupportfunctions.h ****                                                   const int32_t *out_mult,
 522:Middlewares/tensorflow/third_party/cmsis_nn/Include/arm_nnsupportfunctions.h ****                                                   const int32_t out_offset,
 523:Middlewares/tensorflow/third_party/cmsis_nn/Include/arm_nnsupportfunctions.h ****                                                   const int32_t activation_min,
 524:Middlewares/tensorflow/third_party/cmsis_nn/Include/arm_nnsupportfunctions.h ****                                                   const int32_t activation_max,
 525:Middlewares/tensorflow/third_party/cmsis_nn/Include/arm_nnsupportfunctions.h ****                                                   const uint16_t row_x_col,
 526:Middlewares/tensorflow/third_party/cmsis_nn/Include/arm_nnsupportfunctions.h ****                                                   const int32_t *const output_bias,
 527:Middlewares/tensorflow/third_party/cmsis_nn/Include/arm_nnsupportfunctions.h ****                                                   int8_t *out);
 528:Middlewares/tensorflow/third_party/cmsis_nn/Include/arm_nnsupportfunctions.h **** 
 529:Middlewares/tensorflow/third_party/cmsis_nn/Include/arm_nnsupportfunctions.h **** /**
 530:Middlewares/tensorflow/third_party/cmsis_nn/Include/arm_nnsupportfunctions.h ****  * @brief Depthwise convolution of transposed rhs matrix with 4 lhs matrices. To be used in non-pad
 531:Middlewares/tensorflow/third_party/cmsis_nn/Include/arm_nnsupportfunctions.h ****  *        Dimensions are the same for lhs and rhs.
 532:Middlewares/tensorflow/third_party/cmsis_nn/Include/arm_nnsupportfunctions.h ****  *
 533:Middlewares/tensorflow/third_party/cmsis_nn/Include/arm_nnsupportfunctions.h ****  * @param[in]      lhs             Input left-hand side matrix
 534:Middlewares/tensorflow/third_party/cmsis_nn/Include/arm_nnsupportfunctions.h ****  * @param[in]      rhs             Input right-hand side matrix (transposed)
 535:Middlewares/tensorflow/third_party/cmsis_nn/Include/arm_nnsupportfunctions.h ****  * @param[in]      num_ch          Number of channels in LHS/RHS
 536:Middlewares/tensorflow/third_party/cmsis_nn/Include/arm_nnsupportfunctions.h ****  * @param[in]      out_shift       Per channel output shift. Length of vector is equal to number of
 537:Middlewares/tensorflow/third_party/cmsis_nn/Include/arm_nnsupportfunctions.h ****  * @param[in]      out_mult        Per channel output multiplier. Length of vector is equal to numb
 538:Middlewares/tensorflow/third_party/cmsis_nn/Include/arm_nnsupportfunctions.h ****  * @param[in]      activation_min  Minimum value to clamp the output to. Range: int8
 539:Middlewares/tensorflow/third_party/cmsis_nn/Include/arm_nnsupportfunctions.h ****  * @param[in]      activation_max  Maximum value to clamp the output to. Range: int8
 540:Middlewares/tensorflow/third_party/cmsis_nn/Include/arm_nnsupportfunctions.h ****  * @param[in]       row_x_col       (row_dimension * col_dimension) of LHS/RHS matrix
 541:Middlewares/tensorflow/third_party/cmsis_nn/Include/arm_nnsupportfunctions.h ****  * @param[in]      output_bias     Per channel output bias. Length of vector is equal to number of 
 542:Middlewares/tensorflow/third_party/cmsis_nn/Include/arm_nnsupportfunctions.h ****  * @param[in]      out             Output pointer
 543:Middlewares/tensorflow/third_party/cmsis_nn/Include/arm_nnsupportfunctions.h ****  *
 544:Middlewares/tensorflow/third_party/cmsis_nn/Include/arm_nnsupportfunctions.h ****  * @return         The function returns one of the two
 545:Middlewares/tensorflow/third_party/cmsis_nn/Include/arm_nnsupportfunctions.h ****  *                  - Updated output pointer if an implementation is available
 546:Middlewares/tensorflow/third_party/cmsis_nn/Include/arm_nnsupportfunctions.h ****  *                  - NULL if no implementation is available.
 547:Middlewares/tensorflow/third_party/cmsis_nn/Include/arm_nnsupportfunctions.h ****  *
 548:Middlewares/tensorflow/third_party/cmsis_nn/Include/arm_nnsupportfunctions.h ****  * @note           If number of channels is not a multiple of 4, upto 3 elements outside the bounda
 549:Middlewares/tensorflow/third_party/cmsis_nn/Include/arm_nnsupportfunctions.h ****  * out for the following.
 550:Middlewares/tensorflow/third_party/cmsis_nn/Include/arm_nnsupportfunctions.h ****  *                  - Output shift
 551:Middlewares/tensorflow/third_party/cmsis_nn/Include/arm_nnsupportfunctions.h ****  *                  - Output multiplier
 552:Middlewares/tensorflow/third_party/cmsis_nn/Include/arm_nnsupportfunctions.h ****  *                  - Output bias
 553:Middlewares/tensorflow/third_party/cmsis_nn/Include/arm_nnsupportfunctions.h ****  *                  - rhs
 554:Middlewares/tensorflow/third_party/cmsis_nn/Include/arm_nnsupportfunctions.h ****  */
 555:Middlewares/tensorflow/third_party/cmsis_nn/Include/arm_nnsupportfunctions.h **** int16_t *arm_nn_depthwise_conv_nt_t_s16(const int16_t *lhs,
 556:Middlewares/tensorflow/third_party/cmsis_nn/Include/arm_nnsupportfunctions.h ****                                         const int8_t *rhs,
 557:Middlewares/tensorflow/third_party/cmsis_nn/Include/arm_nnsupportfunctions.h ****                                         const uint16_t num_ch,
 558:Middlewares/tensorflow/third_party/cmsis_nn/Include/arm_nnsupportfunctions.h ****                                         const int32_t *out_shift,
 559:Middlewares/tensorflow/third_party/cmsis_nn/Include/arm_nnsupportfunctions.h ****                                         const int32_t *out_mult,
 560:Middlewares/tensorflow/third_party/cmsis_nn/Include/arm_nnsupportfunctions.h ****                                         const int32_t activation_min,
 561:Middlewares/tensorflow/third_party/cmsis_nn/Include/arm_nnsupportfunctions.h ****                                         const int32_t activation_max,
 562:Middlewares/tensorflow/third_party/cmsis_nn/Include/arm_nnsupportfunctions.h ****                                         const uint16_t row_x_col,
 563:Middlewares/tensorflow/third_party/cmsis_nn/Include/arm_nnsupportfunctions.h ****                                         const int64_t *const output_bias,
 564:Middlewares/tensorflow/third_party/cmsis_nn/Include/arm_nnsupportfunctions.h ****                                         int16_t *out);
 565:Middlewares/tensorflow/third_party/cmsis_nn/Include/arm_nnsupportfunctions.h **** 
 566:Middlewares/tensorflow/third_party/cmsis_nn/Include/arm_nnsupportfunctions.h **** /**
ARM GAS  /tmp/ccReUFVW.s 			page 19


 567:Middlewares/tensorflow/third_party/cmsis_nn/Include/arm_nnsupportfunctions.h ****   @brief         Read 2 s16 elements and post increment pointer.
 568:Middlewares/tensorflow/third_party/cmsis_nn/Include/arm_nnsupportfunctions.h ****   @param[in]     in_q15   Pointer to pointer that holds address of input.
 569:Middlewares/tensorflow/third_party/cmsis_nn/Include/arm_nnsupportfunctions.h ****   @return        q31 value
 570:Middlewares/tensorflow/third_party/cmsis_nn/Include/arm_nnsupportfunctions.h ****  */
 571:Middlewares/tensorflow/third_party/cmsis_nn/Include/arm_nnsupportfunctions.h **** __STATIC_FORCEINLINE int32_t arm_nn_read_q15x2_ia(const int16_t **in_q15)
 572:Middlewares/tensorflow/third_party/cmsis_nn/Include/arm_nnsupportfunctions.h **** {
 573:Middlewares/tensorflow/third_party/cmsis_nn/Include/arm_nnsupportfunctions.h ****     int32_t val;
 574:Middlewares/tensorflow/third_party/cmsis_nn/Include/arm_nnsupportfunctions.h **** 
 575:Middlewares/tensorflow/third_party/cmsis_nn/Include/arm_nnsupportfunctions.h ****     memcpy(&val, *in_q15, 4);
 576:Middlewares/tensorflow/third_party/cmsis_nn/Include/arm_nnsupportfunctions.h ****     *in_q15 += 2;
 577:Middlewares/tensorflow/third_party/cmsis_nn/Include/arm_nnsupportfunctions.h **** 
 578:Middlewares/tensorflow/third_party/cmsis_nn/Include/arm_nnsupportfunctions.h ****     return (val);
 579:Middlewares/tensorflow/third_party/cmsis_nn/Include/arm_nnsupportfunctions.h **** }
 580:Middlewares/tensorflow/third_party/cmsis_nn/Include/arm_nnsupportfunctions.h **** 
 581:Middlewares/tensorflow/third_party/cmsis_nn/Include/arm_nnsupportfunctions.h **** /**
 582:Middlewares/tensorflow/third_party/cmsis_nn/Include/arm_nnsupportfunctions.h ****   @brief         Read 4 s8 from s8 pointer and post increment pointer.
 583:Middlewares/tensorflow/third_party/cmsis_nn/Include/arm_nnsupportfunctions.h ****   @param[in]     in_s8       Pointer to pointer that holds address of input.
 584:Middlewares/tensorflow/third_party/cmsis_nn/Include/arm_nnsupportfunctions.h ****   @return        q31 value
 585:Middlewares/tensorflow/third_party/cmsis_nn/Include/arm_nnsupportfunctions.h ****  */
 586:Middlewares/tensorflow/third_party/cmsis_nn/Include/arm_nnsupportfunctions.h **** __STATIC_FORCEINLINE int32_t arm_nn_read_s8x4_ia(const int8_t **in_s8)
 587:Middlewares/tensorflow/third_party/cmsis_nn/Include/arm_nnsupportfunctions.h **** {
 588:Middlewares/tensorflow/third_party/cmsis_nn/Include/arm_nnsupportfunctions.h ****     int32_t val;
 589:Middlewares/tensorflow/third_party/cmsis_nn/Include/arm_nnsupportfunctions.h ****     memcpy(&val, *in_s8, 4);
 590:Middlewares/tensorflow/third_party/cmsis_nn/Include/arm_nnsupportfunctions.h ****     *in_s8 += 4;
 591:Middlewares/tensorflow/third_party/cmsis_nn/Include/arm_nnsupportfunctions.h **** 
 592:Middlewares/tensorflow/third_party/cmsis_nn/Include/arm_nnsupportfunctions.h ****     return (val);
 593:Middlewares/tensorflow/third_party/cmsis_nn/Include/arm_nnsupportfunctions.h **** }
 594:Middlewares/tensorflow/third_party/cmsis_nn/Include/arm_nnsupportfunctions.h **** 
 595:Middlewares/tensorflow/third_party/cmsis_nn/Include/arm_nnsupportfunctions.h **** /**
 596:Middlewares/tensorflow/third_party/cmsis_nn/Include/arm_nnsupportfunctions.h ****   @brief         Read 2 int16 values from int16 pointer.
 597:Middlewares/tensorflow/third_party/cmsis_nn/Include/arm_nnsupportfunctions.h ****   @param[in]     in     pointer to address of input.
 598:Middlewares/tensorflow/third_party/cmsis_nn/Include/arm_nnsupportfunctions.h ****   @return        s32    value
 599:Middlewares/tensorflow/third_party/cmsis_nn/Include/arm_nnsupportfunctions.h ****  */
 600:Middlewares/tensorflow/third_party/cmsis_nn/Include/arm_nnsupportfunctions.h **** __STATIC_FORCEINLINE int32_t arm_nn_read_s16x2(const int16_t *in)
 601:Middlewares/tensorflow/third_party/cmsis_nn/Include/arm_nnsupportfunctions.h **** {
 602:Middlewares/tensorflow/third_party/cmsis_nn/Include/arm_nnsupportfunctions.h ****     int32_t val;
 603:Middlewares/tensorflow/third_party/cmsis_nn/Include/arm_nnsupportfunctions.h ****     memcpy(&val, in, 4);
 604:Middlewares/tensorflow/third_party/cmsis_nn/Include/arm_nnsupportfunctions.h **** 
 605:Middlewares/tensorflow/third_party/cmsis_nn/Include/arm_nnsupportfunctions.h ****     return (val);
 606:Middlewares/tensorflow/third_party/cmsis_nn/Include/arm_nnsupportfunctions.h **** }
 607:Middlewares/tensorflow/third_party/cmsis_nn/Include/arm_nnsupportfunctions.h **** 
 608:Middlewares/tensorflow/third_party/cmsis_nn/Include/arm_nnsupportfunctions.h **** /**
 609:Middlewares/tensorflow/third_party/cmsis_nn/Include/arm_nnsupportfunctions.h ****   @brief         Read 4 s8 values.
 610:Middlewares/tensorflow/third_party/cmsis_nn/Include/arm_nnsupportfunctions.h ****   @param[in]     in_s8       pointer to address of input.
 611:Middlewares/tensorflow/third_party/cmsis_nn/Include/arm_nnsupportfunctions.h ****   @return        s32 value
 612:Middlewares/tensorflow/third_party/cmsis_nn/Include/arm_nnsupportfunctions.h ****  */
 613:Middlewares/tensorflow/third_party/cmsis_nn/Include/arm_nnsupportfunctions.h **** __STATIC_FORCEINLINE int32_t arm_nn_read_s8x4(const int8_t *in_s8)
 614:Middlewares/tensorflow/third_party/cmsis_nn/Include/arm_nnsupportfunctions.h **** {
 615:Middlewares/tensorflow/third_party/cmsis_nn/Include/arm_nnsupportfunctions.h ****     int32_t val;
 616:Middlewares/tensorflow/third_party/cmsis_nn/Include/arm_nnsupportfunctions.h ****     memcpy(&val, in_s8, 4);
 617:Middlewares/tensorflow/third_party/cmsis_nn/Include/arm_nnsupportfunctions.h **** 
 618:Middlewares/tensorflow/third_party/cmsis_nn/Include/arm_nnsupportfunctions.h ****     return (val);
 619:Middlewares/tensorflow/third_party/cmsis_nn/Include/arm_nnsupportfunctions.h **** }
 620:Middlewares/tensorflow/third_party/cmsis_nn/Include/arm_nnsupportfunctions.h **** 
 621:Middlewares/tensorflow/third_party/cmsis_nn/Include/arm_nnsupportfunctions.h **** /**
 622:Middlewares/tensorflow/third_party/cmsis_nn/Include/arm_nnsupportfunctions.h ****   @brief         Write four s8 to s8 pointer and increment pointer afterwards.
 623:Middlewares/tensorflow/third_party/cmsis_nn/Include/arm_nnsupportfunctions.h ****   @param[in]     in       Double pointer to input value
ARM GAS  /tmp/ccReUFVW.s 			page 20


 624:Middlewares/tensorflow/third_party/cmsis_nn/Include/arm_nnsupportfunctions.h ****   @param[in]     value    Four bytes to copy
 625:Middlewares/tensorflow/third_party/cmsis_nn/Include/arm_nnsupportfunctions.h ****  */
 626:Middlewares/tensorflow/third_party/cmsis_nn/Include/arm_nnsupportfunctions.h **** __STATIC_FORCEINLINE void arm_nn_write_s8x4_ia(int8_t **in, int32_t value)
 627:Middlewares/tensorflow/third_party/cmsis_nn/Include/arm_nnsupportfunctions.h **** {
 628:Middlewares/tensorflow/third_party/cmsis_nn/Include/arm_nnsupportfunctions.h ****     memcpy(*in, &value, 4);
 629:Middlewares/tensorflow/third_party/cmsis_nn/Include/arm_nnsupportfunctions.h ****     *in += 4;
 630:Middlewares/tensorflow/third_party/cmsis_nn/Include/arm_nnsupportfunctions.h **** }
 631:Middlewares/tensorflow/third_party/cmsis_nn/Include/arm_nnsupportfunctions.h **** 
 632:Middlewares/tensorflow/third_party/cmsis_nn/Include/arm_nnsupportfunctions.h **** /**
 633:Middlewares/tensorflow/third_party/cmsis_nn/Include/arm_nnsupportfunctions.h ****  * @brief           memset optimized for MVE
 634:Middlewares/tensorflow/third_party/cmsis_nn/Include/arm_nnsupportfunctions.h ****  * @param[in, out]  dst         Destination pointer
 635:Middlewares/tensorflow/third_party/cmsis_nn/Include/arm_nnsupportfunctions.h ****  * @param[in]       val         Value to set
 636:Middlewares/tensorflow/third_party/cmsis_nn/Include/arm_nnsupportfunctions.h ****  * @param[in]       block_size  Number of bytes to copy.
 637:Middlewares/tensorflow/third_party/cmsis_nn/Include/arm_nnsupportfunctions.h ****  *
 638:Middlewares/tensorflow/third_party/cmsis_nn/Include/arm_nnsupportfunctions.h ****  */
 639:Middlewares/tensorflow/third_party/cmsis_nn/Include/arm_nnsupportfunctions.h **** __STATIC_FORCEINLINE void arm_memset_s8(int8_t *dst, const int8_t val, uint32_t block_size)
 640:Middlewares/tensorflow/third_party/cmsis_nn/Include/arm_nnsupportfunctions.h **** {
 641:Middlewares/tensorflow/third_party/cmsis_nn/Include/arm_nnsupportfunctions.h **** #if defined(ARM_MATH_MVEI)
 642:Middlewares/tensorflow/third_party/cmsis_nn/Include/arm_nnsupportfunctions.h ****     __asm volatile("   vdup.8                  q0, %[set_val]             \n"
 643:Middlewares/tensorflow/third_party/cmsis_nn/Include/arm_nnsupportfunctions.h ****                    "   wlstp.8                 lr, %[cnt], 1f             \n"
 644:Middlewares/tensorflow/third_party/cmsis_nn/Include/arm_nnsupportfunctions.h ****                    "2:                                                    \n"
 645:Middlewares/tensorflow/third_party/cmsis_nn/Include/arm_nnsupportfunctions.h ****                    "   vstrb.8                 q0, [%[in]], #16            \n"
 646:Middlewares/tensorflow/third_party/cmsis_nn/Include/arm_nnsupportfunctions.h ****                    "   letp                    lr, 2b                     \n"
 647:Middlewares/tensorflow/third_party/cmsis_nn/Include/arm_nnsupportfunctions.h ****                    "1:                                                    \n"
 648:Middlewares/tensorflow/third_party/cmsis_nn/Include/arm_nnsupportfunctions.h ****                    : [in] "+r"(dst)
 649:Middlewares/tensorflow/third_party/cmsis_nn/Include/arm_nnsupportfunctions.h ****                    : [cnt] "r"(block_size), [set_val] "r"(val)
 650:Middlewares/tensorflow/third_party/cmsis_nn/Include/arm_nnsupportfunctions.h ****                    : "q0", "memory", "r14");
 651:Middlewares/tensorflow/third_party/cmsis_nn/Include/arm_nnsupportfunctions.h **** #else
 652:Middlewares/tensorflow/third_party/cmsis_nn/Include/arm_nnsupportfunctions.h ****     memset(dst, val, block_size);
 653:Middlewares/tensorflow/third_party/cmsis_nn/Include/arm_nnsupportfunctions.h **** #endif
 654:Middlewares/tensorflow/third_party/cmsis_nn/Include/arm_nnsupportfunctions.h **** }
 655:Middlewares/tensorflow/third_party/cmsis_nn/Include/arm_nnsupportfunctions.h **** 
 656:Middlewares/tensorflow/third_party/cmsis_nn/Include/arm_nnsupportfunctions.h **** #if defined(ARM_MATH_DSP)
 657:Middlewares/tensorflow/third_party/cmsis_nn/Include/arm_nnsupportfunctions.h **** 
 658:Middlewares/tensorflow/third_party/cmsis_nn/Include/arm_nnsupportfunctions.h **** /**
 659:Middlewares/tensorflow/third_party/cmsis_nn/Include/arm_nnsupportfunctions.h ****  * @brief read and expand one s8 word into two s16 words
 660:Middlewares/tensorflow/third_party/cmsis_nn/Include/arm_nnsupportfunctions.h ****  */
 661:Middlewares/tensorflow/third_party/cmsis_nn/Include/arm_nnsupportfunctions.h **** 
 662:Middlewares/tensorflow/third_party/cmsis_nn/Include/arm_nnsupportfunctions.h **** __STATIC_FORCEINLINE const int8_t *read_and_pad(const int8_t *source, int32_t *out1, int32_t *out2)
 663:Middlewares/tensorflow/third_party/cmsis_nn/Include/arm_nnsupportfunctions.h **** {
 664:Middlewares/tensorflow/third_party/cmsis_nn/Include/arm_nnsupportfunctions.h ****     int32_t inA = arm_nn_read_s8x4_ia(&source);
 665:Middlewares/tensorflow/third_party/cmsis_nn/Include/arm_nnsupportfunctions.h ****     int32_t inAbuf1 = SXTB16_RORn((uint32_t)inA, 8);
 666:Middlewares/tensorflow/third_party/cmsis_nn/Include/arm_nnsupportfunctions.h ****     int32_t inAbuf2 = SXTB16(inA);
 667:Middlewares/tensorflow/third_party/cmsis_nn/Include/arm_nnsupportfunctions.h **** 
 668:Middlewares/tensorflow/third_party/cmsis_nn/Include/arm_nnsupportfunctions.h ****     #ifndef ARM_MATH_BIG_ENDIAN
 669:Middlewares/tensorflow/third_party/cmsis_nn/Include/arm_nnsupportfunctions.h ****     *out2 = (int32_t)(PKHTB(inAbuf1, inAbuf2, 16));
 670:Middlewares/tensorflow/third_party/cmsis_nn/Include/arm_nnsupportfunctions.h ****     *out1 = (int32_t)(PKHBT(inAbuf2, inAbuf1, 16));
 671:Middlewares/tensorflow/third_party/cmsis_nn/Include/arm_nnsupportfunctions.h ****     #else
 672:Middlewares/tensorflow/third_party/cmsis_nn/Include/arm_nnsupportfunctions.h ****     *out1 = (int32_t)(PKHTB(inAbuf1, inAbuf2, 16));
 673:Middlewares/tensorflow/third_party/cmsis_nn/Include/arm_nnsupportfunctions.h ****     *out2 = (int32_t)(PKHBT(inAbuf2, inAbuf1, 16));
 674:Middlewares/tensorflow/third_party/cmsis_nn/Include/arm_nnsupportfunctions.h ****     #endif
 675:Middlewares/tensorflow/third_party/cmsis_nn/Include/arm_nnsupportfunctions.h **** 
 676:Middlewares/tensorflow/third_party/cmsis_nn/Include/arm_nnsupportfunctions.h ****     return source;
 677:Middlewares/tensorflow/third_party/cmsis_nn/Include/arm_nnsupportfunctions.h **** }
 678:Middlewares/tensorflow/third_party/cmsis_nn/Include/arm_nnsupportfunctions.h **** 
 679:Middlewares/tensorflow/third_party/cmsis_nn/Include/arm_nnsupportfunctions.h **** /**
 680:Middlewares/tensorflow/third_party/cmsis_nn/Include/arm_nnsupportfunctions.h ****  * @brief read and expand one s8 word into two s16 words with reordering
ARM GAS  /tmp/ccReUFVW.s 			page 21


 681:Middlewares/tensorflow/third_party/cmsis_nn/Include/arm_nnsupportfunctions.h ****  */
 682:Middlewares/tensorflow/third_party/cmsis_nn/Include/arm_nnsupportfunctions.h **** 
 683:Middlewares/tensorflow/third_party/cmsis_nn/Include/arm_nnsupportfunctions.h **** __STATIC_FORCEINLINE const int8_t *read_and_pad_reordered(const int8_t *source, int32_t *out1, int3
 305              		.loc 2 683 36 discriminator 3 view .LVU97
 306              	.LBB95:
 684:Middlewares/tensorflow/third_party/cmsis_nn/Include/arm_nnsupportfunctions.h **** {
 685:Middlewares/tensorflow/third_party/cmsis_nn/Include/arm_nnsupportfunctions.h ****     int32_t inA = arm_nn_read_s8x4_ia(&source);
 307              		.loc 2 685 5 discriminator 3 view .LVU98
 308              	.LBB96:
 309              	.LBI96:
 586:Middlewares/tensorflow/third_party/cmsis_nn/Include/arm_nnsupportfunctions.h **** {
 310              		.loc 2 586 30 discriminator 3 view .LVU99
 311              	.LBB97:
 588:Middlewares/tensorflow/third_party/cmsis_nn/Include/arm_nnsupportfunctions.h ****     memcpy(&val, *in_s8, 4);
 312              		.loc 2 588 5 discriminator 3 view .LVU100
 589:Middlewares/tensorflow/third_party/cmsis_nn/Include/arm_nnsupportfunctions.h ****     *in_s8 += 4;
 313              		.loc 2 589 5 discriminator 3 view .LVU101
 314 00e4 57F8042B 		ldr	r2, [r7], #4	@ unaligned
 315              	.LVL52:
 590:Middlewares/tensorflow/third_party/cmsis_nn/Include/arm_nnsupportfunctions.h **** 
 316              		.loc 2 590 5 discriminator 3 view .LVU102
 592:Middlewares/tensorflow/third_party/cmsis_nn/Include/arm_nnsupportfunctions.h **** }
 317              		.loc 2 592 5 discriminator 3 view .LVU103
 592:Middlewares/tensorflow/third_party/cmsis_nn/Include/arm_nnsupportfunctions.h **** }
 318              		.loc 2 592 5 is_stmt 0 discriminator 3 view .LVU104
 319              	.LBE97:
 320              	.LBE96:
 686:Middlewares/tensorflow/third_party/cmsis_nn/Include/arm_nnsupportfunctions.h ****     #ifndef ARM_MATH_BIG_ENDIAN
 687:Middlewares/tensorflow/third_party/cmsis_nn/Include/arm_nnsupportfunctions.h ****     *out2 = SXTB16(ROR((uint32_t)inA, 8));
 321              		.loc 2 687 5 is_stmt 1 discriminator 3 view .LVU105
 322              	.LBB98:
 323              	.LBI98:
 324              		.file 3 "Middlewares/tensorflow/third_party/cmsis_nn/Include/Internal/arm_nn_compiler.h"
   1:Middlewares/tensorflow/third_party/cmsis_nn/Include/Internal/arm_nn_compiler.h **** /*
   2:Middlewares/tensorflow/third_party/cmsis_nn/Include/Internal/arm_nn_compiler.h ****  * SPDX-FileCopyrightText: Copyright 2023 Arm Limited and/or its affiliates <open-source-office@arm
   3:Middlewares/tensorflow/third_party/cmsis_nn/Include/Internal/arm_nn_compiler.h ****  *
   4:Middlewares/tensorflow/third_party/cmsis_nn/Include/Internal/arm_nn_compiler.h ****  * SPDX-License-Identifier: Apache-2.0
   5:Middlewares/tensorflow/third_party/cmsis_nn/Include/Internal/arm_nn_compiler.h ****  *
   6:Middlewares/tensorflow/third_party/cmsis_nn/Include/Internal/arm_nn_compiler.h ****  * Licensed under the Apache License, Version 2.0 (the License); you may
   7:Middlewares/tensorflow/third_party/cmsis_nn/Include/Internal/arm_nn_compiler.h ****  * not use this file except in compliance with the License.
   8:Middlewares/tensorflow/third_party/cmsis_nn/Include/Internal/arm_nn_compiler.h ****  * You may obtain a copy of the License at
   9:Middlewares/tensorflow/third_party/cmsis_nn/Include/Internal/arm_nn_compiler.h ****  *
  10:Middlewares/tensorflow/third_party/cmsis_nn/Include/Internal/arm_nn_compiler.h ****  * www.apache.org/licenses/LICENSE-2.0
  11:Middlewares/tensorflow/third_party/cmsis_nn/Include/Internal/arm_nn_compiler.h ****  *
  12:Middlewares/tensorflow/third_party/cmsis_nn/Include/Internal/arm_nn_compiler.h ****  * Unless required by applicable law or agreed to in writing, software
  13:Middlewares/tensorflow/third_party/cmsis_nn/Include/Internal/arm_nn_compiler.h ****  * distributed under the License is distributed on an AS IS BASIS, WITHOUT
  14:Middlewares/tensorflow/third_party/cmsis_nn/Include/Internal/arm_nn_compiler.h ****  * WARRANTIES OR CONDITIONS OF ANY KIND, either express or implied.
  15:Middlewares/tensorflow/third_party/cmsis_nn/Include/Internal/arm_nn_compiler.h ****  * See the License for the specific language governing permissions and
  16:Middlewares/tensorflow/third_party/cmsis_nn/Include/Internal/arm_nn_compiler.h ****  * limitations under the License.
  17:Middlewares/tensorflow/third_party/cmsis_nn/Include/Internal/arm_nn_compiler.h ****  */
  18:Middlewares/tensorflow/third_party/cmsis_nn/Include/Internal/arm_nn_compiler.h **** 
  19:Middlewares/tensorflow/third_party/cmsis_nn/Include/Internal/arm_nn_compiler.h **** /* ----------------------------------------------------------------------
  20:Middlewares/tensorflow/third_party/cmsis_nn/Include/Internal/arm_nn_compiler.h ****  * Project:      CMSIS NN Library
  21:Middlewares/tensorflow/third_party/cmsis_nn/Include/Internal/arm_nn_compiler.h ****  * Title:        arm_nn_compiler.h
  22:Middlewares/tensorflow/third_party/cmsis_nn/Include/Internal/arm_nn_compiler.h ****  * Description:  Generic compiler header
  23:Middlewares/tensorflow/third_party/cmsis_nn/Include/Internal/arm_nn_compiler.h ****  *
  24:Middlewares/tensorflow/third_party/cmsis_nn/Include/Internal/arm_nn_compiler.h ****  * $Date:        31 January 2023
ARM GAS  /tmp/ccReUFVW.s 			page 22


  25:Middlewares/tensorflow/third_party/cmsis_nn/Include/Internal/arm_nn_compiler.h ****  * $Revision:    V.1.1.0
  26:Middlewares/tensorflow/third_party/cmsis_nn/Include/Internal/arm_nn_compiler.h ****  *
  27:Middlewares/tensorflow/third_party/cmsis_nn/Include/Internal/arm_nn_compiler.h ****  * Target :  Arm(R) M-Profile Architecture
  28:Middlewares/tensorflow/third_party/cmsis_nn/Include/Internal/arm_nn_compiler.h ****  * -------------------------------------------------------------------- */
  29:Middlewares/tensorflow/third_party/cmsis_nn/Include/Internal/arm_nn_compiler.h **** 
  30:Middlewares/tensorflow/third_party/cmsis_nn/Include/Internal/arm_nn_compiler.h **** #ifndef ARM_NN_COMPILER_H
  31:Middlewares/tensorflow/third_party/cmsis_nn/Include/Internal/arm_nn_compiler.h **** #define ARM_NN_COMPILER_H
  32:Middlewares/tensorflow/third_party/cmsis_nn/Include/Internal/arm_nn_compiler.h **** #include <stdint.h>
  33:Middlewares/tensorflow/third_party/cmsis_nn/Include/Internal/arm_nn_compiler.h **** 
  34:Middlewares/tensorflow/third_party/cmsis_nn/Include/Internal/arm_nn_compiler.h **** /**
  35:Middlewares/tensorflow/third_party/cmsis_nn/Include/Internal/arm_nn_compiler.h ****  *
  36:Middlewares/tensorflow/third_party/cmsis_nn/Include/Internal/arm_nn_compiler.h ****  * @brief Arm C-Language Extension(ACLE) Includes
  37:Middlewares/tensorflow/third_party/cmsis_nn/Include/Internal/arm_nn_compiler.h ****  *
  38:Middlewares/tensorflow/third_party/cmsis_nn/Include/Internal/arm_nn_compiler.h ****  */
  39:Middlewares/tensorflow/third_party/cmsis_nn/Include/Internal/arm_nn_compiler.h **** 
  40:Middlewares/tensorflow/third_party/cmsis_nn/Include/Internal/arm_nn_compiler.h **** #if defined(__ARMCC_VERSION) && (__ARMCC_VERSION >= 6010050)
  41:Middlewares/tensorflow/third_party/cmsis_nn/Include/Internal/arm_nn_compiler.h **** 
  42:Middlewares/tensorflow/third_party/cmsis_nn/Include/Internal/arm_nn_compiler.h ****     #ifndef __ASM
  43:Middlewares/tensorflow/third_party/cmsis_nn/Include/Internal/arm_nn_compiler.h ****         #define __ASM __asm
  44:Middlewares/tensorflow/third_party/cmsis_nn/Include/Internal/arm_nn_compiler.h ****     #endif
  45:Middlewares/tensorflow/third_party/cmsis_nn/Include/Internal/arm_nn_compiler.h ****     #ifndef __INLINE
  46:Middlewares/tensorflow/third_party/cmsis_nn/Include/Internal/arm_nn_compiler.h ****         #define __INLINE __inline
  47:Middlewares/tensorflow/third_party/cmsis_nn/Include/Internal/arm_nn_compiler.h ****     #endif
  48:Middlewares/tensorflow/third_party/cmsis_nn/Include/Internal/arm_nn_compiler.h ****     #ifndef __STATIC_INLINE
  49:Middlewares/tensorflow/third_party/cmsis_nn/Include/Internal/arm_nn_compiler.h ****         #define __STATIC_INLINE static __inline
  50:Middlewares/tensorflow/third_party/cmsis_nn/Include/Internal/arm_nn_compiler.h ****     #endif
  51:Middlewares/tensorflow/third_party/cmsis_nn/Include/Internal/arm_nn_compiler.h ****     #ifndef __STATIC_FORCEINLINE
  52:Middlewares/tensorflow/third_party/cmsis_nn/Include/Internal/arm_nn_compiler.h ****         #define __STATIC_FORCEINLINE __attribute__((always_inline)) static __inline
  53:Middlewares/tensorflow/third_party/cmsis_nn/Include/Internal/arm_nn_compiler.h ****     #endif
  54:Middlewares/tensorflow/third_party/cmsis_nn/Include/Internal/arm_nn_compiler.h ****     #ifndef __RESTRICT
  55:Middlewares/tensorflow/third_party/cmsis_nn/Include/Internal/arm_nn_compiler.h ****         #define __RESTRICT __restrict
  56:Middlewares/tensorflow/third_party/cmsis_nn/Include/Internal/arm_nn_compiler.h ****     #endif
  57:Middlewares/tensorflow/third_party/cmsis_nn/Include/Internal/arm_nn_compiler.h **** 
  58:Middlewares/tensorflow/third_party/cmsis_nn/Include/Internal/arm_nn_compiler.h **** #elif defined(__ICCARM__)
  59:Middlewares/tensorflow/third_party/cmsis_nn/Include/Internal/arm_nn_compiler.h **** 
  60:Middlewares/tensorflow/third_party/cmsis_nn/Include/Internal/arm_nn_compiler.h ****     // #warning IAR support is not tested
  61:Middlewares/tensorflow/third_party/cmsis_nn/Include/Internal/arm_nn_compiler.h ****     #ifndef __ASM
  62:Middlewares/tensorflow/third_party/cmsis_nn/Include/Internal/arm_nn_compiler.h ****         #define __ASM __asm
  63:Middlewares/tensorflow/third_party/cmsis_nn/Include/Internal/arm_nn_compiler.h ****     #endif
  64:Middlewares/tensorflow/third_party/cmsis_nn/Include/Internal/arm_nn_compiler.h ****     #ifndef __INLINE
  65:Middlewares/tensorflow/third_party/cmsis_nn/Include/Internal/arm_nn_compiler.h ****         #define __INLINE inline
  66:Middlewares/tensorflow/third_party/cmsis_nn/Include/Internal/arm_nn_compiler.h ****     #endif
  67:Middlewares/tensorflow/third_party/cmsis_nn/Include/Internal/arm_nn_compiler.h ****     #ifndef __STATIC_INLINE
  68:Middlewares/tensorflow/third_party/cmsis_nn/Include/Internal/arm_nn_compiler.h ****         #define __STATIC_INLINE static inline
  69:Middlewares/tensorflow/third_party/cmsis_nn/Include/Internal/arm_nn_compiler.h ****     #endif
  70:Middlewares/tensorflow/third_party/cmsis_nn/Include/Internal/arm_nn_compiler.h ****     #ifndef __FORCEINLINE
  71:Middlewares/tensorflow/third_party/cmsis_nn/Include/Internal/arm_nn_compiler.h ****         #define __FORCEINLINE _Pragma("inline=forced")
  72:Middlewares/tensorflow/third_party/cmsis_nn/Include/Internal/arm_nn_compiler.h ****     #endif
  73:Middlewares/tensorflow/third_party/cmsis_nn/Include/Internal/arm_nn_compiler.h ****     #ifndef __STATIC_FORCEINLINE
  74:Middlewares/tensorflow/third_party/cmsis_nn/Include/Internal/arm_nn_compiler.h ****         #define __STATIC_FORCEINLINE __FORCEINLINE __STATIC_INLINE
  75:Middlewares/tensorflow/third_party/cmsis_nn/Include/Internal/arm_nn_compiler.h ****     #endif
  76:Middlewares/tensorflow/third_party/cmsis_nn/Include/Internal/arm_nn_compiler.h ****     #ifndef __RESTRICT
  77:Middlewares/tensorflow/third_party/cmsis_nn/Include/Internal/arm_nn_compiler.h ****         #define __RESTRICT restrict
  78:Middlewares/tensorflow/third_party/cmsis_nn/Include/Internal/arm_nn_compiler.h ****     #endif
  79:Middlewares/tensorflow/third_party/cmsis_nn/Include/Internal/arm_nn_compiler.h **** 
  80:Middlewares/tensorflow/third_party/cmsis_nn/Include/Internal/arm_nn_compiler.h **** #elif defined(_MSC_VER)
  81:Middlewares/tensorflow/third_party/cmsis_nn/Include/Internal/arm_nn_compiler.h **** 
ARM GAS  /tmp/ccReUFVW.s 			page 23


  82:Middlewares/tensorflow/third_party/cmsis_nn/Include/Internal/arm_nn_compiler.h ****     // Build for non Arm Cortex-M processors is not tested or supported.
  83:Middlewares/tensorflow/third_party/cmsis_nn/Include/Internal/arm_nn_compiler.h ****     // Use this section to stub any macros or intrinsics
  84:Middlewares/tensorflow/third_party/cmsis_nn/Include/Internal/arm_nn_compiler.h ****     #warning Unsupported compiler
  85:Middlewares/tensorflow/third_party/cmsis_nn/Include/Internal/arm_nn_compiler.h ****     #ifndef __STATIC_FORCEINLINE
  86:Middlewares/tensorflow/third_party/cmsis_nn/Include/Internal/arm_nn_compiler.h ****         #define __STATIC_FORCEINLINE static __forceinline
  87:Middlewares/tensorflow/third_party/cmsis_nn/Include/Internal/arm_nn_compiler.h ****     #endif
  88:Middlewares/tensorflow/third_party/cmsis_nn/Include/Internal/arm_nn_compiler.h ****     #ifndef __STATIC_INLINE
  89:Middlewares/tensorflow/third_party/cmsis_nn/Include/Internal/arm_nn_compiler.h ****         #define __STATIC_INLINE static __inline
  90:Middlewares/tensorflow/third_party/cmsis_nn/Include/Internal/arm_nn_compiler.h ****     #endif
  91:Middlewares/tensorflow/third_party/cmsis_nn/Include/Internal/arm_nn_compiler.h ****     #ifndef __ALIGNED
  92:Middlewares/tensorflow/third_party/cmsis_nn/Include/Internal/arm_nn_compiler.h ****         #define __ALIGNED(x) __declspec(align(x))
  93:Middlewares/tensorflow/third_party/cmsis_nn/Include/Internal/arm_nn_compiler.h ****     #endif
  94:Middlewares/tensorflow/third_party/cmsis_nn/Include/Internal/arm_nn_compiler.h **** 
  95:Middlewares/tensorflow/third_party/cmsis_nn/Include/Internal/arm_nn_compiler.h **** #elif defined(__GNUC__)
  96:Middlewares/tensorflow/third_party/cmsis_nn/Include/Internal/arm_nn_compiler.h **** 
  97:Middlewares/tensorflow/third_party/cmsis_nn/Include/Internal/arm_nn_compiler.h ****     #ifndef __ASM
  98:Middlewares/tensorflow/third_party/cmsis_nn/Include/Internal/arm_nn_compiler.h ****         #define __ASM __asm
  99:Middlewares/tensorflow/third_party/cmsis_nn/Include/Internal/arm_nn_compiler.h ****     #endif
 100:Middlewares/tensorflow/third_party/cmsis_nn/Include/Internal/arm_nn_compiler.h ****     #ifndef __INLINE
 101:Middlewares/tensorflow/third_party/cmsis_nn/Include/Internal/arm_nn_compiler.h ****         #define __INLINE inline
 102:Middlewares/tensorflow/third_party/cmsis_nn/Include/Internal/arm_nn_compiler.h ****     #endif
 103:Middlewares/tensorflow/third_party/cmsis_nn/Include/Internal/arm_nn_compiler.h ****     #ifndef __STATIC_INLINE
 104:Middlewares/tensorflow/third_party/cmsis_nn/Include/Internal/arm_nn_compiler.h ****         #define __STATIC_INLINE static inline
 105:Middlewares/tensorflow/third_party/cmsis_nn/Include/Internal/arm_nn_compiler.h ****     #endif
 106:Middlewares/tensorflow/third_party/cmsis_nn/Include/Internal/arm_nn_compiler.h ****     #ifndef __STATIC_FORCEINLINE
 107:Middlewares/tensorflow/third_party/cmsis_nn/Include/Internal/arm_nn_compiler.h ****         #define __STATIC_FORCEINLINE __attribute__((always_inline)) static inline
 108:Middlewares/tensorflow/third_party/cmsis_nn/Include/Internal/arm_nn_compiler.h ****     #endif
 109:Middlewares/tensorflow/third_party/cmsis_nn/Include/Internal/arm_nn_compiler.h ****     #ifndef __RESTRICT
 110:Middlewares/tensorflow/third_party/cmsis_nn/Include/Internal/arm_nn_compiler.h ****         #define __RESTRICT __restrict
 111:Middlewares/tensorflow/third_party/cmsis_nn/Include/Internal/arm_nn_compiler.h ****     #endif
 112:Middlewares/tensorflow/third_party/cmsis_nn/Include/Internal/arm_nn_compiler.h **** 
 113:Middlewares/tensorflow/third_party/cmsis_nn/Include/Internal/arm_nn_compiler.h **** #else
 114:Middlewares/tensorflow/third_party/cmsis_nn/Include/Internal/arm_nn_compiler.h **** 
 115:Middlewares/tensorflow/third_party/cmsis_nn/Include/Internal/arm_nn_compiler.h ****     #error Unsupported compiler. Add support as needed
 116:Middlewares/tensorflow/third_party/cmsis_nn/Include/Internal/arm_nn_compiler.h **** 
 117:Middlewares/tensorflow/third_party/cmsis_nn/Include/Internal/arm_nn_compiler.h **** #endif
 118:Middlewares/tensorflow/third_party/cmsis_nn/Include/Internal/arm_nn_compiler.h **** 
 119:Middlewares/tensorflow/third_party/cmsis_nn/Include/Internal/arm_nn_compiler.h **** /**
 120:Middlewares/tensorflow/third_party/cmsis_nn/Include/Internal/arm_nn_compiler.h ****  *
 121:Middlewares/tensorflow/third_party/cmsis_nn/Include/Internal/arm_nn_compiler.h ****  * @brief Compiler specific diagnostic adjustment / fixes if applicable
 122:Middlewares/tensorflow/third_party/cmsis_nn/Include/Internal/arm_nn_compiler.h ****  *
 123:Middlewares/tensorflow/third_party/cmsis_nn/Include/Internal/arm_nn_compiler.h ****  */
 124:Middlewares/tensorflow/third_party/cmsis_nn/Include/Internal/arm_nn_compiler.h **** 
 125:Middlewares/tensorflow/third_party/cmsis_nn/Include/Internal/arm_nn_compiler.h **** // Note: __ARM_ARCH is used with M-profile architecture as the target here.
 126:Middlewares/tensorflow/third_party/cmsis_nn/Include/Internal/arm_nn_compiler.h **** #if defined(__GNUC__)
 127:Middlewares/tensorflow/third_party/cmsis_nn/Include/Internal/arm_nn_compiler.h ****     #if (__GNUC__ == 12 && (__GNUC_MINOR__ <= 2)) && defined(__ARM_ARCH)
 128:Middlewares/tensorflow/third_party/cmsis_nn/Include/Internal/arm_nn_compiler.h ****         // Workaround for 'Internal Compiler Error' on Arm GNU Toolchain rel 12.2.x
 129:Middlewares/tensorflow/third_party/cmsis_nn/Include/Internal/arm_nn_compiler.h ****         // https://gcc.gnu.org/pipermail/gcc-patches/2022-December/607963.html
 130:Middlewares/tensorflow/third_party/cmsis_nn/Include/Internal/arm_nn_compiler.h ****         #define ARM_GCC_12_2_ICE
 131:Middlewares/tensorflow/third_party/cmsis_nn/Include/Internal/arm_nn_compiler.h ****     #endif
 132:Middlewares/tensorflow/third_party/cmsis_nn/Include/Internal/arm_nn_compiler.h **** #endif
 133:Middlewares/tensorflow/third_party/cmsis_nn/Include/Internal/arm_nn_compiler.h **** 
 134:Middlewares/tensorflow/third_party/cmsis_nn/Include/Internal/arm_nn_compiler.h **** #if ((__ARM_FEATURE_MVE & 3) == 3) || (__ARM_FEATURE_MVE & 1)
 135:Middlewares/tensorflow/third_party/cmsis_nn/Include/Internal/arm_nn_compiler.h ****     #include <arm_mve.h>
 136:Middlewares/tensorflow/third_party/cmsis_nn/Include/Internal/arm_nn_compiler.h **** #endif
 137:Middlewares/tensorflow/third_party/cmsis_nn/Include/Internal/arm_nn_compiler.h **** 
 138:Middlewares/tensorflow/third_party/cmsis_nn/Include/Internal/arm_nn_compiler.h **** #if defined(__ARM_ARCH) || defined(__ARM_ACLE)
ARM GAS  /tmp/ccReUFVW.s 			page 24


 139:Middlewares/tensorflow/third_party/cmsis_nn/Include/Internal/arm_nn_compiler.h ****     #include <arm_acle.h>
 140:Middlewares/tensorflow/third_party/cmsis_nn/Include/Internal/arm_nn_compiler.h **** #endif
 141:Middlewares/tensorflow/third_party/cmsis_nn/Include/Internal/arm_nn_compiler.h **** 
 142:Middlewares/tensorflow/third_party/cmsis_nn/Include/Internal/arm_nn_compiler.h **** /**
 143:Middlewares/tensorflow/third_party/cmsis_nn/Include/Internal/arm_nn_compiler.h ****  *
 144:Middlewares/tensorflow/third_party/cmsis_nn/Include/Internal/arm_nn_compiler.h ****  * @brief ACLE and Intrinsics
 145:Middlewares/tensorflow/third_party/cmsis_nn/Include/Internal/arm_nn_compiler.h ****  *
 146:Middlewares/tensorflow/third_party/cmsis_nn/Include/Internal/arm_nn_compiler.h ****  */
 147:Middlewares/tensorflow/third_party/cmsis_nn/Include/Internal/arm_nn_compiler.h **** 
 148:Middlewares/tensorflow/third_party/cmsis_nn/Include/Internal/arm_nn_compiler.h **** // Note: Have __GNUC__, that is used to check for GCC , checks at the end
 149:Middlewares/tensorflow/third_party/cmsis_nn/Include/Internal/arm_nn_compiler.h **** // as __GNUC__ is defined by non-GCC compilers as well
 150:Middlewares/tensorflow/third_party/cmsis_nn/Include/Internal/arm_nn_compiler.h **** 
 151:Middlewares/tensorflow/third_party/cmsis_nn/Include/Internal/arm_nn_compiler.h **** /* Common intrinsics for all architectures */
 152:Middlewares/tensorflow/third_party/cmsis_nn/Include/Internal/arm_nn_compiler.h **** #if defined(__ARMCC_VERSION) && (__ARMCC_VERSION >= 6010050) || defined(__ICCARM__)
 153:Middlewares/tensorflow/third_party/cmsis_nn/Include/Internal/arm_nn_compiler.h ****     #define CLZ __clz
 154:Middlewares/tensorflow/third_party/cmsis_nn/Include/Internal/arm_nn_compiler.h **** #elif defined(__GNUC__)
 155:Middlewares/tensorflow/third_party/cmsis_nn/Include/Internal/arm_nn_compiler.h **** /**
 156:Middlewares/tensorflow/third_party/cmsis_nn/Include/Internal/arm_nn_compiler.h ****   \brief   Count leading zeros
 157:Middlewares/tensorflow/third_party/cmsis_nn/Include/Internal/arm_nn_compiler.h ****   \details Counts the number of leading zeros of a data value.
 158:Middlewares/tensorflow/third_party/cmsis_nn/Include/Internal/arm_nn_compiler.h ****   \param [in]  value  Value to count the leading zeros
 159:Middlewares/tensorflow/third_party/cmsis_nn/Include/Internal/arm_nn_compiler.h ****   \return             number of leading zeros in value
 160:Middlewares/tensorflow/third_party/cmsis_nn/Include/Internal/arm_nn_compiler.h ****  */
 161:Middlewares/tensorflow/third_party/cmsis_nn/Include/Internal/arm_nn_compiler.h **** __STATIC_FORCEINLINE uint8_t CLZ(uint32_t value)
 162:Middlewares/tensorflow/third_party/cmsis_nn/Include/Internal/arm_nn_compiler.h **** {
 163:Middlewares/tensorflow/third_party/cmsis_nn/Include/Internal/arm_nn_compiler.h ****     /* Even though __builtin_clz produces a CLZ instruction on ARM, formally
 164:Middlewares/tensorflow/third_party/cmsis_nn/Include/Internal/arm_nn_compiler.h ****        __builtin_clz(0) is undefined behaviour, so handle this case specially.
 165:Middlewares/tensorflow/third_party/cmsis_nn/Include/Internal/arm_nn_compiler.h ****        This guarantees Arm-compatible results if compiling on a non-Arm
 166:Middlewares/tensorflow/third_party/cmsis_nn/Include/Internal/arm_nn_compiler.h ****        target, and ensures the compiler doesn't decide to activate any
 167:Middlewares/tensorflow/third_party/cmsis_nn/Include/Internal/arm_nn_compiler.h ****        optimisations using the logic "value was passed to __builtin_clz, so it
 168:Middlewares/tensorflow/third_party/cmsis_nn/Include/Internal/arm_nn_compiler.h ****        is non-zero".
 169:Middlewares/tensorflow/third_party/cmsis_nn/Include/Internal/arm_nn_compiler.h ****        ARM GCC 7.3 and possibly earlier will optimise this test away, leaving a
 170:Middlewares/tensorflow/third_party/cmsis_nn/Include/Internal/arm_nn_compiler.h ****        single CLZ instruction.
 171:Middlewares/tensorflow/third_party/cmsis_nn/Include/Internal/arm_nn_compiler.h ****      */
 172:Middlewares/tensorflow/third_party/cmsis_nn/Include/Internal/arm_nn_compiler.h ****     if (value == 0U)
 173:Middlewares/tensorflow/third_party/cmsis_nn/Include/Internal/arm_nn_compiler.h ****     {
 174:Middlewares/tensorflow/third_party/cmsis_nn/Include/Internal/arm_nn_compiler.h ****         return 32U;
 175:Middlewares/tensorflow/third_party/cmsis_nn/Include/Internal/arm_nn_compiler.h ****     }
 176:Middlewares/tensorflow/third_party/cmsis_nn/Include/Internal/arm_nn_compiler.h ****     return __builtin_clz(value);
 177:Middlewares/tensorflow/third_party/cmsis_nn/Include/Internal/arm_nn_compiler.h **** }
 178:Middlewares/tensorflow/third_party/cmsis_nn/Include/Internal/arm_nn_compiler.h **** #endif
 179:Middlewares/tensorflow/third_party/cmsis_nn/Include/Internal/arm_nn_compiler.h **** 
 180:Middlewares/tensorflow/third_party/cmsis_nn/Include/Internal/arm_nn_compiler.h **** // ACLE intrinsics under groups __ARM_FEATURE_QBIT, __ARM_FEATURE_DSP , __ARM_FEATURE_SAT, __ARM_FE
 181:Middlewares/tensorflow/third_party/cmsis_nn/Include/Internal/arm_nn_compiler.h **** 
 182:Middlewares/tensorflow/third_party/cmsis_nn/Include/Internal/arm_nn_compiler.h **** // Note: Just __ARM_FEATURE_DSP is checked to collect all intrinsics from the above mentioned group
 183:Middlewares/tensorflow/third_party/cmsis_nn/Include/Internal/arm_nn_compiler.h **** 
 184:Middlewares/tensorflow/third_party/cmsis_nn/Include/Internal/arm_nn_compiler.h **** #if (defined(__ARM_FEATURE_DSP) && (__ARM_FEATURE_DSP == 1))
 185:Middlewares/tensorflow/third_party/cmsis_nn/Include/Internal/arm_nn_compiler.h **** 
 186:Middlewares/tensorflow/third_party/cmsis_nn/Include/Internal/arm_nn_compiler.h ****     // Common intrinsics
 187:Middlewares/tensorflow/third_party/cmsis_nn/Include/Internal/arm_nn_compiler.h ****     #define SMLABB __smlabb
 188:Middlewares/tensorflow/third_party/cmsis_nn/Include/Internal/arm_nn_compiler.h ****     #define SMLATT __smlatt
 189:Middlewares/tensorflow/third_party/cmsis_nn/Include/Internal/arm_nn_compiler.h ****     #define QADD __qadd
 190:Middlewares/tensorflow/third_party/cmsis_nn/Include/Internal/arm_nn_compiler.h ****     #define QSUB8 __qsub8
 191:Middlewares/tensorflow/third_party/cmsis_nn/Include/Internal/arm_nn_compiler.h ****     #define QSUB16 __qsub16
 192:Middlewares/tensorflow/third_party/cmsis_nn/Include/Internal/arm_nn_compiler.h ****     #define SADD16 __sadd16
 193:Middlewares/tensorflow/third_party/cmsis_nn/Include/Internal/arm_nn_compiler.h **** 
 194:Middlewares/tensorflow/third_party/cmsis_nn/Include/Internal/arm_nn_compiler.h ****     // Compiler specifc variants of intrinsics. Create a new section or file for IAR if needed
 195:Middlewares/tensorflow/third_party/cmsis_nn/Include/Internal/arm_nn_compiler.h ****     #if defined(__ARMCC_VERSION) && (__ARMCC_VERSION >= 6010050) || defined(__ICCARM__)
ARM GAS  /tmp/ccReUFVW.s 			page 25


 196:Middlewares/tensorflow/third_party/cmsis_nn/Include/Internal/arm_nn_compiler.h **** 
 197:Middlewares/tensorflow/third_party/cmsis_nn/Include/Internal/arm_nn_compiler.h ****         #define SMULBB __smulbb
 198:Middlewares/tensorflow/third_party/cmsis_nn/Include/Internal/arm_nn_compiler.h ****         #define SMULTT __smultt
 199:Middlewares/tensorflow/third_party/cmsis_nn/Include/Internal/arm_nn_compiler.h ****         #define ROR __ror
 200:Middlewares/tensorflow/third_party/cmsis_nn/Include/Internal/arm_nn_compiler.h ****         #define SXTB16 __sxtb16
 201:Middlewares/tensorflow/third_party/cmsis_nn/Include/Internal/arm_nn_compiler.h ****         #define SXTAB16 __sxtab16
 202:Middlewares/tensorflow/third_party/cmsis_nn/Include/Internal/arm_nn_compiler.h ****         #define SXTB16_RORn(ARG1, ARG2) SXTB16(ROR(ARG1, ARG2))
 203:Middlewares/tensorflow/third_party/cmsis_nn/Include/Internal/arm_nn_compiler.h ****         #define SXTAB16_RORn(ARG1, ARG2, ARG3) SXTAB16(ARG1, ROR(ARG2, ARG3))
 204:Middlewares/tensorflow/third_party/cmsis_nn/Include/Internal/arm_nn_compiler.h ****         #define SMLAD __smlad
 205:Middlewares/tensorflow/third_party/cmsis_nn/Include/Internal/arm_nn_compiler.h ****         // PKH<XY> translates into pkh<xy> on AC6
 206:Middlewares/tensorflow/third_party/cmsis_nn/Include/Internal/arm_nn_compiler.h ****         #define PKHBT(ARG1, ARG2, ARG3)                                                            
 207:Middlewares/tensorflow/third_party/cmsis_nn/Include/Internal/arm_nn_compiler.h ****             (((((uint32_t)(ARG1))) & 0x0000FFFFUL) | ((((uint32_t)(ARG2)) << (ARG3)) & 0xFFFF0000UL
 208:Middlewares/tensorflow/third_party/cmsis_nn/Include/Internal/arm_nn_compiler.h ****         #define PKHTB(ARG1, ARG2, ARG3)                                                            
 209:Middlewares/tensorflow/third_party/cmsis_nn/Include/Internal/arm_nn_compiler.h ****             (((((uint32_t)(ARG1))) & 0xFFFF0000UL) | ((((uint32_t)(ARG2)) >> (ARG3)) & 0x0000FFFFUL
 210:Middlewares/tensorflow/third_party/cmsis_nn/Include/Internal/arm_nn_compiler.h **** 
 211:Middlewares/tensorflow/third_party/cmsis_nn/Include/Internal/arm_nn_compiler.h ****     #elif defined(__GNUC__)
 212:Middlewares/tensorflow/third_party/cmsis_nn/Include/Internal/arm_nn_compiler.h **** 
 213:Middlewares/tensorflow/third_party/cmsis_nn/Include/Internal/arm_nn_compiler.h ****         #define PKHBT(ARG1, ARG2, ARG3)                                                            
 214:Middlewares/tensorflow/third_party/cmsis_nn/Include/Internal/arm_nn_compiler.h ****             __extension__({                                                                        
 215:Middlewares/tensorflow/third_party/cmsis_nn/Include/Internal/arm_nn_compiler.h ****                 uint32_t __RES, __ARG1 = (ARG1), __ARG2 = (ARG2);                                  
 216:Middlewares/tensorflow/third_party/cmsis_nn/Include/Internal/arm_nn_compiler.h ****                 __ASM("pkhbt %0, %1, %2, lsl %3" : "=r"(__RES) : "r"(__ARG1), "r"(__ARG2), "I"(ARG3
 217:Middlewares/tensorflow/third_party/cmsis_nn/Include/Internal/arm_nn_compiler.h ****                 __RES;                                                                             
 218:Middlewares/tensorflow/third_party/cmsis_nn/Include/Internal/arm_nn_compiler.h ****             })
 219:Middlewares/tensorflow/third_party/cmsis_nn/Include/Internal/arm_nn_compiler.h ****         #define PKHTB(ARG1, ARG2, ARG3)                                                            
 220:Middlewares/tensorflow/third_party/cmsis_nn/Include/Internal/arm_nn_compiler.h ****             __extension__({                                                                        
 221:Middlewares/tensorflow/third_party/cmsis_nn/Include/Internal/arm_nn_compiler.h ****                 uint32_t __RES, __ARG1 = (ARG1), __ARG2 = (ARG2);                                  
 222:Middlewares/tensorflow/third_party/cmsis_nn/Include/Internal/arm_nn_compiler.h ****                 if (ARG3 == 0)                                                                     
 223:Middlewares/tensorflow/third_party/cmsis_nn/Include/Internal/arm_nn_compiler.h ****                     __ASM("pkhtb %0, %1, %2" : "=r"(__RES) : "r"(__ARG1), "r"(__ARG2));            
 224:Middlewares/tensorflow/third_party/cmsis_nn/Include/Internal/arm_nn_compiler.h ****                 else                                                                               
 225:Middlewares/tensorflow/third_party/cmsis_nn/Include/Internal/arm_nn_compiler.h ****                     __ASM("pkhtb %0, %1, %2, asr %3" : "=r"(__RES) : "r"(__ARG1), "r"(__ARG2), "I"(
 226:Middlewares/tensorflow/third_party/cmsis_nn/Include/Internal/arm_nn_compiler.h ****                 __RES;                                                                             
 227:Middlewares/tensorflow/third_party/cmsis_nn/Include/Internal/arm_nn_compiler.h ****             })
 228:Middlewares/tensorflow/third_party/cmsis_nn/Include/Internal/arm_nn_compiler.h **** 
 229:Middlewares/tensorflow/third_party/cmsis_nn/Include/Internal/arm_nn_compiler.h **** __STATIC_FORCEINLINE uint32_t SXTAB16(uint32_t op1, uint32_t op2)
 230:Middlewares/tensorflow/third_party/cmsis_nn/Include/Internal/arm_nn_compiler.h **** {
 231:Middlewares/tensorflow/third_party/cmsis_nn/Include/Internal/arm_nn_compiler.h ****     uint32_t result;
 232:Middlewares/tensorflow/third_party/cmsis_nn/Include/Internal/arm_nn_compiler.h **** 
 233:Middlewares/tensorflow/third_party/cmsis_nn/Include/Internal/arm_nn_compiler.h ****     __ASM("sxtab16 %0, %1, %2" : "=r"(result) : "r"(op1), "r"(op2));
 234:Middlewares/tensorflow/third_party/cmsis_nn/Include/Internal/arm_nn_compiler.h ****     return (result);
 235:Middlewares/tensorflow/third_party/cmsis_nn/Include/Internal/arm_nn_compiler.h **** }
 236:Middlewares/tensorflow/third_party/cmsis_nn/Include/Internal/arm_nn_compiler.h **** 
 237:Middlewares/tensorflow/third_party/cmsis_nn/Include/Internal/arm_nn_compiler.h **** __STATIC_FORCEINLINE uint32_t SXTB16(uint32_t op1)
 238:Middlewares/tensorflow/third_party/cmsis_nn/Include/Internal/arm_nn_compiler.h **** {
 239:Middlewares/tensorflow/third_party/cmsis_nn/Include/Internal/arm_nn_compiler.h ****     uint32_t result;
 240:Middlewares/tensorflow/third_party/cmsis_nn/Include/Internal/arm_nn_compiler.h **** 
 241:Middlewares/tensorflow/third_party/cmsis_nn/Include/Internal/arm_nn_compiler.h ****     __ASM("sxtb16 %0, %1" : "=r"(result) : "r"(op1));
 242:Middlewares/tensorflow/third_party/cmsis_nn/Include/Internal/arm_nn_compiler.h ****     return (result);
 243:Middlewares/tensorflow/third_party/cmsis_nn/Include/Internal/arm_nn_compiler.h **** }
 244:Middlewares/tensorflow/third_party/cmsis_nn/Include/Internal/arm_nn_compiler.h **** 
 245:Middlewares/tensorflow/third_party/cmsis_nn/Include/Internal/arm_nn_compiler.h **** // __smlad is defined by GCC, but results in a performance drop(Tested on Arm GNU Toolchain version
 246:Middlewares/tensorflow/third_party/cmsis_nn/Include/Internal/arm_nn_compiler.h **** __STATIC_FORCEINLINE uint32_t SMLAD(uint32_t op1, uint32_t op2, uint32_t op3)
 247:Middlewares/tensorflow/third_party/cmsis_nn/Include/Internal/arm_nn_compiler.h **** {
 248:Middlewares/tensorflow/third_party/cmsis_nn/Include/Internal/arm_nn_compiler.h ****     uint32_t result;
 249:Middlewares/tensorflow/third_party/cmsis_nn/Include/Internal/arm_nn_compiler.h **** 
 250:Middlewares/tensorflow/third_party/cmsis_nn/Include/Internal/arm_nn_compiler.h ****     __ASM volatile("smlad %0, %1, %2, %3" : "=r"(result) : "r"(op1), "r"(op2), "r"(op3));
 251:Middlewares/tensorflow/third_party/cmsis_nn/Include/Internal/arm_nn_compiler.h ****     return (result);
 252:Middlewares/tensorflow/third_party/cmsis_nn/Include/Internal/arm_nn_compiler.h **** }
ARM GAS  /tmp/ccReUFVW.s 			page 26


 253:Middlewares/tensorflow/third_party/cmsis_nn/Include/Internal/arm_nn_compiler.h **** 
 254:Middlewares/tensorflow/third_party/cmsis_nn/Include/Internal/arm_nn_compiler.h **** __STATIC_FORCEINLINE uint32_t ROR(uint32_t op1, uint32_t op2)
 325              		.loc 3 254 31 discriminator 3 view .LVU106
 326              	.LBB99:
 255:Middlewares/tensorflow/third_party/cmsis_nn/Include/Internal/arm_nn_compiler.h **** {
 256:Middlewares/tensorflow/third_party/cmsis_nn/Include/Internal/arm_nn_compiler.h ****     op2 %= 32U;
 327              		.loc 3 256 5 discriminator 3 view .LVU107
 257:Middlewares/tensorflow/third_party/cmsis_nn/Include/Internal/arm_nn_compiler.h ****     if (op2 == 0U)
 328              		.loc 3 257 5 discriminator 3 view .LVU108
 258:Middlewares/tensorflow/third_party/cmsis_nn/Include/Internal/arm_nn_compiler.h ****     {
 259:Middlewares/tensorflow/third_party/cmsis_nn/Include/Internal/arm_nn_compiler.h ****         return op1;
 260:Middlewares/tensorflow/third_party/cmsis_nn/Include/Internal/arm_nn_compiler.h ****     }
 261:Middlewares/tensorflow/third_party/cmsis_nn/Include/Internal/arm_nn_compiler.h ****     return (op1 >> op2) | (op1 << (32U - op2));
 329              		.loc 3 261 5 discriminator 3 view .LVU109
 330              		.loc 3 261 25 is_stmt 0 discriminator 3 view .LVU110
 331 00e8 4FEA3221 		ror	r1, r2, #8
 332              	.LVL53:
 333              		.loc 3 261 25 discriminator 3 view .LVU111
 334              	.LBE99:
 335              	.LBE98:
 336              	.LBB100:
 337              	.LBI100:
 237:Middlewares/tensorflow/third_party/cmsis_nn/Include/Internal/arm_nn_compiler.h **** {
 338              		.loc 3 237 31 is_stmt 1 discriminator 3 view .LVU112
 339              	.LBB101:
 239:Middlewares/tensorflow/third_party/cmsis_nn/Include/Internal/arm_nn_compiler.h **** 
 340              		.loc 3 239 5 discriminator 3 view .LVU113
 241:Middlewares/tensorflow/third_party/cmsis_nn/Include/Internal/arm_nn_compiler.h ****     return (result);
 341              		.loc 3 241 5 discriminator 3 view .LVU114
 342              		.syntax unified
 343              	@ 241 "Middlewares/tensorflow/third_party/cmsis_nn/Include/Internal/arm_nn_compiler.h" 1
 344 00ec 2FFA81F1 		sxtb16 r1, r1
 345              	@ 0 "" 2
 346              	.LVL54:
 242:Middlewares/tensorflow/third_party/cmsis_nn/Include/Internal/arm_nn_compiler.h **** }
 347              		.loc 3 242 5 discriminator 3 view .LVU115
 242:Middlewares/tensorflow/third_party/cmsis_nn/Include/Internal/arm_nn_compiler.h **** }
 348              		.loc 3 242 5 is_stmt 0 discriminator 3 view .LVU116
 349              		.thumb
 350              		.syntax unified
 351              	.LBE101:
 352              	.LBE100:
 688:Middlewares/tensorflow/third_party/cmsis_nn/Include/arm_nnsupportfunctions.h ****     *out1 = SXTB16(inA);
 353              		.loc 2 688 5 is_stmt 1 discriminator 3 view .LVU117
 354              	.LBB102:
 355              	.LBI102:
 237:Middlewares/tensorflow/third_party/cmsis_nn/Include/Internal/arm_nn_compiler.h **** {
 356              		.loc 3 237 31 discriminator 3 view .LVU118
 357              	.LBB103:
 239:Middlewares/tensorflow/third_party/cmsis_nn/Include/Internal/arm_nn_compiler.h **** 
 358              		.loc 3 239 5 discriminator 3 view .LVU119
 241:Middlewares/tensorflow/third_party/cmsis_nn/Include/Internal/arm_nn_compiler.h ****     return (result);
 359              		.loc 3 241 5 discriminator 3 view .LVU120
 360              		.syntax unified
 361              	@ 241 "Middlewares/tensorflow/third_party/cmsis_nn/Include/Internal/arm_nn_compiler.h" 1
 362 00f0 2FFA82F2 		sxtb16 r2, r2
 363              	@ 0 "" 2
ARM GAS  /tmp/ccReUFVW.s 			page 27


 364              	.LVL55:
 242:Middlewares/tensorflow/third_party/cmsis_nn/Include/Internal/arm_nn_compiler.h **** }
 365              		.loc 3 242 5 discriminator 3 view .LVU121
 242:Middlewares/tensorflow/third_party/cmsis_nn/Include/Internal/arm_nn_compiler.h **** }
 366              		.loc 3 242 5 is_stmt 0 discriminator 3 view .LVU122
 367              		.thumb
 368              		.syntax unified
 369              	.LBE103:
 370              	.LBE102:
 689:Middlewares/tensorflow/third_party/cmsis_nn/Include/arm_nnsupportfunctions.h ****     #else
 690:Middlewares/tensorflow/third_party/cmsis_nn/Include/arm_nnsupportfunctions.h ****     *out1 = SXTB16(ROR((uint32_t)inA, 8));
 691:Middlewares/tensorflow/third_party/cmsis_nn/Include/arm_nnsupportfunctions.h ****     *out2 = SXTB16(inA);
 692:Middlewares/tensorflow/third_party/cmsis_nn/Include/arm_nnsupportfunctions.h ****     #endif
 693:Middlewares/tensorflow/third_party/cmsis_nn/Include/arm_nnsupportfunctions.h **** 
 694:Middlewares/tensorflow/third_party/cmsis_nn/Include/arm_nnsupportfunctions.h ****     return source;
 371              		.loc 2 694 5 is_stmt 1 discriminator 3 view .LVU123
 372              		.loc 2 694 5 is_stmt 0 discriminator 3 view .LVU124
 373              	.LBE95:
 374              	.LBE94:
 156:Middlewares/tensorflow/third_party/cmsis_nn/Source/SVDFunctions/arm_svdf_s8.c ****                     v2 = read_and_pad_reordered(v2, &r2_1, &r2_2);
 375              		.loc 1 156 21 is_stmt 1 discriminator 3 view .LVU125
 376              	.LBB104:
 377              	.LBI104:
 683:Middlewares/tensorflow/third_party/cmsis_nn/Include/arm_nnsupportfunctions.h **** {
 378              		.loc 2 683 36 discriminator 3 view .LVU126
 379              	.LBB105:
 685:Middlewares/tensorflow/third_party/cmsis_nn/Include/arm_nnsupportfunctions.h ****     #ifndef ARM_MATH_BIG_ENDIAN
 380              		.loc 2 685 5 discriminator 3 view .LVU127
 381              	.LBB106:
 382              	.LBI106:
 586:Middlewares/tensorflow/third_party/cmsis_nn/Include/arm_nnsupportfunctions.h **** {
 383              		.loc 2 586 30 discriminator 3 view .LVU128
 384              	.LBB107:
 588:Middlewares/tensorflow/third_party/cmsis_nn/Include/arm_nnsupportfunctions.h ****     memcpy(&val, *in_s8, 4);
 385              		.loc 2 588 5 discriminator 3 view .LVU129
 589:Middlewares/tensorflow/third_party/cmsis_nn/Include/arm_nnsupportfunctions.h ****     *in_s8 += 4;
 386              		.loc 2 589 5 discriminator 3 view .LVU130
 387 00f4 55F8044B 		ldr	r4, [r5], #4	@ unaligned
 388              	.LVL56:
 590:Middlewares/tensorflow/third_party/cmsis_nn/Include/arm_nnsupportfunctions.h **** 
 389              		.loc 2 590 5 discriminator 3 view .LVU131
 592:Middlewares/tensorflow/third_party/cmsis_nn/Include/arm_nnsupportfunctions.h **** }
 390              		.loc 2 592 5 discriminator 3 view .LVU132
 592:Middlewares/tensorflow/third_party/cmsis_nn/Include/arm_nnsupportfunctions.h **** }
 391              		.loc 2 592 5 is_stmt 0 discriminator 3 view .LVU133
 392              	.LBE107:
 393              	.LBE106:
 687:Middlewares/tensorflow/third_party/cmsis_nn/Include/arm_nnsupportfunctions.h ****     *out1 = SXTB16(inA);
 394              		.loc 2 687 5 is_stmt 1 discriminator 3 view .LVU134
 395              	.LBB108:
 396              	.LBI108:
 254:Middlewares/tensorflow/third_party/cmsis_nn/Include/Internal/arm_nn_compiler.h **** {
 397              		.loc 3 254 31 discriminator 3 view .LVU135
 398              	.LBB109:
 256:Middlewares/tensorflow/third_party/cmsis_nn/Include/Internal/arm_nn_compiler.h ****     if (op2 == 0U)
 399              		.loc 3 256 5 discriminator 3 view .LVU136
 257:Middlewares/tensorflow/third_party/cmsis_nn/Include/Internal/arm_nn_compiler.h ****     {
ARM GAS  /tmp/ccReUFVW.s 			page 28


 400              		.loc 3 257 5 discriminator 3 view .LVU137
 401              		.loc 3 261 5 discriminator 3 view .LVU138
 402              		.loc 3 261 25 is_stmt 0 discriminator 3 view .LVU139
 403 00f8 4FEA342C 		ror	ip, r4, #8
 404              	.LVL57:
 405              		.loc 3 261 25 discriminator 3 view .LVU140
 406              	.LBE109:
 407              	.LBE108:
 408              	.LBB110:
 409              	.LBI110:
 237:Middlewares/tensorflow/third_party/cmsis_nn/Include/Internal/arm_nn_compiler.h **** {
 410              		.loc 3 237 31 is_stmt 1 discriminator 3 view .LVU141
 411              	.LBB111:
 239:Middlewares/tensorflow/third_party/cmsis_nn/Include/Internal/arm_nn_compiler.h **** 
 412              		.loc 3 239 5 discriminator 3 view .LVU142
 241:Middlewares/tensorflow/third_party/cmsis_nn/Include/Internal/arm_nn_compiler.h ****     return (result);
 413              		.loc 3 241 5 discriminator 3 view .LVU143
 414              		.syntax unified
 415              	@ 241 "Middlewares/tensorflow/third_party/cmsis_nn/Include/Internal/arm_nn_compiler.h" 1
 416 00fc 2FFA8CFC 		sxtb16 ip, ip
 417              	@ 0 "" 2
 418              	.LVL58:
 242:Middlewares/tensorflow/third_party/cmsis_nn/Include/Internal/arm_nn_compiler.h **** }
 419              		.loc 3 242 5 discriminator 3 view .LVU144
 242:Middlewares/tensorflow/third_party/cmsis_nn/Include/Internal/arm_nn_compiler.h **** }
 420              		.loc 3 242 5 is_stmt 0 discriminator 3 view .LVU145
 421              		.thumb
 422              		.syntax unified
 423              	.LBE111:
 424              	.LBE110:
 688:Middlewares/tensorflow/third_party/cmsis_nn/Include/arm_nnsupportfunctions.h ****     #else
 425              		.loc 2 688 5 is_stmt 1 discriminator 3 view .LVU146
 426              	.LBB112:
 427              	.LBI112:
 237:Middlewares/tensorflow/third_party/cmsis_nn/Include/Internal/arm_nn_compiler.h **** {
 428              		.loc 3 237 31 discriminator 3 view .LVU147
 429              	.LBB113:
 239:Middlewares/tensorflow/third_party/cmsis_nn/Include/Internal/arm_nn_compiler.h **** 
 430              		.loc 3 239 5 discriminator 3 view .LVU148
 241:Middlewares/tensorflow/third_party/cmsis_nn/Include/Internal/arm_nn_compiler.h ****     return (result);
 431              		.loc 3 241 5 discriminator 3 view .LVU149
 432              		.syntax unified
 433              	@ 241 "Middlewares/tensorflow/third_party/cmsis_nn/Include/Internal/arm_nn_compiler.h" 1
 434 0100 2FFA84F4 		sxtb16 r4, r4
 435              	@ 0 "" 2
 436              	.LVL59:
 242:Middlewares/tensorflow/third_party/cmsis_nn/Include/Internal/arm_nn_compiler.h **** }
 437              		.loc 3 242 5 discriminator 3 view .LVU150
 242:Middlewares/tensorflow/third_party/cmsis_nn/Include/Internal/arm_nn_compiler.h **** }
 438              		.loc 3 242 5 is_stmt 0 discriminator 3 view .LVU151
 439              		.thumb
 440              		.syntax unified
 441              	.LBE113:
 442              	.LBE112:
 443              		.loc 2 694 5 is_stmt 1 discriminator 3 view .LVU152
 444              		.loc 2 694 5 is_stmt 0 discriminator 3 view .LVU153
 445              	.LBE105:
ARM GAS  /tmp/ccReUFVW.s 			page 29


 446              	.LBE104:
 157:Middlewares/tensorflow/third_party/cmsis_nn/Source/SVDFunctions/arm_svdf_s8.c ****                     sum = SMLAD(r1_1, r2_1, sum);
 447              		.loc 1 157 21 is_stmt 1 discriminator 3 view .LVU154
 448              	.LBB114:
 449              	.LBI114:
 246:Middlewares/tensorflow/third_party/cmsis_nn/Include/Internal/arm_nn_compiler.h **** {
 450              		.loc 3 246 31 discriminator 3 view .LVU155
 451              	.LBB115:
 248:Middlewares/tensorflow/third_party/cmsis_nn/Include/Internal/arm_nn_compiler.h **** 
 452              		.loc 3 248 5 discriminator 3 view .LVU156
 250:Middlewares/tensorflow/third_party/cmsis_nn/Include/Internal/arm_nn_compiler.h ****     return (result);
 453              		.loc 3 250 5 discriminator 3 view .LVU157
 454              		.syntax unified
 455              	@ 250 "Middlewares/tensorflow/third_party/cmsis_nn/Include/Internal/arm_nn_compiler.h" 1
 456 0104 22FB0433 		smlad r3, r2, r4, r3
 457              	@ 0 "" 2
 458              	.LVL60:
 251:Middlewares/tensorflow/third_party/cmsis_nn/Include/Internal/arm_nn_compiler.h **** }
 459              		.loc 3 251 5 discriminator 3 view .LVU158
 251:Middlewares/tensorflow/third_party/cmsis_nn/Include/Internal/arm_nn_compiler.h **** }
 460              		.loc 3 251 5 is_stmt 0 discriminator 3 view .LVU159
 461              		.thumb
 462              		.syntax unified
 463              	.LBE115:
 464              	.LBE114:
 158:Middlewares/tensorflow/third_party/cmsis_nn/Source/SVDFunctions/arm_svdf_s8.c ****                     sum = SMLAD(r1_2, r2_2, sum);
 465              		.loc 1 158 21 is_stmt 1 discriminator 3 view .LVU160
 466              	.LBB116:
 467              	.LBI116:
 246:Middlewares/tensorflow/third_party/cmsis_nn/Include/Internal/arm_nn_compiler.h **** {
 468              		.loc 3 246 31 discriminator 3 view .LVU161
 469              	.LBB117:
 248:Middlewares/tensorflow/third_party/cmsis_nn/Include/Internal/arm_nn_compiler.h **** 
 470              		.loc 3 248 5 discriminator 3 view .LVU162
 250:Middlewares/tensorflow/third_party/cmsis_nn/Include/Internal/arm_nn_compiler.h ****     return (result);
 471              		.loc 3 250 5 discriminator 3 view .LVU163
 472              		.syntax unified
 473              	@ 250 "Middlewares/tensorflow/third_party/cmsis_nn/Include/Internal/arm_nn_compiler.h" 1
 474 0108 21FB0C33 		smlad r3, r1, ip, r3
 475              	@ 0 "" 2
 476              	.LVL61:
 251:Middlewares/tensorflow/third_party/cmsis_nn/Include/Internal/arm_nn_compiler.h **** }
 477              		.loc 3 251 5 discriminator 3 view .LVU164
 251:Middlewares/tensorflow/third_party/cmsis_nn/Include/Internal/arm_nn_compiler.h **** }
 478              		.loc 3 251 5 is_stmt 0 discriminator 3 view .LVU165
 479              		.thumb
 480              		.syntax unified
 481              	.LBE117:
 482              	.LBE116:
 483              	.LBE93:
 150:Middlewares/tensorflow/third_party/cmsis_nn/Source/SVDFunctions/arm_svdf_s8.c ****                 {
 484              		.loc 1 150 50 is_stmt 1 discriminator 3 view .LVU166
 150:Middlewares/tensorflow/third_party/cmsis_nn/Source/SVDFunctions/arm_svdf_s8.c ****                 {
 485              		.loc 1 150 51 is_stmt 0 discriminator 3 view .LVU167
 486 010c 0EF1010E 		add	lr, lr, #1
 487              	.LVL62:
 488              	.L6:
ARM GAS  /tmp/ccReUFVW.s 			page 30


 150:Middlewares/tensorflow/third_party/cmsis_nn/Source/SVDFunctions/arm_svdf_s8.c ****                 {
 489              		.loc 1 150 33 is_stmt 1 discriminator 1 view .LVU168
 150:Middlewares/tensorflow/third_party/cmsis_nn/Source/SVDFunctions/arm_svdf_s8.c ****                 {
 490              		.loc 1 150 17 is_stmt 0 discriminator 1 view .LVU169
 491 0110 C645     		cmp	lr, r8
 492 0112 E6DB     		blt	.L7
 150:Middlewares/tensorflow/third_party/cmsis_nn/Source/SVDFunctions/arm_svdf_s8.c ****                 {
 493              		.loc 1 150 17 discriminator 1 view .LVU170
 494 0114 06E0     		b	.L8
 495              	.L9:
 150:Middlewares/tensorflow/third_party/cmsis_nn/Source/SVDFunctions/arm_svdf_s8.c ****                 {
 496              		.loc 1 150 17 discriminator 1 view .LVU171
 497              	.LBE92:
 159:Middlewares/tensorflow/third_party/cmsis_nn/Source/SVDFunctions/arm_svdf_s8.c ****                 }
 160:Middlewares/tensorflow/third_party/cmsis_nn/Source/SVDFunctions/arm_svdf_s8.c **** 
 161:Middlewares/tensorflow/third_party/cmsis_nn/Source/SVDFunctions/arm_svdf_s8.c ****                 // Process the remaining data
 162:Middlewares/tensorflow/third_party/cmsis_nn/Source/SVDFunctions/arm_svdf_s8.c ****                 for (; j < time_batches; j++)
 163:Middlewares/tensorflow/third_party/cmsis_nn/Source/SVDFunctions/arm_svdf_s8.c ****                 {
 164:Middlewares/tensorflow/third_party/cmsis_nn/Source/SVDFunctions/arm_svdf_s8.c ****                     sum += *v1 * *v2;
 498              		.loc 1 164 21 is_stmt 1 discriminator 2 view .LVU172
 499              		.loc 1 164 28 is_stmt 0 discriminator 2 view .LVU173
 500 0116 17F9012B 		ldrsb	r2, [r7], #1
 501              	.LVL63:
 502              		.loc 1 164 34 discriminator 2 view .LVU174
 503 011a 15F9011B 		ldrsb	r1, [r5], #1
 504              	.LVL64:
 505              		.loc 1 164 25 discriminator 2 view .LVU175
 506 011e 01FB0233 		mla	r3, r1, r2, r3
 507              	.LVL65:
 165:Middlewares/tensorflow/third_party/cmsis_nn/Source/SVDFunctions/arm_svdf_s8.c ****                     v1++;
 508              		.loc 1 165 21 is_stmt 1 discriminator 2 view .LVU176
 166:Middlewares/tensorflow/third_party/cmsis_nn/Source/SVDFunctions/arm_svdf_s8.c ****                     v2++;
 509              		.loc 1 166 21 discriminator 2 view .LVU177
 162:Middlewares/tensorflow/third_party/cmsis_nn/Source/SVDFunctions/arm_svdf_s8.c ****                 {
 510              		.loc 1 162 42 discriminator 2 view .LVU178
 162:Middlewares/tensorflow/third_party/cmsis_nn/Source/SVDFunctions/arm_svdf_s8.c ****                 {
 511              		.loc 1 162 43 is_stmt 0 discriminator 2 view .LVU179
 512 0122 0130     		adds	r0, r0, #1
 513              	.LVL66:
 514              	.L8:
 162:Middlewares/tensorflow/third_party/cmsis_nn/Source/SVDFunctions/arm_svdf_s8.c ****                 {
 515              		.loc 1 162 24 is_stmt 1 discriminator 1 view .LVU180
 162:Middlewares/tensorflow/third_party/cmsis_nn/Source/SVDFunctions/arm_svdf_s8.c ****                 {
 516              		.loc 1 162 17 is_stmt 0 discriminator 1 view .LVU181
 517 0124 B042     		cmp	r0, r6
 518 0126 F6DB     		blt	.L9
 167:Middlewares/tensorflow/third_party/cmsis_nn/Source/SVDFunctions/arm_svdf_s8.c ****                 }
 168:Middlewares/tensorflow/third_party/cmsis_nn/Source/SVDFunctions/arm_svdf_s8.c **** #else
 169:Middlewares/tensorflow/third_party/cmsis_nn/Source/SVDFunctions/arm_svdf_s8.c ****                 for (int j = 0; j < time_batches; j++)
 170:Middlewares/tensorflow/third_party/cmsis_nn/Source/SVDFunctions/arm_svdf_s8.c ****                 {
 171:Middlewares/tensorflow/third_party/cmsis_nn/Source/SVDFunctions/arm_svdf_s8.c ****                     sum += *v1 * *v2;
 172:Middlewares/tensorflow/third_party/cmsis_nn/Source/SVDFunctions/arm_svdf_s8.c ****                     v1++;
 173:Middlewares/tensorflow/third_party/cmsis_nn/Source/SVDFunctions/arm_svdf_s8.c ****                     v2++;
 174:Middlewares/tensorflow/third_party/cmsis_nn/Source/SVDFunctions/arm_svdf_s8.c ****                 }
 175:Middlewares/tensorflow/third_party/cmsis_nn/Source/SVDFunctions/arm_svdf_s8.c **** #endif
 176:Middlewares/tensorflow/third_party/cmsis_nn/Source/SVDFunctions/arm_svdf_s8.c **** 
 177:Middlewares/tensorflow/third_party/cmsis_nn/Source/SVDFunctions/arm_svdf_s8.c ****                 *ptr_a = sum;
ARM GAS  /tmp/ccReUFVW.s 			page 31


 519              		.loc 1 177 17 is_stmt 1 discriminator 2 view .LVU182
 520              		.loc 1 177 24 is_stmt 0 discriminator 2 view .LVU183
 521 0128 4BF8043B 		str	r3, [fp], #4
 522              	.LVL67:
 178:Middlewares/tensorflow/third_party/cmsis_nn/Source/SVDFunctions/arm_svdf_s8.c ****                 ptr_a++;
 523              		.loc 1 178 17 is_stmt 1 discriminator 2 view .LVU184
 524              		.loc 1 178 17 is_stmt 0 discriminator 2 view .LVU185
 525              	.LBE91:
 142:Middlewares/tensorflow/third_party/cmsis_nn/Source/SVDFunctions/arm_svdf_s8.c ****             {
 526              		.loc 1 142 78 is_stmt 1 discriminator 2 view .LVU186
 142:Middlewares/tensorflow/third_party/cmsis_nn/Source/SVDFunctions/arm_svdf_s8.c ****             {
 527              		.loc 1 142 93 is_stmt 0 discriminator 2 view .LVU187
 528 012c 09F10109 		add	r9, r9, #1
 529              	.LVL68:
 530              	.L11:
 142:Middlewares/tensorflow/third_party/cmsis_nn/Source/SVDFunctions/arm_svdf_s8.c ****             {
 531              		.loc 1 142 43 is_stmt 1 discriminator 1 view .LVU188
 142:Middlewares/tensorflow/third_party/cmsis_nn/Source/SVDFunctions/arm_svdf_s8.c ****             {
 532              		.loc 1 142 13 is_stmt 0 discriminator 1 view .LVU189
 533 0130 D145     		cmp	r9, r10
 534 0132 07DA     		bge	.L58
 535              	.LBB120:
 144:Middlewares/tensorflow/third_party/cmsis_nn/Source/SVDFunctions/arm_svdf_s8.c ****                 int32_t sum = 0;
 536              		.loc 1 144 17 is_stmt 1 view .LVU190
 144:Middlewares/tensorflow/third_party/cmsis_nn/Source/SVDFunctions/arm_svdf_s8.c ****                 int32_t sum = 0;
 537              		.loc 1 144 24 is_stmt 0 view .LVU191
 538 0134 0023     		movs	r3, #0
 539 0136 CBF80030 		str	r3, [fp]
 145:Middlewares/tensorflow/third_party/cmsis_nn/Source/SVDFunctions/arm_svdf_s8.c **** #if defined(ARM_MATH_DSP) && !defined(ARM_MATH_MVEI)
 540              		.loc 1 145 17 is_stmt 1 view .LVU192
 541              	.LVL69:
 148:Middlewares/tensorflow/third_party/cmsis_nn/Source/SVDFunctions/arm_svdf_s8.c ****                 int32_t block_count = time_batches >> 2;
 542              		.loc 1 148 17 view .LVU193
 149:Middlewares/tensorflow/third_party/cmsis_nn/Source/SVDFunctions/arm_svdf_s8.c ****                 for (int i = 0; i < block_count; i++)
 543              		.loc 1 149 17 view .LVU194
 149:Middlewares/tensorflow/third_party/cmsis_nn/Source/SVDFunctions/arm_svdf_s8.c ****                 for (int i = 0; i < block_count; i++)
 544              		.loc 1 149 25 is_stmt 0 view .LVU195
 545 013a 4FEAA608 		asr	r8, r6, #2
 546              	.LVL70:
 150:Middlewares/tensorflow/third_party/cmsis_nn/Source/SVDFunctions/arm_svdf_s8.c ****                 {
 547              		.loc 1 150 17 is_stmt 1 view .LVU196
 548              	.LBB118:
 150:Middlewares/tensorflow/third_party/cmsis_nn/Source/SVDFunctions/arm_svdf_s8.c ****                 {
 549              		.loc 1 150 22 view .LVU197
 150:Middlewares/tensorflow/third_party/cmsis_nn/Source/SVDFunctions/arm_svdf_s8.c ****                 {
 550              		.loc 1 150 26 is_stmt 0 view .LVU198
 551 013e 9E46     		mov	lr, r3
 552              	.LBE118:
 148:Middlewares/tensorflow/third_party/cmsis_nn/Source/SVDFunctions/arm_svdf_s8.c ****                 int32_t block_count = time_batches >> 2;
 553              		.loc 1 148 21 view .LVU199
 554 0140 1846     		mov	r0, r3
 555              	.LBB119:
 150:Middlewares/tensorflow/third_party/cmsis_nn/Source/SVDFunctions/arm_svdf_s8.c ****                 {
 556              		.loc 1 150 17 view .LVU200
 557 0142 E5E7     		b	.L6
 558              	.LVL71:
 559              	.L58:
ARM GAS  /tmp/ccReUFVW.s 			page 32


 150:Middlewares/tensorflow/third_party/cmsis_nn/Source/SVDFunctions/arm_svdf_s8.c ****                 {
 560              		.loc 1 150 17 view .LVU201
 561              	.LBE119:
 562              	.LBE120:
 563              	.LBE90:
 564              	.LBE89:
 138:Middlewares/tensorflow/third_party/cmsis_nn/Source/SVDFunctions/arm_svdf_s8.c ****         {
 565              		.loc 1 138 56 is_stmt 1 discriminator 2 view .LVU202
 138:Middlewares/tensorflow/third_party/cmsis_nn/Source/SVDFunctions/arm_svdf_s8.c ****         {
 566              		.loc 1 138 63 is_stmt 0 discriminator 2 view .LVU203
 567 0144 0C9B     		ldr	r3, [sp, #48]
 568 0146 0133     		adds	r3, r3, #1
 569 0148 0C93     		str	r3, [sp, #48]
 570              	.LVL72:
 571              	.L5:
 138:Middlewares/tensorflow/third_party/cmsis_nn/Source/SVDFunctions/arm_svdf_s8.c ****         {
 572              		.loc 1 138 31 is_stmt 1 discriminator 1 view .LVU204
 138:Middlewares/tensorflow/third_party/cmsis_nn/Source/SVDFunctions/arm_svdf_s8.c ****         {
 573              		.loc 1 138 9 is_stmt 0 discriminator 1 view .LVU205
 574 014a 0C9B     		ldr	r3, [sp, #48]
 575 014c 0B9A     		ldr	r2, [sp, #44]
 576 014e 9342     		cmp	r3, r2
 577 0150 03DA     		bge	.L59
 578              	.LBB122:
 140:Middlewares/tensorflow/third_party/cmsis_nn/Source/SVDFunctions/arm_svdf_s8.c **** 
 579              		.loc 1 140 27 view .LVU206
 580 0152 2A9F     		ldr	r7, [sp, #168]
 581              	.LBB121:
 142:Middlewares/tensorflow/third_party/cmsis_nn/Source/SVDFunctions/arm_svdf_s8.c ****             {
 582              		.loc 1 142 22 view .LVU207
 583 0154 4FF00009 		mov	r9, #0
 584 0158 EAE7     		b	.L11
 585              	.L59:
 586 015a 0D9F     		ldr	r7, [sp, #52]
 587              	.LBE121:
 588              	.LBE122:
 589              	.LBE88:
 590              	.LBE87:
 179:Middlewares/tensorflow/third_party/cmsis_nn/Source/SVDFunctions/arm_svdf_s8.c ****             }
 180:Middlewares/tensorflow/third_party/cmsis_nn/Source/SVDFunctions/arm_svdf_s8.c ****         }
 181:Middlewares/tensorflow/third_party/cmsis_nn/Source/SVDFunctions/arm_svdf_s8.c ****     }
 182:Middlewares/tensorflow/third_party/cmsis_nn/Source/SVDFunctions/arm_svdf_s8.c **** 
 183:Middlewares/tensorflow/third_party/cmsis_nn/Source/SVDFunctions/arm_svdf_s8.c ****     if (bias_data)
 591              		.loc 1 183 5 is_stmt 1 view .LVU208
 592              		.loc 1 183 8 is_stmt 0 view .LVU209
 593 015c 2C9B     		ldr	r3, [sp, #176]
 594 015e 002B     		cmp	r3, #0
 595 0160 66D0     		beq	.L46
 184:Middlewares/tensorflow/third_party/cmsis_nn/Source/SVDFunctions/arm_svdf_s8.c ****     {
 185:Middlewares/tensorflow/third_party/cmsis_nn/Source/SVDFunctions/arm_svdf_s8.c ****         if (unit_count == feature_batches)
 596              		.loc 1 185 9 is_stmt 1 view .LVU210
 597              		.loc 1 185 12 is_stmt 0 view .LVU211
 598 0162 109B     		ldr	r3, [sp, #64]
 599 0164 0F9E     		ldr	r6, [sp, #60]
 600              	.LVL73:
 601              		.loc 1 185 12 view .LVU212
 602 0166 B342     		cmp	r3, r6
ARM GAS  /tmp/ccReUFVW.s 			page 33


 603 0168 1CD0     		beq	.L47
 604              	.LBB123:
 186:Middlewares/tensorflow/third_party/cmsis_nn/Source/SVDFunctions/arm_svdf_s8.c ****         {
 187:Middlewares/tensorflow/third_party/cmsis_nn/Source/SVDFunctions/arm_svdf_s8.c ****             for (int i = 0; i < input_batches; i++)
 188:Middlewares/tensorflow/third_party/cmsis_nn/Source/SVDFunctions/arm_svdf_s8.c ****             {
 189:Middlewares/tensorflow/third_party/cmsis_nn/Source/SVDFunctions/arm_svdf_s8.c ****                 int32_t *output_temp = buffer_b + i * feature_batches;
 190:Middlewares/tensorflow/third_party/cmsis_nn/Source/SVDFunctions/arm_svdf_s8.c ****                 const int32_t *ptr_a = buffer_a + i * feature_batches;
 191:Middlewares/tensorflow/third_party/cmsis_nn/Source/SVDFunctions/arm_svdf_s8.c **** 
 192:Middlewares/tensorflow/third_party/cmsis_nn/Source/SVDFunctions/arm_svdf_s8.c ****                 const int32_t *bi = bias_data;
 193:Middlewares/tensorflow/third_party/cmsis_nn/Source/SVDFunctions/arm_svdf_s8.c ****                 for (int j = 0; j < feature_batches; j++)
 194:Middlewares/tensorflow/third_party/cmsis_nn/Source/SVDFunctions/arm_svdf_s8.c ****                 {
 195:Middlewares/tensorflow/third_party/cmsis_nn/Source/SVDFunctions/arm_svdf_s8.c ****                     output_temp[j] = ptr_a[j] + bi[j];
 196:Middlewares/tensorflow/third_party/cmsis_nn/Source/SVDFunctions/arm_svdf_s8.c ****                 }
 197:Middlewares/tensorflow/third_party/cmsis_nn/Source/SVDFunctions/arm_svdf_s8.c ****             }
 198:Middlewares/tensorflow/third_party/cmsis_nn/Source/SVDFunctions/arm_svdf_s8.c ****         }
 199:Middlewares/tensorflow/third_party/cmsis_nn/Source/SVDFunctions/arm_svdf_s8.c ****         else
 200:Middlewares/tensorflow/third_party/cmsis_nn/Source/SVDFunctions/arm_svdf_s8.c ****         {
 201:Middlewares/tensorflow/third_party/cmsis_nn/Source/SVDFunctions/arm_svdf_s8.c ****             for (int i_batch = 0; i_batch < input_batches; i_batch++)
 605              		.loc 1 201 22 view .LVU213
 606 016a 4FF0000C 		mov	ip, #0
 607 016e DDF84880 		ldr	r8, [sp, #72]
 608 0172 DDF82CA0 		ldr	r10, [sp, #44]
 609 0176 9B46     		mov	fp, r3
 610 0178 DDF8B090 		ldr	r9, [sp, #176]
 611 017c 30E0     		b	.L14
 612              	.LVL74:
 613              	.L16:
 614              		.loc 1 201 22 view .LVU214
 615              	.LBE123:
 616              	.LBB132:
 617              	.LBB133:
 618              	.LBB134:
 195:Middlewares/tensorflow/third_party/cmsis_nn/Source/SVDFunctions/arm_svdf_s8.c ****                 }
 619              		.loc 1 195 21 is_stmt 1 discriminator 3 view .LVU215
 620 017e F118     		adds	r1, r6, r3
 195:Middlewares/tensorflow/third_party/cmsis_nn/Source/SVDFunctions/arm_svdf_s8.c ****                 }
 621              		.loc 1 195 43 is_stmt 0 discriminator 3 view .LVU216
 622 0180 57F82120 		ldr	r2, [r7, r1, lsl #2]
 195:Middlewares/tensorflow/third_party/cmsis_nn/Source/SVDFunctions/arm_svdf_s8.c ****                 }
 623              		.loc 1 195 51 discriminator 3 view .LVU217
 624 0184 5EF82300 		ldr	r0, [lr, r3, lsl #2]
 195:Middlewares/tensorflow/third_party/cmsis_nn/Source/SVDFunctions/arm_svdf_s8.c ****                 }
 625              		.loc 1 195 47 discriminator 3 view .LVU218
 626 0188 0244     		add	r2, r2, r0
 195:Middlewares/tensorflow/third_party/cmsis_nn/Source/SVDFunctions/arm_svdf_s8.c ****                 }
 627              		.loc 1 195 36 discriminator 3 view .LVU219
 628 018a 4CF82120 		str	r2, [ip, r1, lsl #2]
 193:Middlewares/tensorflow/third_party/cmsis_nn/Source/SVDFunctions/arm_svdf_s8.c ****                 {
 629              		.loc 1 193 54 is_stmt 1 discriminator 3 view .LVU220
 193:Middlewares/tensorflow/third_party/cmsis_nn/Source/SVDFunctions/arm_svdf_s8.c ****                 {
 630              		.loc 1 193 55 is_stmt 0 discriminator 3 view .LVU221
 631 018e 0133     		adds	r3, r3, #1
 632              	.LVL75:
 633              	.L15:
 193:Middlewares/tensorflow/third_party/cmsis_nn/Source/SVDFunctions/arm_svdf_s8.c ****                 {
 634              		.loc 1 193 33 is_stmt 1 discriminator 1 view .LVU222
 193:Middlewares/tensorflow/third_party/cmsis_nn/Source/SVDFunctions/arm_svdf_s8.c ****                 {
ARM GAS  /tmp/ccReUFVW.s 			page 34


 635              		.loc 1 193 17 is_stmt 0 discriminator 1 view .LVU223
 636 0190 A342     		cmp	r3, r4
 637 0192 F4DB     		blt	.L16
 638              	.LBE134:
 639              	.LBE133:
 187:Middlewares/tensorflow/third_party/cmsis_nn/Source/SVDFunctions/arm_svdf_s8.c ****             {
 640              		.loc 1 187 48 is_stmt 1 discriminator 2 view .LVU224
 187:Middlewares/tensorflow/third_party/cmsis_nn/Source/SVDFunctions/arm_svdf_s8.c ****             {
 641              		.loc 1 187 49 is_stmt 0 discriminator 2 view .LVU225
 642 0194 0135     		adds	r5, r5, #1
 643              	.LVL76:
 644              	.L13:
 187:Middlewares/tensorflow/third_party/cmsis_nn/Source/SVDFunctions/arm_svdf_s8.c ****             {
 645              		.loc 1 187 29 is_stmt 1 discriminator 1 view .LVU226
 187:Middlewares/tensorflow/third_party/cmsis_nn/Source/SVDFunctions/arm_svdf_s8.c ****             {
 646              		.loc 1 187 13 is_stmt 0 discriminator 1 view .LVU227
 647 0196 4545     		cmp	r5, r8
 648 0198 80F2E080 		bge	.L18
 649              	.LBB136:
 189:Middlewares/tensorflow/third_party/cmsis_nn/Source/SVDFunctions/arm_svdf_s8.c ****                 const int32_t *ptr_a = buffer_a + i * feature_batches;
 650              		.loc 1 189 17 is_stmt 1 view .LVU228
 189:Middlewares/tensorflow/third_party/cmsis_nn/Source/SVDFunctions/arm_svdf_s8.c ****                 const int32_t *ptr_a = buffer_a + i * feature_batches;
 651              		.loc 1 189 53 is_stmt 0 view .LVU229
 652 019c 04FB05F6 		mul	r6, r4, r5
 653              	.LVL77:
 190:Middlewares/tensorflow/third_party/cmsis_nn/Source/SVDFunctions/arm_svdf_s8.c **** 
 654              		.loc 1 190 17 is_stmt 1 view .LVU230
 192:Middlewares/tensorflow/third_party/cmsis_nn/Source/SVDFunctions/arm_svdf_s8.c ****                 for (int j = 0; j < feature_batches; j++)
 655              		.loc 1 192 17 view .LVU231
 193:Middlewares/tensorflow/third_party/cmsis_nn/Source/SVDFunctions/arm_svdf_s8.c ****                 {
 656              		.loc 1 193 17 view .LVU232
 657              	.LBB135:
 193:Middlewares/tensorflow/third_party/cmsis_nn/Source/SVDFunctions/arm_svdf_s8.c ****                 {
 658              		.loc 1 193 22 view .LVU233
 193:Middlewares/tensorflow/third_party/cmsis_nn/Source/SVDFunctions/arm_svdf_s8.c ****                 {
 659              		.loc 1 193 26 is_stmt 0 view .LVU234
 660 01a0 0023     		movs	r3, #0
 193:Middlewares/tensorflow/third_party/cmsis_nn/Source/SVDFunctions/arm_svdf_s8.c ****                 {
 661              		.loc 1 193 17 view .LVU235
 662 01a2 F5E7     		b	.L15
 663              	.LVL78:
 664              	.L47:
 193:Middlewares/tensorflow/third_party/cmsis_nn/Source/SVDFunctions/arm_svdf_s8.c ****                 {
 665              		.loc 1 193 17 view .LVU236
 666              	.LBE135:
 667              	.LBE136:
 187:Middlewares/tensorflow/third_party/cmsis_nn/Source/SVDFunctions/arm_svdf_s8.c ****             {
 668              		.loc 1 187 22 view .LVU237
 669 01a4 0025     		movs	r5, #0
 670 01a6 119F     		ldr	r7, [sp, #68]
 671 01a8 DDF848C0 		ldr	ip, [sp, #72]
 672 01ac DDF82C80 		ldr	r8, [sp, #44]
 673 01b0 109C     		ldr	r4, [sp, #64]
 674 01b2 DDF8B0E0 		ldr	lr, [sp, #176]
 675 01b6 EEE7     		b	.L13
 676              	.LVL79:
 677              	.L21:
ARM GAS  /tmp/ccReUFVW.s 			page 35


 187:Middlewares/tensorflow/third_party/cmsis_nn/Source/SVDFunctions/arm_svdf_s8.c ****             {
 678              		.loc 1 187 22 view .LVU238
 679              	.LBE132:
 680              	.LBB137:
 681              	.LBB124:
 682              	.LBB125:
 683              	.LBB126:
 684              	.LBB127:
 202:Middlewares/tensorflow/third_party/cmsis_nn/Source/SVDFunctions/arm_svdf_s8.c ****             {
 203:Middlewares/tensorflow/third_party/cmsis_nn/Source/SVDFunctions/arm_svdf_s8.c ****                 int32_t *output_data_temp = buffer_b + i_batch * unit_count;
 204:Middlewares/tensorflow/third_party/cmsis_nn/Source/SVDFunctions/arm_svdf_s8.c ****                 int32_t *ptr_a = buffer_a + i_batch * feature_batches;
 205:Middlewares/tensorflow/third_party/cmsis_nn/Source/SVDFunctions/arm_svdf_s8.c **** 
 206:Middlewares/tensorflow/third_party/cmsis_nn/Source/SVDFunctions/arm_svdf_s8.c ****                 for (int i = 0; i < unit_count; i++)
 207:Middlewares/tensorflow/third_party/cmsis_nn/Source/SVDFunctions/arm_svdf_s8.c ****                 {
 208:Middlewares/tensorflow/third_party/cmsis_nn/Source/SVDFunctions/arm_svdf_s8.c ****                     int32_t sum = bias_data[i];
 209:Middlewares/tensorflow/third_party/cmsis_nn/Source/SVDFunctions/arm_svdf_s8.c ****                     for (int j = 0; j < rank; j++)
 210:Middlewares/tensorflow/third_party/cmsis_nn/Source/SVDFunctions/arm_svdf_s8.c ****                     {
 211:Middlewares/tensorflow/third_party/cmsis_nn/Source/SVDFunctions/arm_svdf_s8.c ****                         sum += *ptr_a;
 685              		.loc 1 211 25 is_stmt 1 discriminator 3 view .LVU239
 686              		.loc 1 211 32 is_stmt 0 discriminator 3 view .LVU240
 687 01b8 51F8040B 		ldr	r0, [r1], #4
 688              	.LVL80:
 689              		.loc 1 211 29 discriminator 3 view .LVU241
 690 01bc 0244     		add	r2, r2, r0
 691              	.LVL81:
 212:Middlewares/tensorflow/third_party/cmsis_nn/Source/SVDFunctions/arm_svdf_s8.c ****                         ptr_a++;
 692              		.loc 1 212 25 is_stmt 1 discriminator 3 view .LVU242
 209:Middlewares/tensorflow/third_party/cmsis_nn/Source/SVDFunctions/arm_svdf_s8.c ****                     {
 693              		.loc 1 209 47 discriminator 3 view .LVU243
 209:Middlewares/tensorflow/third_party/cmsis_nn/Source/SVDFunctions/arm_svdf_s8.c ****                     {
 694              		.loc 1 209 48 is_stmt 0 discriminator 3 view .LVU244
 695 01be 0133     		adds	r3, r3, #1
 696              	.LVL82:
 697              	.L20:
 209:Middlewares/tensorflow/third_party/cmsis_nn/Source/SVDFunctions/arm_svdf_s8.c ****                     {
 698              		.loc 1 209 37 is_stmt 1 discriminator 1 view .LVU245
 209:Middlewares/tensorflow/third_party/cmsis_nn/Source/SVDFunctions/arm_svdf_s8.c ****                     {
 699              		.loc 1 209 21 is_stmt 0 discriminator 1 view .LVU246
 700 01c0 9F42     		cmp	r7, r3
 701 01c2 F9DC     		bgt	.L21
 209:Middlewares/tensorflow/third_party/cmsis_nn/Source/SVDFunctions/arm_svdf_s8.c ****                     {
 702              		.loc 1 209 21 discriminator 1 view .LVU247
 703              	.LBE127:
 213:Middlewares/tensorflow/third_party/cmsis_nn/Source/SVDFunctions/arm_svdf_s8.c ****                     }
 214:Middlewares/tensorflow/third_party/cmsis_nn/Source/SVDFunctions/arm_svdf_s8.c ****                     output_data_temp[i] = sum;
 704              		.loc 1 214 21 is_stmt 1 discriminator 2 view .LVU248
 705              		.loc 1 214 37 is_stmt 0 discriminator 2 view .LVU249
 706 01c4 0EEB0503 		add	r3, lr, r5
 707              	.LVL83:
 708              		.loc 1 214 41 discriminator 2 view .LVU250
 709 01c8 48F82320 		str	r2, [r8, r3, lsl #2]
 710              	.LBE126:
 206:Middlewares/tensorflow/third_party/cmsis_nn/Source/SVDFunctions/arm_svdf_s8.c ****                 {
 711              		.loc 1 206 49 is_stmt 1 discriminator 2 view .LVU251
 206:Middlewares/tensorflow/third_party/cmsis_nn/Source/SVDFunctions/arm_svdf_s8.c ****                 {
 712              		.loc 1 206 50 is_stmt 0 discriminator 2 view .LVU252
 713 01cc 0134     		adds	r4, r4, #1
ARM GAS  /tmp/ccReUFVW.s 			page 36


 714              	.LVL84:
 715              	.L19:
 206:Middlewares/tensorflow/third_party/cmsis_nn/Source/SVDFunctions/arm_svdf_s8.c ****                 {
 716              		.loc 1 206 33 is_stmt 1 discriminator 1 view .LVU253
 206:Middlewares/tensorflow/third_party/cmsis_nn/Source/SVDFunctions/arm_svdf_s8.c ****                 {
 717              		.loc 1 206 17 is_stmt 0 discriminator 1 view .LVU254
 718 01ce B442     		cmp	r4, r6
 719 01d0 04DA     		bge	.L60
 720              	.LBB129:
 208:Middlewares/tensorflow/third_party/cmsis_nn/Source/SVDFunctions/arm_svdf_s8.c ****                     for (int j = 0; j < rank; j++)
 721              		.loc 1 208 21 is_stmt 1 view .LVU255
 208:Middlewares/tensorflow/third_party/cmsis_nn/Source/SVDFunctions/arm_svdf_s8.c ****                     for (int j = 0; j < rank; j++)
 722              		.loc 1 208 44 is_stmt 0 view .LVU256
 723 01d2 2546     		mov	r5, r4
 208:Middlewares/tensorflow/third_party/cmsis_nn/Source/SVDFunctions/arm_svdf_s8.c ****                     for (int j = 0; j < rank; j++)
 724              		.loc 1 208 29 view .LVU257
 725 01d4 59F82420 		ldr	r2, [r9, r4, lsl #2]
 726              	.LVL85:
 209:Middlewares/tensorflow/third_party/cmsis_nn/Source/SVDFunctions/arm_svdf_s8.c ****                     {
 727              		.loc 1 209 21 is_stmt 1 view .LVU258
 728              	.LBB128:
 209:Middlewares/tensorflow/third_party/cmsis_nn/Source/SVDFunctions/arm_svdf_s8.c ****                     {
 729              		.loc 1 209 26 view .LVU259
 209:Middlewares/tensorflow/third_party/cmsis_nn/Source/SVDFunctions/arm_svdf_s8.c ****                     {
 730              		.loc 1 209 30 is_stmt 0 view .LVU260
 731 01d8 0023     		movs	r3, #0
 209:Middlewares/tensorflow/third_party/cmsis_nn/Source/SVDFunctions/arm_svdf_s8.c ****                     {
 732              		.loc 1 209 21 view .LVU261
 733 01da F1E7     		b	.L20
 734              	.LVL86:
 735              	.L60:
 209:Middlewares/tensorflow/third_party/cmsis_nn/Source/SVDFunctions/arm_svdf_s8.c ****                     {
 736              		.loc 1 209 21 view .LVU262
 737              	.LBE128:
 738              	.LBE129:
 739              	.LBE125:
 740              	.LBE124:
 201:Middlewares/tensorflow/third_party/cmsis_nn/Source/SVDFunctions/arm_svdf_s8.c ****             {
 741              		.loc 1 201 60 is_stmt 1 discriminator 2 view .LVU263
 201:Middlewares/tensorflow/third_party/cmsis_nn/Source/SVDFunctions/arm_svdf_s8.c ****             {
 742              		.loc 1 201 67 is_stmt 0 discriminator 2 view .LVU264
 743 01dc 0CF1010C 		add	ip, ip, #1
 744              	.LVL87:
 745              	.L14:
 201:Middlewares/tensorflow/third_party/cmsis_nn/Source/SVDFunctions/arm_svdf_s8.c ****             {
 746              		.loc 1 201 35 is_stmt 1 discriminator 1 view .LVU265
 201:Middlewares/tensorflow/third_party/cmsis_nn/Source/SVDFunctions/arm_svdf_s8.c ****             {
 747              		.loc 1 201 13 is_stmt 0 discriminator 1 view .LVU266
 748 01e0 D445     		cmp	ip, r10
 749 01e2 80F2BB80 		bge	.L18
 750              	.LBB131:
 203:Middlewares/tensorflow/third_party/cmsis_nn/Source/SVDFunctions/arm_svdf_s8.c ****                 int32_t *ptr_a = buffer_a + i_batch * feature_batches;
 751              		.loc 1 203 17 is_stmt 1 view .LVU267
 203:Middlewares/tensorflow/third_party/cmsis_nn/Source/SVDFunctions/arm_svdf_s8.c ****                 int32_t *ptr_a = buffer_a + i_batch * feature_batches;
 752              		.loc 1 203 64 is_stmt 0 view .LVU268
 753 01e6 06FB0CFE 		mul	lr, r6, ip
 754              	.LVL88:
ARM GAS  /tmp/ccReUFVW.s 			page 37


 204:Middlewares/tensorflow/third_party/cmsis_nn/Source/SVDFunctions/arm_svdf_s8.c **** 
 755              		.loc 1 204 17 is_stmt 1 view .LVU269
 204:Middlewares/tensorflow/third_party/cmsis_nn/Source/SVDFunctions/arm_svdf_s8.c **** 
 756              		.loc 1 204 53 is_stmt 0 view .LVU270
 757 01ea 0BFB0CF1 		mul	r1, fp, ip
 204:Middlewares/tensorflow/third_party/cmsis_nn/Source/SVDFunctions/arm_svdf_s8.c **** 
 758              		.loc 1 204 26 view .LVU271
 759 01ee 119B     		ldr	r3, [sp, #68]
 760 01f0 03EB8101 		add	r1, r3, r1, lsl #2
 761              	.LVL89:
 206:Middlewares/tensorflow/third_party/cmsis_nn/Source/SVDFunctions/arm_svdf_s8.c ****                 {
 762              		.loc 1 206 17 is_stmt 1 view .LVU272
 763              	.LBB130:
 206:Middlewares/tensorflow/third_party/cmsis_nn/Source/SVDFunctions/arm_svdf_s8.c ****                 {
 764              		.loc 1 206 22 view .LVU273
 206:Middlewares/tensorflow/third_party/cmsis_nn/Source/SVDFunctions/arm_svdf_s8.c ****                 {
 765              		.loc 1 206 26 is_stmt 0 view .LVU274
 766 01f4 0024     		movs	r4, #0
 206:Middlewares/tensorflow/third_party/cmsis_nn/Source/SVDFunctions/arm_svdf_s8.c ****                 {
 767              		.loc 1 206 17 view .LVU275
 768 01f6 EAE7     		b	.L19
 769              	.LVL90:
 770              	.L25:
 206:Middlewares/tensorflow/third_party/cmsis_nn/Source/SVDFunctions/arm_svdf_s8.c ****                 {
 771              		.loc 1 206 17 view .LVU276
 772              	.LBE130:
 773              	.LBE131:
 774              	.LBE137:
 775              	.LBB138:
 776              	.LBB139:
 777              	.LBB140:
 778              	.LBB141:
 779              	.LBB142:
 215:Middlewares/tensorflow/third_party/cmsis_nn/Source/SVDFunctions/arm_svdf_s8.c ****                 }
 216:Middlewares/tensorflow/third_party/cmsis_nn/Source/SVDFunctions/arm_svdf_s8.c ****             }
 217:Middlewares/tensorflow/third_party/cmsis_nn/Source/SVDFunctions/arm_svdf_s8.c ****         }
 218:Middlewares/tensorflow/third_party/cmsis_nn/Source/SVDFunctions/arm_svdf_s8.c ****     }
 219:Middlewares/tensorflow/third_party/cmsis_nn/Source/SVDFunctions/arm_svdf_s8.c ****     else
 220:Middlewares/tensorflow/third_party/cmsis_nn/Source/SVDFunctions/arm_svdf_s8.c ****     {
 221:Middlewares/tensorflow/third_party/cmsis_nn/Source/SVDFunctions/arm_svdf_s8.c ****         for (int i_batch = 0; i_batch < input_batches; i_batch++)
 222:Middlewares/tensorflow/third_party/cmsis_nn/Source/SVDFunctions/arm_svdf_s8.c ****         {
 223:Middlewares/tensorflow/third_party/cmsis_nn/Source/SVDFunctions/arm_svdf_s8.c ****             int32_t *output_data_temp = buffer_b + i_batch * unit_count;
 224:Middlewares/tensorflow/third_party/cmsis_nn/Source/SVDFunctions/arm_svdf_s8.c ****             int32_t *ptr_a = buffer_a + i_batch * feature_batches;
 225:Middlewares/tensorflow/third_party/cmsis_nn/Source/SVDFunctions/arm_svdf_s8.c **** 
 226:Middlewares/tensorflow/third_party/cmsis_nn/Source/SVDFunctions/arm_svdf_s8.c ****             for (int i = 0; i < unit_count; i++)
 227:Middlewares/tensorflow/third_party/cmsis_nn/Source/SVDFunctions/arm_svdf_s8.c ****             {
 228:Middlewares/tensorflow/third_party/cmsis_nn/Source/SVDFunctions/arm_svdf_s8.c ****                 int32_t sum = 0;
 229:Middlewares/tensorflow/third_party/cmsis_nn/Source/SVDFunctions/arm_svdf_s8.c ****                 for (int j = 0; j < rank; j++)
 230:Middlewares/tensorflow/third_party/cmsis_nn/Source/SVDFunctions/arm_svdf_s8.c ****                 {
 231:Middlewares/tensorflow/third_party/cmsis_nn/Source/SVDFunctions/arm_svdf_s8.c ****                     sum += *ptr_a;
 780              		.loc 1 231 21 is_stmt 1 discriminator 3 view .LVU277
 781              		.loc 1 231 28 is_stmt 0 discriminator 3 view .LVU278
 782 01f8 51F8040B 		ldr	r0, [r1], #4
 783              	.LVL91:
 784              		.loc 1 231 25 discriminator 3 view .LVU279
 785 01fc 0244     		add	r2, r2, r0
 786              	.LVL92:
ARM GAS  /tmp/ccReUFVW.s 			page 38


 232:Middlewares/tensorflow/third_party/cmsis_nn/Source/SVDFunctions/arm_svdf_s8.c ****                     ptr_a++;
 787              		.loc 1 232 21 is_stmt 1 discriminator 3 view .LVU280
 229:Middlewares/tensorflow/third_party/cmsis_nn/Source/SVDFunctions/arm_svdf_s8.c ****                 {
 788              		.loc 1 229 43 discriminator 3 view .LVU281
 229:Middlewares/tensorflow/third_party/cmsis_nn/Source/SVDFunctions/arm_svdf_s8.c ****                 {
 789              		.loc 1 229 44 is_stmt 0 discriminator 3 view .LVU282
 790 01fe 0133     		adds	r3, r3, #1
 791              	.LVL93:
 792              	.L26:
 229:Middlewares/tensorflow/third_party/cmsis_nn/Source/SVDFunctions/arm_svdf_s8.c ****                 {
 793              		.loc 1 229 33 is_stmt 1 discriminator 1 view .LVU283
 229:Middlewares/tensorflow/third_party/cmsis_nn/Source/SVDFunctions/arm_svdf_s8.c ****                 {
 794              		.loc 1 229 17 is_stmt 0 discriminator 1 view .LVU284
 795 0200 9F42     		cmp	r7, r3
 796 0202 F9DC     		bgt	.L25
 229:Middlewares/tensorflow/third_party/cmsis_nn/Source/SVDFunctions/arm_svdf_s8.c ****                 {
 797              		.loc 1 229 17 discriminator 1 view .LVU285
 798              	.LBE142:
 233:Middlewares/tensorflow/third_party/cmsis_nn/Source/SVDFunctions/arm_svdf_s8.c ****                 }
 234:Middlewares/tensorflow/third_party/cmsis_nn/Source/SVDFunctions/arm_svdf_s8.c ****                 output_data_temp[i] = sum;
 799              		.loc 1 234 17 is_stmt 1 discriminator 2 view .LVU286
 800              		.loc 1 234 33 is_stmt 0 discriminator 2 view .LVU287
 801 0204 0CEB0403 		add	r3, ip, r4
 802              	.LVL94:
 803              		.loc 1 234 37 discriminator 2 view .LVU288
 804 0208 4EF82320 		str	r2, [lr, r3, lsl #2]
 805              	.LBE141:
 226:Middlewares/tensorflow/third_party/cmsis_nn/Source/SVDFunctions/arm_svdf_s8.c ****             {
 806              		.loc 1 226 45 is_stmt 1 discriminator 2 view .LVU289
 226:Middlewares/tensorflow/third_party/cmsis_nn/Source/SVDFunctions/arm_svdf_s8.c ****             {
 807              		.loc 1 226 46 is_stmt 0 discriminator 2 view .LVU290
 808 020c 0134     		adds	r4, r4, #1
 809              	.LVL95:
 810              	.L24:
 226:Middlewares/tensorflow/third_party/cmsis_nn/Source/SVDFunctions/arm_svdf_s8.c ****             {
 811              		.loc 1 226 29 is_stmt 1 discriminator 1 view .LVU291
 226:Middlewares/tensorflow/third_party/cmsis_nn/Source/SVDFunctions/arm_svdf_s8.c ****             {
 812              		.loc 1 226 13 is_stmt 0 discriminator 1 view .LVU292
 813 020e AC42     		cmp	r4, r5
 814 0210 02DA     		bge	.L61
 815              	.LBB144:
 816              	.LBB143:
 229:Middlewares/tensorflow/third_party/cmsis_nn/Source/SVDFunctions/arm_svdf_s8.c ****                 {
 817              		.loc 1 229 26 view .LVU293
 818 0212 0023     		movs	r3, #0
 819              	.LBE143:
 228:Middlewares/tensorflow/third_party/cmsis_nn/Source/SVDFunctions/arm_svdf_s8.c ****                 for (int j = 0; j < rank; j++)
 820              		.loc 1 228 25 view .LVU294
 821 0214 1A46     		mov	r2, r3
 822 0216 F3E7     		b	.L26
 823              	.L61:
 824              	.LBE144:
 825              	.LBE140:
 826              	.LBE139:
 221:Middlewares/tensorflow/third_party/cmsis_nn/Source/SVDFunctions/arm_svdf_s8.c ****         {
 827              		.loc 1 221 56 is_stmt 1 discriminator 2 view .LVU295
 221:Middlewares/tensorflow/third_party/cmsis_nn/Source/SVDFunctions/arm_svdf_s8.c ****         {
ARM GAS  /tmp/ccReUFVW.s 			page 39


 828              		.loc 1 221 63 is_stmt 0 discriminator 2 view .LVU296
 829 0218 0136     		adds	r6, r6, #1
 830              	.LVL96:
 831              	.L12:
 221:Middlewares/tensorflow/third_party/cmsis_nn/Source/SVDFunctions/arm_svdf_s8.c ****         {
 832              		.loc 1 221 31 is_stmt 1 discriminator 1 view .LVU297
 221:Middlewares/tensorflow/third_party/cmsis_nn/Source/SVDFunctions/arm_svdf_s8.c ****         {
 833              		.loc 1 221 9 is_stmt 0 discriminator 1 view .LVU298
 834 021a 4E45     		cmp	r6, r9
 835 021c 80F29E80 		bge	.L18
 836              	.LBB146:
 223:Middlewares/tensorflow/third_party/cmsis_nn/Source/SVDFunctions/arm_svdf_s8.c ****             int32_t *ptr_a = buffer_a + i_batch * feature_batches;
 837              		.loc 1 223 13 is_stmt 1 view .LVU299
 223:Middlewares/tensorflow/third_party/cmsis_nn/Source/SVDFunctions/arm_svdf_s8.c ****             int32_t *ptr_a = buffer_a + i_batch * feature_batches;
 838              		.loc 1 223 60 is_stmt 0 view .LVU300
 839 0220 05FB06FC 		mul	ip, r5, r6
 840              	.LVL97:
 224:Middlewares/tensorflow/third_party/cmsis_nn/Source/SVDFunctions/arm_svdf_s8.c **** 
 841              		.loc 1 224 13 is_stmt 1 view .LVU301
 224:Middlewares/tensorflow/third_party/cmsis_nn/Source/SVDFunctions/arm_svdf_s8.c **** 
 842              		.loc 1 224 49 is_stmt 0 view .LVU302
 843 0224 0AFB06F1 		mul	r1, r10, r6
 224:Middlewares/tensorflow/third_party/cmsis_nn/Source/SVDFunctions/arm_svdf_s8.c **** 
 844              		.loc 1 224 22 view .LVU303
 845 0228 08EB8101 		add	r1, r8, r1, lsl #2
 846              	.LVL98:
 226:Middlewares/tensorflow/third_party/cmsis_nn/Source/SVDFunctions/arm_svdf_s8.c ****             {
 847              		.loc 1 226 13 is_stmt 1 view .LVU304
 848              	.LBB145:
 226:Middlewares/tensorflow/third_party/cmsis_nn/Source/SVDFunctions/arm_svdf_s8.c ****             {
 849              		.loc 1 226 18 view .LVU305
 226:Middlewares/tensorflow/third_party/cmsis_nn/Source/SVDFunctions/arm_svdf_s8.c ****             {
 850              		.loc 1 226 22 is_stmt 0 view .LVU306
 851 022c 0024     		movs	r4, #0
 226:Middlewares/tensorflow/third_party/cmsis_nn/Source/SVDFunctions/arm_svdf_s8.c ****             {
 852              		.loc 1 226 13 view .LVU307
 853 022e EEE7     		b	.L24
 854              	.LVL99:
 855              	.L46:
 226:Middlewares/tensorflow/third_party/cmsis_nn/Source/SVDFunctions/arm_svdf_s8.c ****             {
 856              		.loc 1 226 13 view .LVU308
 857              	.LBE145:
 858              	.LBE146:
 221:Middlewares/tensorflow/third_party/cmsis_nn/Source/SVDFunctions/arm_svdf_s8.c ****         {
 859              		.loc 1 221 18 view .LVU309
 860 0230 0026     		movs	r6, #0
 861              	.LVL100:
 221:Middlewares/tensorflow/third_party/cmsis_nn/Source/SVDFunctions/arm_svdf_s8.c ****         {
 862              		.loc 1 221 18 view .LVU310
 863 0232 DDF84480 		ldr	r8, [sp, #68]
 864 0236 DDF848E0 		ldr	lr, [sp, #72]
 865 023a DDF82C90 		ldr	r9, [sp, #44]
 866 023e DDF840A0 		ldr	r10, [sp, #64]
 867 0242 0F9D     		ldr	r5, [sp, #60]
 868 0244 E9E7     		b	.L12
 869              	.LVL101:
 870              	.L63:
ARM GAS  /tmp/ccReUFVW.s 			page 40


 221:Middlewares/tensorflow/third_party/cmsis_nn/Source/SVDFunctions/arm_svdf_s8.c ****         {
 871              		.loc 1 221 18 view .LVU311
 872              	.LBE138:
 873              	.LBB147:
 874              	.LBB148:
 875              	.LBB149:
 695:Middlewares/tensorflow/third_party/cmsis_nn/Include/arm_nnsupportfunctions.h **** }
 696:Middlewares/tensorflow/third_party/cmsis_nn/Include/arm_nnsupportfunctions.h **** 
 697:Middlewares/tensorflow/third_party/cmsis_nn/Include/arm_nnsupportfunctions.h **** #endif
 698:Middlewares/tensorflow/third_party/cmsis_nn/Include/arm_nnsupportfunctions.h **** 
 699:Middlewares/tensorflow/third_party/cmsis_nn/Include/arm_nnsupportfunctions.h **** /**
 700:Middlewares/tensorflow/third_party/cmsis_nn/Include/arm_nnsupportfunctions.h ****  * @brief Matrix-multiplication function for convolution with per-channel requantization.
 701:Middlewares/tensorflow/third_party/cmsis_nn/Include/arm_nnsupportfunctions.h ****  * @param[in]       input_a     pointer to operand A
 702:Middlewares/tensorflow/third_party/cmsis_nn/Include/arm_nnsupportfunctions.h ****  * @param[in]       input_b     pointer to operand B, always consists of 2 vectors.
 703:Middlewares/tensorflow/third_party/cmsis_nn/Include/arm_nnsupportfunctions.h ****  * @param[in]       output_ch   number of rows of A
 704:Middlewares/tensorflow/third_party/cmsis_nn/Include/arm_nnsupportfunctions.h ****  * @param[in]       out_shift  pointer to per output channel requantization shift parameter.
 705:Middlewares/tensorflow/third_party/cmsis_nn/Include/arm_nnsupportfunctions.h ****  * @param[in]       out_mult   pointer to per output channel requantization multiplier parameter.
 706:Middlewares/tensorflow/third_party/cmsis_nn/Include/arm_nnsupportfunctions.h ****  * @param[in]       out_offset      output tensor offset.
 707:Middlewares/tensorflow/third_party/cmsis_nn/Include/arm_nnsupportfunctions.h ****  * @param[in]       activation_min   minimum value to clamp the output to. Range : int8
 708:Middlewares/tensorflow/third_party/cmsis_nn/Include/arm_nnsupportfunctions.h ****  * @param[in]       activation_max   maximum value to clamp the output to. Range : int8
 709:Middlewares/tensorflow/third_party/cmsis_nn/Include/arm_nnsupportfunctions.h ****  * @param[in]       num_col_a   number of columns of A
 710:Middlewares/tensorflow/third_party/cmsis_nn/Include/arm_nnsupportfunctions.h ****  * @param[in]       output_bias per output channel bias. Range : int32
 711:Middlewares/tensorflow/third_party/cmsis_nn/Include/arm_nnsupportfunctions.h ****  * @param[in,out]   out_0       pointer to output
 712:Middlewares/tensorflow/third_party/cmsis_nn/Include/arm_nnsupportfunctions.h ****  * @return     The function returns one of the two
 713:Middlewares/tensorflow/third_party/cmsis_nn/Include/arm_nnsupportfunctions.h ****  *              1. The incremented output pointer for a successful operation or
 714:Middlewares/tensorflow/third_party/cmsis_nn/Include/arm_nnsupportfunctions.h ****  *              2. NULL if implementation is not available.
 715:Middlewares/tensorflow/third_party/cmsis_nn/Include/arm_nnsupportfunctions.h ****  *
 716:Middlewares/tensorflow/third_party/cmsis_nn/Include/arm_nnsupportfunctions.h ****  * @details   This function does the matrix multiplication of weight matrix for all output channels
 717:Middlewares/tensorflow/third_party/cmsis_nn/Include/arm_nnsupportfunctions.h ****  *            with 2 columns from im2col and produces two elements/output_channel. The outputs are
 718:Middlewares/tensorflow/third_party/cmsis_nn/Include/arm_nnsupportfunctions.h ****  *            clamped in the range provided by activation min and max.
 719:Middlewares/tensorflow/third_party/cmsis_nn/Include/arm_nnsupportfunctions.h ****  *            Supported framework: TensorFlow Lite micro.
 720:Middlewares/tensorflow/third_party/cmsis_nn/Include/arm_nnsupportfunctions.h ****  */
 721:Middlewares/tensorflow/third_party/cmsis_nn/Include/arm_nnsupportfunctions.h **** int8_t *arm_nn_mat_mult_kernel_s8_s16(const int8_t *input_a,
 722:Middlewares/tensorflow/third_party/cmsis_nn/Include/arm_nnsupportfunctions.h ****                                       const int16_t *input_b,
 723:Middlewares/tensorflow/third_party/cmsis_nn/Include/arm_nnsupportfunctions.h ****                                       const uint16_t output_ch,
 724:Middlewares/tensorflow/third_party/cmsis_nn/Include/arm_nnsupportfunctions.h ****                                       const int32_t *out_shift,
 725:Middlewares/tensorflow/third_party/cmsis_nn/Include/arm_nnsupportfunctions.h ****                                       const int32_t *out_mult,
 726:Middlewares/tensorflow/third_party/cmsis_nn/Include/arm_nnsupportfunctions.h ****                                       const int32_t out_offset,
 727:Middlewares/tensorflow/third_party/cmsis_nn/Include/arm_nnsupportfunctions.h ****                                       const int16_t activation_min,
 728:Middlewares/tensorflow/third_party/cmsis_nn/Include/arm_nnsupportfunctions.h ****                                       const int16_t activation_max,
 729:Middlewares/tensorflow/third_party/cmsis_nn/Include/arm_nnsupportfunctions.h ****                                       const uint16_t num_col_a,
 730:Middlewares/tensorflow/third_party/cmsis_nn/Include/arm_nnsupportfunctions.h ****                                       const int32_t *const output_bias,
 731:Middlewares/tensorflow/third_party/cmsis_nn/Include/arm_nnsupportfunctions.h ****                                       int8_t *out_0);
 732:Middlewares/tensorflow/third_party/cmsis_nn/Include/arm_nnsupportfunctions.h **** 
 733:Middlewares/tensorflow/third_party/cmsis_nn/Include/arm_nnsupportfunctions.h **** /**
 734:Middlewares/tensorflow/third_party/cmsis_nn/Include/arm_nnsupportfunctions.h ****  * @brief Common softmax function for s8 input and s8 or s16 output
 735:Middlewares/tensorflow/third_party/cmsis_nn/Include/arm_nnsupportfunctions.h ****  * @param[in]  input          Pointer to the input tensor
 736:Middlewares/tensorflow/third_party/cmsis_nn/Include/arm_nnsupportfunctions.h ****  * @param[in]  num_rows       Number of rows in the input tensor
 737:Middlewares/tensorflow/third_party/cmsis_nn/Include/arm_nnsupportfunctions.h ****  * @param[in]  row_size       Number of elements in each input row
 738:Middlewares/tensorflow/third_party/cmsis_nn/Include/arm_nnsupportfunctions.h ****  * @param[in]  mult           Input quantization multiplier
 739:Middlewares/tensorflow/third_party/cmsis_nn/Include/arm_nnsupportfunctions.h ****  * @param[in]  shift          Input quantization shift within the range [0, 31]
 740:Middlewares/tensorflow/third_party/cmsis_nn/Include/arm_nnsupportfunctions.h ****  * @param[in]  diff_min       Minimum difference with max in row. Used to check if
 741:Middlewares/tensorflow/third_party/cmsis_nn/Include/arm_nnsupportfunctions.h ****  *                            the quantized exponential operation can be performed
 742:Middlewares/tensorflow/third_party/cmsis_nn/Include/arm_nnsupportfunctions.h ****  * @param[in]  int16_output   Indicating s8 output if 0 else s16 output
 743:Middlewares/tensorflow/third_party/cmsis_nn/Include/arm_nnsupportfunctions.h ****  * @param[out] output         Pointer to the output tensor
 744:Middlewares/tensorflow/third_party/cmsis_nn/Include/arm_nnsupportfunctions.h ****  *
 745:Middlewares/tensorflow/third_party/cmsis_nn/Include/arm_nnsupportfunctions.h ****  * @note Supported framework: TensorFlow Lite micro (bit-accurate)
ARM GAS  /tmp/ccReUFVW.s 			page 41


 746:Middlewares/tensorflow/third_party/cmsis_nn/Include/arm_nnsupportfunctions.h ****  *
 747:Middlewares/tensorflow/third_party/cmsis_nn/Include/arm_nnsupportfunctions.h ****  */
 748:Middlewares/tensorflow/third_party/cmsis_nn/Include/arm_nnsupportfunctions.h **** void arm_nn_softmax_common_s8(const int8_t *input,
 749:Middlewares/tensorflow/third_party/cmsis_nn/Include/arm_nnsupportfunctions.h ****                               const int32_t num_rows,
 750:Middlewares/tensorflow/third_party/cmsis_nn/Include/arm_nnsupportfunctions.h ****                               const int32_t row_size,
 751:Middlewares/tensorflow/third_party/cmsis_nn/Include/arm_nnsupportfunctions.h ****                               const int32_t mult,
 752:Middlewares/tensorflow/third_party/cmsis_nn/Include/arm_nnsupportfunctions.h ****                               const int32_t shift,
 753:Middlewares/tensorflow/third_party/cmsis_nn/Include/arm_nnsupportfunctions.h ****                               const int32_t diff_min,
 754:Middlewares/tensorflow/third_party/cmsis_nn/Include/arm_nnsupportfunctions.h ****                               const bool int16_output,
 755:Middlewares/tensorflow/third_party/cmsis_nn/Include/arm_nnsupportfunctions.h ****                               void *output);
 756:Middlewares/tensorflow/third_party/cmsis_nn/Include/arm_nnsupportfunctions.h **** 
 757:Middlewares/tensorflow/third_party/cmsis_nn/Include/arm_nnsupportfunctions.h **** /**
 758:Middlewares/tensorflow/third_party/cmsis_nn/Include/arm_nnsupportfunctions.h ****  * @brief macro for adding rounding offset
 759:Middlewares/tensorflow/third_party/cmsis_nn/Include/arm_nnsupportfunctions.h ****  */
 760:Middlewares/tensorflow/third_party/cmsis_nn/Include/arm_nnsupportfunctions.h **** #ifndef ARM_NN_TRUNCATE
 761:Middlewares/tensorflow/third_party/cmsis_nn/Include/arm_nnsupportfunctions.h ****     #define NN_ROUND(out_shift) ((0x1 << out_shift) >> 1)
 762:Middlewares/tensorflow/third_party/cmsis_nn/Include/arm_nnsupportfunctions.h **** #else
 763:Middlewares/tensorflow/third_party/cmsis_nn/Include/arm_nnsupportfunctions.h ****     #define NN_ROUND(out_shift) 0
 764:Middlewares/tensorflow/third_party/cmsis_nn/Include/arm_nnsupportfunctions.h **** #endif
 765:Middlewares/tensorflow/third_party/cmsis_nn/Include/arm_nnsupportfunctions.h **** 
 766:Middlewares/tensorflow/third_party/cmsis_nn/Include/arm_nnsupportfunctions.h **** // Macros for shortening quantization functions' names and avoid long lines
 767:Middlewares/tensorflow/third_party/cmsis_nn/Include/arm_nnsupportfunctions.h **** #define MUL_SAT(a, b) arm_nn_doubling_high_mult((a), (b))
 768:Middlewares/tensorflow/third_party/cmsis_nn/Include/arm_nnsupportfunctions.h **** #define MUL_SAT_MVE(a, b) arm_doubling_high_mult_mve_32x4((a), (b))
 769:Middlewares/tensorflow/third_party/cmsis_nn/Include/arm_nnsupportfunctions.h **** #define MUL_POW2(a, b) arm_nn_mult_by_power_of_two((a), (b))
 770:Middlewares/tensorflow/third_party/cmsis_nn/Include/arm_nnsupportfunctions.h **** 
 771:Middlewares/tensorflow/third_party/cmsis_nn/Include/arm_nnsupportfunctions.h **** #define DIV_POW2(a, b) arm_nn_divide_by_power_of_two((a), (b))
 772:Middlewares/tensorflow/third_party/cmsis_nn/Include/arm_nnsupportfunctions.h **** #define DIV_POW2_MVE(a, b) arm_divide_by_power_of_two_mve((a), (b))
 773:Middlewares/tensorflow/third_party/cmsis_nn/Include/arm_nnsupportfunctions.h **** 
 774:Middlewares/tensorflow/third_party/cmsis_nn/Include/arm_nnsupportfunctions.h **** #define EXP_ON_NEG(x) arm_nn_exp_on_negative_values((x))
 775:Middlewares/tensorflow/third_party/cmsis_nn/Include/arm_nnsupportfunctions.h **** #define ONE_OVER1(x) arm_nn_one_over_one_plus_x_for_x_in_0_1((x))
 776:Middlewares/tensorflow/third_party/cmsis_nn/Include/arm_nnsupportfunctions.h **** 
 777:Middlewares/tensorflow/third_party/cmsis_nn/Include/arm_nnsupportfunctions.h **** /**
 778:Middlewares/tensorflow/third_party/cmsis_nn/Include/arm_nnsupportfunctions.h ****  * @brief           Saturating doubling high multiply. Result matches
 779:Middlewares/tensorflow/third_party/cmsis_nn/Include/arm_nnsupportfunctions.h ****  *                  NEON instruction VQRDMULH.
 780:Middlewares/tensorflow/third_party/cmsis_nn/Include/arm_nnsupportfunctions.h ****  * @param[in]       m1        Multiplicand. Range: {NN_Q31_MIN, NN_Q31_MAX}
 781:Middlewares/tensorflow/third_party/cmsis_nn/Include/arm_nnsupportfunctions.h ****  * @param[in]       m2        Multiplier. Range: {NN_Q31_MIN, NN_Q31_MAX}
 782:Middlewares/tensorflow/third_party/cmsis_nn/Include/arm_nnsupportfunctions.h ****  * @return          Result of multiplication.
 783:Middlewares/tensorflow/third_party/cmsis_nn/Include/arm_nnsupportfunctions.h ****  *
 784:Middlewares/tensorflow/third_party/cmsis_nn/Include/arm_nnsupportfunctions.h ****  */
 785:Middlewares/tensorflow/third_party/cmsis_nn/Include/arm_nnsupportfunctions.h **** __STATIC_FORCEINLINE int32_t arm_nn_doubling_high_mult(const int32_t m1, const int32_t m2)
 786:Middlewares/tensorflow/third_party/cmsis_nn/Include/arm_nnsupportfunctions.h **** {
 787:Middlewares/tensorflow/third_party/cmsis_nn/Include/arm_nnsupportfunctions.h ****     int32_t result = 0;
 788:Middlewares/tensorflow/third_party/cmsis_nn/Include/arm_nnsupportfunctions.h ****     // Rounding offset to add for a right shift of 31
 789:Middlewares/tensorflow/third_party/cmsis_nn/Include/arm_nnsupportfunctions.h ****     int64_t mult = 1 << 30;
 790:Middlewares/tensorflow/third_party/cmsis_nn/Include/arm_nnsupportfunctions.h **** 
 791:Middlewares/tensorflow/third_party/cmsis_nn/Include/arm_nnsupportfunctions.h ****     if ((m1 < 0) ^ (m2 < 0))
 792:Middlewares/tensorflow/third_party/cmsis_nn/Include/arm_nnsupportfunctions.h ****     {
 793:Middlewares/tensorflow/third_party/cmsis_nn/Include/arm_nnsupportfunctions.h ****         mult = 1 - mult;
 794:Middlewares/tensorflow/third_party/cmsis_nn/Include/arm_nnsupportfunctions.h ****     }
 795:Middlewares/tensorflow/third_party/cmsis_nn/Include/arm_nnsupportfunctions.h ****     // Gets resolved as a SMLAL instruction
 796:Middlewares/tensorflow/third_party/cmsis_nn/Include/arm_nnsupportfunctions.h ****     mult = mult + (int64_t)m1 * m2;
 797:Middlewares/tensorflow/third_party/cmsis_nn/Include/arm_nnsupportfunctions.h **** 
 798:Middlewares/tensorflow/third_party/cmsis_nn/Include/arm_nnsupportfunctions.h ****     // Utilize all of the upper 32 bits. This is the doubling step
 799:Middlewares/tensorflow/third_party/cmsis_nn/Include/arm_nnsupportfunctions.h ****     // as well.
 800:Middlewares/tensorflow/third_party/cmsis_nn/Include/arm_nnsupportfunctions.h ****     result = (int32_t)(mult / (1ll << 31));
 801:Middlewares/tensorflow/third_party/cmsis_nn/Include/arm_nnsupportfunctions.h **** 
 802:Middlewares/tensorflow/third_party/cmsis_nn/Include/arm_nnsupportfunctions.h ****     if ((m1 == m2) && (m1 == (int32_t)NN_Q31_MIN))
ARM GAS  /tmp/ccReUFVW.s 			page 42


 803:Middlewares/tensorflow/third_party/cmsis_nn/Include/arm_nnsupportfunctions.h ****     {
 804:Middlewares/tensorflow/third_party/cmsis_nn/Include/arm_nnsupportfunctions.h ****         result = NN_Q31_MAX;
 805:Middlewares/tensorflow/third_party/cmsis_nn/Include/arm_nnsupportfunctions.h ****     }
 806:Middlewares/tensorflow/third_party/cmsis_nn/Include/arm_nnsupportfunctions.h ****     return result;
 807:Middlewares/tensorflow/third_party/cmsis_nn/Include/arm_nnsupportfunctions.h **** }
 808:Middlewares/tensorflow/third_party/cmsis_nn/Include/arm_nnsupportfunctions.h **** 
 809:Middlewares/tensorflow/third_party/cmsis_nn/Include/arm_nnsupportfunctions.h **** /**
 810:Middlewares/tensorflow/third_party/cmsis_nn/Include/arm_nnsupportfunctions.h ****  * @brief           Doubling high multiply without saturation. This is intended
 811:Middlewares/tensorflow/third_party/cmsis_nn/Include/arm_nnsupportfunctions.h ****  *                  for requantization where the scale is a positive integer
 812:Middlewares/tensorflow/third_party/cmsis_nn/Include/arm_nnsupportfunctions.h ****  *
 813:Middlewares/tensorflow/third_party/cmsis_nn/Include/arm_nnsupportfunctions.h ****  * @param[in]       m1        Multiplicand. Range: {NN_Q31_MIN, NN_Q31_MAX}
 814:Middlewares/tensorflow/third_party/cmsis_nn/Include/arm_nnsupportfunctions.h ****  * @param[in]       m2        Multiplier Range: {NN_Q31_MIN, NN_Q31_MAX}
 815:Middlewares/tensorflow/third_party/cmsis_nn/Include/arm_nnsupportfunctions.h ****  * @return          Result of multiplication.
 816:Middlewares/tensorflow/third_party/cmsis_nn/Include/arm_nnsupportfunctions.h ****  * @note            The result of this matches that of neon instruction
 817:Middlewares/tensorflow/third_party/cmsis_nn/Include/arm_nnsupportfunctions.h ****  *                  VQRDMULH for m1 in range {NN_Q31_MIN, NN_Q31_MAX} and m2 in
 818:Middlewares/tensorflow/third_party/cmsis_nn/Include/arm_nnsupportfunctions.h ****  *                  range {NN_Q31_MIN + 1, NN_Q31_MAX}. Saturation occurs when
 819:Middlewares/tensorflow/third_party/cmsis_nn/Include/arm_nnsupportfunctions.h ****  *                  m1 equals m2 equals NN_Q31_MIN and that is not handled by
 820:Middlewares/tensorflow/third_party/cmsis_nn/Include/arm_nnsupportfunctions.h ****  *                  this function.
 821:Middlewares/tensorflow/third_party/cmsis_nn/Include/arm_nnsupportfunctions.h ****  *
 822:Middlewares/tensorflow/third_party/cmsis_nn/Include/arm_nnsupportfunctions.h ****  */
 823:Middlewares/tensorflow/third_party/cmsis_nn/Include/arm_nnsupportfunctions.h **** __STATIC_FORCEINLINE int32_t arm_nn_doubling_high_mult_no_sat(const int32_t m1, const int32_t m2)
 824:Middlewares/tensorflow/third_party/cmsis_nn/Include/arm_nnsupportfunctions.h **** {
 825:Middlewares/tensorflow/third_party/cmsis_nn/Include/arm_nnsupportfunctions.h ****     int32_t result = 0;
 826:Middlewares/tensorflow/third_party/cmsis_nn/Include/arm_nnsupportfunctions.h ****     union arm_nn_long_long mult;
 827:Middlewares/tensorflow/third_party/cmsis_nn/Include/arm_nnsupportfunctions.h **** 
 828:Middlewares/tensorflow/third_party/cmsis_nn/Include/arm_nnsupportfunctions.h ****     // Rounding offset to add for a right shift of 31
 829:Middlewares/tensorflow/third_party/cmsis_nn/Include/arm_nnsupportfunctions.h ****     mult.word.low = 1 << 30;
 830:Middlewares/tensorflow/third_party/cmsis_nn/Include/arm_nnsupportfunctions.h ****     mult.word.high = 0;
 831:Middlewares/tensorflow/third_party/cmsis_nn/Include/arm_nnsupportfunctions.h **** 
 832:Middlewares/tensorflow/third_party/cmsis_nn/Include/arm_nnsupportfunctions.h ****     // Gets resolved as a SMLAL instruction
 833:Middlewares/tensorflow/third_party/cmsis_nn/Include/arm_nnsupportfunctions.h ****     mult.long_long = mult.long_long + (int64_t)m1 * m2;
 834:Middlewares/tensorflow/third_party/cmsis_nn/Include/arm_nnsupportfunctions.h **** 
 835:Middlewares/tensorflow/third_party/cmsis_nn/Include/arm_nnsupportfunctions.h ****     // Utilize all of the upper 32 bits. This is the doubling step
 836:Middlewares/tensorflow/third_party/cmsis_nn/Include/arm_nnsupportfunctions.h ****     // as well.
 837:Middlewares/tensorflow/third_party/cmsis_nn/Include/arm_nnsupportfunctions.h ****     result = (int32_t)(mult.long_long >> 31);
 838:Middlewares/tensorflow/third_party/cmsis_nn/Include/arm_nnsupportfunctions.h **** 
 839:Middlewares/tensorflow/third_party/cmsis_nn/Include/arm_nnsupportfunctions.h ****     return result;
 840:Middlewares/tensorflow/third_party/cmsis_nn/Include/arm_nnsupportfunctions.h **** }
 841:Middlewares/tensorflow/third_party/cmsis_nn/Include/arm_nnsupportfunctions.h **** 
 842:Middlewares/tensorflow/third_party/cmsis_nn/Include/arm_nnsupportfunctions.h **** /**
 843:Middlewares/tensorflow/third_party/cmsis_nn/Include/arm_nnsupportfunctions.h ****  * @brief           Rounding divide by power of two.
 844:Middlewares/tensorflow/third_party/cmsis_nn/Include/arm_nnsupportfunctions.h ****  * @param[in]       dividend - Dividend
 845:Middlewares/tensorflow/third_party/cmsis_nn/Include/arm_nnsupportfunctions.h ****  * @param[in]       exponent - Divisor = power(2, exponent)
 846:Middlewares/tensorflow/third_party/cmsis_nn/Include/arm_nnsupportfunctions.h ****  *                             Range: [0, 31]
 847:Middlewares/tensorflow/third_party/cmsis_nn/Include/arm_nnsupportfunctions.h ****  * @return          Rounded result of division. Midpoint is rounded away from zero.
 848:Middlewares/tensorflow/third_party/cmsis_nn/Include/arm_nnsupportfunctions.h ****  *
 849:Middlewares/tensorflow/third_party/cmsis_nn/Include/arm_nnsupportfunctions.h ****  */
 850:Middlewares/tensorflow/third_party/cmsis_nn/Include/arm_nnsupportfunctions.h **** __STATIC_FORCEINLINE int32_t arm_nn_divide_by_power_of_two(const int32_t dividend, const int32_t ex
 851:Middlewares/tensorflow/third_party/cmsis_nn/Include/arm_nnsupportfunctions.h **** {
 852:Middlewares/tensorflow/third_party/cmsis_nn/Include/arm_nnsupportfunctions.h ****     int32_t result = 0;
 853:Middlewares/tensorflow/third_party/cmsis_nn/Include/arm_nnsupportfunctions.h ****     const int32_t remainder_mask = (1 << exponent) - 1;
 854:Middlewares/tensorflow/third_party/cmsis_nn/Include/arm_nnsupportfunctions.h ****     int32_t remainder = remainder_mask & dividend;
 855:Middlewares/tensorflow/third_party/cmsis_nn/Include/arm_nnsupportfunctions.h **** 
 856:Middlewares/tensorflow/third_party/cmsis_nn/Include/arm_nnsupportfunctions.h ****     // Basic division
 857:Middlewares/tensorflow/third_party/cmsis_nn/Include/arm_nnsupportfunctions.h ****     result = dividend >> exponent;
 858:Middlewares/tensorflow/third_party/cmsis_nn/Include/arm_nnsupportfunctions.h **** 
 859:Middlewares/tensorflow/third_party/cmsis_nn/Include/arm_nnsupportfunctions.h ****     // Adjust 'result' for rounding (mid point away from zero)
ARM GAS  /tmp/ccReUFVW.s 			page 43


 860:Middlewares/tensorflow/third_party/cmsis_nn/Include/arm_nnsupportfunctions.h ****     int32_t threshold = remainder_mask >> 1;
 861:Middlewares/tensorflow/third_party/cmsis_nn/Include/arm_nnsupportfunctions.h ****     if (result < 0)
 862:Middlewares/tensorflow/third_party/cmsis_nn/Include/arm_nnsupportfunctions.h ****     {
 863:Middlewares/tensorflow/third_party/cmsis_nn/Include/arm_nnsupportfunctions.h ****         threshold++;
 864:Middlewares/tensorflow/third_party/cmsis_nn/Include/arm_nnsupportfunctions.h ****     }
 865:Middlewares/tensorflow/third_party/cmsis_nn/Include/arm_nnsupportfunctions.h ****     if (remainder > threshold)
 866:Middlewares/tensorflow/third_party/cmsis_nn/Include/arm_nnsupportfunctions.h ****     {
 867:Middlewares/tensorflow/third_party/cmsis_nn/Include/arm_nnsupportfunctions.h ****         result++;
 868:Middlewares/tensorflow/third_party/cmsis_nn/Include/arm_nnsupportfunctions.h ****     }
 869:Middlewares/tensorflow/third_party/cmsis_nn/Include/arm_nnsupportfunctions.h **** 
 870:Middlewares/tensorflow/third_party/cmsis_nn/Include/arm_nnsupportfunctions.h ****     return result;
 871:Middlewares/tensorflow/third_party/cmsis_nn/Include/arm_nnsupportfunctions.h **** }
 872:Middlewares/tensorflow/third_party/cmsis_nn/Include/arm_nnsupportfunctions.h **** 
 873:Middlewares/tensorflow/third_party/cmsis_nn/Include/arm_nnsupportfunctions.h **** /**
 874:Middlewares/tensorflow/third_party/cmsis_nn/Include/arm_nnsupportfunctions.h ****  * @brief           Requantize a given value.
 875:Middlewares/tensorflow/third_party/cmsis_nn/Include/arm_nnsupportfunctions.h ****  * @param[in]       val         Value to be requantized
 876:Middlewares/tensorflow/third_party/cmsis_nn/Include/arm_nnsupportfunctions.h ****  * @param[in]       multiplier  multiplier. Range {NN_Q31_MIN + 1, Q32_MAX}
 877:Middlewares/tensorflow/third_party/cmsis_nn/Include/arm_nnsupportfunctions.h ****  * @param[in]       shift       left or right shift for 'val * multiplier'
 878:Middlewares/tensorflow/third_party/cmsis_nn/Include/arm_nnsupportfunctions.h ****  *
 879:Middlewares/tensorflow/third_party/cmsis_nn/Include/arm_nnsupportfunctions.h ****  * @return          Returns (val * multiplier)/(2 ^ shift)
 880:Middlewares/tensorflow/third_party/cmsis_nn/Include/arm_nnsupportfunctions.h ****  *
 881:Middlewares/tensorflow/third_party/cmsis_nn/Include/arm_nnsupportfunctions.h ****  */
 882:Middlewares/tensorflow/third_party/cmsis_nn/Include/arm_nnsupportfunctions.h **** __STATIC_FORCEINLINE int32_t arm_nn_requantize(const int32_t val, const int32_t multiplier, const i
 883:Middlewares/tensorflow/third_party/cmsis_nn/Include/arm_nnsupportfunctions.h **** {
 884:Middlewares/tensorflow/third_party/cmsis_nn/Include/arm_nnsupportfunctions.h **** #ifdef CMSIS_NN_USE_SINGLE_ROUNDING
 885:Middlewares/tensorflow/third_party/cmsis_nn/Include/arm_nnsupportfunctions.h ****     const int64_t total_shift = 31 - shift;
 886:Middlewares/tensorflow/third_party/cmsis_nn/Include/arm_nnsupportfunctions.h ****     const int64_t new_val = val * (int64_t)multiplier;
 887:Middlewares/tensorflow/third_party/cmsis_nn/Include/arm_nnsupportfunctions.h **** 
 888:Middlewares/tensorflow/third_party/cmsis_nn/Include/arm_nnsupportfunctions.h ****     int32_t result = new_val >> (total_shift - 1);
 889:Middlewares/tensorflow/third_party/cmsis_nn/Include/arm_nnsupportfunctions.h ****     result = (result + 1) >> 1;
 890:Middlewares/tensorflow/third_party/cmsis_nn/Include/arm_nnsupportfunctions.h **** 
 891:Middlewares/tensorflow/third_party/cmsis_nn/Include/arm_nnsupportfunctions.h ****     return result;
 892:Middlewares/tensorflow/third_party/cmsis_nn/Include/arm_nnsupportfunctions.h **** #else
 893:Middlewares/tensorflow/third_party/cmsis_nn/Include/arm_nnsupportfunctions.h ****     return arm_nn_divide_by_power_of_two(arm_nn_doubling_high_mult_no_sat(val * (1 << LEFT_SHIFT(sh
 876              		.loc 2 893 12 view .LVU312
 877 0246 7D42     		rsbs	r5, r7, #0
 878 0248 39E0     		b	.L28
 879              	.LVL102:
 880              	.L64:
 881              	.LBB150:
 882              	.LBB151:
 863:Middlewares/tensorflow/third_party/cmsis_nn/Include/arm_nnsupportfunctions.h ****     }
 883              		.loc 2 863 9 is_stmt 1 view .LVU313
 863:Middlewares/tensorflow/third_party/cmsis_nn/Include/arm_nnsupportfunctions.h ****     }
 884              		.loc 2 863 18 is_stmt 0 view .LVU314
 885 024a 09F1010A 		add	r10, r9, #1
 886              	.LVL103:
 863:Middlewares/tensorflow/third_party/cmsis_nn/Include/arm_nnsupportfunctions.h ****     }
 887              		.loc 2 863 18 view .LVU315
 888 024e 40E0     		b	.L29
 889              	.LVL104:
 890              	.L65:
 863:Middlewares/tensorflow/third_party/cmsis_nn/Include/arm_nnsupportfunctions.h ****     }
 891              		.loc 2 863 18 view .LVU316
 892              	.LBE151:
 893              	.LBE150:
 894              	.LBE149:
ARM GAS  /tmp/ccReUFVW.s 			page 44


 895              	.LBE148:
 896              	.LBB157:
 897              	.LBB158:
 898              	.LBB159:
 863:Middlewares/tensorflow/third_party/cmsis_nn/Include/arm_nnsupportfunctions.h ****     }
 899              		.loc 2 863 9 is_stmt 1 view .LVU317
 863:Middlewares/tensorflow/third_party/cmsis_nn/Include/arm_nnsupportfunctions.h ****     }
 900              		.loc 2 863 18 is_stmt 0 view .LVU318
 901 0250 09F1010A 		add	r10, r9, #1
 902              	.LVL105:
 863:Middlewares/tensorflow/third_party/cmsis_nn/Include/arm_nnsupportfunctions.h ****     }
 903              		.loc 2 863 18 view .LVU319
 904 0254 52E0     		b	.L32
 905              	.LVL106:
 906              	.L51:
 863:Middlewares/tensorflow/third_party/cmsis_nn/Include/arm_nnsupportfunctions.h ****     }
 907              		.loc 2 863 18 view .LVU320
 908              	.LBE159:
 909              	.LBE158:
 910              	.LBE157:
 235:Middlewares/tensorflow/third_party/cmsis_nn/Source/SVDFunctions/arm_svdf_s8.c ****             }
 236:Middlewares/tensorflow/third_party/cmsis_nn/Source/SVDFunctions/arm_svdf_s8.c ****         }
 237:Middlewares/tensorflow/third_party/cmsis_nn/Source/SVDFunctions/arm_svdf_s8.c ****     }
 238:Middlewares/tensorflow/third_party/cmsis_nn/Source/SVDFunctions/arm_svdf_s8.c **** 
 239:Middlewares/tensorflow/third_party/cmsis_nn/Source/SVDFunctions/arm_svdf_s8.c **** #if defined(ARM_MATH_MVEI)
 240:Middlewares/tensorflow/third_party/cmsis_nn/Source/SVDFunctions/arm_svdf_s8.c ****     int32_t num_elements = input_batches * unit_count;
 241:Middlewares/tensorflow/third_party/cmsis_nn/Source/SVDFunctions/arm_svdf_s8.c ****     const int32_t loop_count = (num_elements + 3) / 4;
 242:Middlewares/tensorflow/third_party/cmsis_nn/Source/SVDFunctions/arm_svdf_s8.c ****     for (int i_op = 0; i_op < loop_count; i_op++)
 243:Middlewares/tensorflow/third_party/cmsis_nn/Source/SVDFunctions/arm_svdf_s8.c ****     {
 244:Middlewares/tensorflow/third_party/cmsis_nn/Source/SVDFunctions/arm_svdf_s8.c ****         mve_pred16_t p = vctp32q((uint32_t)num_elements);
 245:Middlewares/tensorflow/third_party/cmsis_nn/Source/SVDFunctions/arm_svdf_s8.c ****         int32x4_t op = vldrwq_z_s32(buffer_b, p);
 246:Middlewares/tensorflow/third_party/cmsis_nn/Source/SVDFunctions/arm_svdf_s8.c ****         op = arm_requantize_mve(op, multiplier_out, shift_2);
 247:Middlewares/tensorflow/third_party/cmsis_nn/Source/SVDFunctions/arm_svdf_s8.c ****         op = vaddq_n_s32(op, zp_out);
 248:Middlewares/tensorflow/third_party/cmsis_nn/Source/SVDFunctions/arm_svdf_s8.c ****         const int32x4_t min_vec = vdupq_n_s32((int8_t)out_activation_min);
 249:Middlewares/tensorflow/third_party/cmsis_nn/Source/SVDFunctions/arm_svdf_s8.c ****         const int32x4_t max_vec = vdupq_n_s32((int8_t)out_activation_max);
 250:Middlewares/tensorflow/third_party/cmsis_nn/Source/SVDFunctions/arm_svdf_s8.c ****         op = vmaxq_s32(op, min_vec);
 251:Middlewares/tensorflow/third_party/cmsis_nn/Source/SVDFunctions/arm_svdf_s8.c ****         op = vminq_s32(op, max_vec);
 252:Middlewares/tensorflow/third_party/cmsis_nn/Source/SVDFunctions/arm_svdf_s8.c ****         vstrbq_p_s32(output_data, op, p);
 253:Middlewares/tensorflow/third_party/cmsis_nn/Source/SVDFunctions/arm_svdf_s8.c ****         output_data += 4;
 254:Middlewares/tensorflow/third_party/cmsis_nn/Source/SVDFunctions/arm_svdf_s8.c ****         buffer_b += 4;
 255:Middlewares/tensorflow/third_party/cmsis_nn/Source/SVDFunctions/arm_svdf_s8.c ****         num_elements -= 4;
 256:Middlewares/tensorflow/third_party/cmsis_nn/Source/SVDFunctions/arm_svdf_s8.c ****     }
 257:Middlewares/tensorflow/third_party/cmsis_nn/Source/SVDFunctions/arm_svdf_s8.c **** #else
 258:Middlewares/tensorflow/third_party/cmsis_nn/Source/SVDFunctions/arm_svdf_s8.c ****     for (int i = 0; i < input_batches * unit_count; i++)
 259:Middlewares/tensorflow/third_party/cmsis_nn/Source/SVDFunctions/arm_svdf_s8.c ****     {
 260:Middlewares/tensorflow/third_party/cmsis_nn/Source/SVDFunctions/arm_svdf_s8.c ****         output_data[i] = (int8_t)CLAMP(
 911              		.loc 1 260 34 view .LVU321
 912 0256 F246     		mov	r10, lr
 913 0258 55E0     		b	.L31
 914              	.LVL107:
 915              	.L66:
 916              	.LBB164:
 917              	.LBB165:
 918              	.LBB166:
 863:Middlewares/tensorflow/third_party/cmsis_nn/Include/arm_nnsupportfunctions.h ****     }
 919              		.loc 2 863 9 is_stmt 1 view .LVU322
 863:Middlewares/tensorflow/third_party/cmsis_nn/Include/arm_nnsupportfunctions.h ****     }
ARM GAS  /tmp/ccReUFVW.s 			page 45


 920              		.loc 2 863 18 is_stmt 0 view .LVU323
 921 025a 09F1010A 		add	r10, r9, #1
 922              	.LVL108:
 863:Middlewares/tensorflow/third_party/cmsis_nn/Include/arm_nnsupportfunctions.h ****     }
 923              		.loc 2 863 18 view .LVU324
 924 025e 64E0     		b	.L35
 925              	.LVL109:
 926              	.L67:
 863:Middlewares/tensorflow/third_party/cmsis_nn/Include/arm_nnsupportfunctions.h ****     }
 927              		.loc 2 863 18 view .LVU325
 928              	.LBE166:
 929              	.LBE165:
 930              	.LBE164:
 931              	.LBB173:
 932              	.LBB174:
 933              	.LBB175:
 863:Middlewares/tensorflow/third_party/cmsis_nn/Include/arm_nnsupportfunctions.h ****     }
 934              		.loc 2 863 9 is_stmt 1 view .LVU326
 863:Middlewares/tensorflow/third_party/cmsis_nn/Include/arm_nnsupportfunctions.h ****     }
 935              		.loc 2 863 18 is_stmt 0 view .LVU327
 936 0260 09F10109 		add	r9, r9, #1
 937              	.LVL110:
 863:Middlewares/tensorflow/third_party/cmsis_nn/Include/arm_nnsupportfunctions.h ****     }
 938              		.loc 2 863 18 view .LVU328
 939 0264 74E0     		b	.L38
 940              	.LVL111:
 941              	.L37:
 863:Middlewares/tensorflow/third_party/cmsis_nn/Include/arm_nnsupportfunctions.h ****     }
 942              		.loc 2 863 18 view .LVU329
 943              	.LBE175:
 944              	.LBE174:
 945              	.LBE173:
 946              		.loc 1 260 26 discriminator 8 view .LVU330
 947 0266 4FFA8EF3 		sxtb	r3, lr
 948 026a 01E0     		b	.L40
 949              	.L34:
 950              		.loc 1 260 26 discriminator 6 view .LVU331
 951 026c 9DF93830 		ldrsb	r3, [sp, #56]
 952              	.L40:
 953              		.loc 1 260 24 discriminator 12 view .LVU332
 954 0270 2E99     		ldr	r1, [sp, #184]
 955 0272 0C98     		ldr	r0, [sp, #48]
 956 0274 0B54     		strb	r3, [r1, r0]
 258:Middlewares/tensorflow/third_party/cmsis_nn/Source/SVDFunctions/arm_svdf_s8.c ****     {
 957              		.loc 1 258 53 is_stmt 1 discriminator 12 view .LVU333
 258:Middlewares/tensorflow/third_party/cmsis_nn/Source/SVDFunctions/arm_svdf_s8.c ****     {
 958              		.loc 1 258 54 is_stmt 0 discriminator 12 view .LVU334
 959 0276 0132     		adds	r2, r2, #1
 960              	.LVL112:
 961              	.L41:
 258:Middlewares/tensorflow/third_party/cmsis_nn/Source/SVDFunctions/arm_svdf_s8.c ****     {
 962              		.loc 1 258 21 is_stmt 1 discriminator 2 view .LVU335
 258:Middlewares/tensorflow/third_party/cmsis_nn/Source/SVDFunctions/arm_svdf_s8.c ****     {
 963              		.loc 1 258 39 is_stmt 0 discriminator 2 view .LVU336
 964 0278 0F9B     		ldr	r3, [sp, #60]
 965 027a 0B99     		ldr	r1, [sp, #44]
 966 027c 03FB01F3 		mul	r3, r3, r1
ARM GAS  /tmp/ccReUFVW.s 			page 46


 258:Middlewares/tensorflow/third_party/cmsis_nn/Source/SVDFunctions/arm_svdf_s8.c ****     {
 967              		.loc 1 258 5 discriminator 2 view .LVU337
 968 0280 9342     		cmp	r3, r2
 969 0282 75DD     		ble	.L62
 970              		.loc 1 260 9 is_stmt 1 view .LVU338
 971              		.loc 1 260 34 is_stmt 0 view .LVU339
 972 0284 0C92     		str	r2, [sp, #48]
 973 0286 58F82230 		ldr	r3, [r8, r2, lsl #2]
 974              	.LVL113:
 975              	.LBB180:
 976              	.LBI148:
 882:Middlewares/tensorflow/third_party/cmsis_nn/Include/arm_nnsupportfunctions.h **** {
 977              		.loc 2 882 30 is_stmt 1 view .LVU340
 978              	.LBB156:
 979              		.loc 2 893 5 view .LVU341
 980              		.loc 2 893 87 is_stmt 0 view .LVU342
 981 028a 27EAE770 		bic	r0, r7, r7, asr #31
 982              		.loc 2 893 12 view .LVU343
 983 028e 03FA00F0 		lsl	r0, r3, r0
 984              	.LVL114:
 985              	.LBB153:
 986              	.LBI153:
 823:Middlewares/tensorflow/third_party/cmsis_nn/Include/arm_nnsupportfunctions.h **** {
 987              		.loc 2 823 30 is_stmt 1 view .LVU344
 988              	.LBB154:
 825:Middlewares/tensorflow/third_party/cmsis_nn/Include/arm_nnsupportfunctions.h ****     union arm_nn_long_long mult;
 989              		.loc 2 825 5 view .LVU345
 826:Middlewares/tensorflow/third_party/cmsis_nn/Include/arm_nnsupportfunctions.h **** 
 990              		.loc 2 826 5 view .LVU346
 829:Middlewares/tensorflow/third_party/cmsis_nn/Include/arm_nnsupportfunctions.h ****     mult.word.high = 0;
 991              		.loc 2 829 5 view .LVU347
 830:Middlewares/tensorflow/third_party/cmsis_nn/Include/arm_nnsupportfunctions.h **** 
 992              		.loc 2 830 5 view .LVU348
 833:Middlewares/tensorflow/third_party/cmsis_nn/Include/arm_nnsupportfunctions.h **** 
 993              		.loc 2 833 5 view .LVU349
 833:Middlewares/tensorflow/third_party/cmsis_nn/Include/arm_nnsupportfunctions.h **** 
 994              		.loc 2 833 26 is_stmt 0 view .LVU350
 995 0292 4FF08043 		mov	r3, #1073741824
 996              	.LVL115:
 833:Middlewares/tensorflow/third_party/cmsis_nn/Include/arm_nnsupportfunctions.h **** 
 997              		.loc 2 833 26 view .LVU351
 998 0296 4FF00009 		mov	r9, #0
 833:Middlewares/tensorflow/third_party/cmsis_nn/Include/arm_nnsupportfunctions.h **** 
 999              		.loc 2 833 39 view .LVU352
 1000 029a C517     		asrs	r5, r0, #31
 833:Middlewares/tensorflow/third_party/cmsis_nn/Include/arm_nnsupportfunctions.h **** 
 1001              		.loc 2 833 51 view .LVU353
 1002 029c 06FB05F1 		mul	r1, r6, r5
 1003 02a0 F517     		asrs	r5, r6, #31
 1004 02a2 00FB0514 		mla	r4, r0, r5, r1
 1005 02a6 A6FB0001 		umull	r0, r1, r6, r0
 1006              	.LVL116:
 833:Middlewares/tensorflow/third_party/cmsis_nn/Include/arm_nnsupportfunctions.h **** 
 1007              		.loc 2 833 51 view .LVU354
 1008 02aa 2144     		add	r1, r1, r4
 833:Middlewares/tensorflow/third_party/cmsis_nn/Include/arm_nnsupportfunctions.h **** 
 1009              		.loc 2 833 37 view .LVU355
ARM GAS  /tmp/ccReUFVW.s 			page 47


 1010 02ac 1B18     		adds	r3, r3, r0
 1011 02ae 49EB0109 		adc	r9, r9, r1
 837:Middlewares/tensorflow/third_party/cmsis_nn/Include/arm_nnsupportfunctions.h **** 
 1012              		.loc 2 837 5 is_stmt 1 view .LVU356
 837:Middlewares/tensorflow/third_party/cmsis_nn/Include/arm_nnsupportfunctions.h **** 
 1013              		.loc 2 837 39 is_stmt 0 view .LVU357
 1014 02b2 DB0F     		lsrs	r3, r3, #31
 1015 02b4 43EA4903 		orr	r3, r3, r9, lsl #1
 1016              	.LVL117:
 839:Middlewares/tensorflow/third_party/cmsis_nn/Include/arm_nnsupportfunctions.h **** }
 1017              		.loc 2 839 5 is_stmt 1 view .LVU358
 839:Middlewares/tensorflow/third_party/cmsis_nn/Include/arm_nnsupportfunctions.h **** }
 1018              		.loc 2 839 5 is_stmt 0 view .LVU359
 1019              	.LBE154:
 1020              	.LBE153:
 1021              		.loc 2 893 12 view .LVU360
 1022 02b8 002F     		cmp	r7, #0
 1023 02ba C4DD     		ble	.L63
 1024              		.loc 2 893 12 view .LVU361
 1025 02bc 0025     		movs	r5, #0
 1026              	.L28:
 1027              	.LVL118:
 1028              	.LBB155:
 1029              	.LBI150:
 850:Middlewares/tensorflow/third_party/cmsis_nn/Include/arm_nnsupportfunctions.h **** {
 1030              		.loc 2 850 30 is_stmt 1 view .LVU362
 1031              	.LBB152:
 852:Middlewares/tensorflow/third_party/cmsis_nn/Include/arm_nnsupportfunctions.h ****     const int32_t remainder_mask = (1 << exponent) - 1;
 1032              		.loc 2 852 5 view .LVU363
 853:Middlewares/tensorflow/third_party/cmsis_nn/Include/arm_nnsupportfunctions.h ****     int32_t remainder = remainder_mask & dividend;
 1033              		.loc 2 853 5 view .LVU364
 853:Middlewares/tensorflow/third_party/cmsis_nn/Include/arm_nnsupportfunctions.h ****     int32_t remainder = remainder_mask & dividend;
 1034              		.loc 2 853 39 is_stmt 0 view .LVU365
 1035 02be 0124     		movs	r4, #1
 1036 02c0 AC40     		lsls	r4, r4, r5
