ARM GAS  /tmp/ccbrCuLB.s 			page 1


   1              		.cpu cortex-m4
   2              		.eabi_attribute 27, 1
   3              		.eabi_attribute 28, 1
   4              		.eabi_attribute 20, 1
   5              		.eabi_attribute 21, 1
   6              		.eabi_attribute 23, 3
   7              		.eabi_attribute 24, 1
   8              		.eabi_attribute 25, 1
   9              		.eabi_attribute 26, 1
  10              		.eabi_attribute 30, 1
  11              		.eabi_attribute 34, 1
  12              		.eabi_attribute 18, 4
  13              		.file	"pb_decode.c"
  14              		.text
  15              	.Ltext0:
  16              		.cfi_sections	.debug_frame
  17              		.section	.text.buf_read,"ax",%progbits
  18              		.align	1
  19              		.arch armv7e-m
  20              		.syntax unified
  21              		.thumb
  22              		.thumb_func
  23              		.fpu fpv4-sp-d16
  25              	buf_read:
  26              	.LVL0:
  27              	.LFB0:
  28              		.file 1 "X-CUBE-AI/App/pb_decode.c"
   1:X-CUBE-AI/App/pb_decode.c **** /* pb_decode.c -- decode a protobuf using minimal resources
   2:X-CUBE-AI/App/pb_decode.c ****  *
   3:X-CUBE-AI/App/pb_decode.c ****  * 2011 Petteri Aimonen <jpa@kapsi.fi>
   4:X-CUBE-AI/App/pb_decode.c ****  */
   5:X-CUBE-AI/App/pb_decode.c **** 
   6:X-CUBE-AI/App/pb_decode.c **** /* Use the GCC warn_unused_result attribute to check that all return values
   7:X-CUBE-AI/App/pb_decode.c ****  * are propagated correctly. On other compilers and gcc before 3.4.0 just
   8:X-CUBE-AI/App/pb_decode.c ****  * ignore the annotation.
   9:X-CUBE-AI/App/pb_decode.c ****  */
  10:X-CUBE-AI/App/pb_decode.c **** #if !defined(__GNUC__) || ( __GNUC__ < 3) || (__GNUC__ == 3 && __GNUC_MINOR__ < 4)
  11:X-CUBE-AI/App/pb_decode.c ****     #define checkreturn
  12:X-CUBE-AI/App/pb_decode.c **** #else
  13:X-CUBE-AI/App/pb_decode.c ****     #define checkreturn __attribute__((warn_unused_result))
  14:X-CUBE-AI/App/pb_decode.c **** #endif
  15:X-CUBE-AI/App/pb_decode.c **** 
  16:X-CUBE-AI/App/pb_decode.c **** #include "pb.h"
  17:X-CUBE-AI/App/pb_decode.c **** #include "pb_decode.h"
  18:X-CUBE-AI/App/pb_decode.c **** #include "pb_common.h"
  19:X-CUBE-AI/App/pb_decode.c **** 
  20:X-CUBE-AI/App/pb_decode.c **** /**************************************
  21:X-CUBE-AI/App/pb_decode.c ****  * Declarations internal to this file *
  22:X-CUBE-AI/App/pb_decode.c ****  **************************************/
  23:X-CUBE-AI/App/pb_decode.c **** 
  24:X-CUBE-AI/App/pb_decode.c **** typedef bool (*pb_decoder_t)(pb_istream_t *stream, const pb_field_t *field, void *dest) checkreturn
  25:X-CUBE-AI/App/pb_decode.c **** 
  26:X-CUBE-AI/App/pb_decode.c **** static bool checkreturn buf_read(pb_istream_t *stream, pb_byte_t *buf, size_t count);
  27:X-CUBE-AI/App/pb_decode.c **** static bool checkreturn read_raw_value(pb_istream_t *stream, pb_wire_type_t wire_type, pb_byte_t *b
  28:X-CUBE-AI/App/pb_decode.c **** static bool checkreturn decode_static_field(pb_istream_t *stream, pb_wire_type_t wire_type, pb_fiel
  29:X-CUBE-AI/App/pb_decode.c **** static bool checkreturn decode_callback_field(pb_istream_t *stream, pb_wire_type_t wire_type, pb_fi
  30:X-CUBE-AI/App/pb_decode.c **** static bool checkreturn decode_field(pb_istream_t *stream, pb_wire_type_t wire_type, pb_field_iter_
ARM GAS  /tmp/ccbrCuLB.s 			page 2


  31:X-CUBE-AI/App/pb_decode.c **** static void iter_from_extension(pb_field_iter_t *iter, pb_extension_t *extension);
  32:X-CUBE-AI/App/pb_decode.c **** static bool checkreturn default_extension_decoder(pb_istream_t *stream, pb_extension_t *extension, 
  33:X-CUBE-AI/App/pb_decode.c **** static bool checkreturn decode_extension(pb_istream_t *stream, uint32_t tag, pb_wire_type_t wire_ty
  34:X-CUBE-AI/App/pb_decode.c **** static bool checkreturn find_extension_field(pb_field_iter_t *iter);
  35:X-CUBE-AI/App/pb_decode.c **** static void pb_field_set_to_default(pb_field_iter_t *iter);
  36:X-CUBE-AI/App/pb_decode.c **** static void pb_message_set_to_defaults(const pb_field_t fields[], void *dest_struct);
  37:X-CUBE-AI/App/pb_decode.c **** static bool checkreturn pb_dec_varint(pb_istream_t *stream, const pb_field_t *field, void *dest);
  38:X-CUBE-AI/App/pb_decode.c **** static bool checkreturn pb_decode_varint32_eof(pb_istream_t *stream, uint32_t *dest, bool *eof);
  39:X-CUBE-AI/App/pb_decode.c **** static bool checkreturn pb_dec_uvarint(pb_istream_t *stream, const pb_field_t *field, void *dest);
  40:X-CUBE-AI/App/pb_decode.c **** static bool checkreturn pb_dec_svarint(pb_istream_t *stream, const pb_field_t *field, void *dest);
  41:X-CUBE-AI/App/pb_decode.c **** static bool checkreturn pb_dec_fixed32(pb_istream_t *stream, const pb_field_t *field, void *dest);
  42:X-CUBE-AI/App/pb_decode.c **** static bool checkreturn pb_dec_fixed64(pb_istream_t *stream, const pb_field_t *field, void *dest);
  43:X-CUBE-AI/App/pb_decode.c **** static bool checkreturn pb_dec_bytes(pb_istream_t *stream, const pb_field_t *field, void *dest);
  44:X-CUBE-AI/App/pb_decode.c **** static bool checkreturn pb_dec_string(pb_istream_t *stream, const pb_field_t *field, void *dest);
  45:X-CUBE-AI/App/pb_decode.c **** static bool checkreturn pb_dec_submessage(pb_istream_t *stream, const pb_field_t *field, void *dest
  46:X-CUBE-AI/App/pb_decode.c **** static bool checkreturn pb_dec_fixed_length_bytes(pb_istream_t *stream, const pb_field_t *field, vo
  47:X-CUBE-AI/App/pb_decode.c **** static bool checkreturn pb_skip_varint(pb_istream_t *stream);
  48:X-CUBE-AI/App/pb_decode.c **** static bool checkreturn pb_skip_string(pb_istream_t *stream);
  49:X-CUBE-AI/App/pb_decode.c **** 
  50:X-CUBE-AI/App/pb_decode.c **** #ifdef PB_ENABLE_MALLOC
  51:X-CUBE-AI/App/pb_decode.c **** static bool checkreturn allocate_field(pb_istream_t *stream, void *pData, size_t data_size, size_t 
  52:X-CUBE-AI/App/pb_decode.c **** static bool checkreturn pb_release_union_field(pb_istream_t *stream, pb_field_iter_t *iter);
  53:X-CUBE-AI/App/pb_decode.c **** static void pb_release_single_field(const pb_field_iter_t *iter);
  54:X-CUBE-AI/App/pb_decode.c **** #endif
  55:X-CUBE-AI/App/pb_decode.c **** 
  56:X-CUBE-AI/App/pb_decode.c **** #ifdef PB_WITHOUT_64BIT
  57:X-CUBE-AI/App/pb_decode.c **** #define pb_int64_t int32_t
  58:X-CUBE-AI/App/pb_decode.c **** #define pb_uint64_t uint32_t
  59:X-CUBE-AI/App/pb_decode.c **** #else
  60:X-CUBE-AI/App/pb_decode.c **** #define pb_int64_t int64_t
  61:X-CUBE-AI/App/pb_decode.c **** #define pb_uint64_t uint64_t
  62:X-CUBE-AI/App/pb_decode.c **** #endif
  63:X-CUBE-AI/App/pb_decode.c **** 
  64:X-CUBE-AI/App/pb_decode.c **** /* --- Function pointers to field decoders ---
  65:X-CUBE-AI/App/pb_decode.c ****  * Order in the array must match pb_action_t LTYPE numbering.
  66:X-CUBE-AI/App/pb_decode.c ****  */
  67:X-CUBE-AI/App/pb_decode.c **** static const pb_decoder_t PB_DECODERS[PB_LTYPES_COUNT] = {
  68:X-CUBE-AI/App/pb_decode.c ****     &pb_dec_varint,
  69:X-CUBE-AI/App/pb_decode.c ****     &pb_dec_uvarint,
  70:X-CUBE-AI/App/pb_decode.c ****     &pb_dec_svarint,
  71:X-CUBE-AI/App/pb_decode.c ****     &pb_dec_fixed32,
  72:X-CUBE-AI/App/pb_decode.c ****     &pb_dec_fixed64,
  73:X-CUBE-AI/App/pb_decode.c ****     
  74:X-CUBE-AI/App/pb_decode.c ****     &pb_dec_bytes,
  75:X-CUBE-AI/App/pb_decode.c ****     &pb_dec_string,
  76:X-CUBE-AI/App/pb_decode.c ****     &pb_dec_submessage,
  77:X-CUBE-AI/App/pb_decode.c ****     NULL, /* extensions */
  78:X-CUBE-AI/App/pb_decode.c ****     &pb_dec_fixed_length_bytes
  79:X-CUBE-AI/App/pb_decode.c **** };
  80:X-CUBE-AI/App/pb_decode.c **** 
  81:X-CUBE-AI/App/pb_decode.c **** /*******************************
  82:X-CUBE-AI/App/pb_decode.c ****  * pb_istream_t implementation *
  83:X-CUBE-AI/App/pb_decode.c ****  *******************************/
  84:X-CUBE-AI/App/pb_decode.c **** 
  85:X-CUBE-AI/App/pb_decode.c **** static bool checkreturn buf_read(pb_istream_t *stream, pb_byte_t *buf, size_t count)
  86:X-CUBE-AI/App/pb_decode.c **** {
  29              		.loc 1 86 1 view -0
ARM GAS  /tmp/ccbrCuLB.s 			page 3


  30              		.cfi_startproc
  31              		@ args = 0, pretend = 0, frame = 0
  32              		@ frame_needed = 0, uses_anonymous_args = 0
  33              		@ link register save eliminated.
  34              		.loc 1 86 1 is_stmt 0 view .LVU1
  35 0000 10B4     		push	{r4}
  36              	.LCFI0:
  37              		.cfi_def_cfa_offset 4
  38              		.cfi_offset 4, -4
  87:X-CUBE-AI/App/pb_decode.c ****     size_t i;
  39              		.loc 1 87 5 is_stmt 1 view .LVU2
  88:X-CUBE-AI/App/pb_decode.c ****     const pb_byte_t *source = (const pb_byte_t*)stream->state;
  40              		.loc 1 88 5 view .LVU3
  41              		.loc 1 88 22 is_stmt 0 view .LVU4
  42 0002 4468     		ldr	r4, [r0, #4]
  43              	.LVL1:
  89:X-CUBE-AI/App/pb_decode.c ****     stream->state = (pb_byte_t*)stream->state + count;
  44              		.loc 1 89 5 is_stmt 1 view .LVU5
  45              		.loc 1 89 47 is_stmt 0 view .LVU6
  46 0004 A318     		adds	r3, r4, r2
  47              		.loc 1 89 19 view .LVU7
  48 0006 4360     		str	r3, [r0, #4]
  90:X-CUBE-AI/App/pb_decode.c ****     
  91:X-CUBE-AI/App/pb_decode.c ****     if (buf != NULL)
  49              		.loc 1 91 5 is_stmt 1 view .LVU8
  50              		.loc 1 91 8 is_stmt 0 view .LVU9
  51 0008 39B1     		cbz	r1, .L3
  52 000a 0846     		mov	r0, r1
  53              	.LVL2:
  92:X-CUBE-AI/App/pb_decode.c ****     {
  93:X-CUBE-AI/App/pb_decode.c ****         for (i = 0; i < count; i++)
  54              		.loc 1 93 16 view .LVU10
  55 000c 0023     		movs	r3, #0
  56 000e 02E0     		b	.L2
  57              	.LVL3:
  58              	.L4:
  94:X-CUBE-AI/App/pb_decode.c ****             buf[i] = source[i];
  59              		.loc 1 94 13 is_stmt 1 discriminator 3 view .LVU11
  60              		.loc 1 94 28 is_stmt 0 discriminator 3 view .LVU12
  61 0010 E15C     		ldrb	r1, [r4, r3]	@ zero_extendqisi2
  62              		.loc 1 94 20 discriminator 3 view .LVU13
  63 0012 C154     		strb	r1, [r0, r3]
  93:X-CUBE-AI/App/pb_decode.c ****             buf[i] = source[i];
  64              		.loc 1 93 32 is_stmt 1 discriminator 3 view .LVU14
  93:X-CUBE-AI/App/pb_decode.c ****             buf[i] = source[i];
  65              		.loc 1 93 33 is_stmt 0 discriminator 3 view .LVU15
  66 0014 0133     		adds	r3, r3, #1
  67              	.LVL4:
  68              	.L2:
  93:X-CUBE-AI/App/pb_decode.c ****             buf[i] = source[i];
  69              		.loc 1 93 21 is_stmt 1 discriminator 1 view .LVU16
  93:X-CUBE-AI/App/pb_decode.c ****             buf[i] = source[i];
  70              		.loc 1 93 9 is_stmt 0 discriminator 1 view .LVU17
  71 0016 9342     		cmp	r3, r2
  72 0018 FAD3     		bcc	.L4
  73              	.LVL5:
  74              	.L3:
ARM GAS  /tmp/ccbrCuLB.s 			page 4


  95:X-CUBE-AI/App/pb_decode.c ****     }
  96:X-CUBE-AI/App/pb_decode.c ****     
  97:X-CUBE-AI/App/pb_decode.c ****     return true;
  75              		.loc 1 97 5 is_stmt 1 view .LVU18
  98:X-CUBE-AI/App/pb_decode.c **** }
  76              		.loc 1 98 1 is_stmt 0 view .LVU19
  77 001a 0120     		movs	r0, #1
  78 001c 5DF8044B 		ldr	r4, [sp], #4
  79              	.LCFI1:
  80              		.cfi_restore 4
  81              		.cfi_def_cfa_offset 0
  82              	.LVL6:
  83              		.loc 1 98 1 view .LVU20
  84 0020 7047     		bx	lr
  85              		.cfi_endproc
  86              	.LFE0:
  88              		.section	.rodata.pb_readbyte.str1.4,"aMS",%progbits,1
  89              		.align	2
  90              	.LC0:
  91 0000 656E642D 		.ascii	"end-of-stream\000"
  91      6F662D73 
  91      74726561 
  91      6D00
  92 000e 0000     		.align	2
  93              	.LC1:
  94 0010 696F2065 		.ascii	"io error\000"
  94      72726F72 
  94      00
  95              		.section	.text.pb_readbyte,"ax",%progbits
  96              		.align	1
  97              		.syntax unified
  98              		.thumb
  99              		.thumb_func
 100              		.fpu fpv4-sp-d16
 102              	pb_readbyte:
 103              	.LVL7:
 104              	.LFB2:
  99:X-CUBE-AI/App/pb_decode.c **** 
 100:X-CUBE-AI/App/pb_decode.c **** bool checkreturn pb_read(pb_istream_t *stream, pb_byte_t *buf, size_t count)
 101:X-CUBE-AI/App/pb_decode.c **** {
 102:X-CUBE-AI/App/pb_decode.c **** #ifndef PB_BUFFER_ONLY
 103:X-CUBE-AI/App/pb_decode.c **** 	if (buf == NULL && stream->callback != buf_read)
 104:X-CUBE-AI/App/pb_decode.c **** 	{
 105:X-CUBE-AI/App/pb_decode.c **** 		/* Skip input bytes */
 106:X-CUBE-AI/App/pb_decode.c **** 		pb_byte_t tmp[16];
 107:X-CUBE-AI/App/pb_decode.c **** 		while (count > 16)
 108:X-CUBE-AI/App/pb_decode.c **** 		{
 109:X-CUBE-AI/App/pb_decode.c **** 			if (!pb_read(stream, tmp, 16))
 110:X-CUBE-AI/App/pb_decode.c **** 				return false;
 111:X-CUBE-AI/App/pb_decode.c **** 			
 112:X-CUBE-AI/App/pb_decode.c **** 			count -= 16;
 113:X-CUBE-AI/App/pb_decode.c **** 		}
 114:X-CUBE-AI/App/pb_decode.c **** 		
 115:X-CUBE-AI/App/pb_decode.c **** 		return pb_read(stream, tmp, count);
 116:X-CUBE-AI/App/pb_decode.c **** 	}
 117:X-CUBE-AI/App/pb_decode.c **** #endif
 118:X-CUBE-AI/App/pb_decode.c **** 
ARM GAS  /tmp/ccbrCuLB.s 			page 5


 119:X-CUBE-AI/App/pb_decode.c ****     if (stream->bytes_left < count)
 120:X-CUBE-AI/App/pb_decode.c ****         PB_RETURN_ERROR(stream, "end-of-stream");
 121:X-CUBE-AI/App/pb_decode.c ****     
 122:X-CUBE-AI/App/pb_decode.c **** #ifndef PB_BUFFER_ONLY
 123:X-CUBE-AI/App/pb_decode.c ****     if (!stream->callback(stream, buf, count))
 124:X-CUBE-AI/App/pb_decode.c ****         PB_RETURN_ERROR(stream, "io error");
 125:X-CUBE-AI/App/pb_decode.c **** #else
 126:X-CUBE-AI/App/pb_decode.c ****     if (!buf_read(stream, buf, count))
 127:X-CUBE-AI/App/pb_decode.c ****         return false;
 128:X-CUBE-AI/App/pb_decode.c **** #endif
 129:X-CUBE-AI/App/pb_decode.c ****     
 130:X-CUBE-AI/App/pb_decode.c ****     stream->bytes_left -= count;
 131:X-CUBE-AI/App/pb_decode.c ****     return true;
 132:X-CUBE-AI/App/pb_decode.c **** }
 133:X-CUBE-AI/App/pb_decode.c **** 
 134:X-CUBE-AI/App/pb_decode.c **** /* Read a single byte from input stream. buf may not be NULL.
 135:X-CUBE-AI/App/pb_decode.c ****  * This is an optimization for the varint decoding. */
 136:X-CUBE-AI/App/pb_decode.c **** static bool checkreturn pb_readbyte(pb_istream_t *stream, pb_byte_t *buf)
 137:X-CUBE-AI/App/pb_decode.c **** {
 105              		.loc 1 137 1 is_stmt 1 view -0
 106              		.cfi_startproc
 107              		@ args = 0, pretend = 0, frame = 0
 108              		@ frame_needed = 0, uses_anonymous_args = 0
 109              		.loc 1 137 1 is_stmt 0 view .LVU22
 110 0000 10B5     		push	{r4, lr}
 111              	.LCFI2:
 112              		.cfi_def_cfa_offset 8
 113              		.cfi_offset 4, -8
 114              		.cfi_offset 14, -4
 115 0002 0446     		mov	r4, r0
 138:X-CUBE-AI/App/pb_decode.c ****     if (stream->bytes_left == 0)
 116              		.loc 1 138 5 is_stmt 1 view .LVU23
 117              		.loc 1 138 15 is_stmt 0 view .LVU24
 118 0004 8368     		ldr	r3, [r0, #8]
 119              		.loc 1 138 8 view .LVU25
 120 0006 3BB1     		cbz	r3, .L14
 139:X-CUBE-AI/App/pb_decode.c ****         PB_RETURN_ERROR(stream, "end-of-stream");
 140:X-CUBE-AI/App/pb_decode.c **** 
 141:X-CUBE-AI/App/pb_decode.c **** #ifndef PB_BUFFER_ONLY
 142:X-CUBE-AI/App/pb_decode.c ****     if (!stream->callback(stream, buf, 1))
 121              		.loc 1 142 5 is_stmt 1 view .LVU26
 122              		.loc 1 142 16 is_stmt 0 view .LVU27
 123 0008 0368     		ldr	r3, [r0]
 124              		.loc 1 142 10 view .LVU28
 125 000a 0122     		movs	r2, #1
 126 000c 9847     		blx	r3
 127              	.LVL8:
 128              		.loc 1 142 8 view .LVU29
 129 000e 50B1     		cbz	r0, .L15
 143:X-CUBE-AI/App/pb_decode.c ****         PB_RETURN_ERROR(stream, "io error");
 144:X-CUBE-AI/App/pb_decode.c **** #else
 145:X-CUBE-AI/App/pb_decode.c ****     *buf = *(const pb_byte_t*)stream->state;
 146:X-CUBE-AI/App/pb_decode.c ****     stream->state = (pb_byte_t*)stream->state + 1;
 147:X-CUBE-AI/App/pb_decode.c **** #endif
 148:X-CUBE-AI/App/pb_decode.c **** 
 149:X-CUBE-AI/App/pb_decode.c ****     stream->bytes_left--;
 130              		.loc 1 149 5 is_stmt 1 view .LVU30
ARM GAS  /tmp/ccbrCuLB.s 			page 6


 131              		.loc 1 149 11 is_stmt 0 view .LVU31
 132 0010 A368     		ldr	r3, [r4, #8]
 133              		.loc 1 149 23 view .LVU32
 134 0012 013B     		subs	r3, r3, #1
 135 0014 A360     		str	r3, [r4, #8]
 150:X-CUBE-AI/App/pb_decode.c ****     
 151:X-CUBE-AI/App/pb_decode.c ****     return true;    
 136              		.loc 1 151 5 is_stmt 1 view .LVU33
 137              	.L10:
 152:X-CUBE-AI/App/pb_decode.c **** }
 138              		.loc 1 152 1 is_stmt 0 view .LVU34
 139 0016 10BD     		pop	{r4, pc}
 140              	.LVL9:
 141              	.L14:
 139:X-CUBE-AI/App/pb_decode.c **** 
 142              		.loc 1 139 9 is_stmt 1 view .LVU35
 143 0018 C368     		ldr	r3, [r0, #12]
 144 001a 13B1     		cbz	r3, .L16
 145              	.L9:
 139:X-CUBE-AI/App/pb_decode.c **** 
 146              		.loc 1 139 9 is_stmt 0 discriminator 4 view .LVU36
 147 001c E360     		str	r3, [r4, #12]
 148 001e 0020     		movs	r0, #0
 149              	.LVL10:
 139:X-CUBE-AI/App/pb_decode.c **** 
 150              		.loc 1 139 9 discriminator 4 view .LVU37
 151 0020 F9E7     		b	.L10
 152              	.LVL11:
 153              	.L16:
 139:X-CUBE-AI/App/pb_decode.c **** 
 154              		.loc 1 139 9 view .LVU38
 155 0022 044B     		ldr	r3, .L18
 156 0024 FAE7     		b	.L9
 157              	.LVL12:
 158              	.L15:
 143:X-CUBE-AI/App/pb_decode.c **** #else
 159              		.loc 1 143 9 is_stmt 1 view .LVU39
 160 0026 E368     		ldr	r3, [r4, #12]
 161 0028 0BB1     		cbz	r3, .L17
 162              	.L12:
 143:X-CUBE-AI/App/pb_decode.c **** #else
 163              		.loc 1 143 9 is_stmt 0 discriminator 4 view .LVU40
 164 002a E360     		str	r3, [r4, #12]
 165 002c F3E7     		b	.L10
 166              	.L17:
 143:X-CUBE-AI/App/pb_decode.c **** #else
 167              		.loc 1 143 9 view .LVU41
 168 002e 024B     		ldr	r3, .L18+4
 169 0030 FBE7     		b	.L12
 170              	.L19:
 171 0032 00BF     		.align	2
 172              	.L18:
 173 0034 00000000 		.word	.LC0
 174 0038 10000000 		.word	.LC1
 175              		.cfi_endproc
 176              	.LFE2:
 178              		.section	.rodata.pb_decode_varint32_eof.str1.4,"aMS",%progbits,1
ARM GAS  /tmp/ccbrCuLB.s 			page 7


 179              		.align	2
 180              	.LC2:
 181 0000 76617269 		.ascii	"varint overflow\000"
 181      6E74206F 
 181      76657266 
 181      6C6F7700 
 182              		.section	.text.pb_decode_varint32_eof,"ax",%progbits
 183              		.align	1
 184              		.syntax unified
 185              		.thumb
 186              		.thumb_func
 187              		.fpu fpv4-sp-d16
 189              	pb_decode_varint32_eof:
 190              	.LVL13:
 191              	.LFB4:
 153:X-CUBE-AI/App/pb_decode.c **** 
 154:X-CUBE-AI/App/pb_decode.c **** pb_istream_t pb_istream_from_buffer(const pb_byte_t *buf, size_t bufsize)
 155:X-CUBE-AI/App/pb_decode.c **** {
 156:X-CUBE-AI/App/pb_decode.c ****     pb_istream_t stream;
 157:X-CUBE-AI/App/pb_decode.c ****     /* Cast away the const from buf without a compiler error.  We are
 158:X-CUBE-AI/App/pb_decode.c ****      * careful to use it only in a const manner in the callbacks.
 159:X-CUBE-AI/App/pb_decode.c ****      */
 160:X-CUBE-AI/App/pb_decode.c ****     union {
 161:X-CUBE-AI/App/pb_decode.c ****         void *state;
 162:X-CUBE-AI/App/pb_decode.c ****         const void *c_state;
 163:X-CUBE-AI/App/pb_decode.c ****     } state;
 164:X-CUBE-AI/App/pb_decode.c **** #ifdef PB_BUFFER_ONLY
 165:X-CUBE-AI/App/pb_decode.c ****     stream.callback = NULL;
 166:X-CUBE-AI/App/pb_decode.c **** #else
 167:X-CUBE-AI/App/pb_decode.c ****     stream.callback = &buf_read;
 168:X-CUBE-AI/App/pb_decode.c **** #endif
 169:X-CUBE-AI/App/pb_decode.c ****     state.c_state = buf;
 170:X-CUBE-AI/App/pb_decode.c ****     stream.state = state.state;
 171:X-CUBE-AI/App/pb_decode.c ****     stream.bytes_left = bufsize;
 172:X-CUBE-AI/App/pb_decode.c **** #ifndef PB_NO_ERRMSG
 173:X-CUBE-AI/App/pb_decode.c ****     stream.errmsg = NULL;
 174:X-CUBE-AI/App/pb_decode.c **** #endif
 175:X-CUBE-AI/App/pb_decode.c ****     return stream;
 176:X-CUBE-AI/App/pb_decode.c **** }
 177:X-CUBE-AI/App/pb_decode.c **** 
 178:X-CUBE-AI/App/pb_decode.c **** /********************
 179:X-CUBE-AI/App/pb_decode.c ****  * Helper functions *
 180:X-CUBE-AI/App/pb_decode.c ****  ********************/
 181:X-CUBE-AI/App/pb_decode.c **** 
 182:X-CUBE-AI/App/pb_decode.c **** static bool checkreturn pb_decode_varint32_eof(pb_istream_t *stream, uint32_t *dest, bool *eof)
 183:X-CUBE-AI/App/pb_decode.c **** {
 192              		.loc 1 183 1 is_stmt 1 view -0
 193              		.cfi_startproc
 194              		@ args = 0, pretend = 0, frame = 8
 195              		@ frame_needed = 0, uses_anonymous_args = 0
 196              		.loc 1 183 1 is_stmt 0 view .LVU43
 197 0000 2DE9F041 		push	{r4, r5, r6, r7, r8, lr}
 198              	.LCFI3:
 199              		.cfi_def_cfa_offset 24
 200              		.cfi_offset 4, -24
 201              		.cfi_offset 5, -20
 202              		.cfi_offset 6, -16
ARM GAS  /tmp/ccbrCuLB.s 			page 8


 203              		.cfi_offset 7, -12
 204              		.cfi_offset 8, -8
 205              		.cfi_offset 14, -4
 206 0004 82B0     		sub	sp, sp, #8
 207              	.LCFI4:
 208              		.cfi_def_cfa_offset 32
 209 0006 0546     		mov	r5, r0
 210 0008 0F46     		mov	r7, r1
 211 000a 1446     		mov	r4, r2
 184:X-CUBE-AI/App/pb_decode.c ****     pb_byte_t byte;
 212              		.loc 1 184 5 is_stmt 1 view .LVU44
 185:X-CUBE-AI/App/pb_decode.c ****     uint32_t result;
 213              		.loc 1 185 5 view .LVU45
 186:X-CUBE-AI/App/pb_decode.c ****     
 187:X-CUBE-AI/App/pb_decode.c ****     if (!pb_readbyte(stream, &byte))
 214              		.loc 1 187 5 view .LVU46
 215              		.loc 1 187 10 is_stmt 0 view .LVU47
 216 000c 0DF10701 		add	r1, sp, #7
 217              	.LVL14:
 218              		.loc 1 187 10 view .LVU48
 219 0010 FFF7FEFF 		bl	pb_readbyte
 220              	.LVL15:
 221              		.loc 1 187 8 view .LVU49
 222 0014 8046     		mov	r8, r0
 223 0016 50B1     		cbz	r0, .L36
 188:X-CUBE-AI/App/pb_decode.c ****     {
 189:X-CUBE-AI/App/pb_decode.c ****         if (stream->bytes_left == 0)
 190:X-CUBE-AI/App/pb_decode.c ****         {
 191:X-CUBE-AI/App/pb_decode.c ****             if (eof)
 192:X-CUBE-AI/App/pb_decode.c ****             {
 193:X-CUBE-AI/App/pb_decode.c ****                 *eof = true;
 194:X-CUBE-AI/App/pb_decode.c ****             }
 195:X-CUBE-AI/App/pb_decode.c ****         }
 196:X-CUBE-AI/App/pb_decode.c **** 
 197:X-CUBE-AI/App/pb_decode.c ****         return false;
 198:X-CUBE-AI/App/pb_decode.c ****     }
 199:X-CUBE-AI/App/pb_decode.c ****     
 200:X-CUBE-AI/App/pb_decode.c ****     if ((byte & 0x80) == 0)
 224              		.loc 1 200 5 is_stmt 1 view .LVU50
 225              		.loc 1 200 23 is_stmt 0 view .LVU51
 226 0018 9DF80760 		ldrb	r6, [sp, #7]	@ zero_extendqisi2
 227 001c 9DF90730 		ldrsb	r3, [sp, #7]
 228              		.loc 1 200 8 view .LVU52
 229 0020 002B     		cmp	r3, #0
 230 0022 0CDB     		blt	.L37
 231              	.LVL16:
 232              	.L25:
 201:X-CUBE-AI/App/pb_decode.c ****     {
 202:X-CUBE-AI/App/pb_decode.c ****         /* Quick case, 1 byte value */
 203:X-CUBE-AI/App/pb_decode.c ****         result = byte;
 204:X-CUBE-AI/App/pb_decode.c ****     }
 205:X-CUBE-AI/App/pb_decode.c ****     else
 206:X-CUBE-AI/App/pb_decode.c ****     {
 207:X-CUBE-AI/App/pb_decode.c ****         /* Multibyte case */
 208:X-CUBE-AI/App/pb_decode.c ****         uint_fast8_t bitpos = 7;
 209:X-CUBE-AI/App/pb_decode.c ****         result = byte & 0x7F;
 210:X-CUBE-AI/App/pb_decode.c ****         
ARM GAS  /tmp/ccbrCuLB.s 			page 9


 211:X-CUBE-AI/App/pb_decode.c ****         do
 212:X-CUBE-AI/App/pb_decode.c ****         {
 213:X-CUBE-AI/App/pb_decode.c ****             if (!pb_readbyte(stream, &byte))
 214:X-CUBE-AI/App/pb_decode.c ****                 return false;
 215:X-CUBE-AI/App/pb_decode.c ****             
 216:X-CUBE-AI/App/pb_decode.c ****             if (bitpos >= 32)
 217:X-CUBE-AI/App/pb_decode.c ****             {
 218:X-CUBE-AI/App/pb_decode.c ****                 /* Note: The varint could have trailing 0x80 bytes, or 0xFF for negative. */
 219:X-CUBE-AI/App/pb_decode.c ****                 uint8_t sign_extension = (bitpos < 63) ? 0xFF : 0x01;
 220:X-CUBE-AI/App/pb_decode.c ****                 
 221:X-CUBE-AI/App/pb_decode.c ****                 if ((byte & 0x7F) != 0x00 && ((result >> 31) == 0 || byte != sign_extension))
 222:X-CUBE-AI/App/pb_decode.c ****                 {
 223:X-CUBE-AI/App/pb_decode.c ****                     PB_RETURN_ERROR(stream, "varint overflow");
 224:X-CUBE-AI/App/pb_decode.c ****                 }
 225:X-CUBE-AI/App/pb_decode.c ****             }
 226:X-CUBE-AI/App/pb_decode.c ****             else
 227:X-CUBE-AI/App/pb_decode.c ****             {
 228:X-CUBE-AI/App/pb_decode.c ****                 result |= (uint32_t)(byte & 0x7F) << bitpos;
 229:X-CUBE-AI/App/pb_decode.c ****             }
 230:X-CUBE-AI/App/pb_decode.c ****             bitpos = (uint_fast8_t)(bitpos + 7);
 231:X-CUBE-AI/App/pb_decode.c ****         } while (byte & 0x80);
 232:X-CUBE-AI/App/pb_decode.c ****         
 233:X-CUBE-AI/App/pb_decode.c ****         if (bitpos == 35 && (byte & 0x70) != 0)
 234:X-CUBE-AI/App/pb_decode.c ****         {
 235:X-CUBE-AI/App/pb_decode.c ****             /* The last byte was at bitpos=28, so only bottom 4 bits fit. */
 236:X-CUBE-AI/App/pb_decode.c ****             PB_RETURN_ERROR(stream, "varint overflow");
 237:X-CUBE-AI/App/pb_decode.c ****         }
 238:X-CUBE-AI/App/pb_decode.c ****    }
 239:X-CUBE-AI/App/pb_decode.c ****    
 240:X-CUBE-AI/App/pb_decode.c ****    *dest = result;
 233              		.loc 1 240 4 is_stmt 1 view .LVU53
 234              		.loc 1 240 10 is_stmt 0 view .LVU54
 235 0024 3E60     		str	r6, [r7]
 241:X-CUBE-AI/App/pb_decode.c ****    return true;
 236              		.loc 1 241 4 is_stmt 1 view .LVU55
 237              	.LVL17:
 238              	.L23:
 242:X-CUBE-AI/App/pb_decode.c **** }
 239              		.loc 1 242 1 is_stmt 0 view .LVU56
 240 0026 4046     		mov	r0, r8
 241 0028 02B0     		add	sp, sp, #8
 242              	.LCFI5:
 243              		.cfi_remember_state
 244              		.cfi_def_cfa_offset 24
 245              		@ sp needed
 246 002a BDE8F081 		pop	{r4, r5, r6, r7, r8, pc}
 247              	.LVL18:
 248              	.L36:
 249              	.LCFI6:
 250              		.cfi_restore_state
 189:X-CUBE-AI/App/pb_decode.c ****         {
 251              		.loc 1 189 9 is_stmt 1 view .LVU57
 189:X-CUBE-AI/App/pb_decode.c ****         {
 252              		.loc 1 189 19 is_stmt 0 view .LVU58
 253 002e AB68     		ldr	r3, [r5, #8]
 189:X-CUBE-AI/App/pb_decode.c ****         {
 254              		.loc 1 189 12 view .LVU59
ARM GAS  /tmp/ccbrCuLB.s 			page 10


 255 0030 002B     		cmp	r3, #0
 256 0032 F8D1     		bne	.L23
 191:X-CUBE-AI/App/pb_decode.c ****             {
 257              		.loc 1 191 13 is_stmt 1 view .LVU60
 191:X-CUBE-AI/App/pb_decode.c ****             {
 258              		.loc 1 191 16 is_stmt 0 view .LVU61
 259 0034 002C     		cmp	r4, #0
 260 0036 F6D0     		beq	.L23
 193:X-CUBE-AI/App/pb_decode.c ****             }
 261              		.loc 1 193 17 is_stmt 1 view .LVU62
 193:X-CUBE-AI/App/pb_decode.c ****             }
 262              		.loc 1 193 22 is_stmt 0 view .LVU63
 263 0038 0123     		movs	r3, #1
 264 003a 2370     		strb	r3, [r4]
 197:X-CUBE-AI/App/pb_decode.c ****     }
 265              		.loc 1 197 9 is_stmt 1 view .LVU64
 197:X-CUBE-AI/App/pb_decode.c ****     }
 266              		.loc 1 197 16 is_stmt 0 view .LVU65
 267 003c F3E7     		b	.L23
 268              	.L37:
 269              	.LBB2:
 208:X-CUBE-AI/App/pb_decode.c ****         result = byte & 0x7F;
 270              		.loc 1 208 9 is_stmt 1 view .LVU66
 271              	.LVL19:
 209:X-CUBE-AI/App/pb_decode.c ****         
 272              		.loc 1 209 9 view .LVU67
 209:X-CUBE-AI/App/pb_decode.c ****         
 273              		.loc 1 209 16 is_stmt 0 view .LVU68
 274 003e 06F07F06 		and	r6, r6, #127
 275              	.LVL20:
 208:X-CUBE-AI/App/pb_decode.c ****         result = byte & 0x7F;
 276              		.loc 1 208 22 view .LVU69
 277 0042 0724     		movs	r4, #7
 278              	.LVL21:
 208:X-CUBE-AI/App/pb_decode.c ****         result = byte & 0x7F;
 279              		.loc 1 208 22 view .LVU70
 280 0044 10E0     		b	.L31
 281              	.LVL22:
 282              	.L34:
 283              	.LBB3:
 219:X-CUBE-AI/App/pb_decode.c ****                 
 284              		.loc 1 219 25 view .LVU71
 285 0046 0122     		movs	r2, #1
 286 0048 19E0     		b	.L27
 287              	.LVL23:
 288              	.L39:
 223:X-CUBE-AI/App/pb_decode.c ****                 }
 289              		.loc 1 223 21 view .LVU72
 290 004a 1C4B     		ldr	r3, .L41
 291 004c 23E0     		b	.L30
 292              	.LVL24:
 293              	.L26:
 223:X-CUBE-AI/App/pb_decode.c ****                 }
 294              		.loc 1 223 21 view .LVU73
 295              	.LBE3:
 228:X-CUBE-AI/App/pb_decode.c ****             }
 296              		.loc 1 228 17 is_stmt 1 view .LVU74
ARM GAS  /tmp/ccbrCuLB.s 			page 11


 228:X-CUBE-AI/App/pb_decode.c ****             }
 297              		.loc 1 228 43 is_stmt 0 view .LVU75
 298 004e 9DF80730 		ldrb	r3, [sp, #7]	@ zero_extendqisi2
 228:X-CUBE-AI/App/pb_decode.c ****             }
 299              		.loc 1 228 27 view .LVU76
 300 0052 03F07F03 		and	r3, r3, #127
 228:X-CUBE-AI/App/pb_decode.c ****             }
 301              		.loc 1 228 51 view .LVU77
 302 0056 A340     		lsls	r3, r3, r4
 228:X-CUBE-AI/App/pb_decode.c ****             }
 303              		.loc 1 228 24 view .LVU78
 304 0058 1E43     		orrs	r6, r6, r3
 305              	.LVL25:
 306              	.L28:
 230:X-CUBE-AI/App/pb_decode.c ****         } while (byte & 0x80);
 307              		.loc 1 230 13 is_stmt 1 view .LVU79
 230:X-CUBE-AI/App/pb_decode.c ****         } while (byte & 0x80);
 308              		.loc 1 230 20 is_stmt 0 view .LVU80
 309 005a 0734     		adds	r4, r4, #7
 310              	.LVL26:
 231:X-CUBE-AI/App/pb_decode.c ****         
 311              		.loc 1 231 17 is_stmt 1 view .LVU81
 231:X-CUBE-AI/App/pb_decode.c ****         
 312              		.loc 1 231 18 is_stmt 0 view .LVU82
 313 005c 9DF80720 		ldrb	r2, [sp, #7]	@ zero_extendqisi2
 314 0060 9DF90730 		ldrsb	r3, [sp, #7]
 231:X-CUBE-AI/App/pb_decode.c ****         
 315              		.loc 1 231 9 view .LVU83
 316 0064 002B     		cmp	r3, #0
 317 0066 1ADA     		bge	.L38
 318              	.LVL27:
 319              	.L31:
 211:X-CUBE-AI/App/pb_decode.c ****         {
 320              		.loc 1 211 9 is_stmt 1 view .LVU84
 213:X-CUBE-AI/App/pb_decode.c ****                 return false;
 321              		.loc 1 213 13 view .LVU85
 213:X-CUBE-AI/App/pb_decode.c ****                 return false;
 322              		.loc 1 213 18 is_stmt 0 view .LVU86
 323 0068 0DF10701 		add	r1, sp, #7
 324 006c 2846     		mov	r0, r5
 325 006e FFF7FEFF 		bl	pb_readbyte
 326              	.LVL28:
 213:X-CUBE-AI/App/pb_decode.c ****                 return false;
 327              		.loc 1 213 16 view .LVU87
 328 0072 08B3     		cbz	r0, .L33
 216:X-CUBE-AI/App/pb_decode.c ****             {
 329              		.loc 1 216 13 is_stmt 1 view .LVU88
 216:X-CUBE-AI/App/pb_decode.c ****             {
 330              		.loc 1 216 16 is_stmt 0 view .LVU89
 331 0074 1F2C     		cmp	r4, #31
 332 0076 EAD9     		bls	.L26
 333              	.LBB4:
 219:X-CUBE-AI/App/pb_decode.c ****                 
 334              		.loc 1 219 17 is_stmt 1 view .LVU90
 219:X-CUBE-AI/App/pb_decode.c ****                 
 335              		.loc 1 219 25 is_stmt 0 view .LVU91
 336 0078 3E2C     		cmp	r4, #62
ARM GAS  /tmp/ccbrCuLB.s 			page 12


 337 007a E4D8     		bhi	.L34
 338 007c FF22     		movs	r2, #255
 339              	.L27:
 340              	.LVL29:
 221:X-CUBE-AI/App/pb_decode.c ****                 {
 341              		.loc 1 221 17 is_stmt 1 discriminator 4 view .LVU92
 221:X-CUBE-AI/App/pb_decode.c ****                 {
 342              		.loc 1 221 27 is_stmt 0 discriminator 4 view .LVU93
 343 007e 9DF80730 		ldrb	r3, [sp, #7]	@ zero_extendqisi2
 221:X-CUBE-AI/App/pb_decode.c ****                 {
 344              		.loc 1 221 20 discriminator 4 view .LVU94
 345 0082 13F07F0F 		tst	r3, #127
 346 0086 E8D0     		beq	.L28
 221:X-CUBE-AI/App/pb_decode.c ****                 {
 347              		.loc 1 221 43 discriminator 1 view .LVU95
 348 0088 002E     		cmp	r6, #0
 349 008a 01DA     		bge	.L29
 221:X-CUBE-AI/App/pb_decode.c ****                 {
 350              		.loc 1 221 67 discriminator 2 view .LVU96
 351 008c 9342     		cmp	r3, r2
 352 008e E4D0     		beq	.L28
 353              	.L29:
 223:X-CUBE-AI/App/pb_decode.c ****                 }
 354              		.loc 1 223 21 is_stmt 1 view .LVU97
 355 0090 EB68     		ldr	r3, [r5, #12]
 356 0092 002B     		cmp	r3, #0
 357 0094 D9D0     		beq	.L39
 358              	.L30:
 223:X-CUBE-AI/App/pb_decode.c ****                 }
 359              		.loc 1 223 21 is_stmt 0 discriminator 4 view .LVU98
 360 0096 EB60     		str	r3, [r5, #12]
 361 0098 4FF00008 		mov	r8, #0
 362 009c C3E7     		b	.L23
 363              	.LVL30:
 364              	.L38:
 223:X-CUBE-AI/App/pb_decode.c ****                 }
 365              		.loc 1 223 21 discriminator 4 view .LVU99
 366              	.LBE4:
 233:X-CUBE-AI/App/pb_decode.c ****         {
 367              		.loc 1 233 9 is_stmt 1 view .LVU100
 233:X-CUBE-AI/App/pb_decode.c ****         {
 368              		.loc 1 233 12 is_stmt 0 view .LVU101
 369 009e 232C     		cmp	r4, #35
 370 00a0 C0D1     		bne	.L25
 233:X-CUBE-AI/App/pb_decode.c ****         {
 371              		.loc 1 233 26 discriminator 1 view .LVU102
 372 00a2 12F0700F 		tst	r2, #112
 373 00a6 BDD0     		beq	.L25
 236:X-CUBE-AI/App/pb_decode.c ****         }
 374              		.loc 1 236 13 is_stmt 1 view .LVU103
 375 00a8 EB68     		ldr	r3, [r5, #12]
 376 00aa 1BB1     		cbz	r3, .L40
 377              	.L32:
 236:X-CUBE-AI/App/pb_decode.c ****         }
 378              		.loc 1 236 13 is_stmt 0 discriminator 4 view .LVU104
 379 00ac EB60     		str	r3, [r5, #12]
 380 00ae 4FF00008 		mov	r8, #0
ARM GAS  /tmp/ccbrCuLB.s 			page 13


 381 00b2 B8E7     		b	.L23
 382              	.L40:
 236:X-CUBE-AI/App/pb_decode.c ****         }
 383              		.loc 1 236 13 view .LVU105
 384 00b4 014B     		ldr	r3, .L41
 385 00b6 F9E7     		b	.L32
 386              	.L33:
 214:X-CUBE-AI/App/pb_decode.c ****             
 387              		.loc 1 214 24 view .LVU106
 388 00b8 8046     		mov	r8, r0
 389 00ba B4E7     		b	.L23
 390              	.L42:
 391              		.align	2
 392              	.L41:
 393 00bc 00000000 		.word	.LC2
 394              	.LBE2:
 395              		.cfi_endproc
 396              	.LFE4:
 398              		.section	.rodata.decode_pointer_field.str1.4,"aMS",%progbits,1
 399              		.align	2
 400              	.LC3:
 401 0000 6E6F206D 		.ascii	"no malloc support\000"
 401      616C6C6F 
 401      63207375 
 401      70706F72 
 401      7400
 402              		.section	.text.decode_pointer_field,"ax",%progbits
 403              		.align	1
 404              		.syntax unified
 405              		.thumb
 406              		.thumb_func
 407              		.fpu fpv4-sp-d16
 409              	decode_pointer_field:
 410              	.LVL31:
 411              	.LFB15:
 243:X-CUBE-AI/App/pb_decode.c **** 
 244:X-CUBE-AI/App/pb_decode.c **** bool checkreturn pb_decode_varint32(pb_istream_t *stream, uint32_t *dest)
 245:X-CUBE-AI/App/pb_decode.c **** {
 246:X-CUBE-AI/App/pb_decode.c ****     return pb_decode_varint32_eof(stream, dest, NULL);
 247:X-CUBE-AI/App/pb_decode.c **** }
 248:X-CUBE-AI/App/pb_decode.c **** 
 249:X-CUBE-AI/App/pb_decode.c **** #ifndef PB_WITHOUT_64BIT
 250:X-CUBE-AI/App/pb_decode.c **** bool checkreturn pb_decode_varint(pb_istream_t *stream, uint64_t *dest)
 251:X-CUBE-AI/App/pb_decode.c **** {
 252:X-CUBE-AI/App/pb_decode.c ****     pb_byte_t byte;
 253:X-CUBE-AI/App/pb_decode.c ****     uint_fast8_t bitpos = 0;
 254:X-CUBE-AI/App/pb_decode.c ****     uint64_t result = 0;
 255:X-CUBE-AI/App/pb_decode.c ****     
 256:X-CUBE-AI/App/pb_decode.c ****     do
 257:X-CUBE-AI/App/pb_decode.c ****     {
 258:X-CUBE-AI/App/pb_decode.c ****         if (bitpos >= 64)
 259:X-CUBE-AI/App/pb_decode.c ****             PB_RETURN_ERROR(stream, "varint overflow");
 260:X-CUBE-AI/App/pb_decode.c ****         
 261:X-CUBE-AI/App/pb_decode.c ****         if (!pb_readbyte(stream, &byte))
 262:X-CUBE-AI/App/pb_decode.c ****             return false;
 263:X-CUBE-AI/App/pb_decode.c **** 
 264:X-CUBE-AI/App/pb_decode.c ****         result |= (uint64_t)(byte & 0x7F) << bitpos;
ARM GAS  /tmp/ccbrCuLB.s 			page 14


 265:X-CUBE-AI/App/pb_decode.c ****         bitpos = (uint_fast8_t)(bitpos + 7);
 266:X-CUBE-AI/App/pb_decode.c ****     } while (byte & 0x80);
 267:X-CUBE-AI/App/pb_decode.c ****     
 268:X-CUBE-AI/App/pb_decode.c ****     *dest = result;
 269:X-CUBE-AI/App/pb_decode.c ****     return true;
 270:X-CUBE-AI/App/pb_decode.c **** }
 271:X-CUBE-AI/App/pb_decode.c **** #endif
 272:X-CUBE-AI/App/pb_decode.c **** 
 273:X-CUBE-AI/App/pb_decode.c **** bool checkreturn pb_skip_varint(pb_istream_t *stream)
 274:X-CUBE-AI/App/pb_decode.c **** {
 275:X-CUBE-AI/App/pb_decode.c ****     pb_byte_t byte;
 276:X-CUBE-AI/App/pb_decode.c ****     do
 277:X-CUBE-AI/App/pb_decode.c ****     {
 278:X-CUBE-AI/App/pb_decode.c ****         if (!pb_read(stream, &byte, 1))
 279:X-CUBE-AI/App/pb_decode.c ****             return false;
 280:X-CUBE-AI/App/pb_decode.c ****     } while (byte & 0x80);
 281:X-CUBE-AI/App/pb_decode.c ****     return true;
 282:X-CUBE-AI/App/pb_decode.c **** }
 283:X-CUBE-AI/App/pb_decode.c **** 
 284:X-CUBE-AI/App/pb_decode.c **** bool checkreturn pb_skip_string(pb_istream_t *stream)
 285:X-CUBE-AI/App/pb_decode.c **** {
 286:X-CUBE-AI/App/pb_decode.c ****     uint32_t length;
 287:X-CUBE-AI/App/pb_decode.c ****     if (!pb_decode_varint32(stream, &length))
 288:X-CUBE-AI/App/pb_decode.c ****         return false;
 289:X-CUBE-AI/App/pb_decode.c ****     
 290:X-CUBE-AI/App/pb_decode.c ****     return pb_read(stream, NULL, length);
 291:X-CUBE-AI/App/pb_decode.c **** }
 292:X-CUBE-AI/App/pb_decode.c **** 
 293:X-CUBE-AI/App/pb_decode.c **** bool checkreturn pb_decode_tag(pb_istream_t *stream, pb_wire_type_t *wire_type, uint32_t *tag, bool
 294:X-CUBE-AI/App/pb_decode.c **** {
 295:X-CUBE-AI/App/pb_decode.c ****     uint32_t temp;
 296:X-CUBE-AI/App/pb_decode.c ****     *eof = false;
 297:X-CUBE-AI/App/pb_decode.c ****     *wire_type = (pb_wire_type_t) 0;
 298:X-CUBE-AI/App/pb_decode.c ****     *tag = 0;
 299:X-CUBE-AI/App/pb_decode.c ****     
 300:X-CUBE-AI/App/pb_decode.c ****     if (!pb_decode_varint32_eof(stream, &temp, eof))
 301:X-CUBE-AI/App/pb_decode.c ****     {
 302:X-CUBE-AI/App/pb_decode.c ****         return false;
 303:X-CUBE-AI/App/pb_decode.c ****     }
 304:X-CUBE-AI/App/pb_decode.c ****     
 305:X-CUBE-AI/App/pb_decode.c ****     if (temp == 0)
 306:X-CUBE-AI/App/pb_decode.c ****     {
 307:X-CUBE-AI/App/pb_decode.c ****         *eof = true; /* Special feature: allow 0-terminated messages. */
 308:X-CUBE-AI/App/pb_decode.c ****         return false;
 309:X-CUBE-AI/App/pb_decode.c ****     }
 310:X-CUBE-AI/App/pb_decode.c ****     
 311:X-CUBE-AI/App/pb_decode.c ****     *tag = temp >> 3;
 312:X-CUBE-AI/App/pb_decode.c ****     *wire_type = (pb_wire_type_t)(temp & 7);
 313:X-CUBE-AI/App/pb_decode.c ****     return true;
 314:X-CUBE-AI/App/pb_decode.c **** }
 315:X-CUBE-AI/App/pb_decode.c **** 
 316:X-CUBE-AI/App/pb_decode.c **** bool checkreturn pb_skip_field(pb_istream_t *stream, pb_wire_type_t wire_type)
 317:X-CUBE-AI/App/pb_decode.c **** {
 318:X-CUBE-AI/App/pb_decode.c ****     switch (wire_type)
 319:X-CUBE-AI/App/pb_decode.c ****     {
 320:X-CUBE-AI/App/pb_decode.c ****         case PB_WT_VARINT: return pb_skip_varint(stream);
 321:X-CUBE-AI/App/pb_decode.c ****         case PB_WT_64BIT: return pb_read(stream, NULL, 8);
ARM GAS  /tmp/ccbrCuLB.s 			page 15


 322:X-CUBE-AI/App/pb_decode.c ****         case PB_WT_STRING: return pb_skip_string(stream);
 323:X-CUBE-AI/App/pb_decode.c ****         case PB_WT_32BIT: return pb_read(stream, NULL, 4);
 324:X-CUBE-AI/App/pb_decode.c ****         default: PB_RETURN_ERROR(stream, "invalid wire_type");
 325:X-CUBE-AI/App/pb_decode.c ****     }
 326:X-CUBE-AI/App/pb_decode.c **** }
 327:X-CUBE-AI/App/pb_decode.c **** 
 328:X-CUBE-AI/App/pb_decode.c **** /* Read a raw value to buffer, for the purpose of passing it to callback as
 329:X-CUBE-AI/App/pb_decode.c ****  * a substream. Size is maximum size on call, and actual size on return.
 330:X-CUBE-AI/App/pb_decode.c ****  */
 331:X-CUBE-AI/App/pb_decode.c **** static bool checkreturn read_raw_value(pb_istream_t *stream, pb_wire_type_t wire_type, pb_byte_t *b
 332:X-CUBE-AI/App/pb_decode.c **** {
 333:X-CUBE-AI/App/pb_decode.c ****     size_t max_size = *size;
 334:X-CUBE-AI/App/pb_decode.c ****     switch (wire_type)
 335:X-CUBE-AI/App/pb_decode.c ****     {
 336:X-CUBE-AI/App/pb_decode.c ****         case PB_WT_VARINT:
 337:X-CUBE-AI/App/pb_decode.c ****             *size = 0;
 338:X-CUBE-AI/App/pb_decode.c ****             do
 339:X-CUBE-AI/App/pb_decode.c ****             {
 340:X-CUBE-AI/App/pb_decode.c ****                 (*size)++;
 341:X-CUBE-AI/App/pb_decode.c ****                 if (*size > max_size) return false;
 342:X-CUBE-AI/App/pb_decode.c ****                 if (!pb_read(stream, buf, 1)) return false;
 343:X-CUBE-AI/App/pb_decode.c ****             } while (*buf++ & 0x80);
 344:X-CUBE-AI/App/pb_decode.c ****             return true;
 345:X-CUBE-AI/App/pb_decode.c ****             
 346:X-CUBE-AI/App/pb_decode.c ****         case PB_WT_64BIT:
 347:X-CUBE-AI/App/pb_decode.c ****             *size = 8;
 348:X-CUBE-AI/App/pb_decode.c ****             return pb_read(stream, buf, 8);
 349:X-CUBE-AI/App/pb_decode.c ****         
 350:X-CUBE-AI/App/pb_decode.c ****         case PB_WT_32BIT:
 351:X-CUBE-AI/App/pb_decode.c ****             *size = 4;
 352:X-CUBE-AI/App/pb_decode.c ****             return pb_read(stream, buf, 4);
 353:X-CUBE-AI/App/pb_decode.c ****         
 354:X-CUBE-AI/App/pb_decode.c ****         case PB_WT_STRING:
 355:X-CUBE-AI/App/pb_decode.c ****             /* Calling read_raw_value with a PB_WT_STRING is an error.
 356:X-CUBE-AI/App/pb_decode.c ****              * Explicitly handle this case and fallthrough to default to avoid
 357:X-CUBE-AI/App/pb_decode.c ****              * compiler warnings.
 358:X-CUBE-AI/App/pb_decode.c ****              */
 359:X-CUBE-AI/App/pb_decode.c **** 
 360:X-CUBE-AI/App/pb_decode.c ****         default: PB_RETURN_ERROR(stream, "invalid wire_type");
 361:X-CUBE-AI/App/pb_decode.c ****     }
 362:X-CUBE-AI/App/pb_decode.c **** }
 363:X-CUBE-AI/App/pb_decode.c **** 
 364:X-CUBE-AI/App/pb_decode.c **** /* Decode string length from stream and return a substream with limited length.
 365:X-CUBE-AI/App/pb_decode.c ****  * Remember to close the substream using pb_close_string_substream().
 366:X-CUBE-AI/App/pb_decode.c ****  */
 367:X-CUBE-AI/App/pb_decode.c **** bool checkreturn pb_make_string_substream(pb_istream_t *stream, pb_istream_t *substream)
 368:X-CUBE-AI/App/pb_decode.c **** {
 369:X-CUBE-AI/App/pb_decode.c ****     uint32_t size;
 370:X-CUBE-AI/App/pb_decode.c ****     if (!pb_decode_varint32(stream, &size))
 371:X-CUBE-AI/App/pb_decode.c ****         return false;
 372:X-CUBE-AI/App/pb_decode.c ****     
 373:X-CUBE-AI/App/pb_decode.c ****     *substream = *stream;
 374:X-CUBE-AI/App/pb_decode.c ****     if (substream->bytes_left < size)
 375:X-CUBE-AI/App/pb_decode.c ****         PB_RETURN_ERROR(stream, "parent stream too short");
 376:X-CUBE-AI/App/pb_decode.c ****     
 377:X-CUBE-AI/App/pb_decode.c ****     substream->bytes_left = size;
 378:X-CUBE-AI/App/pb_decode.c ****     stream->bytes_left -= size;
ARM GAS  /tmp/ccbrCuLB.s 			page 16


 379:X-CUBE-AI/App/pb_decode.c ****     return true;
 380:X-CUBE-AI/App/pb_decode.c **** }
 381:X-CUBE-AI/App/pb_decode.c **** 
 382:X-CUBE-AI/App/pb_decode.c **** bool checkreturn pb_close_string_substream(pb_istream_t *stream, pb_istream_t *substream)
 383:X-CUBE-AI/App/pb_decode.c **** {
 384:X-CUBE-AI/App/pb_decode.c ****     if (substream->bytes_left) {
 385:X-CUBE-AI/App/pb_decode.c ****         if (!pb_read(substream, NULL, substream->bytes_left))
 386:X-CUBE-AI/App/pb_decode.c ****             return false;
 387:X-CUBE-AI/App/pb_decode.c ****     }
 388:X-CUBE-AI/App/pb_decode.c **** 
 389:X-CUBE-AI/App/pb_decode.c ****     stream->state = substream->state;
 390:X-CUBE-AI/App/pb_decode.c **** 
 391:X-CUBE-AI/App/pb_decode.c **** #ifndef PB_NO_ERRMSG
 392:X-CUBE-AI/App/pb_decode.c ****     stream->errmsg = substream->errmsg;
 393:X-CUBE-AI/App/pb_decode.c **** #endif
 394:X-CUBE-AI/App/pb_decode.c ****     return true;
 395:X-CUBE-AI/App/pb_decode.c **** }
 396:X-CUBE-AI/App/pb_decode.c **** 
 397:X-CUBE-AI/App/pb_decode.c **** /*************************
 398:X-CUBE-AI/App/pb_decode.c ****  * Decode a single field *
 399:X-CUBE-AI/App/pb_decode.c ****  *************************/
 400:X-CUBE-AI/App/pb_decode.c **** 
 401:X-CUBE-AI/App/pb_decode.c **** static bool checkreturn decode_static_field(pb_istream_t *stream, pb_wire_type_t wire_type, pb_fiel
 402:X-CUBE-AI/App/pb_decode.c **** {
 403:X-CUBE-AI/App/pb_decode.c ****     pb_type_t type;
 404:X-CUBE-AI/App/pb_decode.c ****     pb_decoder_t func;
 405:X-CUBE-AI/App/pb_decode.c ****     
 406:X-CUBE-AI/App/pb_decode.c ****     type = iter->pos->type;
 407:X-CUBE-AI/App/pb_decode.c ****     func = PB_DECODERS[PB_LTYPE(type)];
 408:X-CUBE-AI/App/pb_decode.c **** 
 409:X-CUBE-AI/App/pb_decode.c ****     switch (PB_HTYPE(type))
 410:X-CUBE-AI/App/pb_decode.c ****     {
 411:X-CUBE-AI/App/pb_decode.c ****         case PB_HTYPE_REQUIRED:
 412:X-CUBE-AI/App/pb_decode.c ****             return func(stream, iter->pos, iter->pData);
 413:X-CUBE-AI/App/pb_decode.c ****             
 414:X-CUBE-AI/App/pb_decode.c ****         case PB_HTYPE_OPTIONAL:
 415:X-CUBE-AI/App/pb_decode.c ****             if (iter->pSize != iter->pData)
 416:X-CUBE-AI/App/pb_decode.c ****                 *(bool*)iter->pSize = true;
 417:X-CUBE-AI/App/pb_decode.c ****             return func(stream, iter->pos, iter->pData);
 418:X-CUBE-AI/App/pb_decode.c ****     
 419:X-CUBE-AI/App/pb_decode.c ****         case PB_HTYPE_REPEATED:
 420:X-CUBE-AI/App/pb_decode.c ****             if (wire_type == PB_WT_STRING
 421:X-CUBE-AI/App/pb_decode.c ****                 && PB_LTYPE(type) <= PB_LTYPE_LAST_PACKABLE)
 422:X-CUBE-AI/App/pb_decode.c ****             {
 423:X-CUBE-AI/App/pb_decode.c ****                 /* Packed array */
 424:X-CUBE-AI/App/pb_decode.c ****                 bool status = true;
 425:X-CUBE-AI/App/pb_decode.c ****                 pb_size_t *size = (pb_size_t*)iter->pSize;
 426:X-CUBE-AI/App/pb_decode.c **** 
 427:X-CUBE-AI/App/pb_decode.c ****                 pb_istream_t substream;
 428:X-CUBE-AI/App/pb_decode.c ****                 if (!pb_make_string_substream(stream, &substream))
 429:X-CUBE-AI/App/pb_decode.c ****                     return false;
 430:X-CUBE-AI/App/pb_decode.c **** 
 431:X-CUBE-AI/App/pb_decode.c ****                 while (substream.bytes_left > 0 && *size < iter->pos->array_size)
 432:X-CUBE-AI/App/pb_decode.c ****                 {
 433:X-CUBE-AI/App/pb_decode.c ****                     void *pItem = (char*)iter->pData + iter->pos->data_size * (*size);
 434:X-CUBE-AI/App/pb_decode.c ****                     if (!func(&substream, iter->pos, pItem))
 435:X-CUBE-AI/App/pb_decode.c ****                     {
ARM GAS  /tmp/ccbrCuLB.s 			page 17


 436:X-CUBE-AI/App/pb_decode.c ****                         status = false;
 437:X-CUBE-AI/App/pb_decode.c ****                         break;
 438:X-CUBE-AI/App/pb_decode.c ****                     }
 439:X-CUBE-AI/App/pb_decode.c ****                     (*size)++;
 440:X-CUBE-AI/App/pb_decode.c ****                 }
 441:X-CUBE-AI/App/pb_decode.c **** 
 442:X-CUBE-AI/App/pb_decode.c ****                 if (substream.bytes_left != 0)
 443:X-CUBE-AI/App/pb_decode.c ****                     PB_RETURN_ERROR(stream, "array overflow");
 444:X-CUBE-AI/App/pb_decode.c ****                 if (!pb_close_string_substream(stream, &substream))
 445:X-CUBE-AI/App/pb_decode.c ****                     return false;
 446:X-CUBE-AI/App/pb_decode.c **** 
 447:X-CUBE-AI/App/pb_decode.c ****                 return status;
 448:X-CUBE-AI/App/pb_decode.c ****             }
 449:X-CUBE-AI/App/pb_decode.c ****             else
 450:X-CUBE-AI/App/pb_decode.c ****             {
 451:X-CUBE-AI/App/pb_decode.c ****                 /* Repeated field */
 452:X-CUBE-AI/App/pb_decode.c ****                 pb_size_t *size = (pb_size_t*)iter->pSize;
 453:X-CUBE-AI/App/pb_decode.c ****                 char *pItem = (char*)iter->pData + iter->pos->data_size * (*size);
 454:X-CUBE-AI/App/pb_decode.c **** 
 455:X-CUBE-AI/App/pb_decode.c ****                 if ((*size)++ >= iter->pos->array_size)
 456:X-CUBE-AI/App/pb_decode.c ****                     PB_RETURN_ERROR(stream, "array overflow");
 457:X-CUBE-AI/App/pb_decode.c **** 
 458:X-CUBE-AI/App/pb_decode.c ****                 return func(stream, iter->pos, pItem);
 459:X-CUBE-AI/App/pb_decode.c ****             }
 460:X-CUBE-AI/App/pb_decode.c **** 
 461:X-CUBE-AI/App/pb_decode.c ****         case PB_HTYPE_ONEOF:
 462:X-CUBE-AI/App/pb_decode.c ****             *(pb_size_t*)iter->pSize = iter->pos->tag;
 463:X-CUBE-AI/App/pb_decode.c ****             if (PB_LTYPE(type) == PB_LTYPE_SUBMESSAGE)
 464:X-CUBE-AI/App/pb_decode.c ****             {
 465:X-CUBE-AI/App/pb_decode.c ****                 /* We memset to zero so that any callbacks are set to NULL.
 466:X-CUBE-AI/App/pb_decode.c ****                  * Then set any default values. */
 467:X-CUBE-AI/App/pb_decode.c ****                 memset(iter->pData, 0, iter->pos->data_size);
 468:X-CUBE-AI/App/pb_decode.c ****                 pb_message_set_to_defaults((const pb_field_t*)iter->pos->ptr, iter->pData);
 469:X-CUBE-AI/App/pb_decode.c ****             }
 470:X-CUBE-AI/App/pb_decode.c ****             return func(stream, iter->pos, iter->pData);
 471:X-CUBE-AI/App/pb_decode.c **** 
 472:X-CUBE-AI/App/pb_decode.c ****         default:
 473:X-CUBE-AI/App/pb_decode.c ****             PB_RETURN_ERROR(stream, "invalid field type");
 474:X-CUBE-AI/App/pb_decode.c ****     }
 475:X-CUBE-AI/App/pb_decode.c **** }
 476:X-CUBE-AI/App/pb_decode.c **** 
 477:X-CUBE-AI/App/pb_decode.c **** #ifdef PB_ENABLE_MALLOC
 478:X-CUBE-AI/App/pb_decode.c **** /* Allocate storage for the field and store the pointer at iter->pData.
 479:X-CUBE-AI/App/pb_decode.c ****  * array_size is the number of entries to reserve in an array.
 480:X-CUBE-AI/App/pb_decode.c ****  * Zero size is not allowed, use pb_free() for releasing.
 481:X-CUBE-AI/App/pb_decode.c ****  */
 482:X-CUBE-AI/App/pb_decode.c **** static bool checkreturn allocate_field(pb_istream_t *stream, void *pData, size_t data_size, size_t 
 483:X-CUBE-AI/App/pb_decode.c **** {    
 484:X-CUBE-AI/App/pb_decode.c ****     void *ptr = *(void**)pData;
 485:X-CUBE-AI/App/pb_decode.c ****     
 486:X-CUBE-AI/App/pb_decode.c ****     if (data_size == 0 || array_size == 0)
 487:X-CUBE-AI/App/pb_decode.c ****         PB_RETURN_ERROR(stream, "invalid size");
 488:X-CUBE-AI/App/pb_decode.c ****     
 489:X-CUBE-AI/App/pb_decode.c ****     /* Check for multiplication overflows.
 490:X-CUBE-AI/App/pb_decode.c ****      * This code avoids the costly division if the sizes are small enough.
 491:X-CUBE-AI/App/pb_decode.c ****      * Multiplication is safe as long as only half of bits are set
 492:X-CUBE-AI/App/pb_decode.c ****      * in either multiplicand.
ARM GAS  /tmp/ccbrCuLB.s 			page 18


 493:X-CUBE-AI/App/pb_decode.c ****      */
 494:X-CUBE-AI/App/pb_decode.c ****     {
 495:X-CUBE-AI/App/pb_decode.c ****         const size_t check_limit = (size_t)1 << (sizeof(size_t) * 4);
 496:X-CUBE-AI/App/pb_decode.c ****         if (data_size >= check_limit || array_size >= check_limit)
 497:X-CUBE-AI/App/pb_decode.c ****         {
 498:X-CUBE-AI/App/pb_decode.c ****             const size_t size_max = (size_t)-1;
 499:X-CUBE-AI/App/pb_decode.c ****             if (size_max / array_size < data_size)
 500:X-CUBE-AI/App/pb_decode.c ****             {
 501:X-CUBE-AI/App/pb_decode.c ****                 PB_RETURN_ERROR(stream, "size too large");
 502:X-CUBE-AI/App/pb_decode.c ****             }
 503:X-CUBE-AI/App/pb_decode.c ****         }
 504:X-CUBE-AI/App/pb_decode.c ****     }
 505:X-CUBE-AI/App/pb_decode.c ****     
 506:X-CUBE-AI/App/pb_decode.c ****     /* Allocate new or expand previous allocation */
 507:X-CUBE-AI/App/pb_decode.c ****     /* Note: on failure the old pointer will remain in the structure,
 508:X-CUBE-AI/App/pb_decode.c ****      * the message must be freed by caller also on error return. */
 509:X-CUBE-AI/App/pb_decode.c ****     ptr = pb_realloc(ptr, array_size * data_size);
 510:X-CUBE-AI/App/pb_decode.c ****     if (ptr == NULL)
 511:X-CUBE-AI/App/pb_decode.c ****         PB_RETURN_ERROR(stream, "realloc failed");
 512:X-CUBE-AI/App/pb_decode.c ****     
 513:X-CUBE-AI/App/pb_decode.c ****     *(void**)pData = ptr;
 514:X-CUBE-AI/App/pb_decode.c ****     return true;
 515:X-CUBE-AI/App/pb_decode.c **** }
 516:X-CUBE-AI/App/pb_decode.c **** 
 517:X-CUBE-AI/App/pb_decode.c **** /* Clear a newly allocated item in case it contains a pointer, or is a submessage. */
 518:X-CUBE-AI/App/pb_decode.c **** static void initialize_pointer_field(void *pItem, pb_field_iter_t *iter)
 519:X-CUBE-AI/App/pb_decode.c **** {
 520:X-CUBE-AI/App/pb_decode.c ****     if (PB_LTYPE(iter->pos->type) == PB_LTYPE_STRING ||
 521:X-CUBE-AI/App/pb_decode.c ****         PB_LTYPE(iter->pos->type) == PB_LTYPE_BYTES)
 522:X-CUBE-AI/App/pb_decode.c ****     {
 523:X-CUBE-AI/App/pb_decode.c ****         *(void**)pItem = NULL;
 524:X-CUBE-AI/App/pb_decode.c ****     }
 525:X-CUBE-AI/App/pb_decode.c ****     else if (PB_LTYPE(iter->pos->type) == PB_LTYPE_SUBMESSAGE)
 526:X-CUBE-AI/App/pb_decode.c ****     {
 527:X-CUBE-AI/App/pb_decode.c ****         /* We memset to zero so that any callbacks are set to NULL.
 528:X-CUBE-AI/App/pb_decode.c ****          * Then set any default values. */
 529:X-CUBE-AI/App/pb_decode.c ****         memset(pItem, 0, iter->pos->data_size);
 530:X-CUBE-AI/App/pb_decode.c ****         pb_message_set_to_defaults((const pb_field_t *) iter->pos->ptr, pItem);
 531:X-CUBE-AI/App/pb_decode.c ****     }
 532:X-CUBE-AI/App/pb_decode.c **** }
 533:X-CUBE-AI/App/pb_decode.c **** #endif
 534:X-CUBE-AI/App/pb_decode.c **** 
 535:X-CUBE-AI/App/pb_decode.c **** static bool checkreturn decode_pointer_field(pb_istream_t *stream, pb_wire_type_t wire_type, pb_fie
 536:X-CUBE-AI/App/pb_decode.c **** {
 412              		.loc 1 536 1 is_stmt 1 view -0
 413              		.cfi_startproc
 414              		@ args = 0, pretend = 0, frame = 0
 415              		@ frame_needed = 0, uses_anonymous_args = 0
 416              		@ link register save eliminated.
 537:X-CUBE-AI/App/pb_decode.c **** #ifndef PB_ENABLE_MALLOC
 538:X-CUBE-AI/App/pb_decode.c ****     PB_UNUSED(wire_type);
 417              		.loc 1 538 5 view .LVU108
 539:X-CUBE-AI/App/pb_decode.c ****     PB_UNUSED(iter);
 418              		.loc 1 539 5 view .LVU109
 540:X-CUBE-AI/App/pb_decode.c ****     PB_RETURN_ERROR(stream, "no malloc support");
 419              		.loc 1 540 5 view .LVU110
 420 0000 C368     		ldr	r3, [r0, #12]
ARM GAS  /tmp/ccbrCuLB.s 			page 19


 421 0002 13B1     		cbz	r3, .L45
 422              	.L44:
 423              		.loc 1 540 5 is_stmt 0 discriminator 4 view .LVU111
 424 0004 C360     		str	r3, [r0, #12]
 541:X-CUBE-AI/App/pb_decode.c **** #else
 542:X-CUBE-AI/App/pb_decode.c ****     pb_type_t type;
 543:X-CUBE-AI/App/pb_decode.c ****     pb_decoder_t func;
 544:X-CUBE-AI/App/pb_decode.c ****     
 545:X-CUBE-AI/App/pb_decode.c ****     type = iter->pos->type;
 546:X-CUBE-AI/App/pb_decode.c ****     func = PB_DECODERS[PB_LTYPE(type)];
 547:X-CUBE-AI/App/pb_decode.c ****     
 548:X-CUBE-AI/App/pb_decode.c ****     switch (PB_HTYPE(type))
 549:X-CUBE-AI/App/pb_decode.c ****     {
 550:X-CUBE-AI/App/pb_decode.c ****         case PB_HTYPE_REQUIRED:
 551:X-CUBE-AI/App/pb_decode.c ****         case PB_HTYPE_OPTIONAL:
 552:X-CUBE-AI/App/pb_decode.c ****         case PB_HTYPE_ONEOF:
 553:X-CUBE-AI/App/pb_decode.c ****             if (PB_LTYPE(type) == PB_LTYPE_SUBMESSAGE &&
 554:X-CUBE-AI/App/pb_decode.c ****                 *(void**)iter->pData != NULL)
 555:X-CUBE-AI/App/pb_decode.c ****             {
 556:X-CUBE-AI/App/pb_decode.c ****                 /* Duplicate field, have to release the old allocation first. */
 557:X-CUBE-AI/App/pb_decode.c ****                 pb_release_single_field(iter);
 558:X-CUBE-AI/App/pb_decode.c ****             }
 559:X-CUBE-AI/App/pb_decode.c ****         
 560:X-CUBE-AI/App/pb_decode.c ****             if (PB_HTYPE(type) == PB_HTYPE_ONEOF)
 561:X-CUBE-AI/App/pb_decode.c ****             {
 562:X-CUBE-AI/App/pb_decode.c ****                 *(pb_size_t*)iter->pSize = iter->pos->tag;
 563:X-CUBE-AI/App/pb_decode.c ****             }
 564:X-CUBE-AI/App/pb_decode.c **** 
 565:X-CUBE-AI/App/pb_decode.c ****             if (PB_LTYPE(type) == PB_LTYPE_STRING ||
 566:X-CUBE-AI/App/pb_decode.c ****                 PB_LTYPE(type) == PB_LTYPE_BYTES)
 567:X-CUBE-AI/App/pb_decode.c ****             {
 568:X-CUBE-AI/App/pb_decode.c ****                 return func(stream, iter->pos, iter->pData);
 569:X-CUBE-AI/App/pb_decode.c ****             }
 570:X-CUBE-AI/App/pb_decode.c ****             else
 571:X-CUBE-AI/App/pb_decode.c ****             {
 572:X-CUBE-AI/App/pb_decode.c ****                 if (!allocate_field(stream, iter->pData, iter->pos->data_size, 1))
 573:X-CUBE-AI/App/pb_decode.c ****                     return false;
 574:X-CUBE-AI/App/pb_decode.c ****                 
 575:X-CUBE-AI/App/pb_decode.c ****                 initialize_pointer_field(*(void**)iter->pData, iter);
 576:X-CUBE-AI/App/pb_decode.c ****                 return func(stream, iter->pos, *(void**)iter->pData);
 577:X-CUBE-AI/App/pb_decode.c ****             }
 578:X-CUBE-AI/App/pb_decode.c ****     
 579:X-CUBE-AI/App/pb_decode.c ****         case PB_HTYPE_REPEATED:
 580:X-CUBE-AI/App/pb_decode.c ****             if (wire_type == PB_WT_STRING
 581:X-CUBE-AI/App/pb_decode.c ****                 && PB_LTYPE(type) <= PB_LTYPE_LAST_PACKABLE)
 582:X-CUBE-AI/App/pb_decode.c ****             {
 583:X-CUBE-AI/App/pb_decode.c ****                 /* Packed array, multiple items come in at once. */
 584:X-CUBE-AI/App/pb_decode.c ****                 bool status = true;
 585:X-CUBE-AI/App/pb_decode.c ****                 pb_size_t *size = (pb_size_t*)iter->pSize;
 586:X-CUBE-AI/App/pb_decode.c ****                 size_t allocated_size = *size;
 587:X-CUBE-AI/App/pb_decode.c ****                 void *pItem;
 588:X-CUBE-AI/App/pb_decode.c ****                 pb_istream_t substream;
 589:X-CUBE-AI/App/pb_decode.c ****                 
 590:X-CUBE-AI/App/pb_decode.c ****                 if (!pb_make_string_substream(stream, &substream))
 591:X-CUBE-AI/App/pb_decode.c ****                     return false;
 592:X-CUBE-AI/App/pb_decode.c ****                 
 593:X-CUBE-AI/App/pb_decode.c ****                 while (substream.bytes_left)
ARM GAS  /tmp/ccbrCuLB.s 			page 20


 594:X-CUBE-AI/App/pb_decode.c ****                 {
 595:X-CUBE-AI/App/pb_decode.c ****                     if ((size_t)*size + 1 > allocated_size)
 596:X-CUBE-AI/App/pb_decode.c ****                     {
 597:X-CUBE-AI/App/pb_decode.c ****                         /* Allocate more storage. This tries to guess the
 598:X-CUBE-AI/App/pb_decode.c ****                          * number of remaining entries. Round the division
 599:X-CUBE-AI/App/pb_decode.c ****                          * upwards. */
 600:X-CUBE-AI/App/pb_decode.c ****                         allocated_size += (substream.bytes_left - 1) / iter->pos->data_size + 1;
 601:X-CUBE-AI/App/pb_decode.c ****                         
 602:X-CUBE-AI/App/pb_decode.c ****                         if (!allocate_field(&substream, iter->pData, iter->pos->data_size, allocate
 603:X-CUBE-AI/App/pb_decode.c ****                         {
 604:X-CUBE-AI/App/pb_decode.c ****                             status = false;
 605:X-CUBE-AI/App/pb_decode.c ****                             break;
 606:X-CUBE-AI/App/pb_decode.c ****                         }
 607:X-CUBE-AI/App/pb_decode.c ****                     }
 608:X-CUBE-AI/App/pb_decode.c **** 
 609:X-CUBE-AI/App/pb_decode.c ****                     /* Decode the array entry */
 610:X-CUBE-AI/App/pb_decode.c ****                     pItem = *(char**)iter->pData + iter->pos->data_size * (*size);
 611:X-CUBE-AI/App/pb_decode.c ****                     initialize_pointer_field(pItem, iter);
 612:X-CUBE-AI/App/pb_decode.c ****                     if (!func(&substream, iter->pos, pItem))
 613:X-CUBE-AI/App/pb_decode.c ****                     {
 614:X-CUBE-AI/App/pb_decode.c ****                         status = false;
 615:X-CUBE-AI/App/pb_decode.c ****                         break;
 616:X-CUBE-AI/App/pb_decode.c ****                     }
 617:X-CUBE-AI/App/pb_decode.c ****                     
 618:X-CUBE-AI/App/pb_decode.c ****                     if (*size == PB_SIZE_MAX)
 619:X-CUBE-AI/App/pb_decode.c ****                     {
 620:X-CUBE-AI/App/pb_decode.c **** #ifndef PB_NO_ERRMSG
 621:X-CUBE-AI/App/pb_decode.c ****                         stream->errmsg = "too many array entries";
 622:X-CUBE-AI/App/pb_decode.c **** #endif
 623:X-CUBE-AI/App/pb_decode.c ****                         status = false;
 624:X-CUBE-AI/App/pb_decode.c ****                         break;
 625:X-CUBE-AI/App/pb_decode.c ****                     }
 626:X-CUBE-AI/App/pb_decode.c ****                     
 627:X-CUBE-AI/App/pb_decode.c ****                     (*size)++;
 628:X-CUBE-AI/App/pb_decode.c ****                 }
 629:X-CUBE-AI/App/pb_decode.c ****                 if (!pb_close_string_substream(stream, &substream))
 630:X-CUBE-AI/App/pb_decode.c ****                     return false;
 631:X-CUBE-AI/App/pb_decode.c ****                 
 632:X-CUBE-AI/App/pb_decode.c ****                 return status;
 633:X-CUBE-AI/App/pb_decode.c ****             }
 634:X-CUBE-AI/App/pb_decode.c ****             else
 635:X-CUBE-AI/App/pb_decode.c ****             {
 636:X-CUBE-AI/App/pb_decode.c ****                 /* Normal repeated field, i.e. only one item at a time. */
 637:X-CUBE-AI/App/pb_decode.c ****                 pb_size_t *size = (pb_size_t*)iter->pSize;
 638:X-CUBE-AI/App/pb_decode.c ****                 void *pItem;
 639:X-CUBE-AI/App/pb_decode.c ****                 
 640:X-CUBE-AI/App/pb_decode.c ****                 if (*size == PB_SIZE_MAX)
 641:X-CUBE-AI/App/pb_decode.c ****                     PB_RETURN_ERROR(stream, "too many array entries");
 642:X-CUBE-AI/App/pb_decode.c ****                 
 643:X-CUBE-AI/App/pb_decode.c ****                 (*size)++;
 644:X-CUBE-AI/App/pb_decode.c ****                 if (!allocate_field(stream, iter->pData, iter->pos->data_size, *size))
 645:X-CUBE-AI/App/pb_decode.c ****                     return false;
 646:X-CUBE-AI/App/pb_decode.c ****             
 647:X-CUBE-AI/App/pb_decode.c ****                 pItem = *(char**)iter->pData + iter->pos->data_size * (*size - 1);
 648:X-CUBE-AI/App/pb_decode.c ****                 initialize_pointer_field(pItem, iter);
 649:X-CUBE-AI/App/pb_decode.c ****                 return func(stream, iter->pos, pItem);
 650:X-CUBE-AI/App/pb_decode.c ****             }
ARM GAS  /tmp/ccbrCuLB.s 			page 21


 651:X-CUBE-AI/App/pb_decode.c **** 
 652:X-CUBE-AI/App/pb_decode.c ****         default:
 653:X-CUBE-AI/App/pb_decode.c ****             PB_RETURN_ERROR(stream, "invalid field type");
 654:X-CUBE-AI/App/pb_decode.c ****     }
 655:X-CUBE-AI/App/pb_decode.c **** #endif
 656:X-CUBE-AI/App/pb_decode.c **** }
 425              		.loc 1 656 1 discriminator 4 view .LVU112
 426 0006 0020     		movs	r0, #0
 427              	.LVL32:
 428              		.loc 1 656 1 discriminator 4 view .LVU113
 429 0008 7047     		bx	lr
 430              	.LVL33:
 431              	.L45:
 540:X-CUBE-AI/App/pb_decode.c ****     PB_RETURN_ERROR(stream, "no malloc support");
 432              		.loc 1 540 5 view .LVU114
 433 000a 014B     		ldr	r3, .L46
 434 000c FAE7     		b	.L44
 435              	.L47:
 436 000e 00BF     		.align	2
 437              	.L46:
 438 0010 00000000 		.word	.LC3
 439              		.cfi_endproc
 440              	.LFE15:
 442              		.section	.text.iter_from_extension,"ax",%progbits
 443              		.align	1
 444              		.syntax unified
 445              		.thumb
 446              		.thumb_func
 447              		.fpu fpv4-sp-d16
 449              	iter_from_extension:
 450              	.LVL34:
 451              	.LFB18:
 657:X-CUBE-AI/App/pb_decode.c **** 
 658:X-CUBE-AI/App/pb_decode.c **** static bool checkreturn decode_callback_field(pb_istream_t *stream, pb_wire_type_t wire_type, pb_fi
 659:X-CUBE-AI/App/pb_decode.c **** {
 660:X-CUBE-AI/App/pb_decode.c ****     pb_callback_t *pCallback = (pb_callback_t*)iter->pData;
 661:X-CUBE-AI/App/pb_decode.c ****     
 662:X-CUBE-AI/App/pb_decode.c **** #ifdef PB_OLD_CALLBACK_STYLE
 663:X-CUBE-AI/App/pb_decode.c ****     void *arg = pCallback->arg;
 664:X-CUBE-AI/App/pb_decode.c **** #else
 665:X-CUBE-AI/App/pb_decode.c ****     void **arg = &(pCallback->arg);
 666:X-CUBE-AI/App/pb_decode.c **** #endif
 667:X-CUBE-AI/App/pb_decode.c ****     
 668:X-CUBE-AI/App/pb_decode.c ****     if (pCallback == NULL || pCallback->funcs.decode == NULL)
 669:X-CUBE-AI/App/pb_decode.c ****         return pb_skip_field(stream, wire_type);
 670:X-CUBE-AI/App/pb_decode.c ****     
 671:X-CUBE-AI/App/pb_decode.c ****     if (wire_type == PB_WT_STRING)
 672:X-CUBE-AI/App/pb_decode.c ****     {
 673:X-CUBE-AI/App/pb_decode.c ****         pb_istream_t substream;
 674:X-CUBE-AI/App/pb_decode.c ****         
 675:X-CUBE-AI/App/pb_decode.c ****         if (!pb_make_string_substream(stream, &substream))
 676:X-CUBE-AI/App/pb_decode.c ****             return false;
 677:X-CUBE-AI/App/pb_decode.c ****         
 678:X-CUBE-AI/App/pb_decode.c ****         do
 679:X-CUBE-AI/App/pb_decode.c ****         {
 680:X-CUBE-AI/App/pb_decode.c ****             if (!pCallback->funcs.decode(&substream, iter->pos, arg))
 681:X-CUBE-AI/App/pb_decode.c ****                 PB_RETURN_ERROR(stream, "callback failed");
ARM GAS  /tmp/ccbrCuLB.s 			page 22


 682:X-CUBE-AI/App/pb_decode.c ****         } while (substream.bytes_left);
 683:X-CUBE-AI/App/pb_decode.c ****         
 684:X-CUBE-AI/App/pb_decode.c ****         if (!pb_close_string_substream(stream, &substream))
 685:X-CUBE-AI/App/pb_decode.c ****             return false;
 686:X-CUBE-AI/App/pb_decode.c **** 
 687:X-CUBE-AI/App/pb_decode.c ****         return true;
 688:X-CUBE-AI/App/pb_decode.c ****     }
 689:X-CUBE-AI/App/pb_decode.c ****     else
 690:X-CUBE-AI/App/pb_decode.c ****     {
 691:X-CUBE-AI/App/pb_decode.c ****         /* Copy the single scalar value to stack.
 692:X-CUBE-AI/App/pb_decode.c ****          * This is required so that we can limit the stream length,
 693:X-CUBE-AI/App/pb_decode.c ****          * which in turn allows to use same callback for packed and
 694:X-CUBE-AI/App/pb_decode.c ****          * not-packed fields. */
 695:X-CUBE-AI/App/pb_decode.c ****         pb_istream_t substream;
 696:X-CUBE-AI/App/pb_decode.c ****         pb_byte_t buffer[10];
 697:X-CUBE-AI/App/pb_decode.c ****         size_t size = sizeof(buffer);
 698:X-CUBE-AI/App/pb_decode.c ****         
 699:X-CUBE-AI/App/pb_decode.c ****         if (!read_raw_value(stream, wire_type, buffer, &size))
 700:X-CUBE-AI/App/pb_decode.c ****             return false;
 701:X-CUBE-AI/App/pb_decode.c ****         substream = pb_istream_from_buffer(buffer, size);
 702:X-CUBE-AI/App/pb_decode.c ****         
 703:X-CUBE-AI/App/pb_decode.c ****         return pCallback->funcs.decode(&substream, iter->pos, arg);
 704:X-CUBE-AI/App/pb_decode.c ****     }
 705:X-CUBE-AI/App/pb_decode.c **** }
 706:X-CUBE-AI/App/pb_decode.c **** 
 707:X-CUBE-AI/App/pb_decode.c **** static bool checkreturn decode_field(pb_istream_t *stream, pb_wire_type_t wire_type, pb_field_iter_
 708:X-CUBE-AI/App/pb_decode.c **** {
 709:X-CUBE-AI/App/pb_decode.c **** #ifdef PB_ENABLE_MALLOC
 710:X-CUBE-AI/App/pb_decode.c ****     /* When decoding an oneof field, check if there is old data that must be
 711:X-CUBE-AI/App/pb_decode.c ****      * released first. */
 712:X-CUBE-AI/App/pb_decode.c ****     if (PB_HTYPE(iter->pos->type) == PB_HTYPE_ONEOF)
 713:X-CUBE-AI/App/pb_decode.c ****     {
 714:X-CUBE-AI/App/pb_decode.c ****         if (!pb_release_union_field(stream, iter))
 715:X-CUBE-AI/App/pb_decode.c ****             return false;
 716:X-CUBE-AI/App/pb_decode.c ****     }
 717:X-CUBE-AI/App/pb_decode.c **** #endif
 718:X-CUBE-AI/App/pb_decode.c **** 
 719:X-CUBE-AI/App/pb_decode.c ****     switch (PB_ATYPE(iter->pos->type))
 720:X-CUBE-AI/App/pb_decode.c ****     {
 721:X-CUBE-AI/App/pb_decode.c ****         case PB_ATYPE_STATIC:
 722:X-CUBE-AI/App/pb_decode.c ****             return decode_static_field(stream, wire_type, iter);
 723:X-CUBE-AI/App/pb_decode.c ****         
 724:X-CUBE-AI/App/pb_decode.c ****         case PB_ATYPE_POINTER:
 725:X-CUBE-AI/App/pb_decode.c ****             return decode_pointer_field(stream, wire_type, iter);
 726:X-CUBE-AI/App/pb_decode.c ****         
 727:X-CUBE-AI/App/pb_decode.c ****         case PB_ATYPE_CALLBACK:
 728:X-CUBE-AI/App/pb_decode.c ****             return decode_callback_field(stream, wire_type, iter);
 729:X-CUBE-AI/App/pb_decode.c ****         
 730:X-CUBE-AI/App/pb_decode.c ****         default:
 731:X-CUBE-AI/App/pb_decode.c ****             PB_RETURN_ERROR(stream, "invalid field type");
 732:X-CUBE-AI/App/pb_decode.c ****     }
 733:X-CUBE-AI/App/pb_decode.c **** }
 734:X-CUBE-AI/App/pb_decode.c **** 
 735:X-CUBE-AI/App/pb_decode.c **** static void iter_from_extension(pb_field_iter_t *iter, pb_extension_t *extension)
 736:X-CUBE-AI/App/pb_decode.c **** {
 452              		.loc 1 736 1 is_stmt 1 view -0
 453              		.cfi_startproc
ARM GAS  /tmp/ccbrCuLB.s 			page 23


 454              		@ args = 0, pretend = 0, frame = 0
 455              		@ frame_needed = 0, uses_anonymous_args = 0
 456              		.loc 1 736 1 is_stmt 0 view .LVU116
 457 0000 70B5     		push	{r4, r5, r6, lr}
 458              	.LCFI7:
 459              		.cfi_def_cfa_offset 16
 460              		.cfi_offset 4, -16
 461              		.cfi_offset 5, -12
 462              		.cfi_offset 6, -8
 463              		.cfi_offset 14, -4
 464 0002 0546     		mov	r5, r0
 465 0004 0C46     		mov	r4, r1
 737:X-CUBE-AI/App/pb_decode.c ****     /* Fake a field iterator for the extension field.
 738:X-CUBE-AI/App/pb_decode.c ****      * It is not actually safe to advance this iterator, but decode_field
 739:X-CUBE-AI/App/pb_decode.c ****      * will not even try to. */
 740:X-CUBE-AI/App/pb_decode.c ****     const pb_field_t *field = (const pb_field_t*)extension->type->arg;
 466              		.loc 1 740 5 is_stmt 1 view .LVU117
 467              		.loc 1 740 59 is_stmt 0 view .LVU118
 468 0006 0B68     		ldr	r3, [r1]
 469              		.loc 1 740 23 view .LVU119
 470 0008 9E68     		ldr	r6, [r3, #8]
 471              	.LVL35:
 741:X-CUBE-AI/App/pb_decode.c ****     (void)pb_field_iter_begin(iter, field, extension->dest);
 472              		.loc 1 741 5 is_stmt 1 view .LVU120
 473              		.loc 1 741 11 is_stmt 0 view .LVU121
 474 000a 4A68     		ldr	r2, [r1, #4]
 475 000c 3146     		mov	r1, r6
 476              	.LVL36:
 477              		.loc 1 741 11 view .LVU122
 478 000e FFF7FEFF 		bl	pb_field_iter_begin
 479              	.LVL37:
 742:X-CUBE-AI/App/pb_decode.c ****     iter->pData = extension->dest;
 480              		.loc 1 742 5 is_stmt 1 view .LVU123
 481              		.loc 1 742 28 is_stmt 0 view .LVU124
 482 0012 6368     		ldr	r3, [r4, #4]
 483              		.loc 1 742 17 view .LVU125
 484 0014 2B61     		str	r3, [r5, #16]
 743:X-CUBE-AI/App/pb_decode.c ****     iter->pSize = &extension->found;
 485              		.loc 1 743 5 is_stmt 1 view .LVU126
 486              		.loc 1 743 19 is_stmt 0 view .LVU127
 487 0016 04F10C03 		add	r3, r4, #12
 488              		.loc 1 743 17 view .LVU128
 489 001a 6B61     		str	r3, [r5, #20]
 744:X-CUBE-AI/App/pb_decode.c ****     
 745:X-CUBE-AI/App/pb_decode.c ****     if (PB_ATYPE(field->type) == PB_ATYPE_POINTER)
 490              		.loc 1 745 5 is_stmt 1 view .LVU129
 491              		.loc 1 745 9 is_stmt 0 view .LVU130
 492 001c B378     		ldrb	r3, [r6, #2]	@ zero_extendqisi2
 493              		.loc 1 745 8 view .LVU131
 494 001e 03F0C003 		and	r3, r3, #192
 495 0022 802B     		cmp	r3, #128
 496 0024 00D0     		beq	.L51
 497              	.LVL38:
 498              	.L48:
 746:X-CUBE-AI/App/pb_decode.c ****     {
 747:X-CUBE-AI/App/pb_decode.c ****         /* For pointer extensions, the pointer is stored directly
 748:X-CUBE-AI/App/pb_decode.c ****          * in the extension structure. This avoids having an extra
ARM GAS  /tmp/ccbrCuLB.s 			page 24


 749:X-CUBE-AI/App/pb_decode.c ****          * indirection. */
 750:X-CUBE-AI/App/pb_decode.c ****         iter->pData = &extension->dest;
 751:X-CUBE-AI/App/pb_decode.c ****     }
 752:X-CUBE-AI/App/pb_decode.c **** }
 499              		.loc 1 752 1 view .LVU132
 500 0026 70BD     		pop	{r4, r5, r6, pc}
 501              	.LVL39:
 502              	.L51:
 750:X-CUBE-AI/App/pb_decode.c ****     }
 503              		.loc 1 750 9 is_stmt 1 view .LVU133
 750:X-CUBE-AI/App/pb_decode.c ****     }
 504              		.loc 1 750 23 is_stmt 0 view .LVU134
 505 0028 0434     		adds	r4, r4, #4
 506              	.LVL40:
 750:X-CUBE-AI/App/pb_decode.c ****     }
 507              		.loc 1 750 21 view .LVU135
 508 002a 2C61     		str	r4, [r5, #16]
 509              		.loc 1 752 1 view .LVU136
 510 002c FBE7     		b	.L48
 511              		.cfi_endproc
 512              	.LFE18:
 514              		.section	.text.find_extension_field,"ax",%progbits
 515              		.align	1
 516              		.syntax unified
 517              		.thumb
 518              		.thumb_func
 519              		.fpu fpv4-sp-d16
 521              	find_extension_field:
 522              	.LVL41:
 523              	.LFB21:
 753:X-CUBE-AI/App/pb_decode.c **** 
 754:X-CUBE-AI/App/pb_decode.c **** /* Default handler for extension fields. Expects a pb_field_t structure
 755:X-CUBE-AI/App/pb_decode.c ****  * in extension->type->arg. */
 756:X-CUBE-AI/App/pb_decode.c **** static bool checkreturn default_extension_decoder(pb_istream_t *stream,
 757:X-CUBE-AI/App/pb_decode.c ****     pb_extension_t *extension, uint32_t tag, pb_wire_type_t wire_type)
 758:X-CUBE-AI/App/pb_decode.c **** {
 759:X-CUBE-AI/App/pb_decode.c ****     const pb_field_t *field = (const pb_field_t*)extension->type->arg;
 760:X-CUBE-AI/App/pb_decode.c ****     pb_field_iter_t iter;
 761:X-CUBE-AI/App/pb_decode.c ****     
 762:X-CUBE-AI/App/pb_decode.c ****     if (field->tag != tag)
 763:X-CUBE-AI/App/pb_decode.c ****         return true;
 764:X-CUBE-AI/App/pb_decode.c ****     
 765:X-CUBE-AI/App/pb_decode.c ****     iter_from_extension(&iter, extension);
 766:X-CUBE-AI/App/pb_decode.c ****     extension->found = true;
 767:X-CUBE-AI/App/pb_decode.c ****     return decode_field(stream, wire_type, &iter);
 768:X-CUBE-AI/App/pb_decode.c **** }
 769:X-CUBE-AI/App/pb_decode.c **** 
 770:X-CUBE-AI/App/pb_decode.c **** /* Try to decode an unknown field as an extension field. Tries each extension
 771:X-CUBE-AI/App/pb_decode.c ****  * decoder in turn, until one of them handles the field or loop ends. */
 772:X-CUBE-AI/App/pb_decode.c **** static bool checkreturn decode_extension(pb_istream_t *stream,
 773:X-CUBE-AI/App/pb_decode.c ****     uint32_t tag, pb_wire_type_t wire_type, pb_field_iter_t *iter)
 774:X-CUBE-AI/App/pb_decode.c **** {
 775:X-CUBE-AI/App/pb_decode.c ****     pb_extension_t *extension = *(pb_extension_t* const *)iter->pData;
 776:X-CUBE-AI/App/pb_decode.c ****     size_t pos = stream->bytes_left;
 777:X-CUBE-AI/App/pb_decode.c ****     
 778:X-CUBE-AI/App/pb_decode.c ****     while (extension != NULL && pos == stream->bytes_left)
 779:X-CUBE-AI/App/pb_decode.c ****     {
ARM GAS  /tmp/ccbrCuLB.s 			page 25


 780:X-CUBE-AI/App/pb_decode.c ****         bool status;
 781:X-CUBE-AI/App/pb_decode.c ****         if (extension->type->decode)
 782:X-CUBE-AI/App/pb_decode.c ****             status = extension->type->decode(stream, extension, tag, wire_type);
 783:X-CUBE-AI/App/pb_decode.c ****         else
 784:X-CUBE-AI/App/pb_decode.c ****             status = default_extension_decoder(stream, extension, tag, wire_type);
 785:X-CUBE-AI/App/pb_decode.c **** 
 786:X-CUBE-AI/App/pb_decode.c ****         if (!status)
 787:X-CUBE-AI/App/pb_decode.c ****             return false;
 788:X-CUBE-AI/App/pb_decode.c ****         
 789:X-CUBE-AI/App/pb_decode.c ****         extension = extension->next;
 790:X-CUBE-AI/App/pb_decode.c ****     }
 791:X-CUBE-AI/App/pb_decode.c ****     
 792:X-CUBE-AI/App/pb_decode.c ****     return true;
 793:X-CUBE-AI/App/pb_decode.c **** }
 794:X-CUBE-AI/App/pb_decode.c **** 
 795:X-CUBE-AI/App/pb_decode.c **** /* Step through the iterator until an extension field is found or until all
 796:X-CUBE-AI/App/pb_decode.c ****  * entries have been checked. There can be only one extension field per
 797:X-CUBE-AI/App/pb_decode.c ****  * message. Returns false if no extension field is found. */
 798:X-CUBE-AI/App/pb_decode.c **** static bool checkreturn find_extension_field(pb_field_iter_t *iter)
 799:X-CUBE-AI/App/pb_decode.c **** {
 524              		.loc 1 799 1 is_stmt 1 view -0
 525              		.cfi_startproc
 526              		@ args = 0, pretend = 0, frame = 0
 527              		@ frame_needed = 0, uses_anonymous_args = 0
 528              		.loc 1 799 1 is_stmt 0 view .LVU138
 529 0000 38B5     		push	{r3, r4, r5, lr}
 530              	.LCFI8:
 531              		.cfi_def_cfa_offset 16
 532              		.cfi_offset 3, -16
 533              		.cfi_offset 4, -12
 534              		.cfi_offset 5, -8
 535              		.cfi_offset 14, -4
 536 0002 0446     		mov	r4, r0
 800:X-CUBE-AI/App/pb_decode.c ****     const pb_field_t *start = iter->pos;
 537              		.loc 1 800 5 is_stmt 1 view .LVU139
 538              		.loc 1 800 23 is_stmt 0 view .LVU140
 539 0004 4568     		ldr	r5, [r0, #4]
 540              	.LVL42:
 541              	.L54:
 801:X-CUBE-AI/App/pb_decode.c ****     
 802:X-CUBE-AI/App/pb_decode.c ****     do {
 542              		.loc 1 802 5 is_stmt 1 view .LVU141
 803:X-CUBE-AI/App/pb_decode.c ****         if (PB_LTYPE(iter->pos->type) == PB_LTYPE_EXTENSION)
 543              		.loc 1 803 9 view .LVU142
 544              		.loc 1 803 13 is_stmt 0 view .LVU143
 545 0006 6368     		ldr	r3, [r4, #4]
 546 0008 9B78     		ldrb	r3, [r3, #2]	@ zero_extendqisi2
 547              		.loc 1 803 12 view .LVU144
 548 000a 03F00F03 		and	r3, r3, #15
 549 000e 082B     		cmp	r3, #8
 550 0010 07D0     		beq	.L55
 804:X-CUBE-AI/App/pb_decode.c ****             return true;
 805:X-CUBE-AI/App/pb_decode.c ****         (void)pb_field_iter_next(iter);
 551              		.loc 1 805 9 is_stmt 1 view .LVU145
 552              		.loc 1 805 15 is_stmt 0 view .LVU146
 553 0012 2046     		mov	r0, r4
 554 0014 FFF7FEFF 		bl	pb_field_iter_next
ARM GAS  /tmp/ccbrCuLB.s 			page 26


 555              	.LVL43:
 806:X-CUBE-AI/App/pb_decode.c ****     } while (iter->pos != start);
 556              		.loc 1 806 13 is_stmt 1 view .LVU147
 557              		.loc 1 806 18 is_stmt 0 view .LVU148
 558 0018 6368     		ldr	r3, [r4, #4]
 559              		.loc 1 806 5 view .LVU149
 560 001a AB42     		cmp	r3, r5
 561 001c F3D1     		bne	.L54
 807:X-CUBE-AI/App/pb_decode.c ****     
 808:X-CUBE-AI/App/pb_decode.c ****     return false;
 562              		.loc 1 808 12 view .LVU150
 563 001e 0020     		movs	r0, #0
 564 0020 00E0     		b	.L53
 565              	.L55:
 804:X-CUBE-AI/App/pb_decode.c ****         (void)pb_field_iter_next(iter);
 566              		.loc 1 804 20 view .LVU151
 567 0022 0120     		movs	r0, #1
 568              	.L53:
 809:X-CUBE-AI/App/pb_decode.c **** }
 569              		.loc 1 809 1 view .LVU152
 570 0024 38BD     		pop	{r3, r4, r5, pc}
 571              		.loc 1 809 1 view .LVU153
 572              		.cfi_endproc
 573              	.LFE21:
 575              		.section	.text.pb_field_set_to_default,"ax",%progbits
 576              		.align	1
 577              		.syntax unified
 578              		.thumb
 579              		.thumb_func
 580              		.fpu fpv4-sp-d16
 582              	pb_field_set_to_default:
 583              	.LVL44:
 584              	.LFB22:
 810:X-CUBE-AI/App/pb_decode.c **** 
 811:X-CUBE-AI/App/pb_decode.c **** /* Initialize message fields to default values, recursively */
 812:X-CUBE-AI/App/pb_decode.c **** static void pb_field_set_to_default(pb_field_iter_t *iter)
 813:X-CUBE-AI/App/pb_decode.c **** {
 585              		.loc 1 813 1 is_stmt 1 view -0
 586              		.cfi_startproc
 587              		@ args = 0, pretend = 0, frame = 24
 588              		@ frame_needed = 0, uses_anonymous_args = 0
 589              		.loc 1 813 1 is_stmt 0 view .LVU155
 590 0000 10B5     		push	{r4, lr}
 591              	.LCFI9:
 592              		.cfi_def_cfa_offset 8
 593              		.cfi_offset 4, -8
 594              		.cfi_offset 14, -4
 595 0002 86B0     		sub	sp, sp, #24
 596              	.LCFI10:
 597              		.cfi_def_cfa_offset 32
 814:X-CUBE-AI/App/pb_decode.c ****     pb_type_t type;
 598              		.loc 1 814 5 is_stmt 1 view .LVU156
 815:X-CUBE-AI/App/pb_decode.c ****     type = iter->pos->type;
 599              		.loc 1 815 5 view .LVU157
 600              		.loc 1 815 16 is_stmt 0 view .LVU158
 601 0004 4368     		ldr	r3, [r0, #4]
 602              		.loc 1 815 10 view .LVU159
ARM GAS  /tmp/ccbrCuLB.s 			page 27


 603 0006 9B78     		ldrb	r3, [r3, #2]	@ zero_extendqisi2
 604              	.LVL45:
 816:X-CUBE-AI/App/pb_decode.c ****     
 817:X-CUBE-AI/App/pb_decode.c ****     if (PB_LTYPE(type) == PB_LTYPE_EXTENSION)
 605              		.loc 1 817 5 is_stmt 1 view .LVU160
 606              		.loc 1 817 8 is_stmt 0 view .LVU161
 607 0008 03F00F02 		and	r2, r3, #15
 608 000c 082A     		cmp	r2, #8
 609 000e 19D0     		beq	.L70
 818:X-CUBE-AI/App/pb_decode.c ****     {
 819:X-CUBE-AI/App/pb_decode.c ****         pb_extension_t *ext = *(pb_extension_t* const *)iter->pData;
 820:X-CUBE-AI/App/pb_decode.c ****         while (ext != NULL)
 821:X-CUBE-AI/App/pb_decode.c ****         {
 822:X-CUBE-AI/App/pb_decode.c ****             pb_field_iter_t ext_iter;
 823:X-CUBE-AI/App/pb_decode.c ****             ext->found = false;
 824:X-CUBE-AI/App/pb_decode.c ****             iter_from_extension(&ext_iter, ext);
 825:X-CUBE-AI/App/pb_decode.c ****             pb_field_set_to_default(&ext_iter);
 826:X-CUBE-AI/App/pb_decode.c ****             ext = ext->next;
 827:X-CUBE-AI/App/pb_decode.c ****         }
 828:X-CUBE-AI/App/pb_decode.c ****     }
 829:X-CUBE-AI/App/pb_decode.c ****     else if (PB_ATYPE(type) == PB_ATYPE_STATIC)
 610              		.loc 1 829 10 is_stmt 1 view .LVU162
 611              		.loc 1 829 13 is_stmt 0 view .LVU163
 612 0010 13F0C002 		ands	r2, r3, #192
 613 0014 3CD1     		bne	.L62
 614              	.LBB5:
 830:X-CUBE-AI/App/pb_decode.c ****     {
 831:X-CUBE-AI/App/pb_decode.c ****         bool init_data = true;
 615              		.loc 1 831 9 is_stmt 1 view .LVU164
 616              	.LVL46:
 832:X-CUBE-AI/App/pb_decode.c ****         if (PB_HTYPE(type) == PB_HTYPE_OPTIONAL && iter->pSize != iter->pData)
 617              		.loc 1 832 9 view .LVU165
 618 0016 03F03003 		and	r3, r3, #48
 619              	.LVL47:
 620              		.loc 1 832 12 is_stmt 0 view .LVU166
 621 001a 102B     		cmp	r3, #16
 622 001c 20D0     		beq	.L71
 623              	.L63:
 833:X-CUBE-AI/App/pb_decode.c ****         {
 834:X-CUBE-AI/App/pb_decode.c ****             /* Set has_field to false. Still initialize the optional field
 835:X-CUBE-AI/App/pb_decode.c ****              * itself also. */
 836:X-CUBE-AI/App/pb_decode.c ****             *(bool*)iter->pSize = false;
 837:X-CUBE-AI/App/pb_decode.c ****         }
 838:X-CUBE-AI/App/pb_decode.c ****         else if (PB_HTYPE(type) == PB_HTYPE_REPEATED ||
 624              		.loc 1 838 14 is_stmt 1 view .LVU167
 625              		.loc 1 838 17 is_stmt 0 view .LVU168
 626 001e 202B     		cmp	r3, #32
 627 0020 25D0     		beq	.L65
 628              		.loc 1 838 54 discriminator 1 view .LVU169
 629 0022 302B     		cmp	r3, #48
 630 0024 23D0     		beq	.L65
 631              	.LVL48:
 632              	.L64:
 839:X-CUBE-AI/App/pb_decode.c ****                  PB_HTYPE(type) == PB_HTYPE_ONEOF)
 840:X-CUBE-AI/App/pb_decode.c ****         {
 841:X-CUBE-AI/App/pb_decode.c ****             /* REPEATED: Set array count to 0, no need to initialize contents.
 842:X-CUBE-AI/App/pb_decode.c ****                ONEOF: Set which_field to 0. */
ARM GAS  /tmp/ccbrCuLB.s 			page 28


 843:X-CUBE-AI/App/pb_decode.c ****             *(pb_size_t*)iter->pSize = 0;
 844:X-CUBE-AI/App/pb_decode.c ****             init_data = false;
 845:X-CUBE-AI/App/pb_decode.c ****         }
 846:X-CUBE-AI/App/pb_decode.c **** 
 847:X-CUBE-AI/App/pb_decode.c ****         if (init_data)
 848:X-CUBE-AI/App/pb_decode.c ****         {
 849:X-CUBE-AI/App/pb_decode.c ****             if (PB_LTYPE(iter->pos->type) == PB_LTYPE_SUBMESSAGE)
 633              		.loc 1 849 13 is_stmt 1 view .LVU170
 634              		.loc 1 849 17 is_stmt 0 view .LVU171
 635 0026 4268     		ldr	r2, [r0, #4]
 636 0028 9378     		ldrb	r3, [r2, #2]	@ zero_extendqisi2
 637              		.loc 1 849 16 view .LVU172
 638 002a 03F00F03 		and	r3, r3, #15
 639 002e 072B     		cmp	r3, #7
 640 0030 21D0     		beq	.L72
 850:X-CUBE-AI/App/pb_decode.c ****             {
 851:X-CUBE-AI/App/pb_decode.c ****                 /* Initialize submessage to defaults */
 852:X-CUBE-AI/App/pb_decode.c ****                 pb_message_set_to_defaults((const pb_field_t *) iter->pos->ptr, iter->pData);
 853:X-CUBE-AI/App/pb_decode.c ****             }
 854:X-CUBE-AI/App/pb_decode.c ****             else if (iter->pos->ptr != NULL)
 641              		.loc 1 854 18 is_stmt 1 view .LVU173
 642              		.loc 1 854 31 is_stmt 0 view .LVU174
 643 0032 D2F80B10 		ldr	r1, [r2, #11]	@ unaligned
 644              		.loc 1 854 21 view .LVU175
 645 0036 21B3     		cbz	r1, .L67
 855:X-CUBE-AI/App/pb_decode.c ****             {
 856:X-CUBE-AI/App/pb_decode.c ****                 /* Initialize to default value */
 857:X-CUBE-AI/App/pb_decode.c ****                 memcpy(iter->pData, iter->pos->ptr, iter->pos->data_size);
 646              		.loc 1 857 17 is_stmt 1 view .LVU176
 647 0038 B2F80720 		ldrh	r2, [r2, #7]	@ unaligned
 648 003c 0069     		ldr	r0, [r0, #16]
 649              	.LVL49:
 650              		.loc 1 857 17 is_stmt 0 view .LVU177
 651 003e FFF7FEFF 		bl	memcpy
 652              	.LVL50:
 653 0042 27E0     		b	.L57
 654              	.LVL51:
 655              	.L70:
 656              		.loc 1 857 17 view .LVU178
 657              	.LBE5:
 658              	.LBB6:
 819:X-CUBE-AI/App/pb_decode.c ****         while (ext != NULL)
 659              		.loc 1 819 9 is_stmt 1 view .LVU179
 819:X-CUBE-AI/App/pb_decode.c ****         while (ext != NULL)
 660              		.loc 1 819 61 is_stmt 0 view .LVU180
 661 0044 0369     		ldr	r3, [r0, #16]
 662              	.LVL52:
 819:X-CUBE-AI/App/pb_decode.c ****         while (ext != NULL)
 663              		.loc 1 819 25 view .LVU181
 664 0046 1C68     		ldr	r4, [r3]
 665              	.LVL53:
 820:X-CUBE-AI/App/pb_decode.c ****         {
 666              		.loc 1 820 9 is_stmt 1 view .LVU182
 667              	.L59:
 820:X-CUBE-AI/App/pb_decode.c ****         {
 668              		.loc 1 820 15 view .LVU183
 669 0048 24B3     		cbz	r4, .L57
ARM GAS  /tmp/ccbrCuLB.s 			page 29


 670              	.LBB7:
 822:X-CUBE-AI/App/pb_decode.c ****             ext->found = false;
 671              		.loc 1 822 13 view .LVU184
 823:X-CUBE-AI/App/pb_decode.c ****             iter_from_extension(&ext_iter, ext);
 672              		.loc 1 823 13 view .LVU185
 823:X-CUBE-AI/App/pb_decode.c ****             iter_from_extension(&ext_iter, ext);
 673              		.loc 1 823 24 is_stmt 0 view .LVU186
 674 004a 0023     		movs	r3, #0
 675 004c 2373     		strb	r3, [r4, #12]
 824:X-CUBE-AI/App/pb_decode.c ****             pb_field_set_to_default(&ext_iter);
 676              		.loc 1 824 13 is_stmt 1 view .LVU187
 677 004e 2146     		mov	r1, r4
 678 0050 6846     		mov	r0, sp
 679 0052 FFF7FEFF 		bl	iter_from_extension
 680              	.LVL54:
 825:X-CUBE-AI/App/pb_decode.c ****             ext = ext->next;
 681              		.loc 1 825 13 view .LVU188
 682 0056 6846     		mov	r0, sp
 683 0058 FFF7D2FF 		bl	pb_field_set_to_default
 684              	.LVL55:
 826:X-CUBE-AI/App/pb_decode.c ****         }
 685              		.loc 1 826 13 view .LVU189
 826:X-CUBE-AI/App/pb_decode.c ****         }
 686              		.loc 1 826 17 is_stmt 0 view .LVU190
 687 005c A468     		ldr	r4, [r4, #8]
 688              	.LVL56:
 826:X-CUBE-AI/App/pb_decode.c ****         }
 689              		.loc 1 826 17 view .LVU191
 690 005e F3E7     		b	.L59
 691              	.LVL57:
 692              	.L71:
 826:X-CUBE-AI/App/pb_decode.c ****         }
 693              		.loc 1 826 17 view .LVU192
 694              	.LBE7:
 695              	.LBE6:
 696              	.LBB8:
 832:X-CUBE-AI/App/pb_decode.c ****         {
 697              		.loc 1 832 56 discriminator 1 view .LVU193
 698 0060 4269     		ldr	r2, [r0, #20]
 832:X-CUBE-AI/App/pb_decode.c ****         {
 699              		.loc 1 832 71 discriminator 1 view .LVU194
 700 0062 0169     		ldr	r1, [r0, #16]
 832:X-CUBE-AI/App/pb_decode.c ****         {
 701              		.loc 1 832 49 discriminator 1 view .LVU195
 702 0064 8A42     		cmp	r2, r1
 703 0066 DAD0     		beq	.L63
 836:X-CUBE-AI/App/pb_decode.c ****         }
 704              		.loc 1 836 13 is_stmt 1 view .LVU196
 836:X-CUBE-AI/App/pb_decode.c ****         }
 705              		.loc 1 836 33 is_stmt 0 view .LVU197
 706 0068 0023     		movs	r3, #0
 707 006a 1370     		strb	r3, [r2]
 708              	.LVL58:
 847:X-CUBE-AI/App/pb_decode.c ****         {
 709              		.loc 1 847 9 is_stmt 1 view .LVU198
 710 006c DBE7     		b	.L64
 711              	.LVL59:
ARM GAS  /tmp/ccbrCuLB.s 			page 30


 712              	.L65:
 843:X-CUBE-AI/App/pb_decode.c ****             init_data = false;
 713              		.loc 1 843 13 view .LVU199
 843:X-CUBE-AI/App/pb_decode.c ****             init_data = false;
 714              		.loc 1 843 30 is_stmt 0 view .LVU200
 715 006e 4369     		ldr	r3, [r0, #20]
 843:X-CUBE-AI/App/pb_decode.c ****             init_data = false;
 716              		.loc 1 843 38 view .LVU201
 717 0070 0022     		movs	r2, #0
 718 0072 1A80     		strh	r2, [r3]	@ movhi
 719              	.LVL60:
 844:X-CUBE-AI/App/pb_decode.c ****         }
 720              		.loc 1 844 13 is_stmt 1 view .LVU202
 847:X-CUBE-AI/App/pb_decode.c ****         {
 721              		.loc 1 847 9 view .LVU203
 722 0074 0EE0     		b	.L57
 723              	.LVL61:
 724              	.L72:
 852:X-CUBE-AI/App/pb_decode.c ****             }
 725              		.loc 1 852 17 view .LVU204
 726 0076 0169     		ldr	r1, [r0, #16]
 727 0078 D2F80B00 		ldr	r0, [r2, #11]	@ unaligned
 728              	.LVL62:
 852:X-CUBE-AI/App/pb_decode.c ****             }
 729              		.loc 1 852 17 is_stmt 0 view .LVU205
 730 007c FFF7FEFF 		bl	pb_message_set_to_defaults
 731              	.LVL63:
 732 0080 08E0     		b	.L57
 733              	.LVL64:
 734              	.L67:
 858:X-CUBE-AI/App/pb_decode.c ****             }
 859:X-CUBE-AI/App/pb_decode.c ****             else
 860:X-CUBE-AI/App/pb_decode.c ****             {
 861:X-CUBE-AI/App/pb_decode.c ****                 /* Initialize to zeros */
 862:X-CUBE-AI/App/pb_decode.c ****                 memset(iter->pData, 0, iter->pos->data_size);
 735              		.loc 1 862 17 is_stmt 1 view .LVU206
 736 0082 B2F80720 		ldrh	r2, [r2, #7]	@ unaligned
 737 0086 0021     		movs	r1, #0
 738 0088 0069     		ldr	r0, [r0, #16]
 739              	.LVL65:
 740              		.loc 1 862 17 is_stmt 0 view .LVU207
 741 008a FFF7FEFF 		bl	memset
 742              	.LVL66:
 743 008e 01E0     		b	.L57
 744              	.LVL67:
 745              	.L62:
 746              		.loc 1 862 17 view .LVU208
 747              	.LBE8:
 863:X-CUBE-AI/App/pb_decode.c ****             }
 864:X-CUBE-AI/App/pb_decode.c ****         }
 865:X-CUBE-AI/App/pb_decode.c ****     }
 866:X-CUBE-AI/App/pb_decode.c ****     else if (PB_ATYPE(type) == PB_ATYPE_POINTER)
 748              		.loc 1 866 10 is_stmt 1 view .LVU209
 749              		.loc 1 866 13 is_stmt 0 view .LVU210
 750 0090 802A     		cmp	r2, #128
 751 0092 01D0     		beq	.L73
 752              	.LVL68:
ARM GAS  /tmp/ccbrCuLB.s 			page 31


 753              	.L57:
 867:X-CUBE-AI/App/pb_decode.c ****     {
 868:X-CUBE-AI/App/pb_decode.c ****         /* Initialize the pointer to NULL. */
 869:X-CUBE-AI/App/pb_decode.c ****         *(void**)iter->pData = NULL;
 870:X-CUBE-AI/App/pb_decode.c ****         
 871:X-CUBE-AI/App/pb_decode.c ****         /* Initialize array count to 0. */
 872:X-CUBE-AI/App/pb_decode.c ****         if (PB_HTYPE(type) == PB_HTYPE_REPEATED ||
 873:X-CUBE-AI/App/pb_decode.c ****             PB_HTYPE(type) == PB_HTYPE_ONEOF)
 874:X-CUBE-AI/App/pb_decode.c ****         {
 875:X-CUBE-AI/App/pb_decode.c ****             *(pb_size_t*)iter->pSize = 0;
 876:X-CUBE-AI/App/pb_decode.c ****         }
 877:X-CUBE-AI/App/pb_decode.c ****     }
 878:X-CUBE-AI/App/pb_decode.c ****     else if (PB_ATYPE(type) == PB_ATYPE_CALLBACK)
 879:X-CUBE-AI/App/pb_decode.c ****     {
 880:X-CUBE-AI/App/pb_decode.c ****         /* Don't overwrite callback */
 881:X-CUBE-AI/App/pb_decode.c ****     }
 882:X-CUBE-AI/App/pb_decode.c **** }
 754              		.loc 1 882 1 view .LVU211
 755 0094 06B0     		add	sp, sp, #24
 756              	.LCFI11:
 757              		.cfi_remember_state
 758              		.cfi_def_cfa_offset 8
 759              		@ sp needed
 760 0096 10BD     		pop	{r4, pc}
 761              	.LVL69:
 762              	.L73:
 763              	.LCFI12:
 764              		.cfi_restore_state
 869:X-CUBE-AI/App/pb_decode.c ****         
 765              		.loc 1 869 9 is_stmt 1 view .LVU212
 869:X-CUBE-AI/App/pb_decode.c ****         
 766              		.loc 1 869 22 is_stmt 0 view .LVU213
 767 0098 0269     		ldr	r2, [r0, #16]
 869:X-CUBE-AI/App/pb_decode.c ****         
 768              		.loc 1 869 30 view .LVU214
 769 009a 0021     		movs	r1, #0
 770 009c 1160     		str	r1, [r2]
 872:X-CUBE-AI/App/pb_decode.c ****             PB_HTYPE(type) == PB_HTYPE_ONEOF)
 771              		.loc 1 872 9 is_stmt 1 view .LVU215
 772 009e 03F03003 		and	r3, r3, #48
 773              	.LVL70:
 872:X-CUBE-AI/App/pb_decode.c ****             PB_HTYPE(type) == PB_HTYPE_ONEOF)
 774              		.loc 1 872 12 is_stmt 0 view .LVU216
 775 00a2 202B     		cmp	r3, #32
 776 00a4 01D0     		beq	.L68
 872:X-CUBE-AI/App/pb_decode.c ****             PB_HTYPE(type) == PB_HTYPE_ONEOF)
 777              		.loc 1 872 49 discriminator 1 view .LVU217
 778 00a6 302B     		cmp	r3, #48
 779 00a8 F4D1     		bne	.L57
 780              	.L68:
 875:X-CUBE-AI/App/pb_decode.c ****         }
 781              		.loc 1 875 13 is_stmt 1 view .LVU218
 875:X-CUBE-AI/App/pb_decode.c ****         }
 782              		.loc 1 875 30 is_stmt 0 view .LVU219
 783 00aa 4369     		ldr	r3, [r0, #20]
 875:X-CUBE-AI/App/pb_decode.c ****         }
 784              		.loc 1 875 38 view .LVU220
ARM GAS  /tmp/ccbrCuLB.s 			page 32


 785 00ac 0022     		movs	r2, #0
 786 00ae 1A80     		strh	r2, [r3]	@ movhi
 881:X-CUBE-AI/App/pb_decode.c **** }
 787              		.loc 1 881 5 is_stmt 1 view .LVU221
 788              		.loc 1 882 1 is_stmt 0 view .LVU222
 789 00b0 F0E7     		b	.L57
 790              		.cfi_endproc
 791              	.LFE22:
 793              		.section	.text.pb_message_set_to_defaults,"ax",%progbits
 794              		.align	1
 795              		.syntax unified
 796              		.thumb
 797              		.thumb_func
 798              		.fpu fpv4-sp-d16
 800              	pb_message_set_to_defaults:
 801              	.LVL71:
 802              	.LFB23:
 883:X-CUBE-AI/App/pb_decode.c **** 
 884:X-CUBE-AI/App/pb_decode.c **** static void pb_message_set_to_defaults(const pb_field_t fields[], void *dest_struct)
 885:X-CUBE-AI/App/pb_decode.c **** {
 803              		.loc 1 885 1 is_stmt 1 view -0
 804              		.cfi_startproc
 805              		@ args = 0, pretend = 0, frame = 24
 806              		@ frame_needed = 0, uses_anonymous_args = 0
 807              		.loc 1 885 1 is_stmt 0 view .LVU224
 808 0000 00B5     		push	{lr}
 809              	.LCFI13:
 810              		.cfi_def_cfa_offset 4
 811              		.cfi_offset 14, -4
 812 0002 87B0     		sub	sp, sp, #28
 813              	.LCFI14:
 814              		.cfi_def_cfa_offset 32
 815 0004 0A46     		mov	r2, r1
 886:X-CUBE-AI/App/pb_decode.c ****     pb_field_iter_t iter;
 816              		.loc 1 886 5 is_stmt 1 view .LVU225
 887:X-CUBE-AI/App/pb_decode.c **** 
 888:X-CUBE-AI/App/pb_decode.c ****     if (!pb_field_iter_begin(&iter, fields, dest_struct))
 817              		.loc 1 888 5 view .LVU226
 818              		.loc 1 888 10 is_stmt 0 view .LVU227
 819 0006 0146     		mov	r1, r0
 820              	.LVL72:
 821              		.loc 1 888 10 view .LVU228
 822 0008 6846     		mov	r0, sp
 823              	.LVL73:
 824              		.loc 1 888 10 view .LVU229
 825 000a FFF7FEFF 		bl	pb_field_iter_begin
 826              	.LVL74:
 827              		.loc 1 888 8 view .LVU230
 828 000e 38B1     		cbz	r0, .L74
 829              	.L75:
 889:X-CUBE-AI/App/pb_decode.c ****         return; /* Empty message type */
 890:X-CUBE-AI/App/pb_decode.c ****     
 891:X-CUBE-AI/App/pb_decode.c ****     do
 830              		.loc 1 891 5 is_stmt 1 discriminator 1 view .LVU231
 892:X-CUBE-AI/App/pb_decode.c ****     {
 893:X-CUBE-AI/App/pb_decode.c ****         pb_field_set_to_default(&iter);
 831              		.loc 1 893 9 discriminator 1 view .LVU232
ARM GAS  /tmp/ccbrCuLB.s 			page 33


 832 0010 6846     		mov	r0, sp
 833 0012 FFF7FEFF 		bl	pb_field_set_to_default
 834              	.LVL75:
 894:X-CUBE-AI/App/pb_decode.c ****     } while (pb_field_iter_next(&iter));
 835              		.loc 1 894 13 discriminator 1 view .LVU233
 836              		.loc 1 894 14 is_stmt 0 discriminator 1 view .LVU234
 837 0016 6846     		mov	r0, sp
 838 0018 FFF7FEFF 		bl	pb_field_iter_next
 839              	.LVL76:
 840              		.loc 1 894 5 discriminator 1 view .LVU235
 841 001c 0028     		cmp	r0, #0
 842 001e F7D1     		bne	.L75
 843              	.L74:
 895:X-CUBE-AI/App/pb_decode.c **** }
 844              		.loc 1 895 1 view .LVU236
 845 0020 07B0     		add	sp, sp, #28
 846              	.LCFI15:
 847              		.cfi_def_cfa_offset 4
 848              		@ sp needed
 849 0022 5DF804FB 		ldr	pc, [sp], #4
 850              		.cfi_endproc
 851              	.LFE23:
 853              		.section	.text.pb_read,"ax",%progbits
 854              		.align	1
 855              		.global	pb_read
 856              		.syntax unified
 857              		.thumb
 858              		.thumb_func
 859              		.fpu fpv4-sp-d16
 861              	pb_read:
 862              	.LVL77:
 863              	.LFB1:
 101:X-CUBE-AI/App/pb_decode.c **** #ifndef PB_BUFFER_ONLY
 864              		.loc 1 101 1 is_stmt 1 view -0
 865              		.cfi_startproc
 866              		@ args = 0, pretend = 0, frame = 16
 867              		@ frame_needed = 0, uses_anonymous_args = 0
 101:X-CUBE-AI/App/pb_decode.c **** #ifndef PB_BUFFER_ONLY
 868              		.loc 1 101 1 is_stmt 0 view .LVU238
 869 0000 30B5     		push	{r4, r5, lr}
 870              	.LCFI16:
 871              		.cfi_def_cfa_offset 12
 872              		.cfi_offset 4, -12
 873              		.cfi_offset 5, -8
 874              		.cfi_offset 14, -4
 875 0002 85B0     		sub	sp, sp, #20
 876              	.LCFI17:
 877              		.cfi_def_cfa_offset 32
 878 0004 0446     		mov	r4, r0
 879 0006 1546     		mov	r5, r2
 103:X-CUBE-AI/App/pb_decode.c **** 	{
 880              		.loc 1 103 2 is_stmt 1 view .LVU239
 103:X-CUBE-AI/App/pb_decode.c **** 	{
 881              		.loc 1 103 5 is_stmt 0 view .LVU240
 882 0008 0846     		mov	r0, r1
 883              	.LVL78:
 103:X-CUBE-AI/App/pb_decode.c **** 	{
ARM GAS  /tmp/ccbrCuLB.s 			page 34


 884              		.loc 1 103 5 view .LVU241
 885 000a 79B1     		cbz	r1, .L89
 886              	.LVL79:
 887              	.L79:
 119:X-CUBE-AI/App/pb_decode.c ****         PB_RETURN_ERROR(stream, "end-of-stream");
 888              		.loc 1 119 5 is_stmt 1 view .LVU242
 119:X-CUBE-AI/App/pb_decode.c ****         PB_RETURN_ERROR(stream, "end-of-stream");
 889              		.loc 1 119 15 is_stmt 0 view .LVU243
 890 000c A368     		ldr	r3, [r4, #8]
 119:X-CUBE-AI/App/pb_decode.c ****         PB_RETURN_ERROR(stream, "end-of-stream");
 891              		.loc 1 119 8 view .LVU244
 892 000e AB42     		cmp	r3, r5
 893 0010 23D3     		bcc	.L90
 123:X-CUBE-AI/App/pb_decode.c ****         PB_RETURN_ERROR(stream, "io error");
 894              		.loc 1 123 5 is_stmt 1 view .LVU245
 123:X-CUBE-AI/App/pb_decode.c ****         PB_RETURN_ERROR(stream, "io error");
 895              		.loc 1 123 16 is_stmt 0 view .LVU246
 896 0012 2368     		ldr	r3, [r4]
 123:X-CUBE-AI/App/pb_decode.c ****         PB_RETURN_ERROR(stream, "io error");
 897              		.loc 1 123 10 view .LVU247
 898 0014 2A46     		mov	r2, r5
 899 0016 0146     		mov	r1, r0
 900              	.LVL80:
 123:X-CUBE-AI/App/pb_decode.c ****         PB_RETURN_ERROR(stream, "io error");
 901              		.loc 1 123 10 view .LVU248
 902 0018 2046     		mov	r0, r4
 903              	.LVL81:
 123:X-CUBE-AI/App/pb_decode.c ****         PB_RETURN_ERROR(stream, "io error");
 904              		.loc 1 123 10 view .LVU249
 905 001a 9847     		blx	r3
 906              	.LVL82:
 123:X-CUBE-AI/App/pb_decode.c ****         PB_RETURN_ERROR(stream, "io error");
 907              		.loc 1 123 8 view .LVU250
 908 001c 0346     		mov	r3, r0
 909 001e 18B3     		cbz	r0, .L91
 130:X-CUBE-AI/App/pb_decode.c ****     return true;
 910              		.loc 1 130 5 is_stmt 1 view .LVU251
 130:X-CUBE-AI/App/pb_decode.c ****     return true;
 911              		.loc 1 130 24 is_stmt 0 view .LVU252
 912 0020 A268     		ldr	r2, [r4, #8]
 913 0022 521B     		subs	r2, r2, r5
 914 0024 A260     		str	r2, [r4, #8]
 131:X-CUBE-AI/App/pb_decode.c **** }
 915              		.loc 1 131 5 is_stmt 1 view .LVU253
 916              	.L83:
 132:X-CUBE-AI/App/pb_decode.c **** 
 917              		.loc 1 132 1 is_stmt 0 discriminator 1 view .LVU254
 918 0026 1846     		mov	r0, r3
 919 0028 05B0     		add	sp, sp, #20
 920              	.LCFI18:
 921              		.cfi_remember_state
 922              		.cfi_def_cfa_offset 12
 923              		@ sp needed
 924 002a 30BD     		pop	{r4, r5, pc}
 925              	.LVL83:
 926              	.L89:
 927              	.LCFI19:
ARM GAS  /tmp/ccbrCuLB.s 			page 35


 928              		.cfi_restore_state
 103:X-CUBE-AI/App/pb_decode.c **** 	{
 929              		.loc 1 103 27 discriminator 1 view .LVU255
 930 002c 2268     		ldr	r2, [r4]
 931              	.LVL84:
 103:X-CUBE-AI/App/pb_decode.c **** 	{
 932              		.loc 1 103 18 discriminator 1 view .LVU256
 933 002e 114B     		ldr	r3, .L95
 934 0030 9A42     		cmp	r2, r3
 935 0032 EBD0     		beq	.L79
 936              	.LVL85:
 937              	.L80:
 938              	.LBB9:
 107:X-CUBE-AI/App/pb_decode.c **** 		{
 939              		.loc 1 107 9 is_stmt 1 view .LVU257
 940 0034 102D     		cmp	r5, #16
 941 0036 09D9     		bls	.L92
 109:X-CUBE-AI/App/pb_decode.c **** 				return false;
 942              		.loc 1 109 4 view .LVU258
 109:X-CUBE-AI/App/pb_decode.c **** 				return false;
 943              		.loc 1 109 9 is_stmt 0 view .LVU259
 944 0038 1022     		movs	r2, #16
 945 003a 6946     		mov	r1, sp
 946 003c 2046     		mov	r0, r4
 947 003e FFF7FEFF 		bl	pb_read
 948              	.LVL86:
 109:X-CUBE-AI/App/pb_decode.c **** 				return false;
 949              		.loc 1 109 7 view .LVU260
 950 0042 0346     		mov	r3, r0
 951 0044 0028     		cmp	r0, #0
 952 0046 EED0     		beq	.L83
 112:X-CUBE-AI/App/pb_decode.c **** 		}
 953              		.loc 1 112 4 is_stmt 1 view .LVU261
 112:X-CUBE-AI/App/pb_decode.c **** 		}
 954              		.loc 1 112 10 is_stmt 0 view .LVU262
 955 0048 103D     		subs	r5, r5, #16
 956              	.LVL87:
 112:X-CUBE-AI/App/pb_decode.c **** 		}
 957              		.loc 1 112 10 view .LVU263
 958 004a F3E7     		b	.L80
 959              	.L92:
 115:X-CUBE-AI/App/pb_decode.c **** 	}
 960              		.loc 1 115 3 is_stmt 1 view .LVU264
 115:X-CUBE-AI/App/pb_decode.c **** 	}
 961              		.loc 1 115 10 is_stmt 0 view .LVU265
 962 004c 2A46     		mov	r2, r5
 963 004e 6946     		mov	r1, sp
 964 0050 2046     		mov	r0, r4
 965 0052 FFF7FEFF 		bl	pb_read
 966              	.LVL88:
 967 0056 0346     		mov	r3, r0
 968 0058 E5E7     		b	.L83
 969              	.LVL89:
 970              	.L90:
 115:X-CUBE-AI/App/pb_decode.c **** 	}
 971              		.loc 1 115 10 view .LVU266
 972              	.LBE9:
ARM GAS  /tmp/ccbrCuLB.s 			page 36


 120:X-CUBE-AI/App/pb_decode.c ****     
 973              		.loc 1 120 9 is_stmt 1 view .LVU267
 974 005a E368     		ldr	r3, [r4, #12]
 975 005c 13B1     		cbz	r3, .L93
 976              	.L85:
 120:X-CUBE-AI/App/pb_decode.c ****     
 977              		.loc 1 120 9 is_stmt 0 discriminator 4 view .LVU268
 978 005e E360     		str	r3, [r4, #12]
 979 0060 0023     		movs	r3, #0
 980 0062 E0E7     		b	.L83
 981              	.L93:
 120:X-CUBE-AI/App/pb_decode.c ****     
 982              		.loc 1 120 9 view .LVU269
 983 0064 044B     		ldr	r3, .L95+4
 984 0066 FAE7     		b	.L85
 985              	.LVL90:
 986              	.L91:
 124:X-CUBE-AI/App/pb_decode.c **** #else
 987              		.loc 1 124 9 is_stmt 1 view .LVU270
 988 0068 E268     		ldr	r2, [r4, #12]
 989 006a 0AB1     		cbz	r2, .L94
 990              	.L87:
 124:X-CUBE-AI/App/pb_decode.c **** #else
 991              		.loc 1 124 9 is_stmt 0 discriminator 4 view .LVU271
 992 006c E260     		str	r2, [r4, #12]
 993 006e DAE7     		b	.L83
 994              	.L94:
 124:X-CUBE-AI/App/pb_decode.c **** #else
 995              		.loc 1 124 9 view .LVU272
 996 0070 024A     		ldr	r2, .L95+8
 997 0072 FBE7     		b	.L87
 998              	.L96:
 999              		.align	2
 1000              	.L95:
 1001 0074 00000000 		.word	buf_read
 1002 0078 00000000 		.word	.LC0
 1003 007c 10000000 		.word	.LC1
 1004              		.cfi_endproc
 1005              	.LFE1:
 1007              		.section	.text.pb_skip_varint,"ax",%progbits
 1008              		.align	1
 1009              		.syntax unified
 1010              		.thumb
 1011              		.thumb_func
 1012              		.fpu fpv4-sp-d16
 1014              	pb_skip_varint:
 1015              	.LVL91:
 1016              	.LFB7:
 274:X-CUBE-AI/App/pb_decode.c ****     pb_byte_t byte;
 1017              		.loc 1 274 1 is_stmt 1 view -0
 1018              		.cfi_startproc
 1019              		@ args = 0, pretend = 0, frame = 8
 1020              		@ frame_needed = 0, uses_anonymous_args = 0
 274:X-CUBE-AI/App/pb_decode.c ****     pb_byte_t byte;
 1021              		.loc 1 274 1 is_stmt 0 view .LVU274
 1022 0000 10B5     		push	{r4, lr}
 1023              	.LCFI20:
ARM GAS  /tmp/ccbrCuLB.s 			page 37


 1024              		.cfi_def_cfa_offset 8
 1025              		.cfi_offset 4, -8
 1026              		.cfi_offset 14, -4
 1027 0002 82B0     		sub	sp, sp, #8
 1028              	.LCFI21:
 1029              		.cfi_def_cfa_offset 16
 1030 0004 0446     		mov	r4, r0
 1031              	.LVL92:
 1032              	.L99:
 275:X-CUBE-AI/App/pb_decode.c ****     do
 1033              		.loc 1 275 5 is_stmt 1 view .LVU275
 276:X-CUBE-AI/App/pb_decode.c ****     {
 1034              		.loc 1 276 5 view .LVU276
 278:X-CUBE-AI/App/pb_decode.c ****             return false;
 1035              		.loc 1 278 9 view .LVU277
 278:X-CUBE-AI/App/pb_decode.c ****             return false;
 1036              		.loc 1 278 14 is_stmt 0 view .LVU278
 1037 0006 0122     		movs	r2, #1
 1038 0008 0DF10701 		add	r1, sp, #7
 1039 000c 2046     		mov	r0, r4
 1040 000e FFF7FEFF 		bl	pb_read
 1041              	.LVL93:
 278:X-CUBE-AI/App/pb_decode.c ****             return false;
 1042              		.loc 1 278 12 view .LVU279
 1043 0012 0246     		mov	r2, r0
 1044 0014 18B1     		cbz	r0, .L98
 280:X-CUBE-AI/App/pb_decode.c ****     return true;
 1045              		.loc 1 280 13 is_stmt 1 view .LVU280
 280:X-CUBE-AI/App/pb_decode.c ****     return true;
 1046              		.loc 1 280 14 is_stmt 0 view .LVU281
 1047 0016 9DF90730 		ldrsb	r3, [sp, #7]
 280:X-CUBE-AI/App/pb_decode.c ****     return true;
 1048              		.loc 1 280 5 view .LVU282
 1049 001a 002B     		cmp	r3, #0
 1050 001c F3DB     		blt	.L99
 1051              	.L98:
 282:X-CUBE-AI/App/pb_decode.c **** 
 1052              		.loc 1 282 1 view .LVU283
 1053 001e 1046     		mov	r0, r2
 1054 0020 02B0     		add	sp, sp, #8
 1055              	.LCFI22:
 1056              		.cfi_def_cfa_offset 8
 1057              		@ sp needed
 1058 0022 10BD     		pop	{r4, pc}
 282:X-CUBE-AI/App/pb_decode.c **** 
 1059              		.loc 1 282 1 view .LVU284
 1060              		.cfi_endproc
 1061              	.LFE7:
 1063              		.section	.rodata.read_raw_value.str1.4,"aMS",%progbits,1
 1064              		.align	2
 1065              	.LC4:
 1066 0000 696E7661 		.ascii	"invalid wire_type\000"
 1066      6C696420 
 1066      77697265 
 1066      5F747970 
 1066      6500
 1067              		.section	.text.read_raw_value,"ax",%progbits
ARM GAS  /tmp/ccbrCuLB.s 			page 38


 1068              		.align	1
 1069              		.syntax unified
 1070              		.thumb
 1071              		.thumb_func
 1072              		.fpu fpv4-sp-d16
 1074              	read_raw_value:
 1075              	.LVL94:
 1076              	.LFB11:
 332:X-CUBE-AI/App/pb_decode.c ****     size_t max_size = *size;
 1077              		.loc 1 332 1 is_stmt 1 view -0
 1078              		.cfi_startproc
 1079              		@ args = 0, pretend = 0, frame = 0
 1080              		@ frame_needed = 0, uses_anonymous_args = 0
 332:X-CUBE-AI/App/pb_decode.c ****     size_t max_size = *size;
 1081              		.loc 1 332 1 is_stmt 0 view .LVU286
 1082 0000 F8B5     		push	{r3, r4, r5, r6, r7, lr}
 1083              	.LCFI23:
 1084              		.cfi_def_cfa_offset 24
 1085              		.cfi_offset 3, -24
 1086              		.cfi_offset 4, -20
 1087              		.cfi_offset 5, -16
 1088              		.cfi_offset 6, -12
 1089              		.cfi_offset 7, -8
 1090              		.cfi_offset 14, -4
 1091 0002 0646     		mov	r6, r0
 1092 0004 1446     		mov	r4, r2
 1093 0006 1D46     		mov	r5, r3
 333:X-CUBE-AI/App/pb_decode.c ****     switch (wire_type)
 1094              		.loc 1 333 5 is_stmt 1 view .LVU287
 333:X-CUBE-AI/App/pb_decode.c ****     switch (wire_type)
 1095              		.loc 1 333 12 is_stmt 0 view .LVU288
 1096 0008 1F68     		ldr	r7, [r3]
 1097              	.LVL95:
 334:X-CUBE-AI/App/pb_decode.c ****     {
 1098              		.loc 1 334 5 is_stmt 1 view .LVU289
 1099 000a 0129     		cmp	r1, #1
 1100 000c 1DD0     		beq	.L102
 1101 000e 0529     		cmp	r1, #5
 1102 0010 23D0     		beq	.L103
 1103 0012 21B1     		cbz	r1, .L111
 360:X-CUBE-AI/App/pb_decode.c ****     }
 1104              		.loc 1 360 18 view .LVU290
 1105 0014 C368     		ldr	r3, [r0, #12]
 1106              	.LVL96:
 360:X-CUBE-AI/App/pb_decode.c ****     }
 1107              		.loc 1 360 18 is_stmt 0 view .LVU291
 1108 0016 3BB3     		cbz	r3, .L112
 1109              	.L107:
 360:X-CUBE-AI/App/pb_decode.c ****     }
 1110              		.loc 1 360 18 discriminator 4 view .LVU292
 1111 0018 F360     		str	r3, [r6, #12]
 1112 001a 0023     		movs	r3, #0
 1113 001c 1BE0     		b	.L105
 1114              	.LVL97:
 1115              	.L111:
 337:X-CUBE-AI/App/pb_decode.c ****             do
 1116              		.loc 1 337 13 is_stmt 1 view .LVU293
ARM GAS  /tmp/ccbrCuLB.s 			page 39


 337:X-CUBE-AI/App/pb_decode.c ****             do
 1117              		.loc 1 337 19 is_stmt 0 view .LVU294
 1118 001e 0023     		movs	r3, #0
 1119              	.LVL98:
 337:X-CUBE-AI/App/pb_decode.c ****             do
 1120              		.loc 1 337 19 view .LVU295
 1121 0020 2B60     		str	r3, [r5]
 1122 0022 00E0     		b	.L106
 1123              	.LVL99:
 1124              	.L109:
 343:X-CUBE-AI/App/pb_decode.c ****             return true;
 1125              		.loc 1 343 26 view .LVU296
 1126 0024 0C46     		mov	r4, r1
 1127              	.LVL100:
 1128              	.L106:
 338:X-CUBE-AI/App/pb_decode.c ****             {
 1129              		.loc 1 338 13 is_stmt 1 view .LVU297
 340:X-CUBE-AI/App/pb_decode.c ****                 if (*size > max_size) return false;
 1130              		.loc 1 340 17 view .LVU298
 340:X-CUBE-AI/App/pb_decode.c ****                 if (*size > max_size) return false;
 1131              		.loc 1 340 18 is_stmt 0 view .LVU299
 1132 0026 2968     		ldr	r1, [r5]
 340:X-CUBE-AI/App/pb_decode.c ****                 if (*size > max_size) return false;
 1133              		.loc 1 340 24 view .LVU300
 1134 0028 0131     		adds	r1, r1, #1
 1135 002a 2960     		str	r1, [r5]
 341:X-CUBE-AI/App/pb_decode.c ****                 if (!pb_read(stream, buf, 1)) return false;
 1136              		.loc 1 341 17 is_stmt 1 view .LVU301
 341:X-CUBE-AI/App/pb_decode.c ****                 if (!pb_read(stream, buf, 1)) return false;
 1137              		.loc 1 341 20 is_stmt 0 view .LVU302
 1138 002c B942     		cmp	r1, r7
 1139 002e 1DD8     		bhi	.L108
 342:X-CUBE-AI/App/pb_decode.c ****             } while (*buf++ & 0x80);
 1140              		.loc 1 342 17 is_stmt 1 view .LVU303
 342:X-CUBE-AI/App/pb_decode.c ****             } while (*buf++ & 0x80);
 1141              		.loc 1 342 22 is_stmt 0 view .LVU304
 1142 0030 0122     		movs	r2, #1
 1143 0032 2146     		mov	r1, r4
 1144 0034 3046     		mov	r0, r6
 1145 0036 FFF7FEFF 		bl	pb_read
 1146              	.LVL101:
 342:X-CUBE-AI/App/pb_decode.c ****             } while (*buf++ & 0x80);
 1147              		.loc 1 342 20 view .LVU305
 1148 003a 0346     		mov	r3, r0
 1149 003c 58B1     		cbz	r0, .L105
 343:X-CUBE-AI/App/pb_decode.c ****             return true;
 1150              		.loc 1 343 21 is_stmt 1 view .LVU306
 343:X-CUBE-AI/App/pb_decode.c ****             return true;
 1151              		.loc 1 343 26 is_stmt 0 view .LVU307
 1152 003e 2146     		mov	r1, r4
 1153              	.LVL102:
 343:X-CUBE-AI/App/pb_decode.c ****             return true;
 1154              		.loc 1 343 22 view .LVU308
 1155 0040 11F9012B 		ldrsb	r2, [r1], #1
 1156              	.LVL103:
 343:X-CUBE-AI/App/pb_decode.c ****             return true;
 1157              		.loc 1 343 13 view .LVU309
ARM GAS  /tmp/ccbrCuLB.s 			page 40


 1158 0044 002A     		cmp	r2, #0
 1159 0046 EDDB     		blt	.L109
 1160 0048 05E0     		b	.L105
 1161              	.LVL104:
 1162              	.L102:
 347:X-CUBE-AI/App/pb_decode.c ****             return pb_read(stream, buf, 8);
 1163              		.loc 1 347 13 is_stmt 1 view .LVU310
 347:X-CUBE-AI/App/pb_decode.c ****             return pb_read(stream, buf, 8);
 1164              		.loc 1 347 19 is_stmt 0 view .LVU311
 1165 004a 0822     		movs	r2, #8
 1166              	.LVL105:
 347:X-CUBE-AI/App/pb_decode.c ****             return pb_read(stream, buf, 8);
 1167              		.loc 1 347 19 view .LVU312
 1168 004c 1A60     		str	r2, [r3]
 348:X-CUBE-AI/App/pb_decode.c ****         
 1169              		.loc 1 348 13 is_stmt 1 view .LVU313
 348:X-CUBE-AI/App/pb_decode.c ****         
 1170              		.loc 1 348 20 is_stmt 0 view .LVU314
 1171 004e 2146     		mov	r1, r4
 1172              	.LVL106:
 348:X-CUBE-AI/App/pb_decode.c ****         
 1173              		.loc 1 348 20 view .LVU315
 1174 0050 FFF7FEFF 		bl	pb_read
 1175              	.LVL107:
 348:X-CUBE-AI/App/pb_decode.c ****         
 1176              		.loc 1 348 20 view .LVU316
 1177 0054 0346     		mov	r3, r0
 1178              	.LVL108:
 1179              	.L105:
 362:X-CUBE-AI/App/pb_decode.c **** 
 1180              		.loc 1 362 1 view .LVU317
 1181 0056 1846     		mov	r0, r3
 1182 0058 F8BD     		pop	{r3, r4, r5, r6, r7, pc}
 1183              	.LVL109:
 1184              	.L103:
 351:X-CUBE-AI/App/pb_decode.c ****             return pb_read(stream, buf, 4);
 1185              		.loc 1 351 13 is_stmt 1 view .LVU318
 351:X-CUBE-AI/App/pb_decode.c ****             return pb_read(stream, buf, 4);
 1186              		.loc 1 351 19 is_stmt 0 view .LVU319
 1187 005a 0422     		movs	r2, #4
 1188              	.LVL110:
 351:X-CUBE-AI/App/pb_decode.c ****             return pb_read(stream, buf, 4);
 1189              		.loc 1 351 19 view .LVU320
 1190 005c 1A60     		str	r2, [r3]
 352:X-CUBE-AI/App/pb_decode.c ****         
 1191              		.loc 1 352 13 is_stmt 1 view .LVU321
 352:X-CUBE-AI/App/pb_decode.c ****         
 1192              		.loc 1 352 20 is_stmt 0 view .LVU322
 1193 005e 2146     		mov	r1, r4
 1194              	.LVL111:
 352:X-CUBE-AI/App/pb_decode.c ****         
 1195              		.loc 1 352 20 view .LVU323
 1196 0060 FFF7FEFF 		bl	pb_read
 1197              	.LVL112:
 352:X-CUBE-AI/App/pb_decode.c ****         
 1198              		.loc 1 352 20 view .LVU324
 1199 0064 0346     		mov	r3, r0
ARM GAS  /tmp/ccbrCuLB.s 			page 41


 1200 0066 F6E7     		b	.L105
 1201              	.LVL113:
 1202              	.L112:
 360:X-CUBE-AI/App/pb_decode.c ****     }
 1203              		.loc 1 360 18 view .LVU325
 1204 0068 014B     		ldr	r3, .L113
 1205 006a D5E7     		b	.L107
 1206              	.LVL114:
 1207              	.L108:
 341:X-CUBE-AI/App/pb_decode.c ****                 if (!pb_read(stream, buf, 1)) return false;
 1208              		.loc 1 341 46 view .LVU326
 1209 006c 0023     		movs	r3, #0
 1210 006e F2E7     		b	.L105
 1211              	.L114:
 1212              		.align	2
 1213              	.L113:
 1214 0070 00000000 		.word	.LC4
 1215              		.cfi_endproc
 1216              	.LFE11:
 1218              		.section	.text.pb_istream_from_buffer,"ax",%progbits
 1219              		.align	1
 1220              		.global	pb_istream_from_buffer
 1221              		.syntax unified
 1222              		.thumb
 1223              		.thumb_func
 1224              		.fpu fpv4-sp-d16
 1226              	pb_istream_from_buffer:
 1227              	.LVL115:
 1228              	.LFB3:
 155:X-CUBE-AI/App/pb_decode.c ****     pb_istream_t stream;
 1229              		.loc 1 155 1 is_stmt 1 view -0
 1230              		.cfi_startproc
 1231              		@ args = 0, pretend = 0, frame = 0
 1232              		@ frame_needed = 0, uses_anonymous_args = 0
 1233              		@ link register save eliminated.
 155:X-CUBE-AI/App/pb_decode.c ****     pb_istream_t stream;
 1234              		.loc 1 155 1 is_stmt 0 view .LVU328
 1235 0000 10B4     		push	{r4}
 1236              	.LCFI24:
 1237              		.cfi_def_cfa_offset 4
 1238              		.cfi_offset 4, -4
 156:X-CUBE-AI/App/pb_decode.c ****     /* Cast away the const from buf without a compiler error.  We are
 1239              		.loc 1 156 5 is_stmt 1 view .LVU329
 160:X-CUBE-AI/App/pb_decode.c ****         void *state;
 1240              		.loc 1 160 5 view .LVU330
 167:X-CUBE-AI/App/pb_decode.c **** #endif
 1241              		.loc 1 167 5 view .LVU331
 167:X-CUBE-AI/App/pb_decode.c **** #endif
 1242              		.loc 1 167 21 is_stmt 0 view .LVU332
 1243 0002 044C     		ldr	r4, .L117
 1244 0004 0460     		str	r4, [r0]
 169:X-CUBE-AI/App/pb_decode.c ****     stream.state = state.state;
 1245              		.loc 1 169 5 is_stmt 1 view .LVU333
 170:X-CUBE-AI/App/pb_decode.c ****     stream.bytes_left = bufsize;
 1246              		.loc 1 170 5 view .LVU334
 170:X-CUBE-AI/App/pb_decode.c ****     stream.bytes_left = bufsize;
 1247              		.loc 1 170 18 is_stmt 0 view .LVU335
ARM GAS  /tmp/ccbrCuLB.s 			page 42


 1248 0006 4160     		str	r1, [r0, #4]
 171:X-CUBE-AI/App/pb_decode.c **** #ifndef PB_NO_ERRMSG
 1249              		.loc 1 171 5 is_stmt 1 view .LVU336
 171:X-CUBE-AI/App/pb_decode.c **** #ifndef PB_NO_ERRMSG
 1250              		.loc 1 171 23 is_stmt 0 view .LVU337
 1251 0008 8260     		str	r2, [r0, #8]
 173:X-CUBE-AI/App/pb_decode.c **** #endif
 1252              		.loc 1 173 5 is_stmt 1 view .LVU338
 173:X-CUBE-AI/App/pb_decode.c **** #endif
 1253              		.loc 1 173 19 is_stmt 0 view .LVU339
 1254 000a 0022     		movs	r2, #0
 1255              	.LVL116:
 173:X-CUBE-AI/App/pb_decode.c **** #endif
 1256              		.loc 1 173 19 view .LVU340
 1257 000c C260     		str	r2, [r0, #12]
 175:X-CUBE-AI/App/pb_decode.c **** }
 1258              		.loc 1 175 5 is_stmt 1 view .LVU341
 176:X-CUBE-AI/App/pb_decode.c **** 
 1259              		.loc 1 176 1 is_stmt 0 view .LVU342
 1260 000e 5DF8044B 		ldr	r4, [sp], #4
 1261              	.LCFI25:
 1262              		.cfi_restore 4
 1263              		.cfi_def_cfa_offset 0
 1264 0012 7047     		bx	lr
 1265              	.L118:
 1266              		.align	2
 1267              	.L117:
 1268 0014 00000000 		.word	buf_read
 1269              		.cfi_endproc
 1270              	.LFE3:
 1272              		.section	.text.pb_decode_varint32,"ax",%progbits
 1273              		.align	1
 1274              		.global	pb_decode_varint32
 1275              		.syntax unified
 1276              		.thumb
 1277              		.thumb_func
 1278              		.fpu fpv4-sp-d16
 1280              	pb_decode_varint32:
 1281              	.LVL117:
 1282              	.LFB5:
 245:X-CUBE-AI/App/pb_decode.c ****     return pb_decode_varint32_eof(stream, dest, NULL);
 1283              		.loc 1 245 1 is_stmt 1 view -0
 1284              		.cfi_startproc
 1285              		@ args = 0, pretend = 0, frame = 0
 1286              		@ frame_needed = 0, uses_anonymous_args = 0
 245:X-CUBE-AI/App/pb_decode.c ****     return pb_decode_varint32_eof(stream, dest, NULL);
 1287              		.loc 1 245 1 is_stmt 0 view .LVU344
 1288 0000 08B5     		push	{r3, lr}
 1289              	.LCFI26:
 1290              		.cfi_def_cfa_offset 8
 1291              		.cfi_offset 3, -8
 1292              		.cfi_offset 14, -4
 246:X-CUBE-AI/App/pb_decode.c **** }
 1293              		.loc 1 246 5 is_stmt 1 view .LVU345
 246:X-CUBE-AI/App/pb_decode.c **** }
 1294              		.loc 1 246 12 is_stmt 0 view .LVU346
 1295 0002 0022     		movs	r2, #0
ARM GAS  /tmp/ccbrCuLB.s 			page 43


 1296 0004 FFF7FEFF 		bl	pb_decode_varint32_eof
 1297              	.LVL118:
 247:X-CUBE-AI/App/pb_decode.c **** 
 1298              		.loc 1 247 1 view .LVU347
 1299 0008 08BD     		pop	{r3, pc}
 1300              		.cfi_endproc
 1301              	.LFE5:
 1303              		.section	.text.pb_skip_string,"ax",%progbits
 1304              		.align	1
 1305              		.syntax unified
 1306              		.thumb
 1307              		.thumb_func
 1308              		.fpu fpv4-sp-d16
 1310              	pb_skip_string:
 1311              	.LVL119:
 1312              	.LFB8:
 285:X-CUBE-AI/App/pb_decode.c ****     uint32_t length;
 1313              		.loc 1 285 1 is_stmt 1 view -0
 1314              		.cfi_startproc
 1315              		@ args = 0, pretend = 0, frame = 8
 1316              		@ frame_needed = 0, uses_anonymous_args = 0
 285:X-CUBE-AI/App/pb_decode.c ****     uint32_t length;
 1317              		.loc 1 285 1 is_stmt 0 view .LVU349
 1318 0000 10B5     		push	{r4, lr}
 1319              	.LCFI27:
 1320              		.cfi_def_cfa_offset 8
 1321              		.cfi_offset 4, -8
 1322              		.cfi_offset 14, -4
 1323 0002 82B0     		sub	sp, sp, #8
 1324              	.LCFI28:
 1325              		.cfi_def_cfa_offset 16
 1326 0004 0446     		mov	r4, r0
 286:X-CUBE-AI/App/pb_decode.c ****     if (!pb_decode_varint32(stream, &length))
 1327              		.loc 1 286 5 is_stmt 1 view .LVU350
 287:X-CUBE-AI/App/pb_decode.c ****         return false;
 1328              		.loc 1 287 5 view .LVU351
 287:X-CUBE-AI/App/pb_decode.c ****         return false;
 1329              		.loc 1 287 10 is_stmt 0 view .LVU352
 1330 0006 01A9     		add	r1, sp, #4
 1331 0008 FFF7FEFF 		bl	pb_decode_varint32
 1332              	.LVL120:
 287:X-CUBE-AI/App/pb_decode.c ****         return false;
 1333              		.loc 1 287 8 view .LVU353
 1334 000c 08B9     		cbnz	r0, .L124
 1335              	.L122:
 291:X-CUBE-AI/App/pb_decode.c **** 
 1336              		.loc 1 291 1 view .LVU354
 1337 000e 02B0     		add	sp, sp, #8
 1338              	.LCFI29:
 1339              		.cfi_remember_state
 1340              		.cfi_def_cfa_offset 8
 1341              		@ sp needed
 1342 0010 10BD     		pop	{r4, pc}
 1343              	.LVL121:
 1344              	.L124:
 1345              	.LCFI30:
 1346              		.cfi_restore_state
ARM GAS  /tmp/ccbrCuLB.s 			page 44


 290:X-CUBE-AI/App/pb_decode.c **** }
 1347              		.loc 1 290 5 is_stmt 1 view .LVU355
 290:X-CUBE-AI/App/pb_decode.c **** }
 1348              		.loc 1 290 12 is_stmt 0 view .LVU356
 1349 0012 019A     		ldr	r2, [sp, #4]
 1350 0014 0021     		movs	r1, #0
 1351 0016 2046     		mov	r0, r4
 1352 0018 FFF7FEFF 		bl	pb_read
 1353              	.LVL122:
 1354 001c F7E7     		b	.L122
 1355              		.cfi_endproc
 1356              	.LFE8:
 1358              		.section	.rodata.pb_dec_fixed_length_bytes.str1.4,"aMS",%progbits,1
 1359              		.align	2
 1360              	.LC5:
 1361 0000 62797465 		.ascii	"bytes overflow\000"
 1361      73206F76 
 1361      6572666C 
 1361      6F7700
 1362 000f 00       		.align	2
 1363              	.LC6:
 1364 0010 696E636F 		.ascii	"incorrect fixed length bytes size\000"
 1364      72726563 
 1364      74206669 
 1364      78656420 
 1364      6C656E67 
 1365              		.section	.text.pb_dec_fixed_length_bytes,"ax",%progbits
 1366              		.align	1
 1367              		.syntax unified
 1368              		.thumb
 1369              		.thumb_func
 1370              		.fpu fpv4-sp-d16
 1372              	pb_dec_fixed_length_bytes:
 1373              	.LVL123:
 1374              	.LFB40:
 896:X-CUBE-AI/App/pb_decode.c **** 
 897:X-CUBE-AI/App/pb_decode.c **** /*********************
 898:X-CUBE-AI/App/pb_decode.c ****  * Decode all fields *
 899:X-CUBE-AI/App/pb_decode.c ****  *********************/
 900:X-CUBE-AI/App/pb_decode.c **** 
 901:X-CUBE-AI/App/pb_decode.c **** bool checkreturn pb_decode_noinit(pb_istream_t *stream, const pb_field_t fields[], void *dest_struc
 902:X-CUBE-AI/App/pb_decode.c **** {
 903:X-CUBE-AI/App/pb_decode.c ****     uint32_t fields_seen[(PB_MAX_REQUIRED_FIELDS + 31) / 32] = {0, 0};
 904:X-CUBE-AI/App/pb_decode.c ****     const uint32_t allbits = ~(uint32_t)0;
 905:X-CUBE-AI/App/pb_decode.c ****     uint32_t extension_range_start = 0;
 906:X-CUBE-AI/App/pb_decode.c ****     pb_field_iter_t iter;
 907:X-CUBE-AI/App/pb_decode.c **** 
 908:X-CUBE-AI/App/pb_decode.c ****     /* 'fixed_count_field' and 'fixed_count_size' track position of a repeated fixed
 909:X-CUBE-AI/App/pb_decode.c ****      * count field. This can only handle _one_ repeated fixed count field that
 910:X-CUBE-AI/App/pb_decode.c ****      * is unpacked and unordered among other (non repeated fixed count) fields.
 911:X-CUBE-AI/App/pb_decode.c ****      */
 912:X-CUBE-AI/App/pb_decode.c ****     const pb_field_t *fixed_count_field = NULL;
 913:X-CUBE-AI/App/pb_decode.c ****     pb_size_t fixed_count_size = 0;
 914:X-CUBE-AI/App/pb_decode.c **** 
 915:X-CUBE-AI/App/pb_decode.c ****     /* Return value ignored, as empty message types will be correctly handled by
 916:X-CUBE-AI/App/pb_decode.c ****      * pb_field_iter_find() anyway. */
 917:X-CUBE-AI/App/pb_decode.c ****     (void)pb_field_iter_begin(&iter, fields, dest_struct);
ARM GAS  /tmp/ccbrCuLB.s 			page 45


 918:X-CUBE-AI/App/pb_decode.c **** 
 919:X-CUBE-AI/App/pb_decode.c ****     while (stream->bytes_left)
 920:X-CUBE-AI/App/pb_decode.c ****     {
 921:X-CUBE-AI/App/pb_decode.c ****         uint32_t tag;
 922:X-CUBE-AI/App/pb_decode.c ****         pb_wire_type_t wire_type;
 923:X-CUBE-AI/App/pb_decode.c ****         bool eof;
 924:X-CUBE-AI/App/pb_decode.c **** 
 925:X-CUBE-AI/App/pb_decode.c ****         if (!pb_decode_tag(stream, &wire_type, &tag, &eof))
 926:X-CUBE-AI/App/pb_decode.c ****         {
 927:X-CUBE-AI/App/pb_decode.c ****             if (eof)
 928:X-CUBE-AI/App/pb_decode.c ****                 break;
 929:X-CUBE-AI/App/pb_decode.c ****             else
 930:X-CUBE-AI/App/pb_decode.c ****                 return false;
 931:X-CUBE-AI/App/pb_decode.c ****         }
 932:X-CUBE-AI/App/pb_decode.c **** 
 933:X-CUBE-AI/App/pb_decode.c ****         if (!pb_field_iter_find(&iter, tag))
 934:X-CUBE-AI/App/pb_decode.c ****         {
 935:X-CUBE-AI/App/pb_decode.c ****             /* No match found, check if it matches an extension. */
 936:X-CUBE-AI/App/pb_decode.c ****             if (tag >= extension_range_start)
 937:X-CUBE-AI/App/pb_decode.c ****             {
 938:X-CUBE-AI/App/pb_decode.c ****                 if (!find_extension_field(&iter))
 939:X-CUBE-AI/App/pb_decode.c ****                     extension_range_start = (uint32_t)-1;
 940:X-CUBE-AI/App/pb_decode.c ****                 else
 941:X-CUBE-AI/App/pb_decode.c ****                     extension_range_start = iter.pos->tag;
 942:X-CUBE-AI/App/pb_decode.c **** 
 943:X-CUBE-AI/App/pb_decode.c ****                 if (tag >= extension_range_start)
 944:X-CUBE-AI/App/pb_decode.c ****                 {
 945:X-CUBE-AI/App/pb_decode.c ****                     size_t pos = stream->bytes_left;
 946:X-CUBE-AI/App/pb_decode.c **** 
 947:X-CUBE-AI/App/pb_decode.c ****                     if (!decode_extension(stream, tag, wire_type, &iter))
 948:X-CUBE-AI/App/pb_decode.c ****                         return false;
 949:X-CUBE-AI/App/pb_decode.c **** 
 950:X-CUBE-AI/App/pb_decode.c ****                     if (pos != stream->bytes_left)
 951:X-CUBE-AI/App/pb_decode.c ****                     {
 952:X-CUBE-AI/App/pb_decode.c ****                         /* The field was handled */
 953:X-CUBE-AI/App/pb_decode.c ****                         continue;
 954:X-CUBE-AI/App/pb_decode.c ****                     }
 955:X-CUBE-AI/App/pb_decode.c ****                 }
 956:X-CUBE-AI/App/pb_decode.c ****             }
 957:X-CUBE-AI/App/pb_decode.c **** 
 958:X-CUBE-AI/App/pb_decode.c ****             /* No match found, skip data */
 959:X-CUBE-AI/App/pb_decode.c ****             if (!pb_skip_field(stream, wire_type))
 960:X-CUBE-AI/App/pb_decode.c ****                 return false;
 961:X-CUBE-AI/App/pb_decode.c ****             continue;
 962:X-CUBE-AI/App/pb_decode.c ****         }
 963:X-CUBE-AI/App/pb_decode.c **** 
 964:X-CUBE-AI/App/pb_decode.c ****         /* If a repeated fixed count field was found, get size from
 965:X-CUBE-AI/App/pb_decode.c ****          * 'fixed_count_field' as there is no counter contained in the struct.
 966:X-CUBE-AI/App/pb_decode.c ****          */
 967:X-CUBE-AI/App/pb_decode.c ****         if (PB_HTYPE(iter.pos->type) == PB_HTYPE_REPEATED
 968:X-CUBE-AI/App/pb_decode.c ****             && iter.pSize == iter.pData)
 969:X-CUBE-AI/App/pb_decode.c ****         {
 970:X-CUBE-AI/App/pb_decode.c ****             if (fixed_count_field != iter.pos) {
 971:X-CUBE-AI/App/pb_decode.c ****                 /* If the new fixed count field does not match the previous one,
 972:X-CUBE-AI/App/pb_decode.c ****                  * check that the previous one is NULL or that it finished
 973:X-CUBE-AI/App/pb_decode.c ****                  * receiving all the expected data.
 974:X-CUBE-AI/App/pb_decode.c ****                  */
ARM GAS  /tmp/ccbrCuLB.s 			page 46


 975:X-CUBE-AI/App/pb_decode.c ****                 if (fixed_count_field != NULL &&
 976:X-CUBE-AI/App/pb_decode.c ****                     fixed_count_size != fixed_count_field->array_size)
 977:X-CUBE-AI/App/pb_decode.c ****                 {
 978:X-CUBE-AI/App/pb_decode.c ****                     PB_RETURN_ERROR(stream, "wrong size for fixed count field");
 979:X-CUBE-AI/App/pb_decode.c ****                 }
 980:X-CUBE-AI/App/pb_decode.c **** 
 981:X-CUBE-AI/App/pb_decode.c ****                 fixed_count_field = iter.pos;
 982:X-CUBE-AI/App/pb_decode.c ****                 fixed_count_size = 0;
 983:X-CUBE-AI/App/pb_decode.c ****             }
 984:X-CUBE-AI/App/pb_decode.c **** 
 985:X-CUBE-AI/App/pb_decode.c ****             iter.pSize = &fixed_count_size;
 986:X-CUBE-AI/App/pb_decode.c ****         }
 987:X-CUBE-AI/App/pb_decode.c **** 
 988:X-CUBE-AI/App/pb_decode.c ****         if (PB_HTYPE(iter.pos->type) == PB_HTYPE_REQUIRED
 989:X-CUBE-AI/App/pb_decode.c ****             && iter.required_field_index < PB_MAX_REQUIRED_FIELDS)
 990:X-CUBE-AI/App/pb_decode.c ****         {
 991:X-CUBE-AI/App/pb_decode.c ****             uint32_t tmp = ((uint32_t)1 << (iter.required_field_index & 31));
 992:X-CUBE-AI/App/pb_decode.c ****             fields_seen[iter.required_field_index >> 5] |= tmp;
 993:X-CUBE-AI/App/pb_decode.c ****         }
 994:X-CUBE-AI/App/pb_decode.c **** 
 995:X-CUBE-AI/App/pb_decode.c ****         if (!decode_field(stream, wire_type, &iter))
 996:X-CUBE-AI/App/pb_decode.c ****             return false;
 997:X-CUBE-AI/App/pb_decode.c ****     }
 998:X-CUBE-AI/App/pb_decode.c **** 
 999:X-CUBE-AI/App/pb_decode.c ****     /* Check that all elements of the last decoded fixed count field were present. */
1000:X-CUBE-AI/App/pb_decode.c ****     if (fixed_count_field != NULL &&
1001:X-CUBE-AI/App/pb_decode.c ****         fixed_count_size != fixed_count_field->array_size)
1002:X-CUBE-AI/App/pb_decode.c ****     {
1003:X-CUBE-AI/App/pb_decode.c ****         PB_RETURN_ERROR(stream, "wrong size for fixed count field");
1004:X-CUBE-AI/App/pb_decode.c ****     }
1005:X-CUBE-AI/App/pb_decode.c **** 
1006:X-CUBE-AI/App/pb_decode.c ****     /* Check that all required fields were present. */
1007:X-CUBE-AI/App/pb_decode.c ****     {
1008:X-CUBE-AI/App/pb_decode.c ****         /* First figure out the number of required fields by
1009:X-CUBE-AI/App/pb_decode.c ****          * seeking to the end of the field array. Usually we
1010:X-CUBE-AI/App/pb_decode.c ****          * are already close to end after decoding.
1011:X-CUBE-AI/App/pb_decode.c ****          */
1012:X-CUBE-AI/App/pb_decode.c ****         unsigned req_field_count;
1013:X-CUBE-AI/App/pb_decode.c ****         pb_type_t last_type;
1014:X-CUBE-AI/App/pb_decode.c ****         unsigned i;
1015:X-CUBE-AI/App/pb_decode.c ****         do {
1016:X-CUBE-AI/App/pb_decode.c ****             req_field_count = iter.required_field_index;
1017:X-CUBE-AI/App/pb_decode.c ****             last_type = iter.pos->type;
1018:X-CUBE-AI/App/pb_decode.c ****         } while (pb_field_iter_next(&iter));
1019:X-CUBE-AI/App/pb_decode.c ****         
1020:X-CUBE-AI/App/pb_decode.c ****         /* Fixup if last field was also required. */
1021:X-CUBE-AI/App/pb_decode.c ****         if (PB_HTYPE(last_type) == PB_HTYPE_REQUIRED && iter.pos->tag != 0)
1022:X-CUBE-AI/App/pb_decode.c ****             req_field_count++;
1023:X-CUBE-AI/App/pb_decode.c ****         
1024:X-CUBE-AI/App/pb_decode.c ****         if (req_field_count > PB_MAX_REQUIRED_FIELDS)
1025:X-CUBE-AI/App/pb_decode.c ****             req_field_count = PB_MAX_REQUIRED_FIELDS;
1026:X-CUBE-AI/App/pb_decode.c **** 
1027:X-CUBE-AI/App/pb_decode.c ****         if (req_field_count > 0)
1028:X-CUBE-AI/App/pb_decode.c ****         {
1029:X-CUBE-AI/App/pb_decode.c ****             /* Check the whole words */
1030:X-CUBE-AI/App/pb_decode.c ****             for (i = 0; i < (req_field_count >> 5); i++)
1031:X-CUBE-AI/App/pb_decode.c ****             {
ARM GAS  /tmp/ccbrCuLB.s 			page 47


1032:X-CUBE-AI/App/pb_decode.c ****                 if (fields_seen[i] != allbits)
1033:X-CUBE-AI/App/pb_decode.c ****                     PB_RETURN_ERROR(stream, "missing required field");
1034:X-CUBE-AI/App/pb_decode.c ****             }
1035:X-CUBE-AI/App/pb_decode.c ****             
1036:X-CUBE-AI/App/pb_decode.c ****             /* Check the remaining bits (if any) */
1037:X-CUBE-AI/App/pb_decode.c ****             if ((req_field_count & 31) != 0)
1038:X-CUBE-AI/App/pb_decode.c ****             {
1039:X-CUBE-AI/App/pb_decode.c ****                 if (fields_seen[req_field_count >> 5] !=
1040:X-CUBE-AI/App/pb_decode.c ****                     (allbits >> (32 - (req_field_count & 31))))
1041:X-CUBE-AI/App/pb_decode.c ****                 {
1042:X-CUBE-AI/App/pb_decode.c ****                     PB_RETURN_ERROR(stream, "missing required field");
1043:X-CUBE-AI/App/pb_decode.c ****                 }
1044:X-CUBE-AI/App/pb_decode.c ****             }
1045:X-CUBE-AI/App/pb_decode.c ****         }
1046:X-CUBE-AI/App/pb_decode.c ****     }
1047:X-CUBE-AI/App/pb_decode.c ****     
1048:X-CUBE-AI/App/pb_decode.c ****     return true;
1049:X-CUBE-AI/App/pb_decode.c **** }
1050:X-CUBE-AI/App/pb_decode.c **** 
1051:X-CUBE-AI/App/pb_decode.c **** bool checkreturn pb_decode(pb_istream_t *stream, const pb_field_t fields[], void *dest_struct)
1052:X-CUBE-AI/App/pb_decode.c **** {
1053:X-CUBE-AI/App/pb_decode.c ****     bool status;
1054:X-CUBE-AI/App/pb_decode.c ****     pb_message_set_to_defaults(fields, dest_struct);
1055:X-CUBE-AI/App/pb_decode.c ****     status = pb_decode_noinit(stream, fields, dest_struct);
1056:X-CUBE-AI/App/pb_decode.c ****     
1057:X-CUBE-AI/App/pb_decode.c **** #ifdef PB_ENABLE_MALLOC
1058:X-CUBE-AI/App/pb_decode.c ****     if (!status)
1059:X-CUBE-AI/App/pb_decode.c ****         pb_release(fields, dest_struct);
1060:X-CUBE-AI/App/pb_decode.c **** #endif
1061:X-CUBE-AI/App/pb_decode.c ****     
1062:X-CUBE-AI/App/pb_decode.c ****     return status;
1063:X-CUBE-AI/App/pb_decode.c **** }
1064:X-CUBE-AI/App/pb_decode.c **** 
1065:X-CUBE-AI/App/pb_decode.c **** bool pb_decode_delimited_noinit(pb_istream_t *stream, const pb_field_t fields[], void *dest_struct)
1066:X-CUBE-AI/App/pb_decode.c **** {
1067:X-CUBE-AI/App/pb_decode.c ****     pb_istream_t substream;
1068:X-CUBE-AI/App/pb_decode.c ****     bool status;
1069:X-CUBE-AI/App/pb_decode.c **** 
1070:X-CUBE-AI/App/pb_decode.c ****     if (!pb_make_string_substream(stream, &substream))
1071:X-CUBE-AI/App/pb_decode.c ****         return false;
1072:X-CUBE-AI/App/pb_decode.c **** 
1073:X-CUBE-AI/App/pb_decode.c ****     status = pb_decode_noinit(&substream, fields, dest_struct);
1074:X-CUBE-AI/App/pb_decode.c **** 
1075:X-CUBE-AI/App/pb_decode.c ****     if (!pb_close_string_substream(stream, &substream))
1076:X-CUBE-AI/App/pb_decode.c ****         return false;
1077:X-CUBE-AI/App/pb_decode.c ****     return status;
1078:X-CUBE-AI/App/pb_decode.c **** }
1079:X-CUBE-AI/App/pb_decode.c **** 
1080:X-CUBE-AI/App/pb_decode.c **** bool pb_decode_delimited(pb_istream_t *stream, const pb_field_t fields[], void *dest_struct)
1081:X-CUBE-AI/App/pb_decode.c **** {
1082:X-CUBE-AI/App/pb_decode.c ****     pb_istream_t substream;
1083:X-CUBE-AI/App/pb_decode.c ****     bool status;
1084:X-CUBE-AI/App/pb_decode.c ****     
1085:X-CUBE-AI/App/pb_decode.c ****     if (!pb_make_string_substream(stream, &substream))
1086:X-CUBE-AI/App/pb_decode.c ****         return false;
1087:X-CUBE-AI/App/pb_decode.c ****     
1088:X-CUBE-AI/App/pb_decode.c ****     status = pb_decode(&substream, fields, dest_struct);
ARM GAS  /tmp/ccbrCuLB.s 			page 48


1089:X-CUBE-AI/App/pb_decode.c **** 
1090:X-CUBE-AI/App/pb_decode.c ****     if (!pb_close_string_substream(stream, &substream))
1091:X-CUBE-AI/App/pb_decode.c ****         return false;
1092:X-CUBE-AI/App/pb_decode.c ****     return status;
1093:X-CUBE-AI/App/pb_decode.c **** }
1094:X-CUBE-AI/App/pb_decode.c **** 
1095:X-CUBE-AI/App/pb_decode.c **** bool pb_decode_nullterminated(pb_istream_t *stream, const pb_field_t fields[], void *dest_struct)
1096:X-CUBE-AI/App/pb_decode.c **** {
1097:X-CUBE-AI/App/pb_decode.c ****     /* This behaviour will be separated in nanopb-0.4.0, see issue #278. */
1098:X-CUBE-AI/App/pb_decode.c ****     return pb_decode(stream, fields, dest_struct);
1099:X-CUBE-AI/App/pb_decode.c **** }
1100:X-CUBE-AI/App/pb_decode.c **** 
1101:X-CUBE-AI/App/pb_decode.c **** #ifdef PB_ENABLE_MALLOC
1102:X-CUBE-AI/App/pb_decode.c **** /* Given an oneof field, if there has already been a field inside this oneof,
1103:X-CUBE-AI/App/pb_decode.c ****  * release it before overwriting with a different one. */
1104:X-CUBE-AI/App/pb_decode.c **** static bool pb_release_union_field(pb_istream_t *stream, pb_field_iter_t *iter)
1105:X-CUBE-AI/App/pb_decode.c **** {
1106:X-CUBE-AI/App/pb_decode.c ****     pb_size_t old_tag = *(pb_size_t*)iter->pSize; /* Previous which_ value */
1107:X-CUBE-AI/App/pb_decode.c ****     pb_size_t new_tag = iter->pos->tag; /* New which_ value */
1108:X-CUBE-AI/App/pb_decode.c **** 
1109:X-CUBE-AI/App/pb_decode.c ****     if (old_tag == 0)
1110:X-CUBE-AI/App/pb_decode.c ****         return true; /* Ok, no old data in union */
1111:X-CUBE-AI/App/pb_decode.c **** 
1112:X-CUBE-AI/App/pb_decode.c ****     if (old_tag == new_tag)
1113:X-CUBE-AI/App/pb_decode.c ****         return true; /* Ok, old data is of same type => merge */
1114:X-CUBE-AI/App/pb_decode.c **** 
1115:X-CUBE-AI/App/pb_decode.c ****     /* Release old data. The find can fail if the message struct contains
1116:X-CUBE-AI/App/pb_decode.c ****      * invalid data. */
1117:X-CUBE-AI/App/pb_decode.c ****     if (!pb_field_iter_find(iter, old_tag))
1118:X-CUBE-AI/App/pb_decode.c ****         PB_RETURN_ERROR(stream, "invalid union tag");
1119:X-CUBE-AI/App/pb_decode.c **** 
1120:X-CUBE-AI/App/pb_decode.c ****     pb_release_single_field(iter);
1121:X-CUBE-AI/App/pb_decode.c **** 
1122:X-CUBE-AI/App/pb_decode.c ****     /* Restore iterator to where it should be.
1123:X-CUBE-AI/App/pb_decode.c ****      * This shouldn't fail unless the pb_field_t structure is corrupted. */
1124:X-CUBE-AI/App/pb_decode.c ****     if (!pb_field_iter_find(iter, new_tag))
1125:X-CUBE-AI/App/pb_decode.c ****         PB_RETURN_ERROR(stream, "iterator error");
1126:X-CUBE-AI/App/pb_decode.c ****     
1127:X-CUBE-AI/App/pb_decode.c ****     return true;
1128:X-CUBE-AI/App/pb_decode.c **** }
1129:X-CUBE-AI/App/pb_decode.c **** 
1130:X-CUBE-AI/App/pb_decode.c **** static void pb_release_single_field(const pb_field_iter_t *iter)
1131:X-CUBE-AI/App/pb_decode.c **** {
1132:X-CUBE-AI/App/pb_decode.c ****     pb_type_t type;
1133:X-CUBE-AI/App/pb_decode.c ****     type = iter->pos->type;
1134:X-CUBE-AI/App/pb_decode.c **** 
1135:X-CUBE-AI/App/pb_decode.c ****     if (PB_HTYPE(type) == PB_HTYPE_ONEOF)
1136:X-CUBE-AI/App/pb_decode.c ****     {
1137:X-CUBE-AI/App/pb_decode.c ****         if (*(pb_size_t*)iter->pSize != iter->pos->tag)
1138:X-CUBE-AI/App/pb_decode.c ****             return; /* This is not the current field in the union */
1139:X-CUBE-AI/App/pb_decode.c ****     }
1140:X-CUBE-AI/App/pb_decode.c **** 
1141:X-CUBE-AI/App/pb_decode.c ****     /* Release anything contained inside an extension or submsg.
1142:X-CUBE-AI/App/pb_decode.c ****      * This has to be done even if the submsg itself is statically
1143:X-CUBE-AI/App/pb_decode.c ****      * allocated. */
1144:X-CUBE-AI/App/pb_decode.c ****     if (PB_LTYPE(type) == PB_LTYPE_EXTENSION)
1145:X-CUBE-AI/App/pb_decode.c ****     {
ARM GAS  /tmp/ccbrCuLB.s 			page 49


1146:X-CUBE-AI/App/pb_decode.c ****         /* Release fields from all extensions in the linked list */
1147:X-CUBE-AI/App/pb_decode.c ****         pb_extension_t *ext = *(pb_extension_t**)iter->pData;
1148:X-CUBE-AI/App/pb_decode.c ****         while (ext != NULL)
1149:X-CUBE-AI/App/pb_decode.c ****         {
1150:X-CUBE-AI/App/pb_decode.c ****             pb_field_iter_t ext_iter;
1151:X-CUBE-AI/App/pb_decode.c ****             iter_from_extension(&ext_iter, ext);
1152:X-CUBE-AI/App/pb_decode.c ****             pb_release_single_field(&ext_iter);
1153:X-CUBE-AI/App/pb_decode.c ****             ext = ext->next;
1154:X-CUBE-AI/App/pb_decode.c ****         }
1155:X-CUBE-AI/App/pb_decode.c ****     }
1156:X-CUBE-AI/App/pb_decode.c ****     else if (PB_LTYPE(type) == PB_LTYPE_SUBMESSAGE)
1157:X-CUBE-AI/App/pb_decode.c ****     {
1158:X-CUBE-AI/App/pb_decode.c ****         /* Release fields in submessage or submsg array */
1159:X-CUBE-AI/App/pb_decode.c ****         void *pItem = iter->pData;
1160:X-CUBE-AI/App/pb_decode.c ****         pb_size_t count = 1;
1161:X-CUBE-AI/App/pb_decode.c ****         
1162:X-CUBE-AI/App/pb_decode.c ****         if (PB_ATYPE(type) == PB_ATYPE_POINTER)
1163:X-CUBE-AI/App/pb_decode.c ****         {
1164:X-CUBE-AI/App/pb_decode.c ****             pItem = *(void**)iter->pData;
1165:X-CUBE-AI/App/pb_decode.c ****         }
1166:X-CUBE-AI/App/pb_decode.c ****         
1167:X-CUBE-AI/App/pb_decode.c ****         if (PB_HTYPE(type) == PB_HTYPE_REPEATED)
1168:X-CUBE-AI/App/pb_decode.c ****         {
1169:X-CUBE-AI/App/pb_decode.c ****             if (PB_ATYPE(type) == PB_ATYPE_STATIC && iter->pSize == iter->pData) {
1170:X-CUBE-AI/App/pb_decode.c ****                 /* No _count field so use size of the array */
1171:X-CUBE-AI/App/pb_decode.c ****                 count = iter->pos->array_size;
1172:X-CUBE-AI/App/pb_decode.c ****             } else {
1173:X-CUBE-AI/App/pb_decode.c ****                 count = *(pb_size_t*)iter->pSize;
1174:X-CUBE-AI/App/pb_decode.c ****             }
1175:X-CUBE-AI/App/pb_decode.c **** 
1176:X-CUBE-AI/App/pb_decode.c ****             if (PB_ATYPE(type) == PB_ATYPE_STATIC && count > iter->pos->array_size)
1177:X-CUBE-AI/App/pb_decode.c ****             {
1178:X-CUBE-AI/App/pb_decode.c ****                 /* Protect against corrupted _count fields */
1179:X-CUBE-AI/App/pb_decode.c ****                 count = iter->pos->array_size;
1180:X-CUBE-AI/App/pb_decode.c ****             }
1181:X-CUBE-AI/App/pb_decode.c ****         }
1182:X-CUBE-AI/App/pb_decode.c ****         
1183:X-CUBE-AI/App/pb_decode.c ****         if (pItem)
1184:X-CUBE-AI/App/pb_decode.c ****         {
1185:X-CUBE-AI/App/pb_decode.c ****             while (count--)
1186:X-CUBE-AI/App/pb_decode.c ****             {
1187:X-CUBE-AI/App/pb_decode.c ****                 pb_release((const pb_field_t*)iter->pos->ptr, pItem);
1188:X-CUBE-AI/App/pb_decode.c ****                 pItem = (char*)pItem + iter->pos->data_size;
1189:X-CUBE-AI/App/pb_decode.c ****             }
1190:X-CUBE-AI/App/pb_decode.c ****         }
1191:X-CUBE-AI/App/pb_decode.c ****     }
1192:X-CUBE-AI/App/pb_decode.c ****     
1193:X-CUBE-AI/App/pb_decode.c ****     if (PB_ATYPE(type) == PB_ATYPE_POINTER)
1194:X-CUBE-AI/App/pb_decode.c ****     {
1195:X-CUBE-AI/App/pb_decode.c ****         if (PB_HTYPE(type) == PB_HTYPE_REPEATED &&
1196:X-CUBE-AI/App/pb_decode.c ****             (PB_LTYPE(type) == PB_LTYPE_STRING ||
1197:X-CUBE-AI/App/pb_decode.c ****              PB_LTYPE(type) == PB_LTYPE_BYTES))
1198:X-CUBE-AI/App/pb_decode.c ****         {
1199:X-CUBE-AI/App/pb_decode.c ****             /* Release entries in repeated string or bytes array */
1200:X-CUBE-AI/App/pb_decode.c ****             void **pItem = *(void***)iter->pData;
1201:X-CUBE-AI/App/pb_decode.c ****             pb_size_t count = *(pb_size_t*)iter->pSize;
1202:X-CUBE-AI/App/pb_decode.c ****             while (count--)
ARM GAS  /tmp/ccbrCuLB.s 			page 50


1203:X-CUBE-AI/App/pb_decode.c ****             {
1204:X-CUBE-AI/App/pb_decode.c ****                 pb_free(*pItem);
1205:X-CUBE-AI/App/pb_decode.c ****                 *pItem++ = NULL;
1206:X-CUBE-AI/App/pb_decode.c ****             }
1207:X-CUBE-AI/App/pb_decode.c ****         }
1208:X-CUBE-AI/App/pb_decode.c ****         
1209:X-CUBE-AI/App/pb_decode.c ****         if (PB_HTYPE(type) == PB_HTYPE_REPEATED)
1210:X-CUBE-AI/App/pb_decode.c ****         {
1211:X-CUBE-AI/App/pb_decode.c ****             /* We are going to release the array, so set the size to 0 */
1212:X-CUBE-AI/App/pb_decode.c ****             *(pb_size_t*)iter->pSize = 0;
1213:X-CUBE-AI/App/pb_decode.c ****         }
1214:X-CUBE-AI/App/pb_decode.c ****         
1215:X-CUBE-AI/App/pb_decode.c ****         /* Release main item */
1216:X-CUBE-AI/App/pb_decode.c ****         pb_free(*(void**)iter->pData);
1217:X-CUBE-AI/App/pb_decode.c ****         *(void**)iter->pData = NULL;
1218:X-CUBE-AI/App/pb_decode.c ****     }
1219:X-CUBE-AI/App/pb_decode.c **** }
1220:X-CUBE-AI/App/pb_decode.c **** 
1221:X-CUBE-AI/App/pb_decode.c **** void pb_release(const pb_field_t fields[], void *dest_struct)
1222:X-CUBE-AI/App/pb_decode.c **** {
1223:X-CUBE-AI/App/pb_decode.c ****     pb_field_iter_t iter;
1224:X-CUBE-AI/App/pb_decode.c ****     
1225:X-CUBE-AI/App/pb_decode.c ****     if (!dest_struct)
1226:X-CUBE-AI/App/pb_decode.c ****         return; /* Ignore NULL pointers, similar to free() */
1227:X-CUBE-AI/App/pb_decode.c **** 
1228:X-CUBE-AI/App/pb_decode.c ****     if (!pb_field_iter_begin(&iter, fields, dest_struct))
1229:X-CUBE-AI/App/pb_decode.c ****         return; /* Empty message type */
1230:X-CUBE-AI/App/pb_decode.c ****     
1231:X-CUBE-AI/App/pb_decode.c ****     do
1232:X-CUBE-AI/App/pb_decode.c ****     {
1233:X-CUBE-AI/App/pb_decode.c ****         pb_release_single_field(&iter);
1234:X-CUBE-AI/App/pb_decode.c ****     } while (pb_field_iter_next(&iter));
1235:X-CUBE-AI/App/pb_decode.c **** }
1236:X-CUBE-AI/App/pb_decode.c **** #endif
1237:X-CUBE-AI/App/pb_decode.c **** 
1238:X-CUBE-AI/App/pb_decode.c **** /* Field decoders */
1239:X-CUBE-AI/App/pb_decode.c **** 
1240:X-CUBE-AI/App/pb_decode.c **** bool pb_decode_svarint(pb_istream_t *stream, pb_int64_t *dest)
1241:X-CUBE-AI/App/pb_decode.c **** {
1242:X-CUBE-AI/App/pb_decode.c ****     pb_uint64_t value;
1243:X-CUBE-AI/App/pb_decode.c ****     if (!pb_decode_varint(stream, &value))
1244:X-CUBE-AI/App/pb_decode.c ****         return false;
1245:X-CUBE-AI/App/pb_decode.c ****     
1246:X-CUBE-AI/App/pb_decode.c ****     if (value & 1)
1247:X-CUBE-AI/App/pb_decode.c ****         *dest = (pb_int64_t)(~(value >> 1));
1248:X-CUBE-AI/App/pb_decode.c ****     else
1249:X-CUBE-AI/App/pb_decode.c ****         *dest = (pb_int64_t)(value >> 1);
1250:X-CUBE-AI/App/pb_decode.c ****     
1251:X-CUBE-AI/App/pb_decode.c ****     return true;
1252:X-CUBE-AI/App/pb_decode.c **** }
1253:X-CUBE-AI/App/pb_decode.c **** 
1254:X-CUBE-AI/App/pb_decode.c **** bool pb_decode_fixed32(pb_istream_t *stream, void *dest)
1255:X-CUBE-AI/App/pb_decode.c **** {
1256:X-CUBE-AI/App/pb_decode.c ****     pb_byte_t bytes[4];
1257:X-CUBE-AI/App/pb_decode.c **** 
1258:X-CUBE-AI/App/pb_decode.c ****     if (!pb_read(stream, bytes, 4))
1259:X-CUBE-AI/App/pb_decode.c ****         return false;
ARM GAS  /tmp/ccbrCuLB.s 			page 51


1260:X-CUBE-AI/App/pb_decode.c ****     
1261:X-CUBE-AI/App/pb_decode.c ****     *(uint32_t*)dest = ((uint32_t)bytes[0] << 0) |
1262:X-CUBE-AI/App/pb_decode.c ****                        ((uint32_t)bytes[1] << 8) |
1263:X-CUBE-AI/App/pb_decode.c ****                        ((uint32_t)bytes[2] << 16) |
1264:X-CUBE-AI/App/pb_decode.c ****                        ((uint32_t)bytes[3] << 24);
1265:X-CUBE-AI/App/pb_decode.c ****     return true;
1266:X-CUBE-AI/App/pb_decode.c **** }
1267:X-CUBE-AI/App/pb_decode.c **** 
1268:X-CUBE-AI/App/pb_decode.c **** #ifndef PB_WITHOUT_64BIT
1269:X-CUBE-AI/App/pb_decode.c **** bool pb_decode_fixed64(pb_istream_t *stream, void *dest)
1270:X-CUBE-AI/App/pb_decode.c **** {
1271:X-CUBE-AI/App/pb_decode.c ****     pb_byte_t bytes[8];
1272:X-CUBE-AI/App/pb_decode.c **** 
1273:X-CUBE-AI/App/pb_decode.c ****     if (!pb_read(stream, bytes, 8))
1274:X-CUBE-AI/App/pb_decode.c ****         return false;
1275:X-CUBE-AI/App/pb_decode.c ****     
1276:X-CUBE-AI/App/pb_decode.c ****     *(uint64_t*)dest = ((uint64_t)bytes[0] << 0) |
1277:X-CUBE-AI/App/pb_decode.c ****                        ((uint64_t)bytes[1] << 8) |
1278:X-CUBE-AI/App/pb_decode.c ****                        ((uint64_t)bytes[2] << 16) |
1279:X-CUBE-AI/App/pb_decode.c ****                        ((uint64_t)bytes[3] << 24) |
1280:X-CUBE-AI/App/pb_decode.c ****                        ((uint64_t)bytes[4] << 32) |
1281:X-CUBE-AI/App/pb_decode.c ****                        ((uint64_t)bytes[5] << 40) |
1282:X-CUBE-AI/App/pb_decode.c ****                        ((uint64_t)bytes[6] << 48) |
1283:X-CUBE-AI/App/pb_decode.c ****                        ((uint64_t)bytes[7] << 56);
1284:X-CUBE-AI/App/pb_decode.c ****     
1285:X-CUBE-AI/App/pb_decode.c ****     return true;
1286:X-CUBE-AI/App/pb_decode.c **** }
1287:X-CUBE-AI/App/pb_decode.c **** #endif
1288:X-CUBE-AI/App/pb_decode.c **** 
1289:X-CUBE-AI/App/pb_decode.c **** static bool checkreturn pb_dec_varint(pb_istream_t *stream, const pb_field_t *field, void *dest)
1290:X-CUBE-AI/App/pb_decode.c **** {
1291:X-CUBE-AI/App/pb_decode.c ****     pb_uint64_t value;
1292:X-CUBE-AI/App/pb_decode.c ****     pb_int64_t svalue;
1293:X-CUBE-AI/App/pb_decode.c ****     pb_int64_t clamped;
1294:X-CUBE-AI/App/pb_decode.c ****     if (!pb_decode_varint(stream, &value))
1295:X-CUBE-AI/App/pb_decode.c ****         return false;
1296:X-CUBE-AI/App/pb_decode.c ****     
1297:X-CUBE-AI/App/pb_decode.c ****     /* See issue 97: Google's C++ protobuf allows negative varint values to
1298:X-CUBE-AI/App/pb_decode.c ****      * be cast as int32_t, instead of the int64_t that should be used when
1299:X-CUBE-AI/App/pb_decode.c ****      * encoding. Previous nanopb versions had a bug in encoding. In order to
1300:X-CUBE-AI/App/pb_decode.c ****      * not break decoding of such messages, we cast <=32 bit fields to
1301:X-CUBE-AI/App/pb_decode.c ****      * int32_t first to get the sign correct.
1302:X-CUBE-AI/App/pb_decode.c ****      */
1303:X-CUBE-AI/App/pb_decode.c ****     if (field->data_size == sizeof(pb_int64_t))
1304:X-CUBE-AI/App/pb_decode.c ****         svalue = (pb_int64_t)value;
1305:X-CUBE-AI/App/pb_decode.c ****     else
1306:X-CUBE-AI/App/pb_decode.c ****         svalue = (int32_t)value;
1307:X-CUBE-AI/App/pb_decode.c **** 
1308:X-CUBE-AI/App/pb_decode.c ****     /* Cast to the proper field size, while checking for overflows */
1309:X-CUBE-AI/App/pb_decode.c ****     if (field->data_size == sizeof(pb_int64_t))
1310:X-CUBE-AI/App/pb_decode.c ****         clamped = *(pb_int64_t*)dest = svalue;
1311:X-CUBE-AI/App/pb_decode.c ****     else if (field->data_size == sizeof(int32_t))
1312:X-CUBE-AI/App/pb_decode.c ****         clamped = *(int32_t*)dest = (int32_t)svalue;
1313:X-CUBE-AI/App/pb_decode.c ****     else if (field->data_size == sizeof(int_least16_t))
1314:X-CUBE-AI/App/pb_decode.c ****         clamped = *(int_least16_t*)dest = (int_least16_t)svalue;
1315:X-CUBE-AI/App/pb_decode.c ****     else if (field->data_size == sizeof(int_least8_t))
1316:X-CUBE-AI/App/pb_decode.c ****         clamped = *(int_least8_t*)dest = (int_least8_t)svalue;
ARM GAS  /tmp/ccbrCuLB.s 			page 52


1317:X-CUBE-AI/App/pb_decode.c ****     else
1318:X-CUBE-AI/App/pb_decode.c ****         PB_RETURN_ERROR(stream, "invalid data_size");
1319:X-CUBE-AI/App/pb_decode.c **** 
1320:X-CUBE-AI/App/pb_decode.c ****     if (clamped != svalue)
1321:X-CUBE-AI/App/pb_decode.c ****         PB_RETURN_ERROR(stream, "integer too large");
1322:X-CUBE-AI/App/pb_decode.c ****     
1323:X-CUBE-AI/App/pb_decode.c ****     return true;
1324:X-CUBE-AI/App/pb_decode.c **** }
1325:X-CUBE-AI/App/pb_decode.c **** 
1326:X-CUBE-AI/App/pb_decode.c **** static bool checkreturn pb_dec_uvarint(pb_istream_t *stream, const pb_field_t *field, void *dest)
1327:X-CUBE-AI/App/pb_decode.c **** {
1328:X-CUBE-AI/App/pb_decode.c ****     pb_uint64_t value, clamped;
1329:X-CUBE-AI/App/pb_decode.c ****     if (!pb_decode_varint(stream, &value))
1330:X-CUBE-AI/App/pb_decode.c ****         return false;
1331:X-CUBE-AI/App/pb_decode.c ****     
1332:X-CUBE-AI/App/pb_decode.c ****     /* Cast to the proper field size, while checking for overflows */
1333:X-CUBE-AI/App/pb_decode.c ****     if (field->data_size == sizeof(pb_uint64_t))
1334:X-CUBE-AI/App/pb_decode.c ****         clamped = *(pb_uint64_t*)dest = value;
1335:X-CUBE-AI/App/pb_decode.c ****     else if (field->data_size == sizeof(uint32_t))
1336:X-CUBE-AI/App/pb_decode.c ****         clamped = *(uint32_t*)dest = (uint32_t)value;
1337:X-CUBE-AI/App/pb_decode.c ****     else if (field->data_size == sizeof(uint_least16_t))
1338:X-CUBE-AI/App/pb_decode.c ****         clamped = *(uint_least16_t*)dest = (uint_least16_t)value;
1339:X-CUBE-AI/App/pb_decode.c ****     else if (field->data_size == sizeof(uint_least8_t))
1340:X-CUBE-AI/App/pb_decode.c ****         clamped = *(uint_least8_t*)dest = (uint_least8_t)value;
1341:X-CUBE-AI/App/pb_decode.c ****     else
1342:X-CUBE-AI/App/pb_decode.c ****         PB_RETURN_ERROR(stream, "invalid data_size");
1343:X-CUBE-AI/App/pb_decode.c ****     
1344:X-CUBE-AI/App/pb_decode.c ****     if (clamped != value)
1345:X-CUBE-AI/App/pb_decode.c ****         PB_RETURN_ERROR(stream, "integer too large");
1346:X-CUBE-AI/App/pb_decode.c **** 
1347:X-CUBE-AI/App/pb_decode.c ****     return true;
1348:X-CUBE-AI/App/pb_decode.c **** }
1349:X-CUBE-AI/App/pb_decode.c **** 
1350:X-CUBE-AI/App/pb_decode.c **** static bool checkreturn pb_dec_svarint(pb_istream_t *stream, const pb_field_t *field, void *dest)
1351:X-CUBE-AI/App/pb_decode.c **** {
1352:X-CUBE-AI/App/pb_decode.c ****     pb_int64_t value, clamped;
1353:X-CUBE-AI/App/pb_decode.c ****     if (!pb_decode_svarint(stream, &value))
1354:X-CUBE-AI/App/pb_decode.c ****         return false;
1355:X-CUBE-AI/App/pb_decode.c ****     
1356:X-CUBE-AI/App/pb_decode.c ****     /* Cast to the proper field size, while checking for overflows */
1357:X-CUBE-AI/App/pb_decode.c ****     if (field->data_size == sizeof(pb_int64_t))
1358:X-CUBE-AI/App/pb_decode.c ****         clamped = *(pb_int64_t*)dest = value;
1359:X-CUBE-AI/App/pb_decode.c ****     else if (field->data_size == sizeof(int32_t))
1360:X-CUBE-AI/App/pb_decode.c ****         clamped = *(int32_t*)dest = (int32_t)value;
1361:X-CUBE-AI/App/pb_decode.c ****     else if (field->data_size == sizeof(int_least16_t))
1362:X-CUBE-AI/App/pb_decode.c ****         clamped = *(int_least16_t*)dest = (int_least16_t)value;
1363:X-CUBE-AI/App/pb_decode.c ****     else if (field->data_size == sizeof(int_least8_t))
1364:X-CUBE-AI/App/pb_decode.c ****         clamped = *(int_least8_t*)dest = (int_least8_t)value;
1365:X-CUBE-AI/App/pb_decode.c ****     else
1366:X-CUBE-AI/App/pb_decode.c ****         PB_RETURN_ERROR(stream, "invalid data_size");
1367:X-CUBE-AI/App/pb_decode.c **** 
1368:X-CUBE-AI/App/pb_decode.c ****     if (clamped != value)
1369:X-CUBE-AI/App/pb_decode.c ****         PB_RETURN_ERROR(stream, "integer too large");
1370:X-CUBE-AI/App/pb_decode.c ****     
1371:X-CUBE-AI/App/pb_decode.c ****     return true;
1372:X-CUBE-AI/App/pb_decode.c **** }
1373:X-CUBE-AI/App/pb_decode.c **** 
ARM GAS  /tmp/ccbrCuLB.s 			page 53


1374:X-CUBE-AI/App/pb_decode.c **** static bool checkreturn pb_dec_fixed32(pb_istream_t *stream, const pb_field_t *field, void *dest)
1375:X-CUBE-AI/App/pb_decode.c **** {
1376:X-CUBE-AI/App/pb_decode.c ****     PB_UNUSED(field);
1377:X-CUBE-AI/App/pb_decode.c ****     return pb_decode_fixed32(stream, dest);
1378:X-CUBE-AI/App/pb_decode.c **** }
1379:X-CUBE-AI/App/pb_decode.c **** 
1380:X-CUBE-AI/App/pb_decode.c **** static bool checkreturn pb_dec_fixed64(pb_istream_t *stream, const pb_field_t *field, void *dest)
1381:X-CUBE-AI/App/pb_decode.c **** {
1382:X-CUBE-AI/App/pb_decode.c ****     PB_UNUSED(field);
1383:X-CUBE-AI/App/pb_decode.c **** #ifndef PB_WITHOUT_64BIT
1384:X-CUBE-AI/App/pb_decode.c ****     return pb_decode_fixed64(stream, dest);
1385:X-CUBE-AI/App/pb_decode.c **** #else
1386:X-CUBE-AI/App/pb_decode.c ****     PB_UNUSED(dest);
1387:X-CUBE-AI/App/pb_decode.c ****     PB_RETURN_ERROR(stream, "no 64bit support");
1388:X-CUBE-AI/App/pb_decode.c **** #endif
1389:X-CUBE-AI/App/pb_decode.c **** }
1390:X-CUBE-AI/App/pb_decode.c **** 
1391:X-CUBE-AI/App/pb_decode.c **** static bool checkreturn pb_dec_bytes(pb_istream_t *stream, const pb_field_t *field, void *dest)
1392:X-CUBE-AI/App/pb_decode.c **** {
1393:X-CUBE-AI/App/pb_decode.c ****     uint32_t size;
1394:X-CUBE-AI/App/pb_decode.c ****     size_t alloc_size;
1395:X-CUBE-AI/App/pb_decode.c ****     pb_bytes_array_t *bdest;
1396:X-CUBE-AI/App/pb_decode.c ****     
1397:X-CUBE-AI/App/pb_decode.c ****     if (!pb_decode_varint32(stream, &size))
1398:X-CUBE-AI/App/pb_decode.c ****         return false;
1399:X-CUBE-AI/App/pb_decode.c ****     
1400:X-CUBE-AI/App/pb_decode.c ****     if (size > PB_SIZE_MAX)
1401:X-CUBE-AI/App/pb_decode.c ****         PB_RETURN_ERROR(stream, "bytes overflow");
1402:X-CUBE-AI/App/pb_decode.c ****     
1403:X-CUBE-AI/App/pb_decode.c ****     alloc_size = PB_BYTES_ARRAY_T_ALLOCSIZE(size);
1404:X-CUBE-AI/App/pb_decode.c ****     if (size > alloc_size)
1405:X-CUBE-AI/App/pb_decode.c ****         PB_RETURN_ERROR(stream, "size too large");
1406:X-CUBE-AI/App/pb_decode.c ****     
1407:X-CUBE-AI/App/pb_decode.c ****     if (PB_ATYPE(field->type) == PB_ATYPE_POINTER)
1408:X-CUBE-AI/App/pb_decode.c ****     {
1409:X-CUBE-AI/App/pb_decode.c **** #ifndef PB_ENABLE_MALLOC
1410:X-CUBE-AI/App/pb_decode.c ****         PB_RETURN_ERROR(stream, "no malloc support");
1411:X-CUBE-AI/App/pb_decode.c **** #else
1412:X-CUBE-AI/App/pb_decode.c ****         if (!allocate_field(stream, dest, alloc_size, 1))
1413:X-CUBE-AI/App/pb_decode.c ****             return false;
1414:X-CUBE-AI/App/pb_decode.c ****         bdest = *(pb_bytes_array_t**)dest;
1415:X-CUBE-AI/App/pb_decode.c **** #endif
1416:X-CUBE-AI/App/pb_decode.c ****     }
1417:X-CUBE-AI/App/pb_decode.c ****     else
1418:X-CUBE-AI/App/pb_decode.c ****     {
1419:X-CUBE-AI/App/pb_decode.c ****         if (alloc_size > field->data_size)
1420:X-CUBE-AI/App/pb_decode.c ****             PB_RETURN_ERROR(stream, "bytes overflow");
1421:X-CUBE-AI/App/pb_decode.c ****         bdest = (pb_bytes_array_t*)dest;
1422:X-CUBE-AI/App/pb_decode.c ****     }
1423:X-CUBE-AI/App/pb_decode.c **** 
1424:X-CUBE-AI/App/pb_decode.c ****     bdest->size = (pb_size_t)size;
1425:X-CUBE-AI/App/pb_decode.c ****     return pb_read(stream, bdest->bytes, size);
1426:X-CUBE-AI/App/pb_decode.c **** }
1427:X-CUBE-AI/App/pb_decode.c **** 
1428:X-CUBE-AI/App/pb_decode.c **** static bool checkreturn pb_dec_string(pb_istream_t *stream, const pb_field_t *field, void *dest)
1429:X-CUBE-AI/App/pb_decode.c **** {
1430:X-CUBE-AI/App/pb_decode.c ****     uint32_t size;
ARM GAS  /tmp/ccbrCuLB.s 			page 54


1431:X-CUBE-AI/App/pb_decode.c ****     size_t alloc_size;
1432:X-CUBE-AI/App/pb_decode.c ****     bool status;
1433:X-CUBE-AI/App/pb_decode.c ****     if (!pb_decode_varint32(stream, &size))
1434:X-CUBE-AI/App/pb_decode.c ****         return false;
1435:X-CUBE-AI/App/pb_decode.c ****     
1436:X-CUBE-AI/App/pb_decode.c ****     /* Space for null terminator */
1437:X-CUBE-AI/App/pb_decode.c ****     alloc_size = size + 1;
1438:X-CUBE-AI/App/pb_decode.c ****     
1439:X-CUBE-AI/App/pb_decode.c ****     if (alloc_size < size)
1440:X-CUBE-AI/App/pb_decode.c ****         PB_RETURN_ERROR(stream, "size too large");
1441:X-CUBE-AI/App/pb_decode.c ****     
1442:X-CUBE-AI/App/pb_decode.c ****     if (PB_ATYPE(field->type) == PB_ATYPE_POINTER)
1443:X-CUBE-AI/App/pb_decode.c ****     {
1444:X-CUBE-AI/App/pb_decode.c **** #ifndef PB_ENABLE_MALLOC
1445:X-CUBE-AI/App/pb_decode.c ****         PB_RETURN_ERROR(stream, "no malloc support");
1446:X-CUBE-AI/App/pb_decode.c **** #else
1447:X-CUBE-AI/App/pb_decode.c ****         if (!allocate_field(stream, dest, alloc_size, 1))
1448:X-CUBE-AI/App/pb_decode.c ****             return false;
1449:X-CUBE-AI/App/pb_decode.c ****         dest = *(void**)dest;
1450:X-CUBE-AI/App/pb_decode.c **** #endif
1451:X-CUBE-AI/App/pb_decode.c ****     }
1452:X-CUBE-AI/App/pb_decode.c ****     else
1453:X-CUBE-AI/App/pb_decode.c ****     {
1454:X-CUBE-AI/App/pb_decode.c ****         if (alloc_size > field->data_size)
1455:X-CUBE-AI/App/pb_decode.c ****             PB_RETURN_ERROR(stream, "string overflow");
1456:X-CUBE-AI/App/pb_decode.c ****     }
1457:X-CUBE-AI/App/pb_decode.c ****     
1458:X-CUBE-AI/App/pb_decode.c ****     status = pb_read(stream, (pb_byte_t*)dest, size);
1459:X-CUBE-AI/App/pb_decode.c ****     *((pb_byte_t*)dest + size) = 0;
1460:X-CUBE-AI/App/pb_decode.c ****     return status;
1461:X-CUBE-AI/App/pb_decode.c **** }
1462:X-CUBE-AI/App/pb_decode.c **** 
1463:X-CUBE-AI/App/pb_decode.c **** static bool checkreturn pb_dec_submessage(pb_istream_t *stream, const pb_field_t *field, void *dest
1464:X-CUBE-AI/App/pb_decode.c **** {
1465:X-CUBE-AI/App/pb_decode.c ****     bool status;
1466:X-CUBE-AI/App/pb_decode.c ****     pb_istream_t substream;
1467:X-CUBE-AI/App/pb_decode.c ****     const pb_field_t* submsg_fields = (const pb_field_t*)field->ptr;
1468:X-CUBE-AI/App/pb_decode.c ****     
1469:X-CUBE-AI/App/pb_decode.c ****     if (!pb_make_string_substream(stream, &substream))
1470:X-CUBE-AI/App/pb_decode.c ****         return false;
1471:X-CUBE-AI/App/pb_decode.c ****     
1472:X-CUBE-AI/App/pb_decode.c ****     if (field->ptr == NULL)
1473:X-CUBE-AI/App/pb_decode.c ****         PB_RETURN_ERROR(stream, "invalid field descriptor");
1474:X-CUBE-AI/App/pb_decode.c ****     
1475:X-CUBE-AI/App/pb_decode.c ****     /* New array entries need to be initialized, while required and optional
1476:X-CUBE-AI/App/pb_decode.c ****      * submessages have already been initialized in the top-level pb_decode. */
1477:X-CUBE-AI/App/pb_decode.c ****     if (PB_HTYPE(field->type) == PB_HTYPE_REPEATED)
1478:X-CUBE-AI/App/pb_decode.c ****         status = pb_decode(&substream, submsg_fields, dest);
1479:X-CUBE-AI/App/pb_decode.c ****     else
1480:X-CUBE-AI/App/pb_decode.c ****         status = pb_decode_noinit(&substream, submsg_fields, dest);
1481:X-CUBE-AI/App/pb_decode.c ****     
1482:X-CUBE-AI/App/pb_decode.c ****     if (!pb_close_string_substream(stream, &substream))
1483:X-CUBE-AI/App/pb_decode.c ****         return false;
1484:X-CUBE-AI/App/pb_decode.c ****     return status;
1485:X-CUBE-AI/App/pb_decode.c **** }
1486:X-CUBE-AI/App/pb_decode.c **** 
1487:X-CUBE-AI/App/pb_decode.c **** static bool checkreturn pb_dec_fixed_length_bytes(pb_istream_t *stream, const pb_field_t *field, vo
ARM GAS  /tmp/ccbrCuLB.s 			page 55


1488:X-CUBE-AI/App/pb_decode.c **** {
 1375              		.loc 1 1488 1 is_stmt 1 view -0
 1376              		.cfi_startproc
 1377              		@ args = 0, pretend = 0, frame = 8
 1378              		@ frame_needed = 0, uses_anonymous_args = 0
 1379              		.loc 1 1488 1 is_stmt 0 view .LVU358
 1380 0000 F0B5     		push	{r4, r5, r6, r7, lr}
 1381              	.LCFI31:
 1382              		.cfi_def_cfa_offset 20
 1383              		.cfi_offset 4, -20
 1384              		.cfi_offset 5, -16
 1385              		.cfi_offset 6, -12
 1386              		.cfi_offset 7, -8
 1387              		.cfi_offset 14, -4
 1388 0002 83B0     		sub	sp, sp, #12
 1389              	.LCFI32:
 1390              		.cfi_def_cfa_offset 32
 1391 0004 0446     		mov	r4, r0
 1392 0006 0D46     		mov	r5, r1
 1393 0008 1646     		mov	r6, r2
1489:X-CUBE-AI/App/pb_decode.c ****     uint32_t size;
 1394              		.loc 1 1489 5 is_stmt 1 view .LVU359
1490:X-CUBE-AI/App/pb_decode.c **** 
1491:X-CUBE-AI/App/pb_decode.c ****     if (!pb_decode_varint32(stream, &size))
 1395              		.loc 1 1491 5 view .LVU360
 1396              		.loc 1 1491 10 is_stmt 0 view .LVU361
 1397 000a 01A9     		add	r1, sp, #4
 1398              	.LVL124:
 1399              		.loc 1 1491 10 view .LVU362
 1400 000c FFF7FEFF 		bl	pb_decode_varint32
 1401              	.LVL125:
 1402              		.loc 1 1491 8 view .LVU363
 1403 0010 0746     		mov	r7, r0
 1404 0012 60B1     		cbz	r0, .L126
1492:X-CUBE-AI/App/pb_decode.c ****         return false;
1493:X-CUBE-AI/App/pb_decode.c **** 
1494:X-CUBE-AI/App/pb_decode.c ****     if (size > PB_SIZE_MAX)
 1405              		.loc 1 1494 5 is_stmt 1 view .LVU364
 1406              		.loc 1 1494 14 is_stmt 0 view .LVU365
 1407 0014 019B     		ldr	r3, [sp, #4]
 1408              		.loc 1 1494 8 view .LVU366
 1409 0016 B3F5803F 		cmp	r3, #65536
 1410 001a 0BD2     		bcs	.L133
1495:X-CUBE-AI/App/pb_decode.c ****         PB_RETURN_ERROR(stream, "bytes overflow");
1496:X-CUBE-AI/App/pb_decode.c **** 
1497:X-CUBE-AI/App/pb_decode.c ****     if (size == 0)
 1411              		.loc 1 1497 5 is_stmt 1 view .LVU367
 1412              		.loc 1 1497 8 is_stmt 0 view .LVU368
 1413 001c 8BB1     		cbz	r3, .L134
1498:X-CUBE-AI/App/pb_decode.c ****     {
1499:X-CUBE-AI/App/pb_decode.c ****         /* As a special case, treat empty bytes string as all zeros for fixed_length_bytes. */
1500:X-CUBE-AI/App/pb_decode.c ****         memset(dest, 0, field->data_size);
1501:X-CUBE-AI/App/pb_decode.c ****         return true;
1502:X-CUBE-AI/App/pb_decode.c ****     }
1503:X-CUBE-AI/App/pb_decode.c **** 
1504:X-CUBE-AI/App/pb_decode.c ****     if (size != field->data_size)
 1414              		.loc 1 1504 5 is_stmt 1 view .LVU369
ARM GAS  /tmp/ccbrCuLB.s 			page 56


 1415              		.loc 1 1504 22 is_stmt 0 view .LVU370
 1416 001e B5F80720 		ldrh	r2, [r5, #7]	@ unaligned
 1417              		.loc 1 1504 8 view .LVU371
 1418 0022 9342     		cmp	r3, r2
 1419 0024 16D0     		beq	.L130
1505:X-CUBE-AI/App/pb_decode.c ****         PB_RETURN_ERROR(stream, "incorrect fixed length bytes size");
 1420              		.loc 1 1505 9 is_stmt 1 view .LVU372
 1421 0026 E368     		ldr	r3, [r4, #12]
 1422 0028 93B1     		cbz	r3, .L135
 1423              	.L131:
 1424              		.loc 1 1505 9 is_stmt 0 discriminator 4 view .LVU373
 1425 002a E360     		str	r3, [r4, #12]
 1426 002c 0027     		movs	r7, #0
 1427              	.L126:
1506:X-CUBE-AI/App/pb_decode.c **** 
1507:X-CUBE-AI/App/pb_decode.c ****     return pb_read(stream, (pb_byte_t*)dest, field->data_size);
1508:X-CUBE-AI/App/pb_decode.c **** }
 1428              		.loc 1 1508 1 view .LVU374
 1429 002e 3846     		mov	r0, r7
 1430 0030 03B0     		add	sp, sp, #12
 1431              	.LCFI33:
 1432              		.cfi_remember_state
 1433              		.cfi_def_cfa_offset 20
 1434              		@ sp needed
 1435 0032 F0BD     		pop	{r4, r5, r6, r7, pc}
 1436              	.LVL126:
 1437              	.L133:
 1438              	.LCFI34:
 1439              		.cfi_restore_state
1495:X-CUBE-AI/App/pb_decode.c **** 
 1440              		.loc 1 1495 9 is_stmt 1 view .LVU375
 1441 0034 E368     		ldr	r3, [r4, #12]
 1442 0036 13B1     		cbz	r3, .L136
 1443              	.L128:
1495:X-CUBE-AI/App/pb_decode.c **** 
 1444              		.loc 1 1495 9 is_stmt 0 discriminator 4 view .LVU376
 1445 0038 E360     		str	r3, [r4, #12]
 1446 003a 0027     		movs	r7, #0
 1447 003c F7E7     		b	.L126
 1448              	.L136:
1495:X-CUBE-AI/App/pb_decode.c **** 
 1449              		.loc 1 1495 9 view .LVU377
 1450 003e 084B     		ldr	r3, .L137
 1451 0040 FAE7     		b	.L128
 1452              	.L134:
1500:X-CUBE-AI/App/pb_decode.c ****         return true;
 1453              		.loc 1 1500 9 is_stmt 1 view .LVU378
 1454 0042 B5F80720 		ldrh	r2, [r5, #7]	@ unaligned
 1455 0046 0021     		movs	r1, #0
 1456 0048 3046     		mov	r0, r6
 1457 004a FFF7FEFF 		bl	memset
 1458              	.LVL127:
1501:X-CUBE-AI/App/pb_decode.c ****     }
 1459              		.loc 1 1501 9 view .LVU379
1501:X-CUBE-AI/App/pb_decode.c ****     }
 1460              		.loc 1 1501 16 is_stmt 0 view .LVU380
 1461 004e EEE7     		b	.L126
ARM GAS  /tmp/ccbrCuLB.s 			page 57


 1462              	.L135:
1505:X-CUBE-AI/App/pb_decode.c **** 
 1463              		.loc 1 1505 9 view .LVU381
 1464 0050 044B     		ldr	r3, .L137+4
 1465 0052 EAE7     		b	.L131
 1466              	.L130:
1507:X-CUBE-AI/App/pb_decode.c **** }
 1467              		.loc 1 1507 5 is_stmt 1 view .LVU382
1507:X-CUBE-AI/App/pb_decode.c **** }
 1468              		.loc 1 1507 12 is_stmt 0 view .LVU383
 1469 0054 3146     		mov	r1, r6
 1470 0056 2046     		mov	r0, r4
 1471 0058 FFF7FEFF 		bl	pb_read
 1472              	.LVL128:
 1473 005c 0746     		mov	r7, r0
 1474 005e E6E7     		b	.L126
 1475              	.L138:
 1476              		.align	2
 1477              	.L137:
 1478 0060 00000000 		.word	.LC5
 1479 0064 10000000 		.word	.LC6
 1480              		.cfi_endproc
 1481              	.LFE40:
 1483              		.section	.rodata.pb_dec_string.str1.4,"aMS",%progbits,1
 1484              		.align	2
 1485              	.LC7:
 1486 0000 73697A65 		.ascii	"size too large\000"
 1486      20746F6F 
 1486      206C6172 
 1486      676500
 1487 000f 00       		.align	2
 1488              	.LC8:
 1489 0010 73747269 		.ascii	"string overflow\000"
 1489      6E67206F 
 1489      76657266 
 1489      6C6F7700 
 1490              		.section	.text.pb_dec_string,"ax",%progbits
 1491              		.align	1
 1492              		.syntax unified
 1493              		.thumb
 1494              		.thumb_func
 1495              		.fpu fpv4-sp-d16
 1497              	pb_dec_string:
 1498              	.LVL129:
 1499              	.LFB38:
1429:X-CUBE-AI/App/pb_decode.c ****     uint32_t size;
 1500              		.loc 1 1429 1 is_stmt 1 view -0
 1501              		.cfi_startproc
 1502              		@ args = 0, pretend = 0, frame = 8
 1503              		@ frame_needed = 0, uses_anonymous_args = 0
1429:X-CUBE-AI/App/pb_decode.c ****     uint32_t size;
 1504              		.loc 1 1429 1 is_stmt 0 view .LVU385
 1505 0000 70B5     		push	{r4, r5, r6, lr}
 1506              	.LCFI35:
 1507              		.cfi_def_cfa_offset 16
 1508              		.cfi_offset 4, -16
 1509              		.cfi_offset 5, -12
ARM GAS  /tmp/ccbrCuLB.s 			page 58


 1510              		.cfi_offset 6, -8
 1511              		.cfi_offset 14, -4
 1512 0002 82B0     		sub	sp, sp, #8
 1513              	.LCFI36:
 1514              		.cfi_def_cfa_offset 24
 1515 0004 0446     		mov	r4, r0
 1516 0006 0E46     		mov	r6, r1
 1517 0008 1546     		mov	r5, r2
1430:X-CUBE-AI/App/pb_decode.c ****     size_t alloc_size;
 1518              		.loc 1 1430 5 is_stmt 1 view .LVU386
1431:X-CUBE-AI/App/pb_decode.c ****     bool status;
 1519              		.loc 1 1431 5 view .LVU387
1432:X-CUBE-AI/App/pb_decode.c ****     if (!pb_decode_varint32(stream, &size))
 1520              		.loc 1 1432 5 view .LVU388
1433:X-CUBE-AI/App/pb_decode.c ****         return false;
 1521              		.loc 1 1433 5 view .LVU389
1433:X-CUBE-AI/App/pb_decode.c ****         return false;
 1522              		.loc 1 1433 10 is_stmt 0 view .LVU390
 1523 000a 01A9     		add	r1, sp, #4
 1524              	.LVL130:
1433:X-CUBE-AI/App/pb_decode.c ****         return false;
 1525              		.loc 1 1433 10 view .LVU391
 1526 000c FFF7FEFF 		bl	pb_decode_varint32
 1527              	.LVL131:
1433:X-CUBE-AI/App/pb_decode.c ****         return false;
 1528              		.loc 1 1433 8 view .LVU392
 1529 0010 A0B1     		cbz	r0, .L140
1437:X-CUBE-AI/App/pb_decode.c ****     
 1530              		.loc 1 1437 5 is_stmt 1 view .LVU393
1437:X-CUBE-AI/App/pb_decode.c ****     
 1531              		.loc 1 1437 23 is_stmt 0 view .LVU394
 1532 0012 019A     		ldr	r2, [sp, #4]
 1533              	.LVL132:
1439:X-CUBE-AI/App/pb_decode.c ****         PB_RETURN_ERROR(stream, "size too large");
 1534              		.loc 1 1439 5 is_stmt 1 view .LVU395
1439:X-CUBE-AI/App/pb_decode.c ****         PB_RETURN_ERROR(stream, "size too large");
 1535              		.loc 1 1439 8 is_stmt 0 view .LVU396
 1536 0014 511C     		adds	r1, r2, #1
 1537              	.LVL133:
1439:X-CUBE-AI/App/pb_decode.c ****         PB_RETURN_ERROR(stream, "size too large");
 1538              		.loc 1 1439 8 view .LVU397
 1539 0016 0DD2     		bcs	.L148
1442:X-CUBE-AI/App/pb_decode.c ****     {
 1540              		.loc 1 1442 5 is_stmt 1 view .LVU398
1442:X-CUBE-AI/App/pb_decode.c ****     {
 1541              		.loc 1 1442 9 is_stmt 0 view .LVU399
 1542 0018 B378     		ldrb	r3, [r6, #2]	@ zero_extendqisi2
1442:X-CUBE-AI/App/pb_decode.c ****     {
 1543              		.loc 1 1442 8 view .LVU400
 1544 001a 03F0C003 		and	r3, r3, #192
 1545 001e 802B     		cmp	r3, #128
 1546 0020 10D0     		beq	.L149
1454:X-CUBE-AI/App/pb_decode.c ****             PB_RETURN_ERROR(stream, "string overflow");
 1547              		.loc 1 1454 9 is_stmt 1 view .LVU401
1454:X-CUBE-AI/App/pb_decode.c ****             PB_RETURN_ERROR(stream, "string overflow");
 1548              		.loc 1 1454 31 is_stmt 0 view .LVU402
 1549 0022 B6F80730 		ldrh	r3, [r6, #7]	@ unaligned
ARM GAS  /tmp/ccbrCuLB.s 			page 59


1454:X-CUBE-AI/App/pb_decode.c ****             PB_RETURN_ERROR(stream, "string overflow");
 1550              		.loc 1 1454 12 view .LVU403
 1551 0026 8B42     		cmp	r3, r1
 1552 0028 15D2     		bcs	.L145
1455:X-CUBE-AI/App/pb_decode.c ****     }
 1553              		.loc 1 1455 13 is_stmt 1 view .LVU404
 1554 002a E368     		ldr	r3, [r4, #12]
 1555 002c 8BB1     		cbz	r3, .L150
 1556              	.L146:
1455:X-CUBE-AI/App/pb_decode.c ****     }
 1557              		.loc 1 1455 13 is_stmt 0 discriminator 4 view .LVU405
 1558 002e E360     		str	r3, [r4, #12]
 1559 0030 0020     		movs	r0, #0
 1560 0032 03E0     		b	.L140
 1561              	.L148:
1440:X-CUBE-AI/App/pb_decode.c ****     
 1562              		.loc 1 1440 9 is_stmt 1 view .LVU406
 1563 0034 E368     		ldr	r3, [r4, #12]
 1564 0036 1BB1     		cbz	r3, .L151
 1565              	.L142:
1440:X-CUBE-AI/App/pb_decode.c ****     
 1566              		.loc 1 1440 9 is_stmt 0 discriminator 4 view .LVU407
 1567 0038 E360     		str	r3, [r4, #12]
 1568 003a 0020     		movs	r0, #0
 1569              	.LVL134:
 1570              	.L140:
1461:X-CUBE-AI/App/pb_decode.c **** 
 1571              		.loc 1 1461 1 view .LVU408
 1572 003c 02B0     		add	sp, sp, #8
 1573              	.LCFI37:
 1574              		.cfi_remember_state
 1575              		.cfi_def_cfa_offset 16
 1576              		@ sp needed
 1577 003e 70BD     		pop	{r4, r5, r6, pc}
 1578              	.LVL135:
 1579              	.L151:
 1580              	.LCFI38:
 1581              		.cfi_restore_state
1440:X-CUBE-AI/App/pb_decode.c ****     
 1582              		.loc 1 1440 9 view .LVU409
 1583 0040 094B     		ldr	r3, .L153
 1584 0042 F9E7     		b	.L142
 1585              	.L149:
1445:X-CUBE-AI/App/pb_decode.c **** #else
 1586              		.loc 1 1445 9 is_stmt 1 view .LVU410
 1587 0044 E368     		ldr	r3, [r4, #12]
 1588 0046 13B1     		cbz	r3, .L152
 1589              	.L144:
1445:X-CUBE-AI/App/pb_decode.c **** #else
 1590              		.loc 1 1445 9 is_stmt 0 discriminator 4 view .LVU411
 1591 0048 E360     		str	r3, [r4, #12]
 1592 004a 0020     		movs	r0, #0
 1593 004c F6E7     		b	.L140
 1594              	.L152:
1445:X-CUBE-AI/App/pb_decode.c **** #else
 1595              		.loc 1 1445 9 view .LVU412
 1596 004e 074B     		ldr	r3, .L153+4
ARM GAS  /tmp/ccbrCuLB.s 			page 60


 1597 0050 FAE7     		b	.L144
 1598              	.L150:
1455:X-CUBE-AI/App/pb_decode.c ****     }
 1599              		.loc 1 1455 13 view .LVU413
 1600 0052 074B     		ldr	r3, .L153+8
 1601 0054 EBE7     		b	.L146
 1602              	.L145:
1458:X-CUBE-AI/App/pb_decode.c ****     *((pb_byte_t*)dest + size) = 0;
 1603              		.loc 1 1458 5 is_stmt 1 view .LVU414
1458:X-CUBE-AI/App/pb_decode.c ****     *((pb_byte_t*)dest + size) = 0;
 1604              		.loc 1 1458 14 is_stmt 0 view .LVU415
 1605 0056 2946     		mov	r1, r5
 1606              	.LVL136:
1458:X-CUBE-AI/App/pb_decode.c ****     *((pb_byte_t*)dest + size) = 0;
 1607              		.loc 1 1458 14 view .LVU416
 1608 0058 2046     		mov	r0, r4
 1609 005a FFF7FEFF 		bl	pb_read
 1610              	.LVL137:
1459:X-CUBE-AI/App/pb_decode.c ****     return status;
 1611              		.loc 1 1459 5 is_stmt 1 view .LVU417
1459:X-CUBE-AI/App/pb_decode.c ****     return status;
 1612              		.loc 1 1459 32 is_stmt 0 view .LVU418
 1613 005e 019B     		ldr	r3, [sp, #4]
 1614 0060 0022     		movs	r2, #0
 1615 0062 EA54     		strb	r2, [r5, r3]
1460:X-CUBE-AI/App/pb_decode.c **** }
 1616              		.loc 1 1460 5 is_stmt 1 view .LVU419
1460:X-CUBE-AI/App/pb_decode.c **** }
 1617              		.loc 1 1460 12 is_stmt 0 view .LVU420
 1618 0064 EAE7     		b	.L140
 1619              	.L154:
 1620 0066 00BF     		.align	2
 1621              	.L153:
 1622 0068 00000000 		.word	.LC7
 1623 006c 00000000 		.word	.LC3
 1624 0070 10000000 		.word	.LC8
 1625              		.cfi_endproc
 1626              	.LFE38:
 1628              		.section	.text.pb_dec_bytes,"ax",%progbits
 1629              		.align	1
 1630              		.syntax unified
 1631              		.thumb
 1632              		.thumb_func
 1633              		.fpu fpv4-sp-d16
 1635              	pb_dec_bytes:
 1636              	.LVL138:
 1637              	.LFB37:
1392:X-CUBE-AI/App/pb_decode.c ****     uint32_t size;
 1638              		.loc 1 1392 1 is_stmt 1 view -0
 1639              		.cfi_startproc
 1640              		@ args = 0, pretend = 0, frame = 8
 1641              		@ frame_needed = 0, uses_anonymous_args = 0
1392:X-CUBE-AI/App/pb_decode.c ****     uint32_t size;
 1642              		.loc 1 1392 1 is_stmt 0 view .LVU422
 1643 0000 70B5     		push	{r4, r5, r6, lr}
 1644              	.LCFI39:
 1645              		.cfi_def_cfa_offset 16
ARM GAS  /tmp/ccbrCuLB.s 			page 61


 1646              		.cfi_offset 4, -16
 1647              		.cfi_offset 5, -12
 1648              		.cfi_offset 6, -8
 1649              		.cfi_offset 14, -4
 1650 0002 82B0     		sub	sp, sp, #8
 1651              	.LCFI40:
 1652              		.cfi_def_cfa_offset 24
 1653 0004 0446     		mov	r4, r0
 1654 0006 0E46     		mov	r6, r1
 1655 0008 1546     		mov	r5, r2
1393:X-CUBE-AI/App/pb_decode.c ****     size_t alloc_size;
 1656              		.loc 1 1393 5 is_stmt 1 view .LVU423
1394:X-CUBE-AI/App/pb_decode.c ****     pb_bytes_array_t *bdest;
 1657              		.loc 1 1394 5 view .LVU424
1395:X-CUBE-AI/App/pb_decode.c ****     
 1658              		.loc 1 1395 5 view .LVU425
1397:X-CUBE-AI/App/pb_decode.c ****         return false;
 1659              		.loc 1 1397 5 view .LVU426
1397:X-CUBE-AI/App/pb_decode.c ****         return false;
 1660              		.loc 1 1397 10 is_stmt 0 view .LVU427
 1661 000a 01A9     		add	r1, sp, #4
 1662              	.LVL139:
1397:X-CUBE-AI/App/pb_decode.c ****         return false;
 1663              		.loc 1 1397 10 view .LVU428
 1664 000c FFF7FEFF 		bl	pb_decode_varint32
 1665              	.LVL140:
1397:X-CUBE-AI/App/pb_decode.c ****         return false;
 1666              		.loc 1 1397 8 view .LVU429
 1667 0010 B8B1     		cbz	r0, .L156
1400:X-CUBE-AI/App/pb_decode.c ****         PB_RETURN_ERROR(stream, "bytes overflow");
 1668              		.loc 1 1400 5 is_stmt 1 view .LVU430
1400:X-CUBE-AI/App/pb_decode.c ****         PB_RETURN_ERROR(stream, "bytes overflow");
 1669              		.loc 1 1400 14 is_stmt 0 view .LVU431
 1670 0012 019B     		ldr	r3, [sp, #4]
1400:X-CUBE-AI/App/pb_decode.c ****         PB_RETURN_ERROR(stream, "bytes overflow");
 1671              		.loc 1 1400 8 view .LVU432
 1672 0014 B3F5803F 		cmp	r3, #65536
 1673 0018 0FD2     		bcs	.L166
1403:X-CUBE-AI/App/pb_decode.c ****     if (size > alloc_size)
 1674              		.loc 1 1403 5 is_stmt 1 view .LVU433
 1675              	.LVL141:
1404:X-CUBE-AI/App/pb_decode.c ****         PB_RETURN_ERROR(stream, "size too large");
 1676              		.loc 1 1404 5 view .LVU434
1404:X-CUBE-AI/App/pb_decode.c ****         PB_RETURN_ERROR(stream, "size too large");
 1677              		.loc 1 1404 8 is_stmt 0 view .LVU435
 1678 001a 991C     		adds	r1, r3, #2
 1679              	.LVL142:
1404:X-CUBE-AI/App/pb_decode.c ****         PB_RETURN_ERROR(stream, "size too large");
 1680              		.loc 1 1404 8 view .LVU436
 1681 001c 15D2     		bcs	.L167
1407:X-CUBE-AI/App/pb_decode.c ****     {
 1682              		.loc 1 1407 5 is_stmt 1 view .LVU437
1407:X-CUBE-AI/App/pb_decode.c ****     {
 1683              		.loc 1 1407 9 is_stmt 0 view .LVU438
 1684 001e B278     		ldrb	r2, [r6, #2]	@ zero_extendqisi2
1407:X-CUBE-AI/App/pb_decode.c ****     {
 1685              		.loc 1 1407 8 view .LVU439
ARM GAS  /tmp/ccbrCuLB.s 			page 62


 1686 0020 02F0C002 		and	r2, r2, #192
 1687 0024 802A     		cmp	r2, #128
 1688 0026 17D0     		beq	.L168
1419:X-CUBE-AI/App/pb_decode.c ****             PB_RETURN_ERROR(stream, "bytes overflow");
 1689              		.loc 1 1419 9 is_stmt 1 view .LVU440
1419:X-CUBE-AI/App/pb_decode.c ****             PB_RETURN_ERROR(stream, "bytes overflow");
 1690              		.loc 1 1419 31 is_stmt 0 view .LVU441
 1691 0028 B6F80720 		ldrh	r2, [r6, #7]	@ unaligned
1419:X-CUBE-AI/App/pb_decode.c ****             PB_RETURN_ERROR(stream, "bytes overflow");
 1692              		.loc 1 1419 12 view .LVU442
 1693 002c 8A42     		cmp	r2, r1
 1694 002e 1CD2     		bcs	.L163
1420:X-CUBE-AI/App/pb_decode.c ****         bdest = (pb_bytes_array_t*)dest;
 1695              		.loc 1 1420 13 is_stmt 1 view .LVU443
 1696 0030 E368     		ldr	r3, [r4, #12]
 1697 0032 C3B1     		cbz	r3, .L169
 1698              	.L164:
1420:X-CUBE-AI/App/pb_decode.c ****         bdest = (pb_bytes_array_t*)dest;
 1699              		.loc 1 1420 13 is_stmt 0 discriminator 4 view .LVU444
 1700 0034 E360     		str	r3, [r4, #12]
 1701 0036 0020     		movs	r0, #0
 1702 0038 03E0     		b	.L156
 1703              	.LVL143:
 1704              	.L166:
1401:X-CUBE-AI/App/pb_decode.c ****     
 1705              		.loc 1 1401 9 is_stmt 1 view .LVU445
 1706 003a E368     		ldr	r3, [r4, #12]
 1707 003c 1BB1     		cbz	r3, .L170
 1708              	.L158:
1401:X-CUBE-AI/App/pb_decode.c ****     
 1709              		.loc 1 1401 9 is_stmt 0 discriminator 4 view .LVU446
 1710 003e E360     		str	r3, [r4, #12]
 1711 0040 0020     		movs	r0, #0
 1712              	.L156:
1426:X-CUBE-AI/App/pb_decode.c **** 
 1713              		.loc 1 1426 1 view .LVU447
 1714 0042 02B0     		add	sp, sp, #8
 1715              	.LCFI41:
 1716              		.cfi_remember_state
 1717              		.cfi_def_cfa_offset 16
 1718              		@ sp needed
 1719 0044 70BD     		pop	{r4, r5, r6, pc}
 1720              	.LVL144:
 1721              	.L170:
 1722              	.LCFI42:
 1723              		.cfi_restore_state
1401:X-CUBE-AI/App/pb_decode.c ****     
 1724              		.loc 1 1401 9 view .LVU448
 1725 0046 0D4B     		ldr	r3, .L173
 1726 0048 F9E7     		b	.L158
 1727              	.LVL145:
 1728              	.L167:
1405:X-CUBE-AI/App/pb_decode.c ****     
 1729              		.loc 1 1405 9 is_stmt 1 view .LVU449
 1730 004a E368     		ldr	r3, [r4, #12]
 1731 004c 13B1     		cbz	r3, .L171
 1732              	.L160:
ARM GAS  /tmp/ccbrCuLB.s 			page 63


1405:X-CUBE-AI/App/pb_decode.c ****     
 1733              		.loc 1 1405 9 is_stmt 0 discriminator 4 view .LVU450
 1734 004e E360     		str	r3, [r4, #12]
 1735 0050 0020     		movs	r0, #0
 1736 0052 F6E7     		b	.L156
 1737              	.L171:
1405:X-CUBE-AI/App/pb_decode.c ****     
 1738              		.loc 1 1405 9 view .LVU451
 1739 0054 0A4B     		ldr	r3, .L173+4
 1740 0056 FAE7     		b	.L160
 1741              	.L168:
1410:X-CUBE-AI/App/pb_decode.c **** #else
 1742              		.loc 1 1410 9 is_stmt 1 view .LVU452
 1743 0058 E368     		ldr	r3, [r4, #12]
 1744 005a 13B1     		cbz	r3, .L172
 1745              	.L162:
1410:X-CUBE-AI/App/pb_decode.c **** #else
 1746              		.loc 1 1410 9 is_stmt 0 discriminator 4 view .LVU453
 1747 005c E360     		str	r3, [r4, #12]
 1748 005e 0020     		movs	r0, #0
 1749 0060 EFE7     		b	.L156
 1750              	.L172:
1410:X-CUBE-AI/App/pb_decode.c **** #else
 1751              		.loc 1 1410 9 view .LVU454
 1752 0062 084B     		ldr	r3, .L173+8
 1753 0064 FAE7     		b	.L162
 1754              	.L169:
1420:X-CUBE-AI/App/pb_decode.c ****         bdest = (pb_bytes_array_t*)dest;
 1755              		.loc 1 1420 13 view .LVU455
 1756 0066 054B     		ldr	r3, .L173
 1757 0068 E4E7     		b	.L164
 1758              	.L163:
1421:X-CUBE-AI/App/pb_decode.c ****     }
 1759              		.loc 1 1421 9 is_stmt 1 view .LVU456
 1760              	.LVL146:
1424:X-CUBE-AI/App/pb_decode.c ****     return pb_read(stream, bdest->bytes, size);
 1761              		.loc 1 1424 5 view .LVU457
1424:X-CUBE-AI/App/pb_decode.c ****     return pb_read(stream, bdest->bytes, size);
 1762              		.loc 1 1424 17 is_stmt 0 view .LVU458
 1763 006a 2946     		mov	r1, r5
 1764              	.LVL147:
1424:X-CUBE-AI/App/pb_decode.c ****     return pb_read(stream, bdest->bytes, size);
 1765              		.loc 1 1424 17 view .LVU459
 1766 006c 21F8023B 		strh	r3, [r1], #2	@ movhi
1425:X-CUBE-AI/App/pb_decode.c **** }
 1767              		.loc 1 1425 5 is_stmt 1 view .LVU460
1425:X-CUBE-AI/App/pb_decode.c **** }
 1768              		.loc 1 1425 12 is_stmt 0 view .LVU461
 1769 0070 019A     		ldr	r2, [sp, #4]
 1770 0072 2046     		mov	r0, r4
 1771 0074 FFF7FEFF 		bl	pb_read
 1772              	.LVL148:
1425:X-CUBE-AI/App/pb_decode.c **** }
 1773              		.loc 1 1425 12 view .LVU462
 1774 0078 E3E7     		b	.L156
 1775              	.L174:
 1776 007a 00BF     		.align	2
ARM GAS  /tmp/ccbrCuLB.s 			page 64


 1777              	.L173:
 1778 007c 00000000 		.word	.LC5
 1779 0080 00000000 		.word	.LC7
 1780 0084 00000000 		.word	.LC3
 1781              		.cfi_endproc
 1782              	.LFE37:
 1784              		.section	.text.pb_decode_varint,"ax",%progbits
 1785              		.align	1
 1786              		.global	pb_decode_varint
 1787              		.syntax unified
 1788              		.thumb
 1789              		.thumb_func
 1790              		.fpu fpv4-sp-d16
 1792              	pb_decode_varint:
 1793              	.LVL149:
 1794              	.LFB6:
 251:X-CUBE-AI/App/pb_decode.c ****     pb_byte_t byte;
 1795              		.loc 1 251 1 is_stmt 1 view -0
 1796              		.cfi_startproc
 1797              		@ args = 0, pretend = 0, frame = 8
 1798              		@ frame_needed = 0, uses_anonymous_args = 0
 251:X-CUBE-AI/App/pb_decode.c ****     pb_byte_t byte;
 1799              		.loc 1 251 1 is_stmt 0 view .LVU464
 1800 0000 2DE9F041 		push	{r4, r5, r6, r7, r8, lr}
 1801              	.LCFI43:
 1802              		.cfi_def_cfa_offset 24
 1803              		.cfi_offset 4, -24
 1804              		.cfi_offset 5, -20
 1805              		.cfi_offset 6, -16
 1806              		.cfi_offset 7, -12
 1807              		.cfi_offset 8, -8
 1808              		.cfi_offset 14, -4
 1809 0004 82B0     		sub	sp, sp, #8
 1810              	.LCFI44:
 1811              		.cfi_def_cfa_offset 32
 1812 0006 0746     		mov	r7, r0
 1813 0008 8846     		mov	r8, r1
 252:X-CUBE-AI/App/pb_decode.c ****     uint_fast8_t bitpos = 0;
 1814              		.loc 1 252 5 is_stmt 1 view .LVU465
 253:X-CUBE-AI/App/pb_decode.c ****     uint64_t result = 0;
 1815              		.loc 1 253 5 view .LVU466
 1816              	.LVL150:
 254:X-CUBE-AI/App/pb_decode.c ****     
 1817              		.loc 1 254 5 view .LVU467
 254:X-CUBE-AI/App/pb_decode.c ****     
 1818              		.loc 1 254 14 is_stmt 0 view .LVU468
 1819 000a 0025     		movs	r5, #0
 1820 000c 2E46     		mov	r6, r5
 253:X-CUBE-AI/App/pb_decode.c ****     uint64_t result = 0;
 1821              		.loc 1 253 18 view .LVU469
 1822 000e 2C46     		mov	r4, r5
 1823              	.LVL151:
 1824              	.L179:
 256:X-CUBE-AI/App/pb_decode.c ****     {
 1825              		.loc 1 256 5 is_stmt 1 view .LVU470
 258:X-CUBE-AI/App/pb_decode.c ****             PB_RETURN_ERROR(stream, "varint overflow");
 1826              		.loc 1 258 9 view .LVU471
ARM GAS  /tmp/ccbrCuLB.s 			page 65


 258:X-CUBE-AI/App/pb_decode.c ****             PB_RETURN_ERROR(stream, "varint overflow");
 1827              		.loc 1 258 12 is_stmt 0 view .LVU472
 1828 0010 3F2C     		cmp	r4, #63
 1829 0012 1FD8     		bhi	.L181
 261:X-CUBE-AI/App/pb_decode.c ****             return false;
 1830              		.loc 1 261 9 is_stmt 1 view .LVU473
 261:X-CUBE-AI/App/pb_decode.c ****             return false;
 1831              		.loc 1 261 14 is_stmt 0 view .LVU474
 1832 0014 0DF10701 		add	r1, sp, #7
 1833 0018 3846     		mov	r0, r7
 1834 001a FFF7FEFF 		bl	pb_readbyte
 1835              	.LVL152:
 261:X-CUBE-AI/App/pb_decode.c ****             return false;
 1836              		.loc 1 261 12 view .LVU475
 1837 001e 8646     		mov	lr, r0
 1838 0020 E8B1     		cbz	r0, .L178
 264:X-CUBE-AI/App/pb_decode.c ****         bitpos = (uint_fast8_t)(bitpos + 7);
 1839              		.loc 1 264 9 is_stmt 1 view .LVU476
 264:X-CUBE-AI/App/pb_decode.c ****         bitpos = (uint_fast8_t)(bitpos + 7);
 1840              		.loc 1 264 35 is_stmt 0 view .LVU477
 1841 0022 9DF807C0 		ldrb	ip, [sp, #7]	@ zero_extendqisi2
 264:X-CUBE-AI/App/pb_decode.c ****         bitpos = (uint_fast8_t)(bitpos + 7);
 1842              		.loc 1 264 19 view .LVU478
 1843 0026 0CF07F02 		and	r2, ip, #127
 264:X-CUBE-AI/App/pb_decode.c ****         bitpos = (uint_fast8_t)(bitpos + 7);
 1844              		.loc 1 264 43 view .LVU479
 1845 002a A4F12003 		sub	r3, r4, #32
 1846 002e C4F12001 		rsb	r1, r4, #32
 1847 0032 02FA03F3 		lsl	r3, r2, r3
 1848 0036 22FA01F1 		lsr	r1, r2, r1
 1849 003a 0B43     		orrs	r3, r3, r1
 1850 003c A240     		lsls	r2, r2, r4
 264:X-CUBE-AI/App/pb_decode.c ****         bitpos = (uint_fast8_t)(bitpos + 7);
 1851              		.loc 1 264 16 view .LVU480
 1852 003e 1543     		orrs	r5, r5, r2
 1853              	.LVL153:
 264:X-CUBE-AI/App/pb_decode.c ****         bitpos = (uint_fast8_t)(bitpos + 7);
 1854              		.loc 1 264 16 view .LVU481
 1855 0040 1E43     		orrs	r6, r6, r3
 1856              	.LVL154:
 265:X-CUBE-AI/App/pb_decode.c ****     } while (byte & 0x80);
 1857              		.loc 1 265 9 is_stmt 1 view .LVU482
 265:X-CUBE-AI/App/pb_decode.c ****     } while (byte & 0x80);
 1858              		.loc 1 265 16 is_stmt 0 view .LVU483
 1859 0042 0734     		adds	r4, r4, #7
 1860              	.LVL155:
 266:X-CUBE-AI/App/pb_decode.c ****     
 1861              		.loc 1 266 13 is_stmt 1 view .LVU484
 266:X-CUBE-AI/App/pb_decode.c ****     
 1862              		.loc 1 266 5 is_stmt 0 view .LVU485
 1863 0044 1CF0800F 		tst	ip, #128
 1864 0048 E2D1     		bne	.L179
 268:X-CUBE-AI/App/pb_decode.c ****     return true;
 1865              		.loc 1 268 5 is_stmt 1 view .LVU486
 268:X-CUBE-AI/App/pb_decode.c ****     return true;
 1866              		.loc 1 268 11 is_stmt 0 view .LVU487
 1867 004a C8F80050 		str	r5, [r8]
ARM GAS  /tmp/ccbrCuLB.s 			page 66


 1868 004e C8F80460 		str	r6, [r8, #4]
 269:X-CUBE-AI/App/pb_decode.c **** }
 1869              		.loc 1 269 5 is_stmt 1 view .LVU488
 269:X-CUBE-AI/App/pb_decode.c **** }
 1870              		.loc 1 269 12 is_stmt 0 view .LVU489
 1871 0052 04E0     		b	.L178
 1872              	.L181:
 259:X-CUBE-AI/App/pb_decode.c ****         
 1873              		.loc 1 259 13 is_stmt 1 view .LVU490
 1874 0054 FB68     		ldr	r3, [r7, #12]
 1875 0056 33B1     		cbz	r3, .L182
 1876              	.L177:
 259:X-CUBE-AI/App/pb_decode.c ****         
 1877              		.loc 1 259 13 is_stmt 0 discriminator 4 view .LVU491
 1878 0058 FB60     		str	r3, [r7, #12]
 1879 005a 4FF0000E 		mov	lr, #0
 1880              	.LVL156:
 1881              	.L178:
 270:X-CUBE-AI/App/pb_decode.c **** #endif
 1882              		.loc 1 270 1 view .LVU492
 1883 005e 7046     		mov	r0, lr
 1884 0060 02B0     		add	sp, sp, #8
 1885              	.LCFI45:
 1886              		.cfi_remember_state
 1887              		.cfi_def_cfa_offset 24
 1888              		@ sp needed
 1889 0062 BDE8F081 		pop	{r4, r5, r6, r7, r8, pc}
 1890              	.LVL157:
 1891              	.L182:
 1892              	.LCFI46:
 1893              		.cfi_restore_state
 259:X-CUBE-AI/App/pb_decode.c ****         
 1894              		.loc 1 259 13 view .LVU493
 1895 0066 014B     		ldr	r3, .L183
 1896 0068 F6E7     		b	.L177
 1897              	.L184:
 1898 006a 00BF     		.align	2
 1899              	.L183:
 1900 006c 00000000 		.word	.LC2
 1901              		.cfi_endproc
 1902              	.LFE6:
 1904              		.section	.rodata.pb_dec_uvarint.str1.4,"aMS",%progbits,1
 1905              		.align	2
 1906              	.LC9:
 1907 0000 696E7661 		.ascii	"invalid data_size\000"
 1907      6C696420 
 1907      64617461 
 1907      5F73697A 
 1907      6500
 1908 0012 0000     		.align	2
 1909              	.LC10:
 1910 0014 696E7465 		.ascii	"integer too large\000"
 1910      67657220 
 1910      746F6F20 
 1910      6C617267 
 1910      6500
 1911              		.section	.text.pb_dec_uvarint,"ax",%progbits
ARM GAS  /tmp/ccbrCuLB.s 			page 67


 1912              		.align	1
 1913              		.syntax unified
 1914              		.thumb
 1915              		.thumb_func
 1916              		.fpu fpv4-sp-d16
 1918              	pb_dec_uvarint:
 1919              	.LVL158:
 1920              	.LFB33:
1327:X-CUBE-AI/App/pb_decode.c ****     pb_uint64_t value, clamped;
 1921              		.loc 1 1327 1 is_stmt 1 view -0
 1922              		.cfi_startproc
 1923              		@ args = 0, pretend = 0, frame = 8
 1924              		@ frame_needed = 0, uses_anonymous_args = 0
1327:X-CUBE-AI/App/pb_decode.c ****     pb_uint64_t value, clamped;
 1925              		.loc 1 1327 1 is_stmt 0 view .LVU495
 1926 0000 2DE97043 		push	{r4, r5, r6, r8, r9, lr}
 1927              	.LCFI47:
 1928              		.cfi_def_cfa_offset 24
 1929              		.cfi_offset 4, -24
 1930              		.cfi_offset 5, -20
 1931              		.cfi_offset 6, -16
 1932              		.cfi_offset 8, -12
 1933              		.cfi_offset 9, -8
 1934              		.cfi_offset 14, -4
 1935 0004 82B0     		sub	sp, sp, #8
 1936              	.LCFI48:
 1937              		.cfi_def_cfa_offset 32
 1938 0006 0446     		mov	r4, r0
 1939 0008 0D46     		mov	r5, r1
 1940 000a 1646     		mov	r6, r2
1328:X-CUBE-AI/App/pb_decode.c ****     if (!pb_decode_varint(stream, &value))
 1941              		.loc 1 1328 5 is_stmt 1 view .LVU496
1329:X-CUBE-AI/App/pb_decode.c ****         return false;
 1942              		.loc 1 1329 5 view .LVU497
1329:X-CUBE-AI/App/pb_decode.c ****         return false;
 1943              		.loc 1 1329 10 is_stmt 0 view .LVU498
 1944 000c 6946     		mov	r1, sp
 1945              	.LVL159:
1329:X-CUBE-AI/App/pb_decode.c ****         return false;
 1946              		.loc 1 1329 10 view .LVU499
 1947 000e FFF7FEFF 		bl	pb_decode_varint
 1948              	.LVL160:
1329:X-CUBE-AI/App/pb_decode.c ****         return false;
 1949              		.loc 1 1329 8 view .LVU500
 1950 0012 00B3     		cbz	r0, .L186
1333:X-CUBE-AI/App/pb_decode.c ****         clamped = *(pb_uint64_t*)dest = value;
 1951              		.loc 1 1333 5 is_stmt 1 view .LVU501
1333:X-CUBE-AI/App/pb_decode.c ****         clamped = *(pb_uint64_t*)dest = value;
 1952              		.loc 1 1333 14 is_stmt 0 view .LVU502
 1953 0014 B5F80730 		ldrh	r3, [r5, #7]	@ unaligned
1333:X-CUBE-AI/App/pb_decode.c ****         clamped = *(pb_uint64_t*)dest = value;
 1954              		.loc 1 1333 8 view .LVU503
 1955 0018 082B     		cmp	r3, #8
 1956 001a 0ED0     		beq	.L195
1335:X-CUBE-AI/App/pb_decode.c ****         clamped = *(uint32_t*)dest = (uint32_t)value;
 1957              		.loc 1 1335 10 is_stmt 1 view .LVU504
1335:X-CUBE-AI/App/pb_decode.c ****         clamped = *(uint32_t*)dest = (uint32_t)value;
ARM GAS  /tmp/ccbrCuLB.s 			page 68


 1958              		.loc 1 1335 13 is_stmt 0 view .LVU505
 1959 001c 042B     		cmp	r3, #4
 1960 001e 1DD0     		beq	.L196
1337:X-CUBE-AI/App/pb_decode.c ****         clamped = *(uint_least16_t*)dest = (uint_least16_t)value;
 1961              		.loc 1 1337 10 is_stmt 1 view .LVU506
1337:X-CUBE-AI/App/pb_decode.c ****         clamped = *(uint_least16_t*)dest = (uint_least16_t)value;
 1962              		.loc 1 1337 13 is_stmt 0 view .LVU507
 1963 0020 022B     		cmp	r3, #2
 1964 0022 21D0     		beq	.L197
1339:X-CUBE-AI/App/pb_decode.c ****         clamped = *(uint_least8_t*)dest = (uint_least8_t)value;
 1965              		.loc 1 1339 10 is_stmt 1 view .LVU508
1339:X-CUBE-AI/App/pb_decode.c ****         clamped = *(uint_least8_t*)dest = (uint_least8_t)value;
 1966              		.loc 1 1339 13 is_stmt 0 view .LVU509
 1967 0024 012B     		cmp	r3, #1
 1968 0026 28D1     		bne	.L191
1340:X-CUBE-AI/App/pb_decode.c ****     else
 1969              		.loc 1 1340 9 is_stmt 1 view .LVU510
1340:X-CUBE-AI/App/pb_decode.c ****     else
 1970              		.loc 1 1340 43 is_stmt 0 view .LVU511
 1971 0028 9DF80080 		ldrb	r8, [sp]	@ zero_extendqisi2
1340:X-CUBE-AI/App/pb_decode.c ****     else
 1972              		.loc 1 1340 41 view .LVU512
 1973 002c 86F80080 		strb	r8, [r6]
1340:X-CUBE-AI/App/pb_decode.c ****     else
 1974              		.loc 1 1340 17 view .LVU513
 1975 0030 5FFA88F8 		uxtb	r8, r8
 1976 0034 4FF00009 		mov	r9, #0
 1977              	.LVL161:
1340:X-CUBE-AI/App/pb_decode.c ****     else
 1978              		.loc 1 1340 17 view .LVU514
 1979 0038 03E0     		b	.L188
 1980              	.LVL162:
 1981              	.L195:
1334:X-CUBE-AI/App/pb_decode.c ****     else if (field->data_size == sizeof(uint32_t))
 1982              		.loc 1 1334 9 is_stmt 1 view .LVU515
1334:X-CUBE-AI/App/pb_decode.c ****     else if (field->data_size == sizeof(uint32_t))
 1983              		.loc 1 1334 39 is_stmt 0 view .LVU516
 1984 003a DDE90089 		ldrd	r8, [sp]
 1985 003e C6E90089 		strd	r8, [r6]
 1986              	.LVL163:
 1987              	.L188:
1344:X-CUBE-AI/App/pb_decode.c ****         PB_RETURN_ERROR(stream, "integer too large");
 1988              		.loc 1 1344 5 is_stmt 1 view .LVU517
1344:X-CUBE-AI/App/pb_decode.c ****         PB_RETURN_ERROR(stream, "integer too large");
 1989              		.loc 1 1344 17 is_stmt 0 view .LVU518
 1990 0042 DDE90023 		ldrd	r2, [sp]
1344:X-CUBE-AI/App/pb_decode.c ****         PB_RETURN_ERROR(stream, "integer too large");
 1991              		.loc 1 1344 8 view .LVU519
 1992 0046 4B45     		cmp	r3, r9
 1993 0048 08BF     		it	eq
 1994 004a 4245     		cmpeq	r2, r8
 1995 004c 03D0     		beq	.L186
1345:X-CUBE-AI/App/pb_decode.c **** 
 1996              		.loc 1 1345 9 is_stmt 1 view .LVU520
 1997 004e E368     		ldr	r3, [r4, #12]
 1998 0050 D3B1     		cbz	r3, .L198
 1999              	.L193:
ARM GAS  /tmp/ccbrCuLB.s 			page 69


1345:X-CUBE-AI/App/pb_decode.c **** 
 2000              		.loc 1 1345 9 is_stmt 0 discriminator 4 view .LVU521
 2001 0052 E360     		str	r3, [r4, #12]
 2002 0054 0020     		movs	r0, #0
 2003              	.LVL164:
 2004              	.L186:
1348:X-CUBE-AI/App/pb_decode.c **** 
 2005              		.loc 1 1348 1 view .LVU522
 2006 0056 02B0     		add	sp, sp, #8
 2007              	.LCFI49:
 2008              		.cfi_remember_state
 2009              		.cfi_def_cfa_offset 24
 2010              		@ sp needed
 2011 0058 BDE87083 		pop	{r4, r5, r6, r8, r9, pc}
 2012              	.LVL165:
 2013              	.L196:
 2014              	.LCFI50:
 2015              		.cfi_restore_state
1336:X-CUBE-AI/App/pb_decode.c ****     else if (field->data_size == sizeof(uint_least16_t))
 2016              		.loc 1 1336 9 is_stmt 1 view .LVU523
1336:X-CUBE-AI/App/pb_decode.c ****     else if (field->data_size == sizeof(uint_least16_t))
 2017              		.loc 1 1336 38 is_stmt 0 view .LVU524
 2018 005c 009B     		ldr	r3, [sp]
1336:X-CUBE-AI/App/pb_decode.c ****     else if (field->data_size == sizeof(uint_least16_t))
 2019              		.loc 1 1336 36 view .LVU525
 2020 005e 3360     		str	r3, [r6]
1336:X-CUBE-AI/App/pb_decode.c ****     else if (field->data_size == sizeof(uint_least16_t))
 2021              		.loc 1 1336 17 view .LVU526
 2022 0060 9846     		mov	r8, r3
 2023 0062 4FF00009 		mov	r9, #0
 2024              	.LVL166:
1336:X-CUBE-AI/App/pb_decode.c ****     else if (field->data_size == sizeof(uint_least16_t))
 2025              		.loc 1 1336 17 view .LVU527
 2026 0066 ECE7     		b	.L188
 2027              	.LVL167:
 2028              	.L197:
1338:X-CUBE-AI/App/pb_decode.c ****     else if (field->data_size == sizeof(uint_least8_t))
 2029              		.loc 1 1338 9 is_stmt 1 view .LVU528
1338:X-CUBE-AI/App/pb_decode.c ****     else if (field->data_size == sizeof(uint_least8_t))
 2030              		.loc 1 1338 44 is_stmt 0 view .LVU529
 2031 0068 BDF80080 		ldrh	r8, [sp]
1338:X-CUBE-AI/App/pb_decode.c ****     else if (field->data_size == sizeof(uint_least8_t))
 2032              		.loc 1 1338 42 view .LVU530
 2033 006c A6F80080 		strh	r8, [r6]	@ movhi
1338:X-CUBE-AI/App/pb_decode.c ****     else if (field->data_size == sizeof(uint_least8_t))
 2034              		.loc 1 1338 17 view .LVU531
 2035 0070 1FFA88F8 		uxth	r8, r8
 2036 0074 4FF00009 		mov	r9, #0
 2037              	.LVL168:
1338:X-CUBE-AI/App/pb_decode.c ****     else if (field->data_size == sizeof(uint_least8_t))
 2038              		.loc 1 1338 17 view .LVU532
 2039 0078 E3E7     		b	.L188
 2040              	.LVL169:
 2041              	.L191:
1342:X-CUBE-AI/App/pb_decode.c ****     
 2042              		.loc 1 1342 9 is_stmt 1 view .LVU533
 2043 007a E368     		ldr	r3, [r4, #12]
ARM GAS  /tmp/ccbrCuLB.s 			page 70


 2044 007c 13B1     		cbz	r3, .L199
 2045              	.L192:
1342:X-CUBE-AI/App/pb_decode.c ****     
 2046              		.loc 1 1342 9 is_stmt 0 discriminator 4 view .LVU534
 2047 007e E360     		str	r3, [r4, #12]
 2048 0080 0020     		movs	r0, #0
 2049 0082 E8E7     		b	.L186
 2050              	.L199:
1342:X-CUBE-AI/App/pb_decode.c ****     
 2051              		.loc 1 1342 9 view .LVU535
 2052 0084 014B     		ldr	r3, .L200
 2053 0086 FAE7     		b	.L192
 2054              	.LVL170:
 2055              	.L198:
1345:X-CUBE-AI/App/pb_decode.c **** 
 2056              		.loc 1 1345 9 view .LVU536
 2057 0088 014B     		ldr	r3, .L200+4
 2058 008a E2E7     		b	.L193
 2059              	.L201:
 2060              		.align	2
 2061              	.L200:
 2062 008c 00000000 		.word	.LC9
 2063 0090 14000000 		.word	.LC10
 2064              		.cfi_endproc
 2065              	.LFE33:
 2067              		.section	.text.pb_dec_varint,"ax",%progbits
 2068              		.align	1
 2069              		.syntax unified
 2070              		.thumb
 2071              		.thumb_func
 2072              		.fpu fpv4-sp-d16
 2074              	pb_dec_varint:
 2075              	.LVL171:
 2076              	.LFB32:
1290:X-CUBE-AI/App/pb_decode.c ****     pb_uint64_t value;
 2077              		.loc 1 1290 1 is_stmt 1 view -0
 2078              		.cfi_startproc
 2079              		@ args = 0, pretend = 0, frame = 8
 2080              		@ frame_needed = 0, uses_anonymous_args = 0
1290:X-CUBE-AI/App/pb_decode.c ****     pb_uint64_t value;
 2081              		.loc 1 1290 1 is_stmt 0 view .LVU538
 2082 0000 2DE9F041 		push	{r4, r5, r6, r7, r8, lr}
 2083              	.LCFI51:
 2084              		.cfi_def_cfa_offset 24
 2085              		.cfi_offset 4, -24
 2086              		.cfi_offset 5, -20
 2087              		.cfi_offset 6, -16
 2088              		.cfi_offset 7, -12
 2089              		.cfi_offset 8, -8
 2090              		.cfi_offset 14, -4
 2091 0004 82B0     		sub	sp, sp, #8
 2092              	.LCFI52:
 2093              		.cfi_def_cfa_offset 32
 2094 0006 0446     		mov	r4, r0
 2095 0008 0D46     		mov	r5, r1
 2096 000a 9046     		mov	r8, r2
1291:X-CUBE-AI/App/pb_decode.c ****     pb_int64_t svalue;
ARM GAS  /tmp/ccbrCuLB.s 			page 71


 2097              		.loc 1 1291 5 is_stmt 1 view .LVU539
1292:X-CUBE-AI/App/pb_decode.c ****     pb_int64_t clamped;
 2098              		.loc 1 1292 5 view .LVU540
1293:X-CUBE-AI/App/pb_decode.c ****     if (!pb_decode_varint(stream, &value))
 2099              		.loc 1 1293 5 view .LVU541
1294:X-CUBE-AI/App/pb_decode.c ****         return false;
 2100              		.loc 1 1294 5 view .LVU542
1294:X-CUBE-AI/App/pb_decode.c ****         return false;
 2101              		.loc 1 1294 10 is_stmt 0 view .LVU543
 2102 000c 6946     		mov	r1, sp
 2103              	.LVL172:
1294:X-CUBE-AI/App/pb_decode.c ****         return false;
 2104              		.loc 1 1294 10 view .LVU544
 2105 000e FFF7FEFF 		bl	pb_decode_varint
 2106              	.LVL173:
1294:X-CUBE-AI/App/pb_decode.c ****         return false;
 2107              		.loc 1 1294 8 view .LVU545
 2108 0012 10B3     		cbz	r0, .L203
1303:X-CUBE-AI/App/pb_decode.c ****         svalue = (pb_int64_t)value;
 2109              		.loc 1 1303 5 is_stmt 1 view .LVU546
1303:X-CUBE-AI/App/pb_decode.c ****         svalue = (pb_int64_t)value;
 2110              		.loc 1 1303 14 is_stmt 0 view .LVU547
 2111 0014 B5F80730 		ldrh	r3, [r5, #7]	@ unaligned
1303:X-CUBE-AI/App/pb_decode.c ****         svalue = (pb_int64_t)value;
 2112              		.loc 1 1303 8 view .LVU548
 2113 0018 082B     		cmp	r3, #8
 2114 001a 0FD0     		beq	.L214
1306:X-CUBE-AI/App/pb_decode.c **** 
 2115              		.loc 1 1306 9 is_stmt 1 view .LVU549
1306:X-CUBE-AI/App/pb_decode.c **** 
 2116              		.loc 1 1306 18 is_stmt 0 view .LVU550
 2117 001c 009E     		ldr	r6, [sp]
1306:X-CUBE-AI/App/pb_decode.c **** 
 2118              		.loc 1 1306 16 view .LVU551
 2119 001e F717     		asrs	r7, r6, #31
 2120              	.LVL174:
 2121              	.L205:
1309:X-CUBE-AI/App/pb_decode.c ****         clamped = *(pb_int64_t*)dest = svalue;
 2122              		.loc 1 1309 5 is_stmt 1 view .LVU552
1309:X-CUBE-AI/App/pb_decode.c ****         clamped = *(pb_int64_t*)dest = svalue;
 2123              		.loc 1 1309 8 is_stmt 0 view .LVU553
 2124 0020 082B     		cmp	r3, #8
 2125 0022 0ED0     		beq	.L215
1311:X-CUBE-AI/App/pb_decode.c ****         clamped = *(int32_t*)dest = (int32_t)svalue;
 2126              		.loc 1 1311 10 is_stmt 1 view .LVU554
1311:X-CUBE-AI/App/pb_decode.c ****         clamped = *(int32_t*)dest = (int32_t)svalue;
 2127              		.loc 1 1311 13 is_stmt 0 view .LVU555
 2128 0024 042B     		cmp	r3, #4
 2129 0026 1BD0     		beq	.L216
1313:X-CUBE-AI/App/pb_decode.c ****         clamped = *(int_least16_t*)dest = (int_least16_t)svalue;
 2130              		.loc 1 1313 10 is_stmt 1 view .LVU556
1313:X-CUBE-AI/App/pb_decode.c ****         clamped = *(int_least16_t*)dest = (int_least16_t)svalue;
 2131              		.loc 1 1313 13 is_stmt 0 view .LVU557
 2132 0028 022B     		cmp	r3, #2
 2133 002a 1ED0     		beq	.L217
1315:X-CUBE-AI/App/pb_decode.c ****         clamped = *(int_least8_t*)dest = (int_least8_t)svalue;
 2134              		.loc 1 1315 10 is_stmt 1 view .LVU558
ARM GAS  /tmp/ccbrCuLB.s 			page 72


1315:X-CUBE-AI/App/pb_decode.c ****         clamped = *(int_least8_t*)dest = (int_least8_t)svalue;
 2135              		.loc 1 1315 13 is_stmt 0 view .LVU559
 2136 002c 012B     		cmp	r3, #1
 2137 002e 22D1     		bne	.L210
1316:X-CUBE-AI/App/pb_decode.c ****     else
 2138              		.loc 1 1316 9 is_stmt 1 view .LVU560
1316:X-CUBE-AI/App/pb_decode.c ****     else
 2139              		.loc 1 1316 42 is_stmt 0 view .LVU561
 2140 0030 72B2     		sxtb	r2, r6
1316:X-CUBE-AI/App/pb_decode.c ****     else
 2141              		.loc 1 1316 40 view .LVU562
 2142 0032 88F80020 		strb	r2, [r8]
1316:X-CUBE-AI/App/pb_decode.c ****     else
 2143              		.loc 1 1316 17 view .LVU563
 2144 0036 52B2     		sxtb	r2, r2
 2145 0038 D317     		asrs	r3, r2, #31
 2146              	.LVL175:
1316:X-CUBE-AI/App/pb_decode.c ****     else
 2147              		.loc 1 1316 17 view .LVU564
 2148 003a 06E0     		b	.L207
 2149              	.LVL176:
 2150              	.L214:
1304:X-CUBE-AI/App/pb_decode.c ****     else
 2151              		.loc 1 1304 9 is_stmt 1 view .LVU565
1304:X-CUBE-AI/App/pb_decode.c ****     else
 2152              		.loc 1 1304 18 is_stmt 0 view .LVU566
 2153 003c DDE90067 		ldrd	r6, [sp]
 2154              	.LVL177:
1304:X-CUBE-AI/App/pb_decode.c ****     else
 2155              		.loc 1 1304 18 view .LVU567
 2156 0040 EEE7     		b	.L205
 2157              	.L215:
1310:X-CUBE-AI/App/pb_decode.c ****     else if (field->data_size == sizeof(int32_t))
 2158              		.loc 1 1310 9 is_stmt 1 view .LVU568
1310:X-CUBE-AI/App/pb_decode.c ****     else if (field->data_size == sizeof(int32_t))
 2159              		.loc 1 1310 38 is_stmt 0 view .LVU569
 2160 0042 C8E90067 		strd	r6, [r8]
 2161              	.LVL178:
1310:X-CUBE-AI/App/pb_decode.c ****     else if (field->data_size == sizeof(int32_t))
 2162              		.loc 1 1310 17 view .LVU570
 2163 0046 3246     		mov	r2, r6
 2164 0048 3B46     		mov	r3, r7
 2165              	.LVL179:
 2166              	.L207:
1320:X-CUBE-AI/App/pb_decode.c ****         PB_RETURN_ERROR(stream, "integer too large");
 2167              		.loc 1 1320 5 is_stmt 1 view .LVU571
1320:X-CUBE-AI/App/pb_decode.c ****         PB_RETURN_ERROR(stream, "integer too large");
 2168              		.loc 1 1320 8 is_stmt 0 view .LVU572
 2169 004a 9F42     		cmp	r7, r3
 2170 004c 08BF     		it	eq
 2171 004e 9642     		cmpeq	r6, r2
 2172 0050 03D0     		beq	.L203
1321:X-CUBE-AI/App/pb_decode.c ****     
 2173              		.loc 1 1321 9 is_stmt 1 view .LVU573
 2174 0052 E368     		ldr	r3, [r4, #12]
 2175 0054 B3B1     		cbz	r3, .L218
 2176              	.L212:
ARM GAS  /tmp/ccbrCuLB.s 			page 73


1321:X-CUBE-AI/App/pb_decode.c ****     
 2177              		.loc 1 1321 9 is_stmt 0 discriminator 4 view .LVU574
 2178 0056 E360     		str	r3, [r4, #12]
 2179 0058 0020     		movs	r0, #0
 2180              	.LVL180:
 2181              	.L203:
1324:X-CUBE-AI/App/pb_decode.c **** 
 2182              		.loc 1 1324 1 view .LVU575
 2183 005a 02B0     		add	sp, sp, #8
 2184              	.LCFI53:
 2185              		.cfi_remember_state
 2186              		.cfi_def_cfa_offset 24
 2187              		@ sp needed
 2188 005c BDE8F081 		pop	{r4, r5, r6, r7, r8, pc}
 2189              	.LVL181:
 2190              	.L216:
 2191              	.LCFI54:
 2192              		.cfi_restore_state
1312:X-CUBE-AI/App/pb_decode.c ****     else if (field->data_size == sizeof(int_least16_t))
 2193              		.loc 1 1312 9 is_stmt 1 view .LVU576
1312:X-CUBE-AI/App/pb_decode.c ****     else if (field->data_size == sizeof(int_least16_t))
 2194              		.loc 1 1312 35 is_stmt 0 view .LVU577
 2195 0060 C8F80060 		str	r6, [r8]
1312:X-CUBE-AI/App/pb_decode.c ****     else if (field->data_size == sizeof(int_least16_t))
 2196              		.loc 1 1312 17 view .LVU578
 2197 0064 3246     		mov	r2, r6
 2198 0066 F317     		asrs	r3, r6, #31
 2199              	.LVL182:
1312:X-CUBE-AI/App/pb_decode.c ****     else if (field->data_size == sizeof(int_least16_t))
 2200              		.loc 1 1312 17 view .LVU579
 2201 0068 EFE7     		b	.L207
 2202              	.LVL183:
 2203              	.L217:
1314:X-CUBE-AI/App/pb_decode.c ****     else if (field->data_size == sizeof(int_least8_t))
 2204              		.loc 1 1314 9 is_stmt 1 view .LVU580
1314:X-CUBE-AI/App/pb_decode.c ****     else if (field->data_size == sizeof(int_least8_t))
 2205              		.loc 1 1314 43 is_stmt 0 view .LVU581
 2206 006a 32B2     		sxth	r2, r6
1314:X-CUBE-AI/App/pb_decode.c ****     else if (field->data_size == sizeof(int_least8_t))
 2207              		.loc 1 1314 41 view .LVU582
 2208 006c A8F80020 		strh	r2, [r8]	@ movhi
1314:X-CUBE-AI/App/pb_decode.c ****     else if (field->data_size == sizeof(int_least8_t))
 2209              		.loc 1 1314 17 view .LVU583
 2210 0070 12B2     		sxth	r2, r2
 2211 0072 D317     		asrs	r3, r2, #31
 2212              	.LVL184:
1314:X-CUBE-AI/App/pb_decode.c ****     else if (field->data_size == sizeof(int_least8_t))
 2213              		.loc 1 1314 17 view .LVU584
 2214 0074 E9E7     		b	.L207
 2215              	.LVL185:
 2216              	.L210:
1318:X-CUBE-AI/App/pb_decode.c **** 
 2217              		.loc 1 1318 9 is_stmt 1 view .LVU585
 2218 0076 E368     		ldr	r3, [r4, #12]
 2219 0078 13B1     		cbz	r3, .L219
 2220              	.L211:
1318:X-CUBE-AI/App/pb_decode.c **** 
ARM GAS  /tmp/ccbrCuLB.s 			page 74


 2221              		.loc 1 1318 9 is_stmt 0 discriminator 4 view .LVU586
 2222 007a E360     		str	r3, [r4, #12]
 2223 007c 0020     		movs	r0, #0
 2224 007e ECE7     		b	.L203
 2225              	.L219:
1318:X-CUBE-AI/App/pb_decode.c **** 
 2226              		.loc 1 1318 9 view .LVU587
 2227 0080 014B     		ldr	r3, .L220
 2228 0082 FAE7     		b	.L211
 2229              	.LVL186:
 2230              	.L218:
1321:X-CUBE-AI/App/pb_decode.c ****     
 2231              		.loc 1 1321 9 view .LVU588
 2232 0084 014B     		ldr	r3, .L220+4
 2233 0086 E6E7     		b	.L212
 2234              	.L221:
 2235              		.align	2
 2236              	.L220:
 2237 0088 00000000 		.word	.LC9
 2238 008c 14000000 		.word	.LC10
 2239              		.cfi_endproc
 2240              	.LFE32:
 2242              		.section	.text.pb_decode_tag,"ax",%progbits
 2243              		.align	1
 2244              		.global	pb_decode_tag
 2245              		.syntax unified
 2246              		.thumb
 2247              		.thumb_func
 2248              		.fpu fpv4-sp-d16
 2250              	pb_decode_tag:
 2251              	.LVL187:
 2252              	.LFB9:
 294:X-CUBE-AI/App/pb_decode.c ****     uint32_t temp;
 2253              		.loc 1 294 1 is_stmt 1 view -0
 2254              		.cfi_startproc
 2255              		@ args = 0, pretend = 0, frame = 8
 2256              		@ frame_needed = 0, uses_anonymous_args = 0
 294:X-CUBE-AI/App/pb_decode.c ****     uint32_t temp;
 2257              		.loc 1 294 1 is_stmt 0 view .LVU590
 2258 0000 70B5     		push	{r4, r5, r6, lr}
 2259              	.LCFI55:
 2260              		.cfi_def_cfa_offset 16
 2261              		.cfi_offset 4, -16
 2262              		.cfi_offset 5, -12
 2263              		.cfi_offset 6, -8
 2264              		.cfi_offset 14, -4
 2265 0002 82B0     		sub	sp, sp, #8
 2266              	.LCFI56:
 2267              		.cfi_def_cfa_offset 24
 2268 0004 0D46     		mov	r5, r1
 2269 0006 1646     		mov	r6, r2
 2270 0008 1C46     		mov	r4, r3
 295:X-CUBE-AI/App/pb_decode.c ****     *eof = false;
 2271              		.loc 1 295 5 is_stmt 1 view .LVU591
 296:X-CUBE-AI/App/pb_decode.c ****     *wire_type = (pb_wire_type_t) 0;
 2272              		.loc 1 296 5 view .LVU592
 296:X-CUBE-AI/App/pb_decode.c ****     *wire_type = (pb_wire_type_t) 0;
ARM GAS  /tmp/ccbrCuLB.s 			page 75


 2273              		.loc 1 296 10 is_stmt 0 view .LVU593
 2274 000a 0023     		movs	r3, #0
 2275              	.LVL188:
 296:X-CUBE-AI/App/pb_decode.c ****     *wire_type = (pb_wire_type_t) 0;
 2276              		.loc 1 296 10 view .LVU594
 2277 000c 2370     		strb	r3, [r4]
 297:X-CUBE-AI/App/pb_decode.c ****     *tag = 0;
 2278              		.loc 1 297 5 is_stmt 1 view .LVU595
 297:X-CUBE-AI/App/pb_decode.c ****     *tag = 0;
 2279              		.loc 1 297 16 is_stmt 0 view .LVU596
 2280 000e 0B70     		strb	r3, [r1]
 298:X-CUBE-AI/App/pb_decode.c ****     
 2281              		.loc 1 298 5 is_stmt 1 view .LVU597
 298:X-CUBE-AI/App/pb_decode.c ****     
 2282              		.loc 1 298 10 is_stmt 0 view .LVU598
 2283 0010 1360     		str	r3, [r2]
 300:X-CUBE-AI/App/pb_decode.c ****     {
 2284              		.loc 1 300 5 is_stmt 1 view .LVU599
 300:X-CUBE-AI/App/pb_decode.c ****     {
 2285              		.loc 1 300 10 is_stmt 0 view .LVU600
 2286 0012 2246     		mov	r2, r4
 2287              	.LVL189:
 300:X-CUBE-AI/App/pb_decode.c ****     {
 2288              		.loc 1 300 10 view .LVU601
 2289 0014 01A9     		add	r1, sp, #4
 2290              	.LVL190:
 300:X-CUBE-AI/App/pb_decode.c ****     {
 2291              		.loc 1 300 10 view .LVU602
 2292 0016 FFF7FEFF 		bl	pb_decode_varint32_eof
 2293              	.LVL191:
 300:X-CUBE-AI/App/pb_decode.c ****     {
 2294              		.loc 1 300 8 view .LVU603
 2295 001a 40B1     		cbz	r0, .L223
 305:X-CUBE-AI/App/pb_decode.c ****     {
 2296              		.loc 1 305 5 is_stmt 1 view .LVU604
 305:X-CUBE-AI/App/pb_decode.c ****     {
 2297              		.loc 1 305 14 is_stmt 0 view .LVU605
 2298 001c 019B     		ldr	r3, [sp, #4]
 305:X-CUBE-AI/App/pb_decode.c ****     {
 2299              		.loc 1 305 8 view .LVU606
 2300 001e 43B1     		cbz	r3, .L226
 311:X-CUBE-AI/App/pb_decode.c ****     *wire_type = (pb_wire_type_t)(temp & 7);
 2301              		.loc 1 311 5 is_stmt 1 view .LVU607
 311:X-CUBE-AI/App/pb_decode.c ****     *wire_type = (pb_wire_type_t)(temp & 7);
 2302              		.loc 1 311 17 is_stmt 0 view .LVU608
 2303 0020 DB08     		lsrs	r3, r3, #3
 311:X-CUBE-AI/App/pb_decode.c ****     *wire_type = (pb_wire_type_t)(temp & 7);
 2304              		.loc 1 311 10 view .LVU609
 2305 0022 3360     		str	r3, [r6]
 312:X-CUBE-AI/App/pb_decode.c ****     return true;
 2306              		.loc 1 312 5 is_stmt 1 view .LVU610
 312:X-CUBE-AI/App/pb_decode.c ****     return true;
 2307              		.loc 1 312 18 is_stmt 0 view .LVU611
 2308 0024 9DF80430 		ldrb	r3, [sp, #4]	@ zero_extendqisi2
 312:X-CUBE-AI/App/pb_decode.c ****     return true;
 2309              		.loc 1 312 40 view .LVU612
 2310 0028 03F00703 		and	r3, r3, #7
ARM GAS  /tmp/ccbrCuLB.s 			page 76


 312:X-CUBE-AI/App/pb_decode.c ****     return true;
 2311              		.loc 1 312 16 view .LVU613
 2312 002c 2B70     		strb	r3, [r5]
 313:X-CUBE-AI/App/pb_decode.c **** }
 2313              		.loc 1 313 5 is_stmt 1 view .LVU614
 2314              	.L223:
 314:X-CUBE-AI/App/pb_decode.c **** 
 2315              		.loc 1 314 1 is_stmt 0 view .LVU615
 2316 002e 02B0     		add	sp, sp, #8
 2317              	.LCFI57:
 2318              		.cfi_remember_state
 2319              		.cfi_def_cfa_offset 16
 2320              		@ sp needed
 2321 0030 70BD     		pop	{r4, r5, r6, pc}
 2322              	.LVL192:
 2323              	.L226:
 2324              	.LCFI58:
 2325              		.cfi_restore_state
 307:X-CUBE-AI/App/pb_decode.c ****         return false;
 2326              		.loc 1 307 9 is_stmt 1 view .LVU616
 307:X-CUBE-AI/App/pb_decode.c ****         return false;
 2327              		.loc 1 307 14 is_stmt 0 view .LVU617
 2328 0032 0123     		movs	r3, #1
 2329 0034 2370     		strb	r3, [r4]
 308:X-CUBE-AI/App/pb_decode.c ****     }
 2330              		.loc 1 308 9 is_stmt 1 view .LVU618
 308:X-CUBE-AI/App/pb_decode.c ****     }
 2331              		.loc 1 308 16 is_stmt 0 view .LVU619
 2332 0036 0020     		movs	r0, #0
 2333 0038 F9E7     		b	.L223
 2334              		.cfi_endproc
 2335              	.LFE9:
 2337              		.section	.text.pb_skip_field,"ax",%progbits
 2338              		.align	1
 2339              		.global	pb_skip_field
 2340              		.syntax unified
 2341              		.thumb
 2342              		.thumb_func
 2343              		.fpu fpv4-sp-d16
 2345              	pb_skip_field:
 2346              	.LVL193:
 2347              	.LFB10:
 317:X-CUBE-AI/App/pb_decode.c ****     switch (wire_type)
 2348              		.loc 1 317 1 is_stmt 1 view -0
 2349              		.cfi_startproc
 2350              		@ args = 0, pretend = 0, frame = 0
 2351              		@ frame_needed = 0, uses_anonymous_args = 0
 317:X-CUBE-AI/App/pb_decode.c ****     switch (wire_type)
 2352              		.loc 1 317 1 is_stmt 0 view .LVU621
 2353 0000 08B5     		push	{r3, lr}
 2354              	.LCFI59:
 2355              		.cfi_def_cfa_offset 8
 2356              		.cfi_offset 3, -8
 2357              		.cfi_offset 14, -4
 318:X-CUBE-AI/App/pb_decode.c ****     {
 2358              		.loc 1 318 5 is_stmt 1 view .LVU622
 2359 0002 0529     		cmp	r1, #5
ARM GAS  /tmp/ccbrCuLB.s 			page 77


 2360 0004 14D8     		bhi	.L228
 2361 0006 DFE801F0 		tbb	[pc, r1]
 2362              	.L230:
 2363 000a 03       		.byte	(.L233-.L230)/2
 2364 000b 06       		.byte	(.L232-.L230)/2
 2365 000c 0B       		.byte	(.L231-.L230)/2
 2366 000d 13       		.byte	(.L228-.L230)/2
 2367 000e 13       		.byte	(.L228-.L230)/2
 2368 000f 0E       		.byte	(.L229-.L230)/2
 2369              		.p2align 1
 2370              	.L233:
 320:X-CUBE-AI/App/pb_decode.c ****         case PB_WT_64BIT: return pb_read(stream, NULL, 8);
 2371              		.loc 1 320 28 view .LVU623
 320:X-CUBE-AI/App/pb_decode.c ****         case PB_WT_64BIT: return pb_read(stream, NULL, 8);
 2372              		.loc 1 320 35 is_stmt 0 view .LVU624
 2373 0010 FFF7FEFF 		bl	pb_skip_varint
 2374              	.LVL194:
 2375              	.L234:
 326:X-CUBE-AI/App/pb_decode.c **** 
 2376              		.loc 1 326 1 view .LVU625
 2377 0014 08BD     		pop	{r3, pc}
 2378              	.LVL195:
 2379              	.L232:
 321:X-CUBE-AI/App/pb_decode.c ****         case PB_WT_STRING: return pb_skip_string(stream);
 2380              		.loc 1 321 27 is_stmt 1 view .LVU626
 321:X-CUBE-AI/App/pb_decode.c ****         case PB_WT_STRING: return pb_skip_string(stream);
 2381              		.loc 1 321 34 is_stmt 0 view .LVU627
 2382 0016 0822     		movs	r2, #8
 2383 0018 0021     		movs	r1, #0
 2384              	.LVL196:
 321:X-CUBE-AI/App/pb_decode.c ****         case PB_WT_STRING: return pb_skip_string(stream);
 2385              		.loc 1 321 34 view .LVU628
 2386 001a FFF7FEFF 		bl	pb_read
 2387              	.LVL197:
 321:X-CUBE-AI/App/pb_decode.c ****         case PB_WT_STRING: return pb_skip_string(stream);
 2388              		.loc 1 321 34 view .LVU629
 2389 001e F9E7     		b	.L234
 2390              	.LVL198:
 2391              	.L231:
 322:X-CUBE-AI/App/pb_decode.c ****         case PB_WT_32BIT: return pb_read(stream, NULL, 4);
 2392              		.loc 1 322 28 is_stmt 1 view .LVU630
 322:X-CUBE-AI/App/pb_decode.c ****         case PB_WT_32BIT: return pb_read(stream, NULL, 4);
 2393              		.loc 1 322 35 is_stmt 0 view .LVU631
 2394 0020 FFF7FEFF 		bl	pb_skip_string
 2395              	.LVL199:
 322:X-CUBE-AI/App/pb_decode.c ****         case PB_WT_32BIT: return pb_read(stream, NULL, 4);
 2396              		.loc 1 322 35 view .LVU632
 2397 0024 F6E7     		b	.L234
 2398              	.LVL200:
 2399              	.L229:
 323:X-CUBE-AI/App/pb_decode.c ****         default: PB_RETURN_ERROR(stream, "invalid wire_type");
 2400              		.loc 1 323 27 is_stmt 1 view .LVU633
 323:X-CUBE-AI/App/pb_decode.c ****         default: PB_RETURN_ERROR(stream, "invalid wire_type");
 2401              		.loc 1 323 34 is_stmt 0 view .LVU634
 2402 0026 0422     		movs	r2, #4
 2403 0028 0021     		movs	r1, #0
 2404              	.LVL201:
ARM GAS  /tmp/ccbrCuLB.s 			page 78


 323:X-CUBE-AI/App/pb_decode.c ****         default: PB_RETURN_ERROR(stream, "invalid wire_type");
 2405              		.loc 1 323 34 view .LVU635
 2406 002a FFF7FEFF 		bl	pb_read
 2407              	.LVL202:
 323:X-CUBE-AI/App/pb_decode.c ****         default: PB_RETURN_ERROR(stream, "invalid wire_type");
 2408              		.loc 1 323 34 view .LVU636
 2409 002e F1E7     		b	.L234
 2410              	.LVL203:
 2411              	.L228:
 324:X-CUBE-AI/App/pb_decode.c ****     }
 2412              		.loc 1 324 18 is_stmt 1 view .LVU637
 2413 0030 C368     		ldr	r3, [r0, #12]
 2414 0032 13B1     		cbz	r3, .L237
 2415              	.L235:
 324:X-CUBE-AI/App/pb_decode.c ****     }
 2416              		.loc 1 324 18 is_stmt 0 discriminator 4 view .LVU638
 2417 0034 C360     		str	r3, [r0, #12]
 2418 0036 0020     		movs	r0, #0
 2419              	.LVL204:
 324:X-CUBE-AI/App/pb_decode.c ****     }
 2420              		.loc 1 324 18 discriminator 4 view .LVU639
 2421 0038 ECE7     		b	.L234
 2422              	.LVL205:
 2423              	.L237:
 324:X-CUBE-AI/App/pb_decode.c ****     }
 2424              		.loc 1 324 18 view .LVU640
 2425 003a 014B     		ldr	r3, .L238
 2426 003c FAE7     		b	.L235
 2427              	.L239:
 2428 003e 00BF     		.align	2
 2429              	.L238:
 2430 0040 00000000 		.word	.LC4
 2431              		.cfi_endproc
 2432              	.LFE10:
 2434              		.section	.rodata.pb_make_string_substream.str1.4,"aMS",%progbits,1
 2435              		.align	2
 2436              	.LC11:
 2437 0000 70617265 		.ascii	"parent stream too short\000"
 2437      6E742073 
 2437      74726561 
 2437      6D20746F 
 2437      6F207368 
 2438              		.section	.text.pb_make_string_substream,"ax",%progbits
 2439              		.align	1
 2440              		.global	pb_make_string_substream
 2441              		.syntax unified
 2442              		.thumb
 2443              		.thumb_func
 2444              		.fpu fpv4-sp-d16
 2446              	pb_make_string_substream:
 2447              	.LVL206:
 2448              	.LFB12:
 368:X-CUBE-AI/App/pb_decode.c ****     uint32_t size;
 2449              		.loc 1 368 1 is_stmt 1 view -0
 2450              		.cfi_startproc
 2451              		@ args = 0, pretend = 0, frame = 8
 2452              		@ frame_needed = 0, uses_anonymous_args = 0
ARM GAS  /tmp/ccbrCuLB.s 			page 79


 368:X-CUBE-AI/App/pb_decode.c ****     uint32_t size;
 2453              		.loc 1 368 1 is_stmt 0 view .LVU642
 2454 0000 70B5     		push	{r4, r5, r6, lr}
 2455              	.LCFI60:
 2456              		.cfi_def_cfa_offset 16
 2457              		.cfi_offset 4, -16
 2458              		.cfi_offset 5, -12
 2459              		.cfi_offset 6, -8
 2460              		.cfi_offset 14, -4
 2461 0002 82B0     		sub	sp, sp, #8
 2462              	.LCFI61:
 2463              		.cfi_def_cfa_offset 24
 2464 0004 0446     		mov	r4, r0
 2465 0006 0D46     		mov	r5, r1
 369:X-CUBE-AI/App/pb_decode.c ****     if (!pb_decode_varint32(stream, &size))
 2466              		.loc 1 369 5 is_stmt 1 view .LVU643
 370:X-CUBE-AI/App/pb_decode.c ****         return false;
 2467              		.loc 1 370 5 view .LVU644
 370:X-CUBE-AI/App/pb_decode.c ****         return false;
 2468              		.loc 1 370 10 is_stmt 0 view .LVU645
 2469 0008 01A9     		add	r1, sp, #4
 2470              	.LVL207:
 370:X-CUBE-AI/App/pb_decode.c ****         return false;
 2471              		.loc 1 370 10 view .LVU646
 2472 000a FFF7FEFF 		bl	pb_decode_varint32
 2473              	.LVL208:
 370:X-CUBE-AI/App/pb_decode.c ****         return false;
 2474              		.loc 1 370 8 view .LVU647
 2475 000e 0646     		mov	r6, r0
 2476 0010 50B1     		cbz	r0, .L241
 373:X-CUBE-AI/App/pb_decode.c ****     if (substream->bytes_left < size)
 2477              		.loc 1 373 5 is_stmt 1 view .LVU648
 373:X-CUBE-AI/App/pb_decode.c ****     if (substream->bytes_left < size)
 2478              		.loc 1 373 16 is_stmt 0 view .LVU649
 2479 0012 94E80F00 		ldm	r4, {r0, r1, r2, r3}
 2480 0016 85E80F00 		stm	r5, {r0, r1, r2, r3}
 374:X-CUBE-AI/App/pb_decode.c ****         PB_RETURN_ERROR(stream, "parent stream too short");
 2481              		.loc 1 374 5 is_stmt 1 view .LVU650
 374:X-CUBE-AI/App/pb_decode.c ****         PB_RETURN_ERROR(stream, "parent stream too short");
 2482              		.loc 1 374 31 is_stmt 0 view .LVU651
 2483 001a 019B     		ldr	r3, [sp, #4]
 374:X-CUBE-AI/App/pb_decode.c ****         PB_RETURN_ERROR(stream, "parent stream too short");
 2484              		.loc 1 374 8 view .LVU652
 2485 001c 9A42     		cmp	r2, r3
 2486 001e 06D3     		bcc	.L245
 377:X-CUBE-AI/App/pb_decode.c ****     stream->bytes_left -= size;
 2487              		.loc 1 377 5 is_stmt 1 view .LVU653
 377:X-CUBE-AI/App/pb_decode.c ****     stream->bytes_left -= size;
 2488              		.loc 1 377 27 is_stmt 0 view .LVU654
 2489 0020 AB60     		str	r3, [r5, #8]
 378:X-CUBE-AI/App/pb_decode.c ****     return true;
 2490              		.loc 1 378 5 is_stmt 1 view .LVU655
 378:X-CUBE-AI/App/pb_decode.c ****     return true;
 2491              		.loc 1 378 24 is_stmt 0 view .LVU656
 2492 0022 A268     		ldr	r2, [r4, #8]
 2493 0024 D31A     		subs	r3, r2, r3
 2494 0026 A360     		str	r3, [r4, #8]
ARM GAS  /tmp/ccbrCuLB.s 			page 80


 379:X-CUBE-AI/App/pb_decode.c **** }
 2495              		.loc 1 379 5 is_stmt 1 view .LVU657
 2496              	.L241:
 380:X-CUBE-AI/App/pb_decode.c **** 
 2497              		.loc 1 380 1 is_stmt 0 view .LVU658
 2498 0028 3046     		mov	r0, r6
 2499 002a 02B0     		add	sp, sp, #8
 2500              	.LCFI62:
 2501              		.cfi_remember_state
 2502              		.cfi_def_cfa_offset 16
 2503              		@ sp needed
 2504 002c 70BD     		pop	{r4, r5, r6, pc}
 2505              	.LVL209:
 2506              	.L245:
 2507              	.LCFI63:
 2508              		.cfi_restore_state
 375:X-CUBE-AI/App/pb_decode.c ****     
 2509              		.loc 1 375 9 is_stmt 1 view .LVU659
 2510 002e E368     		ldr	r3, [r4, #12]
 2511 0030 13B1     		cbz	r3, .L246
 2512              	.L243:
 375:X-CUBE-AI/App/pb_decode.c ****     
 2513              		.loc 1 375 9 is_stmt 0 discriminator 4 view .LVU660
 2514 0032 E360     		str	r3, [r4, #12]
 2515 0034 0026     		movs	r6, #0
 2516 0036 F7E7     		b	.L241
 2517              	.L246:
 375:X-CUBE-AI/App/pb_decode.c ****     
 2518              		.loc 1 375 9 view .LVU661
 2519 0038 004B     		ldr	r3, .L247
 2520 003a FAE7     		b	.L243
 2521              	.L248:
 2522              		.align	2
 2523              	.L247:
 2524 003c 00000000 		.word	.LC11
 2525              		.cfi_endproc
 2526              	.LFE12:
 2528              		.section	.text.pb_close_string_substream,"ax",%progbits
 2529              		.align	1
 2530              		.global	pb_close_string_substream
 2531              		.syntax unified
 2532              		.thumb
 2533              		.thumb_func
 2534              		.fpu fpv4-sp-d16
 2536              	pb_close_string_substream:
 2537              	.LVL210:
 2538              	.LFB13:
 383:X-CUBE-AI/App/pb_decode.c ****     if (substream->bytes_left) {
 2539              		.loc 1 383 1 is_stmt 1 view -0
 2540              		.cfi_startproc
 2541              		@ args = 0, pretend = 0, frame = 0
 2542              		@ frame_needed = 0, uses_anonymous_args = 0
 383:X-CUBE-AI/App/pb_decode.c ****     if (substream->bytes_left) {
 2543              		.loc 1 383 1 is_stmt 0 view .LVU663
 2544 0000 38B5     		push	{r3, r4, r5, lr}
 2545              	.LCFI64:
 2546              		.cfi_def_cfa_offset 16
ARM GAS  /tmp/ccbrCuLB.s 			page 81


 2547              		.cfi_offset 3, -16
 2548              		.cfi_offset 4, -12
 2549              		.cfi_offset 5, -8
 2550              		.cfi_offset 14, -4
 2551 0002 0546     		mov	r5, r0
 2552 0004 0C46     		mov	r4, r1
 384:X-CUBE-AI/App/pb_decode.c ****         if (!pb_read(substream, NULL, substream->bytes_left))
 2553              		.loc 1 384 5 is_stmt 1 view .LVU664
 384:X-CUBE-AI/App/pb_decode.c ****         if (!pb_read(substream, NULL, substream->bytes_left))
 2554              		.loc 1 384 18 is_stmt 0 view .LVU665
 2555 0006 8A68     		ldr	r2, [r1, #8]
 384:X-CUBE-AI/App/pb_decode.c ****         if (!pb_read(substream, NULL, substream->bytes_left))
 2556              		.loc 1 384 8 view .LVU666
 2557 0008 2AB9     		cbnz	r2, .L253
 2558              	.LVL211:
 2559              	.L250:
 389:X-CUBE-AI/App/pb_decode.c **** 
 2560              		.loc 1 389 5 is_stmt 1 view .LVU667
 389:X-CUBE-AI/App/pb_decode.c **** 
 2561              		.loc 1 389 30 is_stmt 0 view .LVU668
 2562 000a 6368     		ldr	r3, [r4, #4]
 389:X-CUBE-AI/App/pb_decode.c **** 
 2563              		.loc 1 389 19 view .LVU669
 2564 000c 6B60     		str	r3, [r5, #4]
 392:X-CUBE-AI/App/pb_decode.c **** #endif
 2565              		.loc 1 392 5 is_stmt 1 view .LVU670
 392:X-CUBE-AI/App/pb_decode.c **** #endif
 2566              		.loc 1 392 31 is_stmt 0 view .LVU671
 2567 000e E368     		ldr	r3, [r4, #12]
 392:X-CUBE-AI/App/pb_decode.c **** #endif
 2568              		.loc 1 392 20 view .LVU672
 2569 0010 EB60     		str	r3, [r5, #12]
 394:X-CUBE-AI/App/pb_decode.c **** }
 2570              		.loc 1 394 5 is_stmt 1 view .LVU673
 394:X-CUBE-AI/App/pb_decode.c **** }
 2571              		.loc 1 394 12 is_stmt 0 view .LVU674
 2572 0012 0120     		movs	r0, #1
 2573              	.L251:
 395:X-CUBE-AI/App/pb_decode.c **** 
 2574              		.loc 1 395 1 view .LVU675
 2575 0014 38BD     		pop	{r3, r4, r5, pc}
 2576              	.LVL212:
 2577              	.L253:
 385:X-CUBE-AI/App/pb_decode.c ****             return false;
 2578              		.loc 1 385 9 is_stmt 1 view .LVU676
 385:X-CUBE-AI/App/pb_decode.c ****             return false;
 2579              		.loc 1 385 14 is_stmt 0 view .LVU677
 2580 0016 0021     		movs	r1, #0
 2581              	.LVL213:
 385:X-CUBE-AI/App/pb_decode.c ****             return false;
 2582              		.loc 1 385 14 view .LVU678
 2583 0018 2046     		mov	r0, r4
 2584              	.LVL214:
 385:X-CUBE-AI/App/pb_decode.c ****             return false;
 2585              		.loc 1 385 14 view .LVU679
 2586 001a FFF7FEFF 		bl	pb_read
 2587              	.LVL215:
ARM GAS  /tmp/ccbrCuLB.s 			page 82


 385:X-CUBE-AI/App/pb_decode.c ****             return false;
 2588              		.loc 1 385 12 view .LVU680
 2589 001e 0028     		cmp	r0, #0
 2590 0020 F3D1     		bne	.L250
 2591 0022 F7E7     		b	.L251
 2592              		.cfi_endproc
 2593              	.LFE13:
 2595              		.section	.rodata.decode_static_field.str1.4,"aMS",%progbits,1
 2596              		.align	2
 2597              	.LC12:
 2598 0000 61727261 		.ascii	"array overflow\000"
 2598      79206F76 
 2598      6572666C 
 2598      6F7700
 2599 000f 00       		.align	2
 2600              	.LC13:
 2601 0010 696E7661 		.ascii	"invalid field type\000"
 2601      6C696420 
 2601      6669656C 
 2601      64207479 
 2601      706500
 2602              		.section	.text.decode_static_field,"ax",%progbits
 2603              		.align	1
 2604              		.syntax unified
 2605              		.thumb
 2606              		.thumb_func
 2607              		.fpu fpv4-sp-d16
 2609              	decode_static_field:
 2610              	.LVL216:
 2611              	.LFB14:
 402:X-CUBE-AI/App/pb_decode.c ****     pb_type_t type;
 2612              		.loc 1 402 1 is_stmt 1 view -0
 2613              		.cfi_startproc
 2614              		@ args = 0, pretend = 0, frame = 16
 2615              		@ frame_needed = 0, uses_anonymous_args = 0
 402:X-CUBE-AI/App/pb_decode.c ****     pb_type_t type;
 2616              		.loc 1 402 1 is_stmt 0 view .LVU682
 2617 0000 2DE9F041 		push	{r4, r5, r6, r7, r8, lr}
 2618              	.LCFI65:
 2619              		.cfi_def_cfa_offset 24
 2620              		.cfi_offset 4, -24
 2621              		.cfi_offset 5, -20
 2622              		.cfi_offset 6, -16
 2623              		.cfi_offset 7, -12
 2624              		.cfi_offset 8, -8
 2625              		.cfi_offset 14, -4
 2626 0004 84B0     		sub	sp, sp, #16
 2627              	.LCFI66:
 2628              		.cfi_def_cfa_offset 40
 2629 0006 0546     		mov	r5, r0
 2630 0008 1446     		mov	r4, r2
 403:X-CUBE-AI/App/pb_decode.c ****     pb_decoder_t func;
 2631              		.loc 1 403 5 is_stmt 1 view .LVU683
 404:X-CUBE-AI/App/pb_decode.c ****     
 2632              		.loc 1 404 5 view .LVU684
 406:X-CUBE-AI/App/pb_decode.c ****     func = PB_DECODERS[PB_LTYPE(type)];
 2633              		.loc 1 406 5 view .LVU685
ARM GAS  /tmp/ccbrCuLB.s 			page 83


 406:X-CUBE-AI/App/pb_decode.c ****     func = PB_DECODERS[PB_LTYPE(type)];
 2634              		.loc 1 406 16 is_stmt 0 view .LVU686
 2635 000a 5068     		ldr	r0, [r2, #4]
 2636              	.LVL217:
 406:X-CUBE-AI/App/pb_decode.c ****     func = PB_DECODERS[PB_LTYPE(type)];
 2637              		.loc 1 406 10 view .LVU687
 2638 000c 8378     		ldrb	r3, [r0, #2]	@ zero_extendqisi2
 2639              	.LVL218:
 407:X-CUBE-AI/App/pb_decode.c **** 
 2640              		.loc 1 407 5 is_stmt 1 view .LVU688
 2641 000e 03F00F02 		and	r2, r3, #15
 2642              	.LVL219:
 407:X-CUBE-AI/App/pb_decode.c **** 
 2643              		.loc 1 407 10 is_stmt 0 view .LVU689
 2644 0012 494E     		ldr	r6, .L281
 2645 0014 56F82270 		ldr	r7, [r6, r2, lsl #2]
 2646              	.LVL220:
 409:X-CUBE-AI/App/pb_decode.c ****     {
 2647              		.loc 1 409 5 is_stmt 1 view .LVU690
 2648 0018 03F03003 		and	r3, r3, #48
 2649              	.LVL221:
 409:X-CUBE-AI/App/pb_decode.c ****     {
 2650              		.loc 1 409 5 is_stmt 0 view .LVU691
 2651 001c 202B     		cmp	r3, #32
 2652 001e 25D0     		beq	.L255
 2653 0020 0ED8     		bhi	.L256
 2654 0022 D3B1     		cbz	r3, .L257
 2655 0024 102B     		cmp	r3, #16
 2656 0026 7FD1     		bne	.L259
 415:X-CUBE-AI/App/pb_decode.c ****                 *(bool*)iter->pSize = true;
 2657              		.loc 1 415 13 is_stmt 1 view .LVU692
 415:X-CUBE-AI/App/pb_decode.c ****                 *(bool*)iter->pSize = true;
 2658              		.loc 1 415 21 is_stmt 0 view .LVU693
 2659 0028 6369     		ldr	r3, [r4, #20]
 415:X-CUBE-AI/App/pb_decode.c ****                 *(bool*)iter->pSize = true;
 2660              		.loc 1 415 36 view .LVU694
 2661 002a 2269     		ldr	r2, [r4, #16]
 415:X-CUBE-AI/App/pb_decode.c ****                 *(bool*)iter->pSize = true;
 2662              		.loc 1 415 16 view .LVU695
 2663 002c 9342     		cmp	r3, r2
 2664 002e 01D0     		beq	.L262
 416:X-CUBE-AI/App/pb_decode.c ****             return func(stream, iter->pos, iter->pData);
 2665              		.loc 1 416 17 is_stmt 1 view .LVU696
 416:X-CUBE-AI/App/pb_decode.c ****             return func(stream, iter->pos, iter->pData);
 2666              		.loc 1 416 37 is_stmt 0 view .LVU697
 2667 0030 0122     		movs	r2, #1
 2668 0032 1A70     		strb	r2, [r3]
 2669              	.LVL222:
 2670              	.L262:
 417:X-CUBE-AI/App/pb_decode.c ****     
 2671              		.loc 1 417 13 is_stmt 1 view .LVU698
 417:X-CUBE-AI/App/pb_decode.c ****     
 2672              		.loc 1 417 20 is_stmt 0 view .LVU699
 2673 0034 2269     		ldr	r2, [r4, #16]
 2674 0036 6168     		ldr	r1, [r4, #4]
 2675              	.LVL223:
 417:X-CUBE-AI/App/pb_decode.c ****     
ARM GAS  /tmp/ccbrCuLB.s 			page 84


 2676              		.loc 1 417 20 view .LVU700
 2677 0038 2846     		mov	r0, r5
 2678 003a B847     		blx	r7
 2679              	.LVL224:
 2680 003c 0646     		mov	r6, r0
 2681 003e 11E0     		b	.L261
 2682              	.LVL225:
 2683              	.L256:
 409:X-CUBE-AI/App/pb_decode.c ****     {
 2684              		.loc 1 409 5 view .LVU701
 2685 0040 302B     		cmp	r3, #48
 2686 0042 71D1     		bne	.L259
 462:X-CUBE-AI/App/pb_decode.c ****             if (PB_LTYPE(type) == PB_LTYPE_SUBMESSAGE)
 2687              		.loc 1 462 13 is_stmt 1 view .LVU702
 462:X-CUBE-AI/App/pb_decode.c ****             if (PB_LTYPE(type) == PB_LTYPE_SUBMESSAGE)
 2688              		.loc 1 462 30 is_stmt 0 view .LVU703
 2689 0044 6369     		ldr	r3, [r4, #20]
 462:X-CUBE-AI/App/pb_decode.c ****             if (PB_LTYPE(type) == PB_LTYPE_SUBMESSAGE)
 2690              		.loc 1 462 49 view .LVU704
 2691 0046 0188     		ldrh	r1, [r0]	@ unaligned
 2692              	.LVL226:
 462:X-CUBE-AI/App/pb_decode.c ****             if (PB_LTYPE(type) == PB_LTYPE_SUBMESSAGE)
 2693              		.loc 1 462 38 view .LVU705
 2694 0048 1980     		strh	r1, [r3]	@ movhi
 2695              	.LVL227:
 463:X-CUBE-AI/App/pb_decode.c ****             {
 2696              		.loc 1 463 13 is_stmt 1 view .LVU706
 463:X-CUBE-AI/App/pb_decode.c ****             {
 2697              		.loc 1 463 16 is_stmt 0 view .LVU707
 2698 004a 072A     		cmp	r2, #7
 2699 004c 5ED0     		beq	.L276
 2700              	.L272:
 470:X-CUBE-AI/App/pb_decode.c **** 
 2701              		.loc 1 470 13 is_stmt 1 view .LVU708
 470:X-CUBE-AI/App/pb_decode.c **** 
 2702              		.loc 1 470 20 is_stmt 0 view .LVU709
 2703 004e 2269     		ldr	r2, [r4, #16]
 2704 0050 6168     		ldr	r1, [r4, #4]
 2705 0052 2846     		mov	r0, r5
 2706 0054 B847     		blx	r7
 2707              	.LVL228:
 2708 0056 0646     		mov	r6, r0
 2709 0058 04E0     		b	.L261
 2710              	.LVL229:
 2711              	.L257:
 412:X-CUBE-AI/App/pb_decode.c ****             
 2712              		.loc 1 412 13 is_stmt 1 view .LVU710
 412:X-CUBE-AI/App/pb_decode.c ****             
 2713              		.loc 1 412 20 is_stmt 0 view .LVU711
 2714 005a 2269     		ldr	r2, [r4, #16]
 2715 005c 0146     		mov	r1, r0
 2716              	.LVL230:
 412:X-CUBE-AI/App/pb_decode.c ****             
 2717              		.loc 1 412 20 view .LVU712
 2718 005e 2846     		mov	r0, r5
 2719              	.LVL231:
 412:X-CUBE-AI/App/pb_decode.c ****             
ARM GAS  /tmp/ccbrCuLB.s 			page 85


 2720              		.loc 1 412 20 view .LVU713
 2721 0060 B847     		blx	r7
 2722              	.LVL232:
 412:X-CUBE-AI/App/pb_decode.c ****             
 2723              		.loc 1 412 20 view .LVU714
 2724 0062 0646     		mov	r6, r0
 2725              	.L261:
 475:X-CUBE-AI/App/pb_decode.c **** 
 2726              		.loc 1 475 1 discriminator 1 view .LVU715
 2727 0064 3046     		mov	r0, r6
 2728 0066 04B0     		add	sp, sp, #16
 2729              	.LCFI67:
 2730              		.cfi_remember_state
 2731              		.cfi_def_cfa_offset 24
 2732              		@ sp needed
 2733 0068 BDE8F081 		pop	{r4, r5, r6, r7, r8, pc}
 2734              	.LVL233:
 2735              	.L255:
 2736              	.LCFI68:
 2737              		.cfi_restore_state
 420:X-CUBE-AI/App/pb_decode.c ****                 && PB_LTYPE(type) <= PB_LTYPE_LAST_PACKABLE)
 2738              		.loc 1 420 13 is_stmt 1 view .LVU716
 420:X-CUBE-AI/App/pb_decode.c ****                 && PB_LTYPE(type) <= PB_LTYPE_LAST_PACKABLE)
 2739              		.loc 1 420 16 is_stmt 0 view .LVU717
 2740 006c 0229     		cmp	r1, #2
 2741 006e 13D0     		beq	.L277
 2742              	.L263:
 2743              	.LBB10:
 452:X-CUBE-AI/App/pb_decode.c ****                 char *pItem = (char*)iter->pData + iter->pos->data_size * (*size);
 2744              		.loc 1 452 17 is_stmt 1 view .LVU718
 452:X-CUBE-AI/App/pb_decode.c ****                 char *pItem = (char*)iter->pData + iter->pos->data_size * (*size);
 2745              		.loc 1 452 28 is_stmt 0 view .LVU719
 2746 0070 6169     		ldr	r1, [r4, #20]
 2747              	.LVL234:
 453:X-CUBE-AI/App/pb_decode.c **** 
 2748              		.loc 1 453 17 is_stmt 1 view .LVU720
 453:X-CUBE-AI/App/pb_decode.c **** 
 2749              		.loc 1 453 42 is_stmt 0 view .LVU721
 2750 0072 2669     		ldr	r6, [r4, #16]
 453:X-CUBE-AI/App/pb_decode.c **** 
 2751              		.loc 1 453 61 view .LVU722
 2752 0074 B0F80720 		ldrh	r2, [r0, #7]	@ unaligned
 453:X-CUBE-AI/App/pb_decode.c **** 
 2753              		.loc 1 453 76 view .LVU723
 2754 0078 0B88     		ldrh	r3, [r1]
 453:X-CUBE-AI/App/pb_decode.c **** 
 2755              		.loc 1 453 23 view .LVU724
 2756 007a 03FB0262 		mla	r2, r3, r2, r6
 2757              	.LVL235:
 455:X-CUBE-AI/App/pb_decode.c ****                     PB_RETURN_ERROR(stream, "array overflow");
 2758              		.loc 1 455 17 is_stmt 1 view .LVU725
 455:X-CUBE-AI/App/pb_decode.c ****                     PB_RETURN_ERROR(stream, "array overflow");
 2759              		.loc 1 455 28 is_stmt 0 view .LVU726
 2760 007e 581C     		adds	r0, r3, #1
 2761              	.LVL236:
 455:X-CUBE-AI/App/pb_decode.c ****                     PB_RETURN_ERROR(stream, "array overflow");
 2762              		.loc 1 455 28 view .LVU727
ARM GAS  /tmp/ccbrCuLB.s 			page 86


 2763 0080 0880     		strh	r0, [r1]	@ movhi
 2764              	.LVL237:
 455:X-CUBE-AI/App/pb_decode.c ****                     PB_RETURN_ERROR(stream, "array overflow");
 2765              		.loc 1 455 38 view .LVU728
 2766 0082 6168     		ldr	r1, [r4, #4]
 2767              	.LVL238:
 455:X-CUBE-AI/App/pb_decode.c ****                     PB_RETURN_ERROR(stream, "array overflow");
 2768              		.loc 1 455 43 view .LVU729
 2769 0084 B1F80900 		ldrh	r0, [r1, #9]	@ unaligned
 455:X-CUBE-AI/App/pb_decode.c ****                     PB_RETURN_ERROR(stream, "array overflow");
 2770              		.loc 1 455 20 view .LVU730
 2771 0088 8342     		cmp	r3, r0
 2772 008a 3BD3     		bcc	.L270
 456:X-CUBE-AI/App/pb_decode.c **** 
 2773              		.loc 1 456 21 is_stmt 1 view .LVU731
 2774 008c EB68     		ldr	r3, [r5, #12]
 2775 008e 002B     		cmp	r3, #0
 2776 0090 36D0     		beq	.L278
 2777              	.L271:
 456:X-CUBE-AI/App/pb_decode.c **** 
 2778              		.loc 1 456 21 is_stmt 0 discriminator 4 view .LVU732
 2779 0092 EB60     		str	r3, [r5, #12]
 2780 0094 0026     		movs	r6, #0
 2781 0096 E5E7     		b	.L261
 2782              	.LVL239:
 2783              	.L277:
 456:X-CUBE-AI/App/pb_decode.c **** 
 2784              		.loc 1 456 21 discriminator 4 view .LVU733
 2785              	.LBE10:
 421:X-CUBE-AI/App/pb_decode.c ****             {
 2786              		.loc 1 421 17 view .LVU734
 2787 0098 042A     		cmp	r2, #4
 2788 009a E9D8     		bhi	.L263
 2789              	.LBB11:
 424:X-CUBE-AI/App/pb_decode.c ****                 pb_size_t *size = (pb_size_t*)iter->pSize;
 2790              		.loc 1 424 17 is_stmt 1 view .LVU735
 2791              	.LVL240:
 425:X-CUBE-AI/App/pb_decode.c **** 
 2792              		.loc 1 425 17 view .LVU736
 425:X-CUBE-AI/App/pb_decode.c **** 
 2793              		.loc 1 425 28 is_stmt 0 view .LVU737
 2794 009c D4F81480 		ldr	r8, [r4, #20]
 2795              	.LVL241:
 427:X-CUBE-AI/App/pb_decode.c ****                 if (!pb_make_string_substream(stream, &substream))
 2796              		.loc 1 427 17 is_stmt 1 view .LVU738
 428:X-CUBE-AI/App/pb_decode.c ****                     return false;
 2797              		.loc 1 428 17 view .LVU739
 428:X-CUBE-AI/App/pb_decode.c ****                     return false;
 2798              		.loc 1 428 22 is_stmt 0 view .LVU740
 2799 00a0 6946     		mov	r1, sp
 2800              	.LVL242:
 428:X-CUBE-AI/App/pb_decode.c ****                     return false;
 2801              		.loc 1 428 22 view .LVU741
 2802 00a2 2846     		mov	r0, r5
 2803              	.LVL243:
 428:X-CUBE-AI/App/pb_decode.c ****                     return false;
 2804              		.loc 1 428 22 view .LVU742
ARM GAS  /tmp/ccbrCuLB.s 			page 87


 2805 00a4 FFF7FEFF 		bl	pb_make_string_substream
 2806              	.LVL244:
 428:X-CUBE-AI/App/pb_decode.c ****                     return false;
 2807              		.loc 1 428 20 view .LVU743
 2808 00a8 0646     		mov	r6, r0
 2809 00aa 0028     		cmp	r0, #0
 2810 00ac DAD0     		beq	.L261
 2811              	.L264:
 431:X-CUBE-AI/App/pb_decode.c ****                 {
 2812              		.loc 1 431 23 is_stmt 1 view .LVU744
 431:X-CUBE-AI/App/pb_decode.c ****                 {
 2813              		.loc 1 431 33 is_stmt 0 view .LVU745
 2814 00ae 029B     		ldr	r3, [sp, #8]
 431:X-CUBE-AI/App/pb_decode.c ****                 {
 2815              		.loc 1 431 23 view .LVU746
 2816 00b0 ABB1     		cbz	r3, .L266
 431:X-CUBE-AI/App/pb_decode.c ****                 {
 2817              		.loc 1 431 52 discriminator 1 view .LVU747
 2818 00b2 B8F80030 		ldrh	r3, [r8]
 431:X-CUBE-AI/App/pb_decode.c ****                 {
 2819              		.loc 1 431 64 discriminator 1 view .LVU748
 2820 00b6 6168     		ldr	r1, [r4, #4]
 431:X-CUBE-AI/App/pb_decode.c ****                 {
 2821              		.loc 1 431 69 discriminator 1 view .LVU749
 2822 00b8 B1F80920 		ldrh	r2, [r1, #9]	@ unaligned
 431:X-CUBE-AI/App/pb_decode.c ****                 {
 2823              		.loc 1 431 49 discriminator 1 view .LVU750
 2824 00bc 9342     		cmp	r3, r2
 2825 00be 0ED2     		bcs	.L266
 2826              	.LBB12:
 433:X-CUBE-AI/App/pb_decode.c ****                     if (!func(&substream, iter->pos, pItem))
 2827              		.loc 1 433 21 is_stmt 1 view .LVU751
 433:X-CUBE-AI/App/pb_decode.c ****                     if (!func(&substream, iter->pos, pItem))
 2828              		.loc 1 433 46 is_stmt 0 view .LVU752
 2829 00c0 2269     		ldr	r2, [r4, #16]
 433:X-CUBE-AI/App/pb_decode.c ****                     if (!func(&substream, iter->pos, pItem))
 2830              		.loc 1 433 65 view .LVU753
 2831 00c2 B1F80700 		ldrh	r0, [r1, #7]	@ unaligned
 2832              	.LVL245:
 434:X-CUBE-AI/App/pb_decode.c ****                     {
 2833              		.loc 1 434 21 is_stmt 1 view .LVU754
 434:X-CUBE-AI/App/pb_decode.c ****                     {
 2834              		.loc 1 434 26 is_stmt 0 view .LVU755
 2835 00c6 03FB0022 		mla	r2, r3, r0, r2
 2836              	.LVL246:
 434:X-CUBE-AI/App/pb_decode.c ****                     {
 2837              		.loc 1 434 26 view .LVU756
 2838 00ca 6846     		mov	r0, sp
 2839 00cc B847     		blx	r7
 2840              	.LVL247:
 434:X-CUBE-AI/App/pb_decode.c ****                     {
 2841              		.loc 1 434 24 view .LVU757
 2842 00ce 28B1     		cbz	r0, .L274
 439:X-CUBE-AI/App/pb_decode.c ****                 }
 2843              		.loc 1 439 21 is_stmt 1 view .LVU758
 439:X-CUBE-AI/App/pb_decode.c ****                 }
 2844              		.loc 1 439 22 is_stmt 0 view .LVU759
ARM GAS  /tmp/ccbrCuLB.s 			page 88


 2845 00d0 B8F80030 		ldrh	r3, [r8]
 439:X-CUBE-AI/App/pb_decode.c ****                 }
 2846              		.loc 1 439 28 view .LVU760
 2847 00d4 0133     		adds	r3, r3, #1
 2848 00d6 A8F80030 		strh	r3, [r8]	@ movhi
 2849 00da E8E7     		b	.L264
 2850              	.L274:
 436:X-CUBE-AI/App/pb_decode.c ****                         break;
 2851              		.loc 1 436 32 view .LVU761
 2852 00dc 0646     		mov	r6, r0
 2853              	.L266:
 2854              	.LVL248:
 436:X-CUBE-AI/App/pb_decode.c ****                         break;
 2855              		.loc 1 436 32 view .LVU762
 2856              	.LBE12:
 442:X-CUBE-AI/App/pb_decode.c ****                     PB_RETURN_ERROR(stream, "array overflow");
 2857              		.loc 1 442 17 is_stmt 1 view .LVU763
 442:X-CUBE-AI/App/pb_decode.c ****                     PB_RETURN_ERROR(stream, "array overflow");
 2858              		.loc 1 442 30 is_stmt 0 view .LVU764
 2859 00de 029B     		ldr	r3, [sp, #8]
 442:X-CUBE-AI/App/pb_decode.c ****                     PB_RETURN_ERROR(stream, "array overflow");
 2860              		.loc 1 442 20 view .LVU765
 2861 00e0 33B1     		cbz	r3, .L268
 443:X-CUBE-AI/App/pb_decode.c ****                 if (!pb_close_string_substream(stream, &substream))
 2862              		.loc 1 443 21 is_stmt 1 view .LVU766
 2863 00e2 EB68     		ldr	r3, [r5, #12]
 2864 00e4 13B1     		cbz	r3, .L279
 2865              	.L269:
 443:X-CUBE-AI/App/pb_decode.c ****                 if (!pb_close_string_substream(stream, &substream))
 2866              		.loc 1 443 21 is_stmt 0 discriminator 4 view .LVU767
 2867 00e6 EB60     		str	r3, [r5, #12]
 2868 00e8 0026     		movs	r6, #0
 2869              	.LVL249:
 443:X-CUBE-AI/App/pb_decode.c ****                 if (!pb_close_string_substream(stream, &substream))
 2870              		.loc 1 443 21 discriminator 4 view .LVU768
 2871 00ea BBE7     		b	.L261
 2872              	.LVL250:
 2873              	.L279:
 443:X-CUBE-AI/App/pb_decode.c ****                 if (!pb_close_string_substream(stream, &substream))
 2874              		.loc 1 443 21 view .LVU769
 2875 00ec 134B     		ldr	r3, .L281+4
 2876 00ee FAE7     		b	.L269
 2877              	.L268:
 444:X-CUBE-AI/App/pb_decode.c ****                     return false;
 2878              		.loc 1 444 17 is_stmt 1 view .LVU770
 444:X-CUBE-AI/App/pb_decode.c ****                     return false;
 2879              		.loc 1 444 22 is_stmt 0 view .LVU771
 2880 00f0 6946     		mov	r1, sp
 2881 00f2 2846     		mov	r0, r5
 2882 00f4 FFF7FEFF 		bl	pb_close_string_substream
 2883              	.LVL251:
 444:X-CUBE-AI/App/pb_decode.c ****                     return false;
 2884              		.loc 1 444 20 view .LVU772
 2885 00f8 0028     		cmp	r0, #0
 2886 00fa B3D1     		bne	.L261
 445:X-CUBE-AI/App/pb_decode.c **** 
 2887              		.loc 1 445 28 view .LVU773
ARM GAS  /tmp/ccbrCuLB.s 			page 89


 2888 00fc 0646     		mov	r6, r0
 2889              	.LVL252:
 445:X-CUBE-AI/App/pb_decode.c **** 
 2890              		.loc 1 445 28 view .LVU774
 2891 00fe B1E7     		b	.L261
 2892              	.LVL253:
 2893              	.L278:
 445:X-CUBE-AI/App/pb_decode.c **** 
 2894              		.loc 1 445 28 view .LVU775
 2895              	.LBE11:
 2896              	.LBB13:
 456:X-CUBE-AI/App/pb_decode.c **** 
 2897              		.loc 1 456 21 view .LVU776
 2898 0100 0E4B     		ldr	r3, .L281+4
 2899 0102 C6E7     		b	.L271
 2900              	.L270:
 458:X-CUBE-AI/App/pb_decode.c ****             }
 2901              		.loc 1 458 17 is_stmt 1 view .LVU777
 458:X-CUBE-AI/App/pb_decode.c ****             }
 2902              		.loc 1 458 24 is_stmt 0 view .LVU778
 2903 0104 2846     		mov	r0, r5
 2904 0106 B847     		blx	r7
 2905              	.LVL254:
 458:X-CUBE-AI/App/pb_decode.c ****             }
 2906              		.loc 1 458 24 view .LVU779
 2907 0108 0646     		mov	r6, r0
 2908 010a ABE7     		b	.L261
 2909              	.L276:
 458:X-CUBE-AI/App/pb_decode.c ****             }
 2910              		.loc 1 458 24 view .LVU780
 2911              	.LBE13:
 467:X-CUBE-AI/App/pb_decode.c ****                 pb_message_set_to_defaults((const pb_field_t*)iter->pos->ptr, iter->pData);
 2912              		.loc 1 467 17 is_stmt 1 view .LVU781
 467:X-CUBE-AI/App/pb_decode.c ****                 pb_message_set_to_defaults((const pb_field_t*)iter->pos->ptr, iter->pData);
 2913              		.loc 1 467 44 is_stmt 0 view .LVU782
 2914 010c 6368     		ldr	r3, [r4, #4]
 467:X-CUBE-AI/App/pb_decode.c ****                 pb_message_set_to_defaults((const pb_field_t*)iter->pos->ptr, iter->pData);
 2915              		.loc 1 467 17 view .LVU783
 2916 010e B3F80720 		ldrh	r2, [r3, #7]	@ unaligned
 2917 0112 0021     		movs	r1, #0
 2918 0114 2069     		ldr	r0, [r4, #16]
 2919 0116 FFF7FEFF 		bl	memset
 2920              	.LVL255:
 468:X-CUBE-AI/App/pb_decode.c ****             }
 2921              		.loc 1 468 17 is_stmt 1 view .LVU784
 468:X-CUBE-AI/App/pb_decode.c ****             }
 2922              		.loc 1 468 67 is_stmt 0 view .LVU785
 2923 011a 6368     		ldr	r3, [r4, #4]
 468:X-CUBE-AI/App/pb_decode.c ****             }
 2924              		.loc 1 468 17 view .LVU786
 2925 011c 2169     		ldr	r1, [r4, #16]
 2926 011e D3F80B00 		ldr	r0, [r3, #11]	@ unaligned
 2927 0122 FFF7FEFF 		bl	pb_message_set_to_defaults
 2928              	.LVL256:
 2929 0126 92E7     		b	.L272
 2930              	.LVL257:
 2931              	.L259:
ARM GAS  /tmp/ccbrCuLB.s 			page 90


 473:X-CUBE-AI/App/pb_decode.c ****     }
 2932              		.loc 1 473 13 is_stmt 1 view .LVU787
 2933 0128 EB68     		ldr	r3, [r5, #12]
 2934 012a 13B1     		cbz	r3, .L280
 2935              	.L273:
 473:X-CUBE-AI/App/pb_decode.c ****     }
 2936              		.loc 1 473 13 is_stmt 0 discriminator 4 view .LVU788
 2937 012c EB60     		str	r3, [r5, #12]
 2938              	.LVL258:
 473:X-CUBE-AI/App/pb_decode.c ****     }
 2939              		.loc 1 473 13 discriminator 4 view .LVU789
 2940 012e 0026     		movs	r6, #0
 2941 0130 98E7     		b	.L261
 2942              	.LVL259:
 2943              	.L280:
 473:X-CUBE-AI/App/pb_decode.c ****     }
 2944              		.loc 1 473 13 view .LVU790
 2945 0132 034B     		ldr	r3, .L281+8
 2946 0134 FAE7     		b	.L273
 2947              	.L282:
 2948 0136 00BF     		.align	2
 2949              	.L281:
 2950 0138 00000000 		.word	.LANCHOR0
 2951 013c 00000000 		.word	.LC12
 2952 0140 10000000 		.word	.LC13
 2953              		.cfi_endproc
 2954              	.LFE14:
 2956              		.section	.rodata.decode_callback_field.str1.4,"aMS",%progbits,1
 2957              		.align	2
 2958              	.LC14:
 2959 0000 63616C6C 		.ascii	"callback failed\000"
 2959      6261636B 
 2959      20666169 
 2959      6C656400 
 2960              		.section	.text.decode_callback_field,"ax",%progbits
 2961              		.align	1
 2962              		.syntax unified
 2963              		.thumb
 2964              		.thumb_func
 2965              		.fpu fpv4-sp-d16
 2967              	decode_callback_field:
 2968              	.LVL260:
 2969              	.LFB16:
 659:X-CUBE-AI/App/pb_decode.c ****     pb_callback_t *pCallback = (pb_callback_t*)iter->pData;
 2970              		.loc 1 659 1 is_stmt 1 view -0
 2971              		.cfi_startproc
 2972              		@ args = 0, pretend = 0, frame = 48
 2973              		@ frame_needed = 0, uses_anonymous_args = 0
 659:X-CUBE-AI/App/pb_decode.c ****     pb_callback_t *pCallback = (pb_callback_t*)iter->pData;
 2974              		.loc 1 659 1 is_stmt 0 view .LVU792
 2975 0000 2DE9F041 		push	{r4, r5, r6, r7, r8, lr}
 2976              	.LCFI69:
 2977              		.cfi_def_cfa_offset 24
 2978              		.cfi_offset 4, -24
 2979              		.cfi_offset 5, -20
 2980              		.cfi_offset 6, -16
 2981              		.cfi_offset 7, -12
ARM GAS  /tmp/ccbrCuLB.s 			page 91


 2982              		.cfi_offset 8, -8
 2983              		.cfi_offset 14, -4
 2984 0004 8CB0     		sub	sp, sp, #48
 2985              	.LCFI70:
 2986              		.cfi_def_cfa_offset 72
 2987 0006 0646     		mov	r6, r0
 660:X-CUBE-AI/App/pb_decode.c ****     
 2988              		.loc 1 660 5 is_stmt 1 view .LVU793
 660:X-CUBE-AI/App/pb_decode.c ****     
 2989              		.loc 1 660 20 is_stmt 0 view .LVU794
 2990 0008 1569     		ldr	r5, [r2, #16]
 2991              	.LVL261:
 665:X-CUBE-AI/App/pb_decode.c **** #endif
 2992              		.loc 1 665 5 is_stmt 1 view .LVU795
 668:X-CUBE-AI/App/pb_decode.c ****         return pb_skip_field(stream, wire_type);
 2993              		.loc 1 668 5 view .LVU796
 668:X-CUBE-AI/App/pb_decode.c ****         return pb_skip_field(stream, wire_type);
 2994              		.loc 1 668 8 is_stmt 0 view .LVU797
 2995 000a FDB1     		cbz	r5, .L284
 2996 000c 1446     		mov	r4, r2
 2997 000e 2F1D     		adds	r7, r5, #4
 2998              	.LVL262:
 668:X-CUBE-AI/App/pb_decode.c ****         return pb_skip_field(stream, wire_type);
 2999              		.loc 1 668 46 discriminator 1 view .LVU798
 3000 0010 2B68     		ldr	r3, [r5]
 668:X-CUBE-AI/App/pb_decode.c ****         return pb_skip_field(stream, wire_type);
 3001              		.loc 1 668 27 discriminator 1 view .LVU799
 3002 0012 DBB1     		cbz	r3, .L284
 671:X-CUBE-AI/App/pb_decode.c ****     {
 3003              		.loc 1 671 5 is_stmt 1 view .LVU800
 671:X-CUBE-AI/App/pb_decode.c ****     {
 3004              		.loc 1 671 8 is_stmt 0 view .LVU801
 3005 0014 0229     		cmp	r1, #2
 3006 0016 21D0     		beq	.L294
 3007              	.LBB14:
 695:X-CUBE-AI/App/pb_decode.c ****         pb_byte_t buffer[10];
 3008              		.loc 1 695 9 is_stmt 1 view .LVU802
 696:X-CUBE-AI/App/pb_decode.c ****         size_t size = sizeof(buffer);
 3009              		.loc 1 696 9 view .LVU803
 697:X-CUBE-AI/App/pb_decode.c ****         
 3010              		.loc 1 697 9 view .LVU804
 697:X-CUBE-AI/App/pb_decode.c ****         
 3011              		.loc 1 697 16 is_stmt 0 view .LVU805
 3012 0018 0A23     		movs	r3, #10
 3013 001a 0493     		str	r3, [sp, #16]
 699:X-CUBE-AI/App/pb_decode.c ****             return false;
 3014              		.loc 1 699 9 is_stmt 1 view .LVU806
 699:X-CUBE-AI/App/pb_decode.c ****             return false;
 3015              		.loc 1 699 14 is_stmt 0 view .LVU807
 3016 001c 04AB     		add	r3, sp, #16
 3017 001e 05AA     		add	r2, sp, #20
 3018              	.LVL263:
 699:X-CUBE-AI/App/pb_decode.c ****             return false;
 3019              		.loc 1 699 14 view .LVU808
 3020 0020 FFF7FEFF 		bl	read_raw_value
 3021              	.LVL264:
 699:X-CUBE-AI/App/pb_decode.c ****             return false;
ARM GAS  /tmp/ccbrCuLB.s 			page 92


 3022              		.loc 1 699 12 view .LVU809
 3023 0024 0346     		mov	r3, r0
 3024 0026 A8B1     		cbz	r0, .L286
 701:X-CUBE-AI/App/pb_decode.c ****         
 3025              		.loc 1 701 9 is_stmt 1 view .LVU810
 701:X-CUBE-AI/App/pb_decode.c ****         
 3026              		.loc 1 701 21 is_stmt 0 view .LVU811
 3027 0028 E846     		mov	r8, sp
 3028 002a 049A     		ldr	r2, [sp, #16]
 3029 002c 05A9     		add	r1, sp, #20
 3030 002e 4046     		mov	r0, r8
 3031 0030 FFF7FEFF 		bl	pb_istream_from_buffer
 3032              	.LVL265:
 3033 0034 08AE     		add	r6, sp, #32
 3034              	.LVL266:
 701:X-CUBE-AI/App/pb_decode.c ****         
 3035              		.loc 1 701 21 view .LVU812
 3036 0036 98E80F00 		ldm	r8, {r0, r1, r2, r3}
 3037 003a 86E80F00 		stm	r6, {r0, r1, r2, r3}
 703:X-CUBE-AI/App/pb_decode.c ****     }
 3038              		.loc 1 703 9 is_stmt 1 view .LVU813
 703:X-CUBE-AI/App/pb_decode.c ****     }
 3039              		.loc 1 703 32 is_stmt 0 view .LVU814
 3040 003e 2B68     		ldr	r3, [r5]
 703:X-CUBE-AI/App/pb_decode.c ****     }
 3041              		.loc 1 703 16 view .LVU815
 3042 0040 3A46     		mov	r2, r7
 3043 0042 6168     		ldr	r1, [r4, #4]
 3044 0044 3046     		mov	r0, r6
 3045 0046 9847     		blx	r3
 3046              	.LVL267:
 3047 0048 0346     		mov	r3, r0
 3048 004a 03E0     		b	.L286
 3049              	.LVL268:
 3050              	.L284:
 703:X-CUBE-AI/App/pb_decode.c ****     }
 3051              		.loc 1 703 16 view .LVU816
 3052              	.LBE14:
 669:X-CUBE-AI/App/pb_decode.c ****     
 3053              		.loc 1 669 9 is_stmt 1 view .LVU817
 669:X-CUBE-AI/App/pb_decode.c ****     
 3054              		.loc 1 669 16 is_stmt 0 view .LVU818
 3055 004c 3046     		mov	r0, r6
 3056              	.LVL269:
 669:X-CUBE-AI/App/pb_decode.c ****     
 3057              		.loc 1 669 16 view .LVU819
 3058 004e FFF7FEFF 		bl	pb_skip_field
 3059              	.LVL270:
 669:X-CUBE-AI/App/pb_decode.c ****     
 3060              		.loc 1 669 16 view .LVU820
 3061 0052 0346     		mov	r3, r0
 3062              	.LVL271:
 3063              	.L286:
 705:X-CUBE-AI/App/pb_decode.c **** 
 3064              		.loc 1 705 1 discriminator 1 view .LVU821
 3065 0054 1846     		mov	r0, r3
 3066 0056 0CB0     		add	sp, sp, #48
ARM GAS  /tmp/ccbrCuLB.s 			page 93


 3067              	.LCFI71:
 3068              		.cfi_remember_state
 3069              		.cfi_def_cfa_offset 24
 3070              		@ sp needed
 3071 0058 BDE8F081 		pop	{r4, r5, r6, r7, r8, pc}
 3072              	.LVL272:
 3073              	.L294:
 3074              	.LCFI72:
 3075              		.cfi_restore_state
 3076              	.LBB15:
 673:X-CUBE-AI/App/pb_decode.c ****         
 3077              		.loc 1 673 9 is_stmt 1 view .LVU822
 675:X-CUBE-AI/App/pb_decode.c ****             return false;
 3078              		.loc 1 675 9 view .LVU823
 675:X-CUBE-AI/App/pb_decode.c ****             return false;
 3079              		.loc 1 675 14 is_stmt 0 view .LVU824
 3080 005c 08A9     		add	r1, sp, #32
 3081              	.LVL273:
 675:X-CUBE-AI/App/pb_decode.c ****             return false;
 3082              		.loc 1 675 14 view .LVU825
 3083 005e FFF7FEFF 		bl	pb_make_string_substream
 3084              	.LVL274:
 675:X-CUBE-AI/App/pb_decode.c ****             return false;
 3085              		.loc 1 675 12 view .LVU826
 3086 0062 0346     		mov	r3, r0
 3087 0064 0028     		cmp	r0, #0
 3088 0066 F5D0     		beq	.L286
 3089              	.L291:
 678:X-CUBE-AI/App/pb_decode.c ****         {
 3090              		.loc 1 678 9 is_stmt 1 view .LVU827
 680:X-CUBE-AI/App/pb_decode.c ****                 PB_RETURN_ERROR(stream, "callback failed");
 3091              		.loc 1 680 13 view .LVU828
 680:X-CUBE-AI/App/pb_decode.c ****                 PB_RETURN_ERROR(stream, "callback failed");
 3092              		.loc 1 680 34 is_stmt 0 view .LVU829
 3093 0068 2B68     		ldr	r3, [r5]
 680:X-CUBE-AI/App/pb_decode.c ****                 PB_RETURN_ERROR(stream, "callback failed");
 3094              		.loc 1 680 18 view .LVU830
 3095 006a 3A46     		mov	r2, r7
 3096 006c 6168     		ldr	r1, [r4, #4]
 3097 006e 08A8     		add	r0, sp, #32
 3098 0070 9847     		blx	r3
 3099              	.LVL275:
 680:X-CUBE-AI/App/pb_decode.c ****                 PB_RETURN_ERROR(stream, "callback failed");
 3100              		.loc 1 680 16 view .LVU831
 3101 0072 0346     		mov	r3, r0
 3102 0074 40B1     		cbz	r0, .L295
 682:X-CUBE-AI/App/pb_decode.c ****         
 3103              		.loc 1 682 17 is_stmt 1 view .LVU832
 682:X-CUBE-AI/App/pb_decode.c ****         
 3104              		.loc 1 682 27 is_stmt 0 view .LVU833
 3105 0076 0A9B     		ldr	r3, [sp, #40]
 682:X-CUBE-AI/App/pb_decode.c ****         
 3106              		.loc 1 682 9 view .LVU834
 3107 0078 002B     		cmp	r3, #0
 3108 007a F5D1     		bne	.L291
 684:X-CUBE-AI/App/pb_decode.c ****             return false;
 3109              		.loc 1 684 9 is_stmt 1 view .LVU835
ARM GAS  /tmp/ccbrCuLB.s 			page 94


 684:X-CUBE-AI/App/pb_decode.c ****             return false;
 3110              		.loc 1 684 14 is_stmt 0 view .LVU836
 3111 007c 08A9     		add	r1, sp, #32
 3112 007e 3046     		mov	r0, r6
 3113 0080 FFF7FEFF 		bl	pb_close_string_substream
 3114              	.LVL276:
 3115 0084 0346     		mov	r3, r0
 3116 0086 E5E7     		b	.L286
 3117              	.L295:
 681:X-CUBE-AI/App/pb_decode.c ****         } while (substream.bytes_left);
 3118              		.loc 1 681 17 is_stmt 1 view .LVU837
 3119 0088 F268     		ldr	r2, [r6, #12]
 3120 008a 0AB1     		cbz	r2, .L296
 3121              	.L290:
 681:X-CUBE-AI/App/pb_decode.c ****         } while (substream.bytes_left);
 3122              		.loc 1 681 17 is_stmt 0 discriminator 4 view .LVU838
 3123 008c F260     		str	r2, [r6, #12]
 3124 008e E1E7     		b	.L286
 3125              	.L296:
 681:X-CUBE-AI/App/pb_decode.c ****         } while (substream.bytes_left);
 3126              		.loc 1 681 17 view .LVU839
 3127 0090 004A     		ldr	r2, .L297
 3128 0092 FBE7     		b	.L290
 3129              	.L298:
 3130              		.align	2
 3131              	.L297:
 3132 0094 00000000 		.word	.LC14
 3133              	.LBE15:
 3134              		.cfi_endproc
 3135              	.LFE16:
 3137              		.section	.text.decode_field,"ax",%progbits
 3138              		.align	1
 3139              		.syntax unified
 3140              		.thumb
 3141              		.thumb_func
 3142              		.fpu fpv4-sp-d16
 3144              	decode_field:
 3145              	.LVL277:
 3146              	.LFB17:
 708:X-CUBE-AI/App/pb_decode.c **** #ifdef PB_ENABLE_MALLOC
 3147              		.loc 1 708 1 is_stmt 1 view -0
 3148              		.cfi_startproc
 3149              		@ args = 0, pretend = 0, frame = 0
 3150              		@ frame_needed = 0, uses_anonymous_args = 0
 708:X-CUBE-AI/App/pb_decode.c **** #ifdef PB_ENABLE_MALLOC
 3151              		.loc 1 708 1 is_stmt 0 view .LVU841
 3152 0000 08B5     		push	{r3, lr}
 3153              	.LCFI73:
 3154              		.cfi_def_cfa_offset 8
 3155              		.cfi_offset 3, -8
 3156              		.cfi_offset 14, -4
 719:X-CUBE-AI/App/pb_decode.c ****     {
 3157              		.loc 1 719 5 is_stmt 1 view .LVU842
 719:X-CUBE-AI/App/pb_decode.c ****     {
 3158              		.loc 1 719 13 is_stmt 0 view .LVU843
 3159 0002 5368     		ldr	r3, [r2, #4]
 3160 0004 9B78     		ldrb	r3, [r3, #2]	@ zero_extendqisi2
ARM GAS  /tmp/ccbrCuLB.s 			page 95


 3161 0006 03F0C003 		and	r3, r3, #192
 719:X-CUBE-AI/App/pb_decode.c ****     {
 3162              		.loc 1 719 5 view .LVU844
 3163 000a 402B     		cmp	r3, #64
 3164 000c 0DD0     		beq	.L300
 3165 000e 802B     		cmp	r3, #128
 3166 0010 08D0     		beq	.L301
 3167 0012 23B1     		cbz	r3, .L306
 731:X-CUBE-AI/App/pb_decode.c ****     }
 3168              		.loc 1 731 13 is_stmt 1 view .LVU845
 3169 0014 C368     		ldr	r3, [r0, #12]
 3170 0016 5BB1     		cbz	r3, .L307
 3171              	.L304:
 731:X-CUBE-AI/App/pb_decode.c ****     }
 3172              		.loc 1 731 13 is_stmt 0 discriminator 4 view .LVU846
 3173 0018 C360     		str	r3, [r0, #12]
 3174 001a 0020     		movs	r0, #0
 3175              	.LVL278:
 731:X-CUBE-AI/App/pb_decode.c ****     }
 3176              		.loc 1 731 13 discriminator 4 view .LVU847
 3177 001c 01E0     		b	.L303
 3178              	.LVL279:
 3179              	.L306:
 722:X-CUBE-AI/App/pb_decode.c ****         
 3180              		.loc 1 722 13 is_stmt 1 view .LVU848
 722:X-CUBE-AI/App/pb_decode.c ****         
 3181              		.loc 1 722 20 is_stmt 0 view .LVU849
 3182 001e FFF7FEFF 		bl	decode_static_field
 3183              	.LVL280:
 3184              	.L303:
 733:X-CUBE-AI/App/pb_decode.c **** 
 3185              		.loc 1 733 1 view .LVU850
 3186 0022 08BD     		pop	{r3, pc}
 3187              	.LVL281:
 3188              	.L301:
 725:X-CUBE-AI/App/pb_decode.c ****         
 3189              		.loc 1 725 13 is_stmt 1 view .LVU851
 725:X-CUBE-AI/App/pb_decode.c ****         
 3190              		.loc 1 725 20 is_stmt 0 view .LVU852
 3191 0024 FFF7FEFF 		bl	decode_pointer_field
 3192              	.LVL282:
 725:X-CUBE-AI/App/pb_decode.c ****         
 3193              		.loc 1 725 20 view .LVU853
 3194 0028 FBE7     		b	.L303
 3195              	.LVL283:
 3196              	.L300:
 728:X-CUBE-AI/App/pb_decode.c ****         
 3197              		.loc 1 728 13 is_stmt 1 view .LVU854
 728:X-CUBE-AI/App/pb_decode.c ****         
 3198              		.loc 1 728 20 is_stmt 0 view .LVU855
 3199 002a FFF7FEFF 		bl	decode_callback_field
 3200              	.LVL284:
 728:X-CUBE-AI/App/pb_decode.c ****         
 3201              		.loc 1 728 20 view .LVU856
 3202 002e F8E7     		b	.L303
 3203              	.LVL285:
 3204              	.L307:
ARM GAS  /tmp/ccbrCuLB.s 			page 96


 731:X-CUBE-AI/App/pb_decode.c ****     }
 3205              		.loc 1 731 13 view .LVU857
 3206 0030 004B     		ldr	r3, .L308
 3207 0032 F1E7     		b	.L304
 3208              	.L309:
 3209              		.align	2
 3210              	.L308:
 3211 0034 10000000 		.word	.LC13
 3212              		.cfi_endproc
 3213              	.LFE17:
 3215              		.section	.text.default_extension_decoder,"ax",%progbits
 3216              		.align	1
 3217              		.syntax unified
 3218              		.thumb
 3219              		.thumb_func
 3220              		.fpu fpv4-sp-d16
 3222              	default_extension_decoder:
 3223              	.LVL286:
 3224              	.LFB19:
 758:X-CUBE-AI/App/pb_decode.c ****     const pb_field_t *field = (const pb_field_t*)extension->type->arg;
 3225              		.loc 1 758 1 is_stmt 1 view -0
 3226              		.cfi_startproc
 3227              		@ args = 0, pretend = 0, frame = 24
 3228              		@ frame_needed = 0, uses_anonymous_args = 0
 758:X-CUBE-AI/App/pb_decode.c ****     const pb_field_t *field = (const pb_field_t*)extension->type->arg;
 3229              		.loc 1 758 1 is_stmt 0 view .LVU859
 3230 0000 70B5     		push	{r4, r5, r6, lr}
 3231              	.LCFI74:
 3232              		.cfi_def_cfa_offset 16
 3233              		.cfi_offset 4, -16
 3234              		.cfi_offset 5, -12
 3235              		.cfi_offset 6, -8
 3236              		.cfi_offset 14, -4
 3237 0002 86B0     		sub	sp, sp, #24
 3238              	.LCFI75:
 3239              		.cfi_def_cfa_offset 40
 3240 0004 1E46     		mov	r6, r3
 759:X-CUBE-AI/App/pb_decode.c ****     pb_field_iter_t iter;
 3241              		.loc 1 759 5 is_stmt 1 view .LVU860
 759:X-CUBE-AI/App/pb_decode.c ****     pb_field_iter_t iter;
 3242              		.loc 1 759 59 is_stmt 0 view .LVU861
 3243 0006 0B68     		ldr	r3, [r1]
 3244              	.LVL287:
 759:X-CUBE-AI/App/pb_decode.c ****     pb_field_iter_t iter;
 3245              		.loc 1 759 23 view .LVU862
 3246 0008 9B68     		ldr	r3, [r3, #8]
 3247              	.LVL288:
 760:X-CUBE-AI/App/pb_decode.c ****     
 3248              		.loc 1 760 5 is_stmt 1 view .LVU863
 762:X-CUBE-AI/App/pb_decode.c ****         return true;
 3249              		.loc 1 762 5 view .LVU864
 762:X-CUBE-AI/App/pb_decode.c ****         return true;
 3250              		.loc 1 762 14 is_stmt 0 view .LVU865
 3251 000a 1B88     		ldrh	r3, [r3]	@ unaligned
 3252              	.LVL289:
 762:X-CUBE-AI/App/pb_decode.c ****         return true;
 3253              		.loc 1 762 8 view .LVU866
ARM GAS  /tmp/ccbrCuLB.s 			page 97


 3254 000c 9342     		cmp	r3, r2
 3255 000e 02D0     		beq	.L314
 763:X-CUBE-AI/App/pb_decode.c ****     
 3256              		.loc 1 763 16 view .LVU867
 3257 0010 0120     		movs	r0, #1
 3258              	.LVL290:
 3259              	.L311:
 768:X-CUBE-AI/App/pb_decode.c **** 
 3260              		.loc 1 768 1 view .LVU868
 3261 0012 06B0     		add	sp, sp, #24
 3262              	.LCFI76:
 3263              		.cfi_remember_state
 3264              		.cfi_def_cfa_offset 16
 3265              		@ sp needed
 3266 0014 70BD     		pop	{r4, r5, r6, pc}
 3267              	.LVL291:
 3268              	.L314:
 3269              	.LCFI77:
 3270              		.cfi_restore_state
 768:X-CUBE-AI/App/pb_decode.c **** 
 3271              		.loc 1 768 1 view .LVU869
 3272 0016 0546     		mov	r5, r0
 3273 0018 0C46     		mov	r4, r1
 765:X-CUBE-AI/App/pb_decode.c ****     extension->found = true;
 3274              		.loc 1 765 5 is_stmt 1 view .LVU870
 3275 001a 6846     		mov	r0, sp
 3276              	.LVL292:
 765:X-CUBE-AI/App/pb_decode.c ****     extension->found = true;
 3277              		.loc 1 765 5 is_stmt 0 view .LVU871
 3278 001c FFF7FEFF 		bl	iter_from_extension
 3279              	.LVL293:
 766:X-CUBE-AI/App/pb_decode.c ****     return decode_field(stream, wire_type, &iter);
 3280              		.loc 1 766 5 is_stmt 1 view .LVU872
 766:X-CUBE-AI/App/pb_decode.c ****     return decode_field(stream, wire_type, &iter);
 3281              		.loc 1 766 22 is_stmt 0 view .LVU873
 3282 0020 0123     		movs	r3, #1
 3283 0022 2373     		strb	r3, [r4, #12]
 767:X-CUBE-AI/App/pb_decode.c **** }
 3284              		.loc 1 767 5 is_stmt 1 view .LVU874
 767:X-CUBE-AI/App/pb_decode.c **** }
 3285              		.loc 1 767 12 is_stmt 0 view .LVU875
 3286 0024 6A46     		mov	r2, sp
 3287 0026 3146     		mov	r1, r6
 3288 0028 2846     		mov	r0, r5
 3289 002a FFF7FEFF 		bl	decode_field
 3290              	.LVL294:
 3291 002e F0E7     		b	.L311
 3292              		.cfi_endproc
 3293              	.LFE19:
 3295              		.section	.text.decode_extension,"ax",%progbits
 3296              		.align	1
 3297              		.syntax unified
 3298              		.thumb
 3299              		.thumb_func
 3300              		.fpu fpv4-sp-d16
 3302              	decode_extension:
 3303              	.LVL295:
ARM GAS  /tmp/ccbrCuLB.s 			page 98


 3304              	.LFB20:
 774:X-CUBE-AI/App/pb_decode.c ****     pb_extension_t *extension = *(pb_extension_t* const *)iter->pData;
 3305              		.loc 1 774 1 is_stmt 1 view -0
 3306              		.cfi_startproc
 3307              		@ args = 0, pretend = 0, frame = 0
 3308              		@ frame_needed = 0, uses_anonymous_args = 0
 774:X-CUBE-AI/App/pb_decode.c ****     pb_extension_t *extension = *(pb_extension_t* const *)iter->pData;
 3309              		.loc 1 774 1 is_stmt 0 view .LVU877
 3310 0000 2DE9F843 		push	{r3, r4, r5, r6, r7, r8, r9, lr}
 3311              	.LCFI78:
 3312              		.cfi_def_cfa_offset 32
 3313              		.cfi_offset 3, -32
 3314              		.cfi_offset 4, -28
 3315              		.cfi_offset 5, -24
 3316              		.cfi_offset 6, -20
 3317              		.cfi_offset 7, -16
 3318              		.cfi_offset 8, -12
 3319              		.cfi_offset 9, -8
 3320              		.cfi_offset 14, -4
 3321 0004 0546     		mov	r5, r0
 3322 0006 0F46     		mov	r7, r1
 3323 0008 1646     		mov	r6, r2
 775:X-CUBE-AI/App/pb_decode.c ****     size_t pos = stream->bytes_left;
 3324              		.loc 1 775 5 is_stmt 1 view .LVU878
 775:X-CUBE-AI/App/pb_decode.c ****     size_t pos = stream->bytes_left;
 3325              		.loc 1 775 63 is_stmt 0 view .LVU879
 3326 000a 1B69     		ldr	r3, [r3, #16]
 3327              	.LVL296:
 775:X-CUBE-AI/App/pb_decode.c ****     size_t pos = stream->bytes_left;
 3328              		.loc 1 775 21 view .LVU880
 3329 000c 1C68     		ldr	r4, [r3]
 3330              	.LVL297:
 776:X-CUBE-AI/App/pb_decode.c ****     
 3331              		.loc 1 776 5 is_stmt 1 view .LVU881
 776:X-CUBE-AI/App/pb_decode.c ****     
 3332              		.loc 1 776 12 is_stmt 0 view .LVU882
 3333 000e D0F80880 		ldr	r8, [r0, #8]
 3334              	.LVL298:
 778:X-CUBE-AI/App/pb_decode.c ****     {
 3335              		.loc 1 778 5 is_stmt 1 view .LVU883
 778:X-CUBE-AI/App/pb_decode.c ****     {
 3336              		.loc 1 778 11 is_stmt 0 view .LVU884
 3337 0012 07E0     		b	.L316
 3338              	.LVL299:
 3339              	.L317:
 3340              	.LBB16:
 784:X-CUBE-AI/App/pb_decode.c **** 
 3341              		.loc 1 784 13 is_stmt 1 view .LVU885
 784:X-CUBE-AI/App/pb_decode.c **** 
 3342              		.loc 1 784 22 is_stmt 0 view .LVU886
 3343 0014 3346     		mov	r3, r6
 3344 0016 3A46     		mov	r2, r7
 3345 0018 2146     		mov	r1, r4
 3346 001a 2846     		mov	r0, r5
 3347 001c FFF7FEFF 		bl	default_extension_decoder
 3348              	.LVL300:
 3349              	.L318:
ARM GAS  /tmp/ccbrCuLB.s 			page 99


 786:X-CUBE-AI/App/pb_decode.c ****             return false;
 3350              		.loc 1 786 9 is_stmt 1 view .LVU887
 786:X-CUBE-AI/App/pb_decode.c ****             return false;
 3351              		.loc 1 786 12 is_stmt 0 view .LVU888
 3352 0020 98B1     		cbz	r0, .L319
 789:X-CUBE-AI/App/pb_decode.c ****     }
 3353              		.loc 1 789 9 is_stmt 1 view .LVU889
 789:X-CUBE-AI/App/pb_decode.c ****     }
 3354              		.loc 1 789 19 is_stmt 0 view .LVU890
 3355 0022 A468     		ldr	r4, [r4, #8]
 3356              	.LVL301:
 3357              	.L316:
 789:X-CUBE-AI/App/pb_decode.c ****     }
 3358              		.loc 1 789 19 view .LVU891
 3359              	.LBE16:
 778:X-CUBE-AI/App/pb_decode.c ****     {
 3360              		.loc 1 778 11 is_stmt 1 view .LVU892
 3361 0024 84B1     		cbz	r4, .L321
 778:X-CUBE-AI/App/pb_decode.c ****     {
 3362              		.loc 1 778 46 is_stmt 0 discriminator 1 view .LVU893
 3363 0026 AB68     		ldr	r3, [r5, #8]
 778:X-CUBE-AI/App/pb_decode.c ****     {
 3364              		.loc 1 778 30 discriminator 1 view .LVU894
 3365 0028 4345     		cmp	r3, r8
 3366 002a 0BD1     		bne	.L323
 3367              	.LBB17:
 780:X-CUBE-AI/App/pb_decode.c ****         if (extension->type->decode)
 3368              		.loc 1 780 9 is_stmt 1 view .LVU895
 781:X-CUBE-AI/App/pb_decode.c ****             status = extension->type->decode(stream, extension, tag, wire_type);
 3369              		.loc 1 781 9 view .LVU896
 781:X-CUBE-AI/App/pb_decode.c ****             status = extension->type->decode(stream, extension, tag, wire_type);
 3370              		.loc 1 781 22 is_stmt 0 view .LVU897
 3371 002c 2368     		ldr	r3, [r4]
 781:X-CUBE-AI/App/pb_decode.c ****             status = extension->type->decode(stream, extension, tag, wire_type);
 3372              		.loc 1 781 28 view .LVU898
 3373 002e D3F80090 		ldr	r9, [r3]
 781:X-CUBE-AI/App/pb_decode.c ****             status = extension->type->decode(stream, extension, tag, wire_type);
 3374              		.loc 1 781 12 view .LVU899
 3375 0032 B9F1000F 		cmp	r9, #0
 3376 0036 EDD0     		beq	.L317
 782:X-CUBE-AI/App/pb_decode.c ****         else
 3377              		.loc 1 782 13 is_stmt 1 view .LVU900
 782:X-CUBE-AI/App/pb_decode.c ****         else
 3378              		.loc 1 782 22 is_stmt 0 view .LVU901
 3379 0038 3346     		mov	r3, r6
 3380 003a 3A46     		mov	r2, r7
 3381 003c 2146     		mov	r1, r4
 3382 003e 2846     		mov	r0, r5
 3383 0040 C847     		blx	r9
 3384              	.LVL302:
 782:X-CUBE-AI/App/pb_decode.c ****         else
 3385              		.loc 1 782 22 view .LVU902
 3386 0042 EDE7     		b	.L318
 3387              	.LVL303:
 3388              	.L323:
 782:X-CUBE-AI/App/pb_decode.c ****         else
 3389              		.loc 1 782 22 view .LVU903
ARM GAS  /tmp/ccbrCuLB.s 			page 100


 3390              	.LBE17:
 792:X-CUBE-AI/App/pb_decode.c **** }
 3391              		.loc 1 792 12 view .LVU904
 3392 0044 0120     		movs	r0, #1
 3393 0046 00E0     		b	.L319
 3394              	.L321:
 792:X-CUBE-AI/App/pb_decode.c **** }
 3395              		.loc 1 792 12 view .LVU905
 3396 0048 0120     		movs	r0, #1
 3397              	.L319:
 793:X-CUBE-AI/App/pb_decode.c **** 
 3398              		.loc 1 793 1 view .LVU906
 3399 004a BDE8F883 		pop	{r3, r4, r5, r6, r7, r8, r9, pc}
 793:X-CUBE-AI/App/pb_decode.c **** 
 3400              		.loc 1 793 1 view .LVU907
 3401              		.cfi_endproc
 3402              	.LFE20:
 3404              		.section	.rodata.pb_decode_noinit.str1.4,"aMS",%progbits,1
 3405              		.align	2
 3406              	.LC15:
 3407 0000 77726F6E 		.ascii	"wrong size for fixed count field\000"
 3407      67207369 
 3407      7A652066 
 3407      6F722066 
 3407      69786564 
 3408 0021 000000   		.align	2
 3409              	.LC16:
 3410 0024 6D697373 		.ascii	"missing required field\000"
 3410      696E6720 
 3410      72657175 
 3410      69726564 
 3410      20666965 
 3411              		.section	.text.pb_decode_noinit,"ax",%progbits
 3412              		.align	1
 3413              		.global	pb_decode_noinit
 3414              		.syntax unified
 3415              		.thumb
 3416              		.thumb_func
 3417              		.fpu fpv4-sp-d16
 3419              	pb_decode_noinit:
 3420              	.LVL304:
 3421              	.LFB24:
 902:X-CUBE-AI/App/pb_decode.c ****     uint32_t fields_seen[(PB_MAX_REQUIRED_FIELDS + 31) / 32] = {0, 0};
 3422              		.loc 1 902 1 is_stmt 1 view -0
 3423              		.cfi_startproc
 3424              		@ args = 0, pretend = 0, frame = 48
 3425              		@ frame_needed = 0, uses_anonymous_args = 0
 902:X-CUBE-AI/App/pb_decode.c ****     uint32_t fields_seen[(PB_MAX_REQUIRED_FIELDS + 31) / 32] = {0, 0};
 3426              		.loc 1 902 1 is_stmt 0 view .LVU909
 3427 0000 F0B5     		push	{r4, r5, r6, r7, lr}
 3428              	.LCFI79:
 3429              		.cfi_def_cfa_offset 20
 3430              		.cfi_offset 4, -20
 3431              		.cfi_offset 5, -16
 3432              		.cfi_offset 6, -12
 3433              		.cfi_offset 7, -8
 3434              		.cfi_offset 14, -4
ARM GAS  /tmp/ccbrCuLB.s 			page 101


 3435 0002 8DB0     		sub	sp, sp, #52
 3436              	.LCFI80:
 3437              		.cfi_def_cfa_offset 72
 3438 0004 0446     		mov	r4, r0
 903:X-CUBE-AI/App/pb_decode.c ****     const uint32_t allbits = ~(uint32_t)0;
 3439              		.loc 1 903 5 is_stmt 1 view .LVU910
 903:X-CUBE-AI/App/pb_decode.c ****     const uint32_t allbits = ~(uint32_t)0;
 3440              		.loc 1 903 14 is_stmt 0 view .LVU911
 3441 0006 0025     		movs	r5, #0
 3442 0008 0A95     		str	r5, [sp, #40]
 3443 000a 0B95     		str	r5, [sp, #44]
 904:X-CUBE-AI/App/pb_decode.c ****     uint32_t extension_range_start = 0;
 3444              		.loc 1 904 5 is_stmt 1 view .LVU912
 3445              	.LVL305:
 905:X-CUBE-AI/App/pb_decode.c ****     pb_field_iter_t iter;
 3446              		.loc 1 905 5 view .LVU913
 906:X-CUBE-AI/App/pb_decode.c **** 
 3447              		.loc 1 906 5 view .LVU914
 912:X-CUBE-AI/App/pb_decode.c ****     pb_size_t fixed_count_size = 0;
 3448              		.loc 1 912 5 view .LVU915
 913:X-CUBE-AI/App/pb_decode.c **** 
 3449              		.loc 1 913 5 view .LVU916
 913:X-CUBE-AI/App/pb_decode.c **** 
 3450              		.loc 1 913 15 is_stmt 0 view .LVU917
 3451 000c ADF80E50 		strh	r5, [sp, #14]	@ movhi
 917:X-CUBE-AI/App/pb_decode.c **** 
 3452              		.loc 1 917 5 is_stmt 1 view .LVU918
 917:X-CUBE-AI/App/pb_decode.c **** 
 3453              		.loc 1 917 11 is_stmt 0 view .LVU919
 3454 0010 04A8     		add	r0, sp, #16
 3455              	.LVL306:
 917:X-CUBE-AI/App/pb_decode.c **** 
 3456              		.loc 1 917 11 view .LVU920
 3457 0012 FFF7FEFF 		bl	pb_field_iter_begin
 3458              	.LVL307:
 919:X-CUBE-AI/App/pb_decode.c ****     {
 3459              		.loc 1 919 5 is_stmt 1 view .LVU921
 912:X-CUBE-AI/App/pb_decode.c ****     pb_size_t fixed_count_size = 0;
 3460              		.loc 1 912 23 is_stmt 0 view .LVU922
 3461 0016 2E46     		mov	r6, r5
 919:X-CUBE-AI/App/pb_decode.c ****     {
 3462              		.loc 1 919 11 view .LVU923
 3463 0018 44E0     		b	.L325
 3464              	.LVL308:
 3465              	.L359:
 3466              	.LBB18:
 927:X-CUBE-AI/App/pb_decode.c ****                 break;
 3467              		.loc 1 927 13 is_stmt 1 view .LVU924
 927:X-CUBE-AI/App/pb_decode.c ****                 break;
 3468              		.loc 1 927 17 is_stmt 0 view .LVU925
 3469 001a 9DF80730 		ldrb	r3, [sp, #7]	@ zero_extendqisi2
 927:X-CUBE-AI/App/pb_decode.c ****                 break;
 3470              		.loc 1 927 16 view .LVU926
 3471 001e 002B     		cmp	r3, #0
 3472 0020 67D0     		beq	.L328
 3473              	.L339:
 3474              	.LBE18:
ARM GAS  /tmp/ccbrCuLB.s 			page 102


1000:X-CUBE-AI/App/pb_decode.c ****         fixed_count_size != fixed_count_field->array_size)
 3475              		.loc 1 1000 5 is_stmt 1 view .LVU927
1000:X-CUBE-AI/App/pb_decode.c ****         fixed_count_size != fixed_count_field->array_size)
 3476              		.loc 1 1000 8 is_stmt 0 view .LVU928
 3477 0022 002E     		cmp	r6, #0
 3478 0024 00F08580 		beq	.L344
1001:X-CUBE-AI/App/pb_decode.c ****     {
 3479              		.loc 1 1001 46 discriminator 1 view .LVU929
 3480 0028 B6F80920 		ldrh	r2, [r6, #9]	@ unaligned
1001:X-CUBE-AI/App/pb_decode.c ****     {
 3481              		.loc 1 1001 26 discriminator 1 view .LVU930
 3482 002c BDF80E30 		ldrh	r3, [sp, #14]
1000:X-CUBE-AI/App/pb_decode.c ****         fixed_count_size != fixed_count_field->array_size)
 3483              		.loc 1 1000 35 discriminator 1 view .LVU931
 3484 0030 9A42     		cmp	r2, r3
 3485 0032 7ED0     		beq	.L344
1003:X-CUBE-AI/App/pb_decode.c ****     }
 3486              		.loc 1 1003 9 is_stmt 1 view .LVU932
 3487 0034 E368     		ldr	r3, [r4, #12]
 3488 0036 002B     		cmp	r3, #0
 3489 0038 79D0     		beq	.L357
 3490              	.L343:
1003:X-CUBE-AI/App/pb_decode.c ****     }
 3491              		.loc 1 1003 9 is_stmt 0 discriminator 4 view .LVU933
 3492 003a E360     		str	r3, [r4, #12]
 3493 003c 0020     		movs	r0, #0
 3494 003e 59E0     		b	.L340
 3495              	.L352:
 3496              	.LBB21:
 939:X-CUBE-AI/App/pb_decode.c ****                 else
 3497              		.loc 1 939 43 view .LVU934
 3498 0040 4FF0FF35 		mov	r5, #-1
 3499              	.LVL309:
 939:X-CUBE-AI/App/pb_decode.c ****                 else
 3500              		.loc 1 939 43 view .LVU935
 3501 0044 4BE0     		b	.L331
 3502              	.LVL310:
 3503              	.L360:
 3504              	.LBB19:
 945:X-CUBE-AI/App/pb_decode.c **** 
 3505              		.loc 1 945 21 is_stmt 1 view .LVU936
 945:X-CUBE-AI/App/pb_decode.c **** 
 3506              		.loc 1 945 28 is_stmt 0 view .LVU937
 3507 0046 A768     		ldr	r7, [r4, #8]
 3508              	.LVL311:
 947:X-CUBE-AI/App/pb_decode.c ****                         return false;
 3509              		.loc 1 947 21 is_stmt 1 view .LVU938
 947:X-CUBE-AI/App/pb_decode.c ****                         return false;
 3510              		.loc 1 947 26 is_stmt 0 view .LVU939
 3511 0048 04AB     		add	r3, sp, #16
 3512 004a 9DF80620 		ldrb	r2, [sp, #6]	@ zero_extendqisi2
 3513 004e 2046     		mov	r0, r4
 3514 0050 FFF7FEFF 		bl	decode_extension
 3515              	.LVL312:
 947:X-CUBE-AI/App/pb_decode.c ****                         return false;
 3516              		.loc 1 947 24 view .LVU940
 3517 0054 0028     		cmp	r0, #0
ARM GAS  /tmp/ccbrCuLB.s 			page 103


 3518 0056 4CD0     		beq	.L328
 950:X-CUBE-AI/App/pb_decode.c ****                     {
 3519              		.loc 1 950 21 is_stmt 1 view .LVU941
 950:X-CUBE-AI/App/pb_decode.c ****                     {
 3520              		.loc 1 950 38 is_stmt 0 view .LVU942
 3521 0058 A368     		ldr	r3, [r4, #8]
 950:X-CUBE-AI/App/pb_decode.c ****                     {
 3522              		.loc 1 950 24 view .LVU943
 3523 005a BB42     		cmp	r3, r7
 3524 005c 42D0     		beq	.L330
 3525 005e 21E0     		b	.L325
 3526              	.LVL313:
 3527              	.L329:
 950:X-CUBE-AI/App/pb_decode.c ****                     {
 3528              		.loc 1 950 24 view .LVU944
 3529              	.LBE19:
 967:X-CUBE-AI/App/pb_decode.c ****             && iter.pSize == iter.pData)
 3530              		.loc 1 967 9 is_stmt 1 view .LVU945
 967:X-CUBE-AI/App/pb_decode.c ****             && iter.pSize == iter.pData)
 3531              		.loc 1 967 13 is_stmt 0 view .LVU946
 3532 0060 059A     		ldr	r2, [sp, #20]
 3533 0062 9378     		ldrb	r3, [r2, #2]	@ zero_extendqisi2
 967:X-CUBE-AI/App/pb_decode.c ****             && iter.pSize == iter.pData)
 3534              		.loc 1 967 12 view .LVU947
 3535 0064 03F03003 		and	r3, r3, #48
 3536 0068 202B     		cmp	r3, #32
 3537 006a 45D0     		beq	.L358
 3538              	.L333:
 988:X-CUBE-AI/App/pb_decode.c ****             && iter.required_field_index < PB_MAX_REQUIRED_FIELDS)
 3539              		.loc 1 988 9 is_stmt 1 view .LVU948
 988:X-CUBE-AI/App/pb_decode.c ****             && iter.required_field_index < PB_MAX_REQUIRED_FIELDS)
 3540              		.loc 1 988 13 is_stmt 0 view .LVU949
 3541 006c 9378     		ldrb	r3, [r2, #2]	@ zero_extendqisi2
 988:X-CUBE-AI/App/pb_decode.c ****             && iter.required_field_index < PB_MAX_REQUIRED_FIELDS)
 3542              		.loc 1 988 12 view .LVU950
 3543 006e 13F0300F 		tst	r3, #48
 3544 0072 10D1     		bne	.L337
 989:X-CUBE-AI/App/pb_decode.c ****         {
 3545              		.loc 1 989 20 view .LVU951
 3546 0074 069B     		ldr	r3, [sp, #24]
 989:X-CUBE-AI/App/pb_decode.c ****         {
 3547              		.loc 1 989 13 view .LVU952
 3548 0076 3F2B     		cmp	r3, #63
 3549 0078 0DD8     		bhi	.L337
 3550              	.LBB20:
 991:X-CUBE-AI/App/pb_decode.c ****             fields_seen[iter.required_field_index >> 5] |= tmp;
 3551              		.loc 1 991 13 is_stmt 1 view .LVU953
 991:X-CUBE-AI/App/pb_decode.c ****             fields_seen[iter.required_field_index >> 5] |= tmp;
 3552              		.loc 1 991 71 is_stmt 0 view .LVU954
 3553 007a 03F01F01 		and	r1, r3, #31
 991:X-CUBE-AI/App/pb_decode.c ****             fields_seen[iter.required_field_index >> 5] |= tmp;
 3554              		.loc 1 991 22 view .LVU955
 3555 007e 0122     		movs	r2, #1
 3556 0080 02FA01F1 		lsl	r1, r2, r1
 3557              	.LVL314:
 992:X-CUBE-AI/App/pb_decode.c ****         }
 3558              		.loc 1 992 13 is_stmt 1 view .LVU956
ARM GAS  /tmp/ccbrCuLB.s 			page 104


 992:X-CUBE-AI/App/pb_decode.c ****         }
 3559              		.loc 1 992 57 is_stmt 0 view .LVU957
 3560 0084 5B09     		lsrs	r3, r3, #5
 3561 0086 0CAA     		add	r2, sp, #48
 3562 0088 02EB8303 		add	r3, r2, r3, lsl #2
 3563 008c 53F8082C 		ldr	r2, [r3, #-8]
 3564 0090 0A43     		orrs	r2, r2, r1
 3565 0092 43F8082C 		str	r2, [r3, #-8]
 3566              	.LVL315:
 3567              	.L337:
 992:X-CUBE-AI/App/pb_decode.c ****         }
 3568              		.loc 1 992 57 view .LVU958
 3569              	.LBE20:
 995:X-CUBE-AI/App/pb_decode.c ****             return false;
 3570              		.loc 1 995 9 is_stmt 1 view .LVU959
 995:X-CUBE-AI/App/pb_decode.c ****             return false;
 3571              		.loc 1 995 14 is_stmt 0 view .LVU960
 3572 0096 04AA     		add	r2, sp, #16
 3573 0098 9DF80610 		ldrb	r1, [sp, #6]	@ zero_extendqisi2
 3574 009c 2046     		mov	r0, r4
 3575 009e FFF7FEFF 		bl	decode_field
 3576              	.LVL316:
 995:X-CUBE-AI/App/pb_decode.c ****             return false;
 3577              		.loc 1 995 12 view .LVU961
 3578 00a2 30B3     		cbz	r0, .L328
 3579              	.LVL317:
 3580              	.L325:
 995:X-CUBE-AI/App/pb_decode.c ****             return false;
 3581              		.loc 1 995 12 view .LVU962
 3582              	.LBE21:
 919:X-CUBE-AI/App/pb_decode.c ****     {
 3583              		.loc 1 919 11 is_stmt 1 view .LVU963
 919:X-CUBE-AI/App/pb_decode.c ****     {
 3584              		.loc 1 919 18 is_stmt 0 view .LVU964
 3585 00a4 A368     		ldr	r3, [r4, #8]
 919:X-CUBE-AI/App/pb_decode.c ****     {
 3586              		.loc 1 919 11 view .LVU965
 3587 00a6 002B     		cmp	r3, #0
 3588 00a8 BBD0     		beq	.L339
 3589              	.LBB22:
 921:X-CUBE-AI/App/pb_decode.c ****         pb_wire_type_t wire_type;
 3590              		.loc 1 921 9 is_stmt 1 view .LVU966
 922:X-CUBE-AI/App/pb_decode.c ****         bool eof;
 3591              		.loc 1 922 9 view .LVU967
 923:X-CUBE-AI/App/pb_decode.c **** 
 3592              		.loc 1 923 9 view .LVU968
 925:X-CUBE-AI/App/pb_decode.c ****         {
 3593              		.loc 1 925 9 view .LVU969
 925:X-CUBE-AI/App/pb_decode.c ****         {
 3594              		.loc 1 925 14 is_stmt 0 view .LVU970
 3595 00aa 0DF10703 		add	r3, sp, #7
 3596 00ae 02AA     		add	r2, sp, #8
 3597 00b0 0DF10601 		add	r1, sp, #6
 3598 00b4 2046     		mov	r0, r4
 3599 00b6 FFF7FEFF 		bl	pb_decode_tag
 3600              	.LVL318:
 925:X-CUBE-AI/App/pb_decode.c ****         {
ARM GAS  /tmp/ccbrCuLB.s 			page 105


 3601              		.loc 1 925 12 view .LVU971
 3602 00ba 0028     		cmp	r0, #0
 3603 00bc ADD0     		beq	.L359
 933:X-CUBE-AI/App/pb_decode.c ****         {
 3604              		.loc 1 933 9 is_stmt 1 view .LVU972
 933:X-CUBE-AI/App/pb_decode.c ****         {
 3605              		.loc 1 933 14 is_stmt 0 view .LVU973
 3606 00be 0299     		ldr	r1, [sp, #8]
 3607 00c0 04A8     		add	r0, sp, #16
 3608 00c2 FFF7FEFF 		bl	pb_field_iter_find
 3609              	.LVL319:
 933:X-CUBE-AI/App/pb_decode.c ****         {
 3610              		.loc 1 933 12 view .LVU974
 3611 00c6 0028     		cmp	r0, #0
 3612 00c8 CAD1     		bne	.L329
 936:X-CUBE-AI/App/pb_decode.c ****             {
 3613              		.loc 1 936 13 is_stmt 1 view .LVU975
 936:X-CUBE-AI/App/pb_decode.c ****             {
 3614              		.loc 1 936 21 is_stmt 0 view .LVU976
 3615 00ca 029B     		ldr	r3, [sp, #8]
 936:X-CUBE-AI/App/pb_decode.c ****             {
 3616              		.loc 1 936 16 view .LVU977
 3617 00cc AB42     		cmp	r3, r5
 3618 00ce 09D3     		bcc	.L330
 938:X-CUBE-AI/App/pb_decode.c ****                     extension_range_start = (uint32_t)-1;
 3619              		.loc 1 938 17 is_stmt 1 view .LVU978
 938:X-CUBE-AI/App/pb_decode.c ****                     extension_range_start = (uint32_t)-1;
 3620              		.loc 1 938 22 is_stmt 0 view .LVU979
 3621 00d0 04A8     		add	r0, sp, #16
 3622 00d2 FFF7FEFF 		bl	find_extension_field
 3623              	.LVL320:
 938:X-CUBE-AI/App/pb_decode.c ****                     extension_range_start = (uint32_t)-1;
 3624              		.loc 1 938 20 view .LVU980
 3625 00d6 0028     		cmp	r0, #0
 3626 00d8 B2D0     		beq	.L352
 941:X-CUBE-AI/App/pb_decode.c **** 
 3627              		.loc 1 941 21 is_stmt 1 view .LVU981
 941:X-CUBE-AI/App/pb_decode.c **** 
 3628              		.loc 1 941 53 is_stmt 0 view .LVU982
 3629 00da 059B     		ldr	r3, [sp, #20]
 3630 00dc 1D88     		ldrh	r5, [r3]	@ unaligned
 3631              	.LVL321:
 3632              	.L331:
 943:X-CUBE-AI/App/pb_decode.c ****                 {
 3633              		.loc 1 943 17 is_stmt 1 view .LVU983
 943:X-CUBE-AI/App/pb_decode.c ****                 {
 3634              		.loc 1 943 25 is_stmt 0 view .LVU984
 3635 00de 0299     		ldr	r1, [sp, #8]
 943:X-CUBE-AI/App/pb_decode.c ****                 {
 3636              		.loc 1 943 20 view .LVU985
 3637 00e0 A942     		cmp	r1, r5
 3638 00e2 B0D2     		bcs	.L360
 3639              	.L330:
 959:X-CUBE-AI/App/pb_decode.c ****                 return false;
 3640              		.loc 1 959 13 is_stmt 1 view .LVU986
 959:X-CUBE-AI/App/pb_decode.c ****                 return false;
 3641              		.loc 1 959 18 is_stmt 0 view .LVU987
ARM GAS  /tmp/ccbrCuLB.s 			page 106


 3642 00e4 9DF80610 		ldrb	r1, [sp, #6]	@ zero_extendqisi2
 3643 00e8 2046     		mov	r0, r4
 3644 00ea FFF7FEFF 		bl	pb_skip_field
 3645              	.LVL322:
 959:X-CUBE-AI/App/pb_decode.c ****                 return false;
 3646              		.loc 1 959 16 view .LVU988
 3647 00ee 0028     		cmp	r0, #0
 3648 00f0 D8D1     		bne	.L325
 3649              	.L328:
 930:X-CUBE-AI/App/pb_decode.c ****         }
 3650              		.loc 1 930 24 discriminator 1 view .LVU989
 3651 00f2 0020     		movs	r0, #0
 3652              	.LVL323:
 3653              	.L340:
 930:X-CUBE-AI/App/pb_decode.c ****         }
 3654              		.loc 1 930 24 discriminator 1 view .LVU990
 3655              	.LBE22:
1049:X-CUBE-AI/App/pb_decode.c **** 
 3656              		.loc 1 1049 1 view .LVU991
 3657 00f4 0DB0     		add	sp, sp, #52
 3658              	.LCFI81:
 3659              		.cfi_remember_state
 3660              		.cfi_def_cfa_offset 20
 3661              		@ sp needed
 3662 00f6 F0BD     		pop	{r4, r5, r6, r7, pc}
 3663              	.LVL324:
 3664              	.L358:
 3665              	.LCFI82:
 3666              		.cfi_restore_state
 3667              	.LBB23:
 968:X-CUBE-AI/App/pb_decode.c ****         {
 3668              		.loc 1 968 13 view .LVU992
 3669 00f8 0999     		ldr	r1, [sp, #36]
 3670 00fa 089B     		ldr	r3, [sp, #32]
 3671 00fc 9942     		cmp	r1, r3
 3672 00fe B5D1     		bne	.L333
 970:X-CUBE-AI/App/pb_decode.c ****                 /* If the new fixed count field does not match the previous one,
 3673              		.loc 1 970 13 is_stmt 1 view .LVU993
 970:X-CUBE-AI/App/pb_decode.c ****                 /* If the new fixed count field does not match the previous one,
 3674              		.loc 1 970 16 is_stmt 0 view .LVU994
 3675 0100 B242     		cmp	r2, r6
 3676 0102 0AD0     		beq	.L334
 975:X-CUBE-AI/App/pb_decode.c ****                     fixed_count_size != fixed_count_field->array_size)
 3677              		.loc 1 975 17 is_stmt 1 view .LVU995
 975:X-CUBE-AI/App/pb_decode.c ****                     fixed_count_size != fixed_count_field->array_size)
 3678              		.loc 1 975 20 is_stmt 0 view .LVU996
 3679 0104 2EB1     		cbz	r6, .L335
 976:X-CUBE-AI/App/pb_decode.c ****                 {
 3680              		.loc 1 976 58 discriminator 1 view .LVU997
 3681 0106 B6F80910 		ldrh	r1, [r6, #9]	@ unaligned
 976:X-CUBE-AI/App/pb_decode.c ****                 {
 3682              		.loc 1 976 38 discriminator 1 view .LVU998
 3683 010a BDF80E30 		ldrh	r3, [sp, #14]
 975:X-CUBE-AI/App/pb_decode.c ****                     fixed_count_size != fixed_count_field->array_size)
 3684              		.loc 1 975 47 discriminator 1 view .LVU999
 3685 010e 9942     		cmp	r1, r3
 3686 0110 07D1     		bne	.L361
ARM GAS  /tmp/ccbrCuLB.s 			page 107


 3687              	.L335:
 981:X-CUBE-AI/App/pb_decode.c ****                 fixed_count_size = 0;
 3688              		.loc 1 981 17 is_stmt 1 view .LVU1000
 3689              	.LVL325:
 982:X-CUBE-AI/App/pb_decode.c ****             }
 3690              		.loc 1 982 17 view .LVU1001
 982:X-CUBE-AI/App/pb_decode.c ****             }
 3691              		.loc 1 982 34 is_stmt 0 view .LVU1002
 3692 0112 0023     		movs	r3, #0
 3693 0114 ADF80E30 		strh	r3, [sp, #14]	@ movhi
 981:X-CUBE-AI/App/pb_decode.c ****                 fixed_count_size = 0;
 3694              		.loc 1 981 35 view .LVU1003
 3695 0118 1646     		mov	r6, r2
 3696              	.LVL326:
 3697              	.L334:
 985:X-CUBE-AI/App/pb_decode.c ****         }
 3698              		.loc 1 985 13 is_stmt 1 view .LVU1004
 985:X-CUBE-AI/App/pb_decode.c ****         }
 3699              		.loc 1 985 24 is_stmt 0 view .LVU1005
 3700 011a 0DF10E03 		add	r3, sp, #14
 3701 011e 0993     		str	r3, [sp, #36]
 3702 0120 A4E7     		b	.L333
 3703              	.L361:
 978:X-CUBE-AI/App/pb_decode.c ****                 }
 3704              		.loc 1 978 21 is_stmt 1 view .LVU1006
 3705 0122 E368     		ldr	r3, [r4, #12]
 3706 0124 0BB1     		cbz	r3, .L362
 3707              	.L336:
 978:X-CUBE-AI/App/pb_decode.c ****                 }
 3708              		.loc 1 978 21 is_stmt 0 discriminator 4 view .LVU1007
 3709 0126 E360     		str	r3, [r4, #12]
 3710 0128 E3E7     		b	.L328
 3711              	.L362:
 978:X-CUBE-AI/App/pb_decode.c ****                 }
 3712              		.loc 1 978 21 view .LVU1008
 3713 012a 244B     		ldr	r3, .L367
 3714 012c FBE7     		b	.L336
 3715              	.L357:
 978:X-CUBE-AI/App/pb_decode.c ****                 }
 3716              		.loc 1 978 21 view .LVU1009
 3717              	.LBE23:
1003:X-CUBE-AI/App/pb_decode.c ****     }
 3718              		.loc 1 1003 9 view .LVU1010
 3719 012e 234B     		ldr	r3, .L367
 3720 0130 83E7     		b	.L343
 3721              	.LVL327:
 3722              	.L344:
 3723              	.LBB24:
1012:X-CUBE-AI/App/pb_decode.c ****         pb_type_t last_type;
 3724              		.loc 1 1012 9 is_stmt 1 discriminator 1 view .LVU1011
1013:X-CUBE-AI/App/pb_decode.c ****         unsigned i;
 3725              		.loc 1 1013 9 discriminator 1 view .LVU1012
1014:X-CUBE-AI/App/pb_decode.c ****         do {
 3726              		.loc 1 1014 9 discriminator 1 view .LVU1013
1015:X-CUBE-AI/App/pb_decode.c ****             req_field_count = iter.required_field_index;
 3727              		.loc 1 1015 9 discriminator 1 view .LVU1014
1016:X-CUBE-AI/App/pb_decode.c ****             last_type = iter.pos->type;
ARM GAS  /tmp/ccbrCuLB.s 			page 108


 3728              		.loc 1 1016 13 discriminator 1 view .LVU1015
1016:X-CUBE-AI/App/pb_decode.c ****             last_type = iter.pos->type;
 3729              		.loc 1 1016 29 is_stmt 0 discriminator 1 view .LVU1016
 3730 0132 069D     		ldr	r5, [sp, #24]
 3731              	.LVL328:
1017:X-CUBE-AI/App/pb_decode.c ****         } while (pb_field_iter_next(&iter));
 3732              		.loc 1 1017 13 is_stmt 1 discriminator 1 view .LVU1017
1017:X-CUBE-AI/App/pb_decode.c ****         } while (pb_field_iter_next(&iter));
 3733              		.loc 1 1017 29 is_stmt 0 discriminator 1 view .LVU1018
 3734 0134 059B     		ldr	r3, [sp, #20]
1017:X-CUBE-AI/App/pb_decode.c ****         } while (pb_field_iter_next(&iter));
 3735              		.loc 1 1017 23 discriminator 1 view .LVU1019
 3736 0136 9E78     		ldrb	r6, [r3, #2]	@ zero_extendqisi2
 3737              	.LVL329:
1018:X-CUBE-AI/App/pb_decode.c ****         
 3738              		.loc 1 1018 17 is_stmt 1 discriminator 1 view .LVU1020
1018:X-CUBE-AI/App/pb_decode.c ****         
 3739              		.loc 1 1018 18 is_stmt 0 discriminator 1 view .LVU1021
 3740 0138 04A8     		add	r0, sp, #16
 3741 013a FFF7FEFF 		bl	pb_field_iter_next
 3742              	.LVL330:
1018:X-CUBE-AI/App/pb_decode.c ****         
 3743              		.loc 1 1018 9 discriminator 1 view .LVU1022
 3744 013e 0028     		cmp	r0, #0
 3745 0140 F7D1     		bne	.L344
1021:X-CUBE-AI/App/pb_decode.c ****             req_field_count++;
 3746              		.loc 1 1021 9 is_stmt 1 view .LVU1023
1021:X-CUBE-AI/App/pb_decode.c ****             req_field_count++;
 3747              		.loc 1 1021 12 is_stmt 0 view .LVU1024
 3748 0142 16F0300F 		tst	r6, #48
 3749 0146 03D1     		bne	.L345
1021:X-CUBE-AI/App/pb_decode.c ****             req_field_count++;
 3750              		.loc 1 1021 65 discriminator 1 view .LVU1025
 3751 0148 059B     		ldr	r3, [sp, #20]
 3752 014a 1B88     		ldrh	r3, [r3]	@ unaligned
1021:X-CUBE-AI/App/pb_decode.c ****             req_field_count++;
 3753              		.loc 1 1021 54 discriminator 1 view .LVU1026
 3754 014c 03B1     		cbz	r3, .L345
1022:X-CUBE-AI/App/pb_decode.c ****         
 3755              		.loc 1 1022 13 is_stmt 1 view .LVU1027
1022:X-CUBE-AI/App/pb_decode.c ****         
 3756              		.loc 1 1022 28 is_stmt 0 view .LVU1028
 3757 014e 0135     		adds	r5, r5, #1
 3758              	.LVL331:
 3759              	.L345:
1024:X-CUBE-AI/App/pb_decode.c ****             req_field_count = PB_MAX_REQUIRED_FIELDS;
 3760              		.loc 1 1024 9 is_stmt 1 view .LVU1029
1024:X-CUBE-AI/App/pb_decode.c ****             req_field_count = PB_MAX_REQUIRED_FIELDS;
 3761              		.loc 1 1024 12 is_stmt 0 view .LVU1030
 3762 0150 402D     		cmp	r5, #64
 3763 0152 08D8     		bhi	.L353
1027:X-CUBE-AI/App/pb_decode.c ****         {
 3764              		.loc 1 1027 9 is_stmt 1 view .LVU1031
1027:X-CUBE-AI/App/pb_decode.c ****         {
 3765              		.loc 1 1027 12 is_stmt 0 view .LVU1032
 3766 0154 45B9     		cbnz	r5, .L346
 3767              	.LBE24:
ARM GAS  /tmp/ccbrCuLB.s 			page 109


1048:X-CUBE-AI/App/pb_decode.c **** }
 3768              		.loc 1 1048 12 view .LVU1033
 3769 0156 0120     		movs	r0, #1
 3770 0158 CCE7     		b	.L340
 3771              	.LVL332:
 3772              	.L365:
 3773              	.LBB25:
1033:X-CUBE-AI/App/pb_decode.c ****             }
 3774              		.loc 1 1033 21 is_stmt 1 view .LVU1034
 3775 015a E368     		ldr	r3, [r4, #12]
 3776              	.LVL333:
1033:X-CUBE-AI/App/pb_decode.c ****             }
 3777              		.loc 1 1033 21 is_stmt 0 view .LVU1035
 3778 015c 0BB1     		cbz	r3, .L363
 3779              	.L348:
1033:X-CUBE-AI/App/pb_decode.c ****             }
 3780              		.loc 1 1033 21 discriminator 4 view .LVU1036
 3781 015e E360     		str	r3, [r4, #12]
 3782 0160 C8E7     		b	.L340
 3783              	.L363:
1033:X-CUBE-AI/App/pb_decode.c ****             }
 3784              		.loc 1 1033 21 view .LVU1037
 3785 0162 174B     		ldr	r3, .L367+4
 3786 0164 FBE7     		b	.L348
 3787              	.LVL334:
 3788              	.L353:
1025:X-CUBE-AI/App/pb_decode.c **** 
 3789              		.loc 1 1025 29 view .LVU1038
 3790 0166 4025     		movs	r5, #64
 3791              	.LVL335:
 3792              	.L346:
1025:X-CUBE-AI/App/pb_decode.c **** 
 3793              		.loc 1 1025 29 discriminator 1 view .LVU1039
 3794 0168 0023     		movs	r3, #0
 3795              	.L349:
 3796              	.LVL336:
1030:X-CUBE-AI/App/pb_decode.c ****             {
 3797              		.loc 1 1030 25 is_stmt 1 discriminator 1 view .LVU1040
1030:X-CUBE-AI/App/pb_decode.c ****             {
 3798              		.loc 1 1030 46 is_stmt 0 discriminator 1 view .LVU1041
 3799 016a 6A09     		lsrs	r2, r5, #5
1030:X-CUBE-AI/App/pb_decode.c ****             {
 3800              		.loc 1 1030 13 discriminator 1 view .LVU1042
 3801 016c B3EB551F 		cmp	r3, r5, lsr #5
 3802 0170 09D2     		bcs	.L364
1032:X-CUBE-AI/App/pb_decode.c ****                     PB_RETURN_ERROR(stream, "missing required field");
 3803              		.loc 1 1032 17 is_stmt 1 view .LVU1043
1032:X-CUBE-AI/App/pb_decode.c ****                     PB_RETURN_ERROR(stream, "missing required field");
 3804              		.loc 1 1032 32 is_stmt 0 view .LVU1044
 3805 0172 0CAA     		add	r2, sp, #48
 3806 0174 02EB8302 		add	r2, r2, r3, lsl #2
 3807 0178 52F8082C 		ldr	r2, [r2, #-8]
1032:X-CUBE-AI/App/pb_decode.c ****                     PB_RETURN_ERROR(stream, "missing required field");
 3808              		.loc 1 1032 20 view .LVU1045
 3809 017c B2F1FF3F 		cmp	r2, #-1
 3810 0180 EBD1     		bne	.L365
1030:X-CUBE-AI/App/pb_decode.c ****             {
ARM GAS  /tmp/ccbrCuLB.s 			page 110


 3811              		.loc 1 1030 53 is_stmt 1 discriminator 2 view .LVU1046
1030:X-CUBE-AI/App/pb_decode.c ****             {
 3812              		.loc 1 1030 54 is_stmt 0 discriminator 2 view .LVU1047
 3813 0182 0133     		adds	r3, r3, #1
 3814              	.LVL337:
1030:X-CUBE-AI/App/pb_decode.c ****             {
 3815              		.loc 1 1030 54 discriminator 2 view .LVU1048
 3816 0184 F1E7     		b	.L349
 3817              	.L364:
1037:X-CUBE-AI/App/pb_decode.c ****             {
 3818              		.loc 1 1037 13 is_stmt 1 view .LVU1049
1037:X-CUBE-AI/App/pb_decode.c ****             {
 3819              		.loc 1 1037 16 is_stmt 0 view .LVU1050
 3820 0186 15F01F05 		ands	r5, r5, #31
 3821 018a 12D0     		beq	.L354
1039:X-CUBE-AI/App/pb_decode.c ****                     (allbits >> (32 - (req_field_count & 31))))
 3822              		.loc 1 1039 17 is_stmt 1 view .LVU1051
1039:X-CUBE-AI/App/pb_decode.c ****                     (allbits >> (32 - (req_field_count & 31))))
 3823              		.loc 1 1039 32 is_stmt 0 view .LVU1052
 3824 018c 0CAB     		add	r3, sp, #48
 3825              	.LVL338:
1039:X-CUBE-AI/App/pb_decode.c ****                     (allbits >> (32 - (req_field_count & 31))))
 3826              		.loc 1 1039 32 view .LVU1053
 3827 018e 03EB8202 		add	r2, r3, r2, lsl #2
 3828 0192 52F8082C 		ldr	r2, [r2, #-8]
1040:X-CUBE-AI/App/pb_decode.c ****                 {
 3829              		.loc 1 1040 37 view .LVU1054
 3830 0196 C5F12005 		rsb	r5, r5, #32
1040:X-CUBE-AI/App/pb_decode.c ****                 {
 3831              		.loc 1 1040 30 view .LVU1055
 3832 019a 4FF0FF33 		mov	r3, #-1
 3833 019e 23FA05F5 		lsr	r5, r3, r5
1039:X-CUBE-AI/App/pb_decode.c ****                     (allbits >> (32 - (req_field_count & 31))))
 3834              		.loc 1 1039 20 view .LVU1056
 3835 01a2 AA42     		cmp	r2, r5
 3836 01a4 07D0     		beq	.L355
1042:X-CUBE-AI/App/pb_decode.c ****                 }
 3837              		.loc 1 1042 21 is_stmt 1 view .LVU1057
 3838 01a6 E368     		ldr	r3, [r4, #12]
 3839 01a8 0BB1     		cbz	r3, .L366
 3840              	.L351:
1042:X-CUBE-AI/App/pb_decode.c ****                 }
 3841              		.loc 1 1042 21 is_stmt 0 discriminator 4 view .LVU1058
 3842 01aa E360     		str	r3, [r4, #12]
 3843 01ac A2E7     		b	.L340
 3844              	.L366:
1042:X-CUBE-AI/App/pb_decode.c ****                 }
 3845              		.loc 1 1042 21 view .LVU1059
 3846 01ae 044B     		ldr	r3, .L367+4
 3847 01b0 FBE7     		b	.L351
 3848              	.LVL339:
 3849              	.L354:
1042:X-CUBE-AI/App/pb_decode.c ****                 }
 3850              		.loc 1 1042 21 view .LVU1060
 3851              	.LBE25:
1048:X-CUBE-AI/App/pb_decode.c **** }
 3852              		.loc 1 1048 12 view .LVU1061
ARM GAS  /tmp/ccbrCuLB.s 			page 111


 3853 01b2 0120     		movs	r0, #1
 3854 01b4 9EE7     		b	.L340
 3855              	.LVL340:
 3856              	.L355:
1048:X-CUBE-AI/App/pb_decode.c **** }
 3857              		.loc 1 1048 12 view .LVU1062
 3858 01b6 0120     		movs	r0, #1
 3859 01b8 9CE7     		b	.L340
 3860              	.L368:
 3861 01ba 00BF     		.align	2
 3862              	.L367:
 3863 01bc 00000000 		.word	.LC15
 3864 01c0 24000000 		.word	.LC16
 3865              		.cfi_endproc
 3866              	.LFE24:
 3868              		.section	.text.pb_decode,"ax",%progbits
 3869              		.align	1
 3870              		.global	pb_decode
 3871              		.syntax unified
 3872              		.thumb
 3873              		.thumb_func
 3874              		.fpu fpv4-sp-d16
 3876              	pb_decode:
 3877              	.LVL341:
 3878              	.LFB25:
1052:X-CUBE-AI/App/pb_decode.c ****     bool status;
 3879              		.loc 1 1052 1 is_stmt 1 view -0
 3880              		.cfi_startproc
 3881              		@ args = 0, pretend = 0, frame = 0
 3882              		@ frame_needed = 0, uses_anonymous_args = 0
1052:X-CUBE-AI/App/pb_decode.c ****     bool status;
 3883              		.loc 1 1052 1 is_stmt 0 view .LVU1064
 3884 0000 70B5     		push	{r4, r5, r6, lr}
 3885              	.LCFI83:
 3886              		.cfi_def_cfa_offset 16
 3887              		.cfi_offset 4, -16
 3888              		.cfi_offset 5, -12
 3889              		.cfi_offset 6, -8
 3890              		.cfi_offset 14, -4
 3891 0002 0646     		mov	r6, r0
 3892 0004 0C46     		mov	r4, r1
 3893 0006 1546     		mov	r5, r2
1053:X-CUBE-AI/App/pb_decode.c ****     pb_message_set_to_defaults(fields, dest_struct);
 3894              		.loc 1 1053 5 is_stmt 1 view .LVU1065
1054:X-CUBE-AI/App/pb_decode.c ****     status = pb_decode_noinit(stream, fields, dest_struct);
 3895              		.loc 1 1054 5 view .LVU1066
 3896 0008 1146     		mov	r1, r2
 3897              	.LVL342:
1054:X-CUBE-AI/App/pb_decode.c ****     status = pb_decode_noinit(stream, fields, dest_struct);
 3898              		.loc 1 1054 5 is_stmt 0 view .LVU1067
 3899 000a 2046     		mov	r0, r4
 3900              	.LVL343:
1054:X-CUBE-AI/App/pb_decode.c ****     status = pb_decode_noinit(stream, fields, dest_struct);
 3901              		.loc 1 1054 5 view .LVU1068
 3902 000c FFF7FEFF 		bl	pb_message_set_to_defaults
 3903              	.LVL344:
1055:X-CUBE-AI/App/pb_decode.c ****     
ARM GAS  /tmp/ccbrCuLB.s 			page 112


 3904              		.loc 1 1055 5 is_stmt 1 view .LVU1069
1055:X-CUBE-AI/App/pb_decode.c ****     
 3905              		.loc 1 1055 14 is_stmt 0 view .LVU1070
 3906 0010 2A46     		mov	r2, r5
 3907 0012 2146     		mov	r1, r4
 3908 0014 3046     		mov	r0, r6
 3909 0016 FFF7FEFF 		bl	pb_decode_noinit
 3910              	.LVL345:
1062:X-CUBE-AI/App/pb_decode.c **** }
 3911              		.loc 1 1062 5 is_stmt 1 view .LVU1071
1063:X-CUBE-AI/App/pb_decode.c **** 
 3912              		.loc 1 1063 1 is_stmt 0 view .LVU1072
 3913 001a 70BD     		pop	{r4, r5, r6, pc}
1063:X-CUBE-AI/App/pb_decode.c **** 
 3914              		.loc 1 1063 1 view .LVU1073
 3915              		.cfi_endproc
 3916              	.LFE25:
 3918              		.section	.rodata.pb_dec_submessage.str1.4,"aMS",%progbits,1
 3919              		.align	2
 3920              	.LC17:
 3921 0000 696E7661 		.ascii	"invalid field descriptor\000"
 3921      6C696420 
 3921      6669656C 
 3921      64206465 
 3921      73637269 
 3922              		.section	.text.pb_dec_submessage,"ax",%progbits
 3923              		.align	1
 3924              		.syntax unified
 3925              		.thumb
 3926              		.thumb_func
 3927              		.fpu fpv4-sp-d16
 3929              	pb_dec_submessage:
 3930              	.LVL346:
 3931              	.LFB39:
1464:X-CUBE-AI/App/pb_decode.c ****     bool status;
 3932              		.loc 1 1464 1 is_stmt 1 view -0
 3933              		.cfi_startproc
 3934              		@ args = 0, pretend = 0, frame = 16
 3935              		@ frame_needed = 0, uses_anonymous_args = 0
1464:X-CUBE-AI/App/pb_decode.c ****     bool status;
 3936              		.loc 1 1464 1 is_stmt 0 view .LVU1075
 3937 0000 F0B5     		push	{r4, r5, r6, r7, lr}
 3938              	.LCFI84:
 3939              		.cfi_def_cfa_offset 20
 3940              		.cfi_offset 4, -20
 3941              		.cfi_offset 5, -16
 3942              		.cfi_offset 6, -12
 3943              		.cfi_offset 7, -8
 3944              		.cfi_offset 14, -4
 3945 0002 85B0     		sub	sp, sp, #20
 3946              	.LCFI85:
 3947              		.cfi_def_cfa_offset 40
 3948 0004 0546     		mov	r5, r0
 3949 0006 0C46     		mov	r4, r1
 3950 0008 1646     		mov	r6, r2
1465:X-CUBE-AI/App/pb_decode.c ****     pb_istream_t substream;
 3951              		.loc 1 1465 5 is_stmt 1 view .LVU1076
ARM GAS  /tmp/ccbrCuLB.s 			page 113


1466:X-CUBE-AI/App/pb_decode.c ****     const pb_field_t* submsg_fields = (const pb_field_t*)field->ptr;
 3952              		.loc 1 1466 5 view .LVU1077
1467:X-CUBE-AI/App/pb_decode.c ****     
 3953              		.loc 1 1467 5 view .LVU1078
1467:X-CUBE-AI/App/pb_decode.c ****     
 3954              		.loc 1 1467 23 is_stmt 0 view .LVU1079
 3955 000a D1F80B70 		ldr	r7, [r1, #11]	@ unaligned
 3956              	.LVL347:
1469:X-CUBE-AI/App/pb_decode.c ****         return false;
 3957              		.loc 1 1469 5 is_stmt 1 view .LVU1080
1469:X-CUBE-AI/App/pb_decode.c ****         return false;
 3958              		.loc 1 1469 10 is_stmt 0 view .LVU1081
 3959 000e 6946     		mov	r1, sp
 3960              	.LVL348:
1469:X-CUBE-AI/App/pb_decode.c ****         return false;
 3961              		.loc 1 1469 10 view .LVU1082
 3962 0010 FFF7FEFF 		bl	pb_make_string_substream
 3963              	.LVL349:
1469:X-CUBE-AI/App/pb_decode.c ****         return false;
 3964              		.loc 1 1469 8 view .LVU1083
 3965 0014 0346     		mov	r3, r0
 3966 0016 A0B1     		cbz	r0, .L372
1472:X-CUBE-AI/App/pb_decode.c ****         PB_RETURN_ERROR(stream, "invalid field descriptor");
 3967              		.loc 1 1472 5 is_stmt 1 view .LVU1084
1472:X-CUBE-AI/App/pb_decode.c ****         PB_RETURN_ERROR(stream, "invalid field descriptor");
 3968              		.loc 1 1472 14 is_stmt 0 view .LVU1085
 3969 0018 D4F80B30 		ldr	r3, [r4, #11]	@ unaligned
1472:X-CUBE-AI/App/pb_decode.c ****         PB_RETURN_ERROR(stream, "invalid field descriptor");
 3970              		.loc 1 1472 8 view .LVU1086
 3971 001c A3B1     		cbz	r3, .L378
1477:X-CUBE-AI/App/pb_decode.c ****         status = pb_decode(&substream, submsg_fields, dest);
 3972              		.loc 1 1477 5 is_stmt 1 view .LVU1087
1477:X-CUBE-AI/App/pb_decode.c ****         status = pb_decode(&substream, submsg_fields, dest);
 3973              		.loc 1 1477 9 is_stmt 0 view .LVU1088
 3974 001e A378     		ldrb	r3, [r4, #2]	@ zero_extendqisi2
1477:X-CUBE-AI/App/pb_decode.c ****         status = pb_decode(&substream, submsg_fields, dest);
 3975              		.loc 1 1477 8 view .LVU1089
 3976 0020 03F03003 		and	r3, r3, #48
 3977 0024 202B     		cmp	r3, #32
 3978 0026 16D0     		beq	.L379
1480:X-CUBE-AI/App/pb_decode.c ****     
 3979              		.loc 1 1480 9 is_stmt 1 view .LVU1090
1480:X-CUBE-AI/App/pb_decode.c ****     
 3980              		.loc 1 1480 18 is_stmt 0 view .LVU1091
 3981 0028 3246     		mov	r2, r6
 3982 002a 3946     		mov	r1, r7
 3983 002c 6846     		mov	r0, sp
 3984 002e FFF7FEFF 		bl	pb_decode_noinit
 3985              	.LVL350:
 3986 0032 0446     		mov	r4, r0
 3987              	.LVL351:
 3988              	.L376:
1482:X-CUBE-AI/App/pb_decode.c ****         return false;
 3989              		.loc 1 1482 5 is_stmt 1 view .LVU1092
1482:X-CUBE-AI/App/pb_decode.c ****         return false;
 3990              		.loc 1 1482 10 is_stmt 0 view .LVU1093
 3991 0034 6946     		mov	r1, sp
ARM GAS  /tmp/ccbrCuLB.s 			page 114


 3992 0036 2846     		mov	r0, r5
 3993 0038 FFF7FEFF 		bl	pb_close_string_substream
 3994              	.LVL352:
1482:X-CUBE-AI/App/pb_decode.c ****         return false;
 3995              		.loc 1 1482 8 view .LVU1094
 3996 003c 0346     		mov	r3, r0
 3997 003e 00B1     		cbz	r0, .L372
1484:X-CUBE-AI/App/pb_decode.c **** }
 3998              		.loc 1 1484 12 view .LVU1095
 3999 0040 2346     		mov	r3, r4
 4000              	.LVL353:
 4001              	.L372:
1485:X-CUBE-AI/App/pb_decode.c **** 
 4002              		.loc 1 1485 1 view .LVU1096
 4003 0042 1846     		mov	r0, r3
 4004 0044 05B0     		add	sp, sp, #20
 4005              	.LCFI86:
 4006              		.cfi_remember_state
 4007              		.cfi_def_cfa_offset 20
 4008              		@ sp needed
 4009 0046 F0BD     		pop	{r4, r5, r6, r7, pc}
 4010              	.LVL354:
 4011              	.L378:
 4012              	.LCFI87:
 4013              		.cfi_restore_state
1473:X-CUBE-AI/App/pb_decode.c ****     
 4014              		.loc 1 1473 9 is_stmt 1 view .LVU1097
 4015 0048 EB68     		ldr	r3, [r5, #12]
 4016 004a 13B1     		cbz	r3, .L380
 4017              	.L374:
1473:X-CUBE-AI/App/pb_decode.c ****     
 4018              		.loc 1 1473 9 is_stmt 0 discriminator 4 view .LVU1098
 4019 004c EB60     		str	r3, [r5, #12]
 4020 004e 0023     		movs	r3, #0
 4021 0050 F7E7     		b	.L372
 4022              	.L380:
1473:X-CUBE-AI/App/pb_decode.c ****     
 4023              		.loc 1 1473 9 view .LVU1099
 4024 0052 044B     		ldr	r3, .L381
 4025 0054 FAE7     		b	.L374
 4026              	.L379:
1478:X-CUBE-AI/App/pb_decode.c ****     else
 4027              		.loc 1 1478 9 is_stmt 1 view .LVU1100
1478:X-CUBE-AI/App/pb_decode.c ****     else
 4028              		.loc 1 1478 18 is_stmt 0 view .LVU1101
 4029 0056 3246     		mov	r2, r6
 4030 0058 3946     		mov	r1, r7
 4031 005a 6846     		mov	r0, sp
 4032 005c FFF7FEFF 		bl	pb_decode
 4033              	.LVL355:
 4034 0060 0446     		mov	r4, r0
 4035              	.LVL356:
1478:X-CUBE-AI/App/pb_decode.c ****     else
 4036              		.loc 1 1478 18 view .LVU1102
 4037 0062 E7E7     		b	.L376
 4038              	.L382:
 4039              		.align	2
ARM GAS  /tmp/ccbrCuLB.s 			page 115


 4040              	.L381:
 4041 0064 00000000 		.word	.LC17
 4042              		.cfi_endproc
 4043              	.LFE39:
 4045              		.section	.text.pb_decode_delimited_noinit,"ax",%progbits
 4046              		.align	1
 4047              		.global	pb_decode_delimited_noinit
 4048              		.syntax unified
 4049              		.thumb
 4050              		.thumb_func
 4051              		.fpu fpv4-sp-d16
 4053              	pb_decode_delimited_noinit:
 4054              	.LVL357:
 4055              	.LFB26:
1066:X-CUBE-AI/App/pb_decode.c ****     pb_istream_t substream;
 4056              		.loc 1 1066 1 is_stmt 1 view -0
 4057              		.cfi_startproc
 4058              		@ args = 0, pretend = 0, frame = 16
 4059              		@ frame_needed = 0, uses_anonymous_args = 0
1066:X-CUBE-AI/App/pb_decode.c ****     pb_istream_t substream;
 4060              		.loc 1 1066 1 is_stmt 0 view .LVU1104
 4061 0000 70B5     		push	{r4, r5, r6, lr}
 4062              	.LCFI88:
 4063              		.cfi_def_cfa_offset 16
 4064              		.cfi_offset 4, -16
 4065              		.cfi_offset 5, -12
 4066              		.cfi_offset 6, -8
 4067              		.cfi_offset 14, -4
 4068 0002 84B0     		sub	sp, sp, #16
 4069              	.LCFI89:
 4070              		.cfi_def_cfa_offset 32
 4071 0004 0646     		mov	r6, r0
 4072 0006 0C46     		mov	r4, r1
 4073 0008 1546     		mov	r5, r2
1067:X-CUBE-AI/App/pb_decode.c ****     bool status;
 4074              		.loc 1 1067 5 is_stmt 1 view .LVU1105
1068:X-CUBE-AI/App/pb_decode.c **** 
 4075              		.loc 1 1068 5 view .LVU1106
1070:X-CUBE-AI/App/pb_decode.c ****         return false;
 4076              		.loc 1 1070 5 view .LVU1107
1070:X-CUBE-AI/App/pb_decode.c ****         return false;
 4077              		.loc 1 1070 10 is_stmt 0 view .LVU1108
 4078 000a 6946     		mov	r1, sp
 4079              	.LVL358:
1070:X-CUBE-AI/App/pb_decode.c ****         return false;
 4080              		.loc 1 1070 10 view .LVU1109
 4081 000c FFF7FEFF 		bl	pb_make_string_substream
 4082              	.LVL359:
1070:X-CUBE-AI/App/pb_decode.c ****         return false;
 4083              		.loc 1 1070 8 view .LVU1110
 4084 0010 08B9     		cbnz	r0, .L386
 4085              	.LVL360:
 4086              	.L384:
1078:X-CUBE-AI/App/pb_decode.c **** 
 4087              		.loc 1 1078 1 view .LVU1111
 4088 0012 04B0     		add	sp, sp, #16
 4089              	.LCFI90:
ARM GAS  /tmp/ccbrCuLB.s 			page 116


 4090              		.cfi_remember_state
 4091              		.cfi_def_cfa_offset 16
 4092              		@ sp needed
 4093 0014 70BD     		pop	{r4, r5, r6, pc}
 4094              	.LVL361:
 4095              	.L386:
 4096              	.LCFI91:
 4097              		.cfi_restore_state
1073:X-CUBE-AI/App/pb_decode.c **** 
 4098              		.loc 1 1073 5 is_stmt 1 view .LVU1112
1073:X-CUBE-AI/App/pb_decode.c **** 
 4099              		.loc 1 1073 14 is_stmt 0 view .LVU1113
 4100 0016 2A46     		mov	r2, r5
 4101 0018 2146     		mov	r1, r4
 4102 001a 6846     		mov	r0, sp
 4103 001c FFF7FEFF 		bl	pb_decode_noinit
 4104              	.LVL362:
 4105 0020 0446     		mov	r4, r0
 4106              	.LVL363:
1075:X-CUBE-AI/App/pb_decode.c ****         return false;
 4107              		.loc 1 1075 5 is_stmt 1 view .LVU1114
1075:X-CUBE-AI/App/pb_decode.c ****         return false;
 4108              		.loc 1 1075 10 is_stmt 0 view .LVU1115
 4109 0022 6946     		mov	r1, sp
 4110 0024 3046     		mov	r0, r6
 4111 0026 FFF7FEFF 		bl	pb_close_string_substream
 4112              	.LVL364:
1075:X-CUBE-AI/App/pb_decode.c ****         return false;
 4113              		.loc 1 1075 8 view .LVU1116
 4114 002a 0028     		cmp	r0, #0
 4115 002c F1D0     		beq	.L384
1077:X-CUBE-AI/App/pb_decode.c **** }
 4116              		.loc 1 1077 12 view .LVU1117
 4117 002e 2046     		mov	r0, r4
 4118 0030 EFE7     		b	.L384
 4119              		.cfi_endproc
 4120              	.LFE26:
 4122              		.section	.text.pb_decode_delimited,"ax",%progbits
 4123              		.align	1
 4124              		.global	pb_decode_delimited
 4125              		.syntax unified
 4126              		.thumb
 4127              		.thumb_func
 4128              		.fpu fpv4-sp-d16
 4130              	pb_decode_delimited:
 4131              	.LVL365:
 4132              	.LFB27:
1081:X-CUBE-AI/App/pb_decode.c ****     pb_istream_t substream;
 4133              		.loc 1 1081 1 is_stmt 1 view -0
 4134              		.cfi_startproc
 4135              		@ args = 0, pretend = 0, frame = 16
 4136              		@ frame_needed = 0, uses_anonymous_args = 0
1081:X-CUBE-AI/App/pb_decode.c ****     pb_istream_t substream;
 4137              		.loc 1 1081 1 is_stmt 0 view .LVU1119
 4138 0000 70B5     		push	{r4, r5, r6, lr}
 4139              	.LCFI92:
 4140              		.cfi_def_cfa_offset 16
ARM GAS  /tmp/ccbrCuLB.s 			page 117


 4141              		.cfi_offset 4, -16
 4142              		.cfi_offset 5, -12
 4143              		.cfi_offset 6, -8
 4144              		.cfi_offset 14, -4
 4145 0002 84B0     		sub	sp, sp, #16
 4146              	.LCFI93:
 4147              		.cfi_def_cfa_offset 32
 4148 0004 0646     		mov	r6, r0
 4149 0006 0C46     		mov	r4, r1
 4150 0008 1546     		mov	r5, r2
1082:X-CUBE-AI/App/pb_decode.c ****     bool status;
 4151              		.loc 1 1082 5 is_stmt 1 view .LVU1120
1083:X-CUBE-AI/App/pb_decode.c ****     
 4152              		.loc 1 1083 5 view .LVU1121
1085:X-CUBE-AI/App/pb_decode.c ****         return false;
 4153              		.loc 1 1085 5 view .LVU1122
1085:X-CUBE-AI/App/pb_decode.c ****         return false;
 4154              		.loc 1 1085 10 is_stmt 0 view .LVU1123
 4155 000a 6946     		mov	r1, sp
 4156              	.LVL366:
1085:X-CUBE-AI/App/pb_decode.c ****         return false;
 4157              		.loc 1 1085 10 view .LVU1124
 4158 000c FFF7FEFF 		bl	pb_make_string_substream
 4159              	.LVL367:
1085:X-CUBE-AI/App/pb_decode.c ****         return false;
 4160              		.loc 1 1085 8 view .LVU1125
 4161 0010 08B9     		cbnz	r0, .L390
 4162              	.LVL368:
 4163              	.L388:
1093:X-CUBE-AI/App/pb_decode.c **** 
 4164              		.loc 1 1093 1 view .LVU1126
 4165 0012 04B0     		add	sp, sp, #16
 4166              	.LCFI94:
 4167              		.cfi_remember_state
 4168              		.cfi_def_cfa_offset 16
 4169              		@ sp needed
 4170 0014 70BD     		pop	{r4, r5, r6, pc}
 4171              	.LVL369:
 4172              	.L390:
 4173              	.LCFI95:
 4174              		.cfi_restore_state
1088:X-CUBE-AI/App/pb_decode.c **** 
 4175              		.loc 1 1088 5 is_stmt 1 view .LVU1127
1088:X-CUBE-AI/App/pb_decode.c **** 
 4176              		.loc 1 1088 14 is_stmt 0 view .LVU1128
 4177 0016 2A46     		mov	r2, r5
 4178 0018 2146     		mov	r1, r4
 4179 001a 6846     		mov	r0, sp
 4180 001c FFF7FEFF 		bl	pb_decode
 4181              	.LVL370:
 4182 0020 0446     		mov	r4, r0
 4183              	.LVL371:
1090:X-CUBE-AI/App/pb_decode.c ****         return false;
 4184              		.loc 1 1090 5 is_stmt 1 view .LVU1129
1090:X-CUBE-AI/App/pb_decode.c ****         return false;
 4185              		.loc 1 1090 10 is_stmt 0 view .LVU1130
 4186 0022 6946     		mov	r1, sp
ARM GAS  /tmp/ccbrCuLB.s 			page 118


 4187 0024 3046     		mov	r0, r6
 4188 0026 FFF7FEFF 		bl	pb_close_string_substream
 4189              	.LVL372:
1090:X-CUBE-AI/App/pb_decode.c ****         return false;
 4190              		.loc 1 1090 8 view .LVU1131
 4191 002a 0028     		cmp	r0, #0
 4192 002c F1D0     		beq	.L388
1092:X-CUBE-AI/App/pb_decode.c **** }
 4193              		.loc 1 1092 12 view .LVU1132
 4194 002e 2046     		mov	r0, r4
 4195 0030 EFE7     		b	.L388
 4196              		.cfi_endproc
 4197              	.LFE27:
 4199              		.section	.text.pb_decode_nullterminated,"ax",%progbits
 4200              		.align	1
 4201              		.global	pb_decode_nullterminated
 4202              		.syntax unified
 4203              		.thumb
 4204              		.thumb_func
 4205              		.fpu fpv4-sp-d16
 4207              	pb_decode_nullterminated:
 4208              	.LVL373:
 4209              	.LFB28:
1096:X-CUBE-AI/App/pb_decode.c ****     /* This behaviour will be separated in nanopb-0.4.0, see issue #278. */
 4210              		.loc 1 1096 1 is_stmt 1 view -0
 4211              		.cfi_startproc
 4212              		@ args = 0, pretend = 0, frame = 0
 4213              		@ frame_needed = 0, uses_anonymous_args = 0
1096:X-CUBE-AI/App/pb_decode.c ****     /* This behaviour will be separated in nanopb-0.4.0, see issue #278. */
 4214              		.loc 1 1096 1 is_stmt 0 view .LVU1134
 4215 0000 08B5     		push	{r3, lr}
 4216              	.LCFI96:
 4217              		.cfi_def_cfa_offset 8
 4218              		.cfi_offset 3, -8
 4219              		.cfi_offset 14, -4
1098:X-CUBE-AI/App/pb_decode.c **** }
 4220              		.loc 1 1098 5 is_stmt 1 view .LVU1135
1098:X-CUBE-AI/App/pb_decode.c **** }
 4221              		.loc 1 1098 12 is_stmt 0 view .LVU1136
 4222 0002 FFF7FEFF 		bl	pb_decode
 4223              	.LVL374:
1099:X-CUBE-AI/App/pb_decode.c **** 
 4224              		.loc 1 1099 1 view .LVU1137
 4225 0006 08BD     		pop	{r3, pc}
 4226              		.cfi_endproc
 4227              	.LFE28:
 4229              		.section	.text.pb_decode_svarint,"ax",%progbits
 4230              		.align	1
 4231              		.global	pb_decode_svarint
 4232              		.syntax unified
 4233              		.thumb
 4234              		.thumb_func
 4235              		.fpu fpv4-sp-d16
 4237              	pb_decode_svarint:
 4238              	.LVL375:
 4239              	.LFB29:
1241:X-CUBE-AI/App/pb_decode.c ****     pb_uint64_t value;
ARM GAS  /tmp/ccbrCuLB.s 			page 119


 4240              		.loc 1 1241 1 is_stmt 1 view -0
 4241              		.cfi_startproc
 4242              		@ args = 0, pretend = 0, frame = 8
 4243              		@ frame_needed = 0, uses_anonymous_args = 0
1241:X-CUBE-AI/App/pb_decode.c ****     pb_uint64_t value;
 4244              		.loc 1 1241 1 is_stmt 0 view .LVU1139
 4245 0000 D0B5     		push	{r4, r6, r7, lr}
 4246              	.LCFI97:
 4247              		.cfi_def_cfa_offset 16
 4248              		.cfi_offset 4, -16
 4249              		.cfi_offset 6, -12
 4250              		.cfi_offset 7, -8
 4251              		.cfi_offset 14, -4
 4252 0002 82B0     		sub	sp, sp, #8
 4253              	.LCFI98:
 4254              		.cfi_def_cfa_offset 24
 4255 0004 0C46     		mov	r4, r1
1242:X-CUBE-AI/App/pb_decode.c ****     if (!pb_decode_varint(stream, &value))
 4256              		.loc 1 1242 5 is_stmt 1 view .LVU1140
1243:X-CUBE-AI/App/pb_decode.c ****         return false;
 4257              		.loc 1 1243 5 view .LVU1141
1243:X-CUBE-AI/App/pb_decode.c ****         return false;
 4258              		.loc 1 1243 10 is_stmt 0 view .LVU1142
 4259 0006 6946     		mov	r1, sp
 4260              	.LVL376:
1243:X-CUBE-AI/App/pb_decode.c ****         return false;
 4261              		.loc 1 1243 10 view .LVU1143
 4262 0008 FFF7FEFF 		bl	pb_decode_varint
 4263              	.LVL377:
1243:X-CUBE-AI/App/pb_decode.c ****         return false;
 4264              		.loc 1 1243 8 view .LVU1144
 4265 000c 78B1     		cbz	r0, .L394
1246:X-CUBE-AI/App/pb_decode.c ****         *dest = (pb_int64_t)(~(value >> 1));
 4266              		.loc 1 1246 5 is_stmt 1 view .LVU1145
1246:X-CUBE-AI/App/pb_decode.c ****         *dest = (pb_int64_t)(~(value >> 1));
 4267              		.loc 1 1246 15 is_stmt 0 view .LVU1146
 4268 000e 009B     		ldr	r3, [sp]
 4269 0010 019A     		ldr	r2, [sp, #4]
 4270 0012 03F00106 		and	r6, r3, #1
 4271 0016 0027     		movs	r7, #0
1246:X-CUBE-AI/App/pb_decode.c ****         *dest = (pb_int64_t)(~(value >> 1));
 4272              		.loc 1 1246 8 view .LVU1147
 4273 0018 56EA0701 		orrs	r1, r6, r7
 4274 001c 09D0     		beq	.L395
1247:X-CUBE-AI/App/pb_decode.c ****     else
 4275              		.loc 1 1247 9 is_stmt 1 view .LVU1148
1247:X-CUBE-AI/App/pb_decode.c ****     else
 4276              		.loc 1 1247 38 is_stmt 0 view .LVU1149
 4277 001e 5B08     		lsrs	r3, r3, #1
 4278 0020 43EAC273 		orr	r3, r3, r2, lsl #31
1247:X-CUBE-AI/App/pb_decode.c ****     else
 4279              		.loc 1 1247 30 view .LVU1150
 4280 0024 DB43     		mvns	r3, r3
 4281 0026 6FEA5202 		mvn	r2, r2, lsr #1
1247:X-CUBE-AI/App/pb_decode.c ****     else
 4282              		.loc 1 1247 15 view .LVU1151
 4283 002a 2360     		str	r3, [r4]
ARM GAS  /tmp/ccbrCuLB.s 			page 120


 4284 002c 6260     		str	r2, [r4, #4]
 4285              	.L394:
1252:X-CUBE-AI/App/pb_decode.c **** 
 4286              		.loc 1 1252 1 view .LVU1152
 4287 002e 02B0     		add	sp, sp, #8
 4288              	.LCFI99:
 4289              		.cfi_remember_state
 4290              		.cfi_def_cfa_offset 16
 4291              		@ sp needed
 4292 0030 D0BD     		pop	{r4, r6, r7, pc}
 4293              	.LVL378:
 4294              	.L395:
 4295              	.LCFI100:
 4296              		.cfi_restore_state
1249:X-CUBE-AI/App/pb_decode.c ****     
 4297              		.loc 1 1249 9 is_stmt 1 view .LVU1153
1249:X-CUBE-AI/App/pb_decode.c ****     
 4298              		.loc 1 1249 36 is_stmt 0 view .LVU1154
 4299 0032 5B08     		lsrs	r3, r3, #1
 4300 0034 43EAC273 		orr	r3, r3, r2, lsl #31
 4301 0038 5208     		lsrs	r2, r2, #1
1249:X-CUBE-AI/App/pb_decode.c ****     
 4302              		.loc 1 1249 15 view .LVU1155
 4303 003a 2360     		str	r3, [r4]
 4304 003c 6260     		str	r2, [r4, #4]
 4305 003e F6E7     		b	.L394
 4306              		.cfi_endproc
 4307              	.LFE29:
 4309              		.section	.text.pb_dec_svarint,"ax",%progbits
 4310              		.align	1
 4311              		.syntax unified
 4312              		.thumb
 4313              		.thumb_func
 4314              		.fpu fpv4-sp-d16
 4316              	pb_dec_svarint:
 4317              	.LVL379:
 4318              	.LFB34:
1351:X-CUBE-AI/App/pb_decode.c ****     pb_int64_t value, clamped;
 4319              		.loc 1 1351 1 is_stmt 1 view -0
 4320              		.cfi_startproc
 4321              		@ args = 0, pretend = 0, frame = 8
 4322              		@ frame_needed = 0, uses_anonymous_args = 0
1351:X-CUBE-AI/App/pb_decode.c ****     pb_int64_t value, clamped;
 4323              		.loc 1 1351 1 is_stmt 0 view .LVU1157
 4324 0000 2DE97043 		push	{r4, r5, r6, r8, r9, lr}
 4325              	.LCFI101:
 4326              		.cfi_def_cfa_offset 24
 4327              		.cfi_offset 4, -24
 4328              		.cfi_offset 5, -20
 4329              		.cfi_offset 6, -16
 4330              		.cfi_offset 8, -12
 4331              		.cfi_offset 9, -8
 4332              		.cfi_offset 14, -4
 4333 0004 82B0     		sub	sp, sp, #8
 4334              	.LCFI102:
 4335              		.cfi_def_cfa_offset 32
 4336 0006 0446     		mov	r4, r0
ARM GAS  /tmp/ccbrCuLB.s 			page 121


 4337 0008 0D46     		mov	r5, r1
 4338 000a 1646     		mov	r6, r2
1352:X-CUBE-AI/App/pb_decode.c ****     if (!pb_decode_svarint(stream, &value))
 4339              		.loc 1 1352 5 is_stmt 1 view .LVU1158
1353:X-CUBE-AI/App/pb_decode.c ****         return false;
 4340              		.loc 1 1353 5 view .LVU1159
1353:X-CUBE-AI/App/pb_decode.c ****         return false;
 4341              		.loc 1 1353 10 is_stmt 0 view .LVU1160
 4342 000c 6946     		mov	r1, sp
 4343              	.LVL380:
1353:X-CUBE-AI/App/pb_decode.c ****         return false;
 4344              		.loc 1 1353 10 view .LVU1161
 4345 000e FFF7FEFF 		bl	pb_decode_svarint
 4346              	.LVL381:
1353:X-CUBE-AI/App/pb_decode.c ****         return false;
 4347              		.loc 1 1353 8 view .LVU1162
 4348 0012 00B3     		cbz	r0, .L398
1357:X-CUBE-AI/App/pb_decode.c ****         clamped = *(pb_int64_t*)dest = value;
 4349              		.loc 1 1357 5 is_stmt 1 view .LVU1163
1357:X-CUBE-AI/App/pb_decode.c ****         clamped = *(pb_int64_t*)dest = value;
 4350              		.loc 1 1357 14 is_stmt 0 view .LVU1164
 4351 0014 B5F80730 		ldrh	r3, [r5, #7]	@ unaligned
1357:X-CUBE-AI/App/pb_decode.c ****         clamped = *(pb_int64_t*)dest = value;
 4352              		.loc 1 1357 8 view .LVU1165
 4353 0018 082B     		cmp	r3, #8
 4354 001a 0ED0     		beq	.L407
1359:X-CUBE-AI/App/pb_decode.c ****         clamped = *(int32_t*)dest = (int32_t)value;
 4355              		.loc 1 1359 10 is_stmt 1 view .LVU1166
1359:X-CUBE-AI/App/pb_decode.c ****         clamped = *(int32_t*)dest = (int32_t)value;
 4356              		.loc 1 1359 13 is_stmt 0 view .LVU1167
 4357 001c 042B     		cmp	r3, #4
 4358 001e 1DD0     		beq	.L408
1361:X-CUBE-AI/App/pb_decode.c ****         clamped = *(int_least16_t*)dest = (int_least16_t)value;
 4359              		.loc 1 1361 10 is_stmt 1 view .LVU1168
1361:X-CUBE-AI/App/pb_decode.c ****         clamped = *(int_least16_t*)dest = (int_least16_t)value;
 4360              		.loc 1 1361 13 is_stmt 0 view .LVU1169
 4361 0020 022B     		cmp	r3, #2
 4362 0022 21D0     		beq	.L409
1363:X-CUBE-AI/App/pb_decode.c ****         clamped = *(int_least8_t*)dest = (int_least8_t)value;
 4363              		.loc 1 1363 10 is_stmt 1 view .LVU1170
1363:X-CUBE-AI/App/pb_decode.c ****         clamped = *(int_least8_t*)dest = (int_least8_t)value;
 4364              		.loc 1 1363 13 is_stmt 0 view .LVU1171
 4365 0024 012B     		cmp	r3, #1
 4366 0026 28D1     		bne	.L403
1364:X-CUBE-AI/App/pb_decode.c ****     else
 4367              		.loc 1 1364 9 is_stmt 1 view .LVU1172
1364:X-CUBE-AI/App/pb_decode.c ****     else
 4368              		.loc 1 1364 42 is_stmt 0 view .LVU1173
 4369 0028 9DF90080 		ldrsb	r8, [sp]
1364:X-CUBE-AI/App/pb_decode.c ****     else
 4370              		.loc 1 1364 40 view .LVU1174
 4371 002c 86F80080 		strb	r8, [r6]
1364:X-CUBE-AI/App/pb_decode.c ****     else
 4372              		.loc 1 1364 17 view .LVU1175
 4373 0030 4FFA88F8 		sxtb	r8, r8
 4374 0034 4FEAE879 		asr	r9, r8, #31
 4375              	.LVL382:
ARM GAS  /tmp/ccbrCuLB.s 			page 122


1364:X-CUBE-AI/App/pb_decode.c ****     else
 4376              		.loc 1 1364 17 view .LVU1176
 4377 0038 03E0     		b	.L400
 4378              	.LVL383:
 4379              	.L407:
1358:X-CUBE-AI/App/pb_decode.c ****     else if (field->data_size == sizeof(int32_t))
 4380              		.loc 1 1358 9 is_stmt 1 view .LVU1177
1358:X-CUBE-AI/App/pb_decode.c ****     else if (field->data_size == sizeof(int32_t))
 4381              		.loc 1 1358 38 is_stmt 0 view .LVU1178
 4382 003a DDE90089 		ldrd	r8, [sp]
 4383 003e C6E90089 		strd	r8, [r6]
 4384              	.LVL384:
 4385              	.L400:
1368:X-CUBE-AI/App/pb_decode.c ****         PB_RETURN_ERROR(stream, "integer too large");
 4386              		.loc 1 1368 5 is_stmt 1 view .LVU1179
1368:X-CUBE-AI/App/pb_decode.c ****         PB_RETURN_ERROR(stream, "integer too large");
 4387              		.loc 1 1368 17 is_stmt 0 view .LVU1180
 4388 0042 DDE90023 		ldrd	r2, [sp]
1368:X-CUBE-AI/App/pb_decode.c ****         PB_RETURN_ERROR(stream, "integer too large");
 4389              		.loc 1 1368 8 view .LVU1181
 4390 0046 4B45     		cmp	r3, r9
 4391 0048 08BF     		it	eq
 4392 004a 4245     		cmpeq	r2, r8
 4393 004c 03D0     		beq	.L398
1369:X-CUBE-AI/App/pb_decode.c ****     
 4394              		.loc 1 1369 9 is_stmt 1 view .LVU1182
 4395 004e E368     		ldr	r3, [r4, #12]
 4396 0050 D3B1     		cbz	r3, .L410
 4397              	.L405:
1369:X-CUBE-AI/App/pb_decode.c ****     
 4398              		.loc 1 1369 9 is_stmt 0 discriminator 4 view .LVU1183
 4399 0052 E360     		str	r3, [r4, #12]
 4400 0054 0020     		movs	r0, #0
 4401              	.LVL385:
 4402              	.L398:
1372:X-CUBE-AI/App/pb_decode.c **** 
 4403              		.loc 1 1372 1 view .LVU1184
 4404 0056 02B0     		add	sp, sp, #8
 4405              	.LCFI103:
 4406              		.cfi_remember_state
 4407              		.cfi_def_cfa_offset 24
 4408              		@ sp needed
 4409 0058 BDE87083 		pop	{r4, r5, r6, r8, r9, pc}
 4410              	.LVL386:
 4411              	.L408:
 4412              	.LCFI104:
 4413              		.cfi_restore_state
1360:X-CUBE-AI/App/pb_decode.c ****     else if (field->data_size == sizeof(int_least16_t))
 4414              		.loc 1 1360 9 is_stmt 1 view .LVU1185
1360:X-CUBE-AI/App/pb_decode.c ****     else if (field->data_size == sizeof(int_least16_t))
 4415              		.loc 1 1360 37 is_stmt 0 view .LVU1186
 4416 005c 009B     		ldr	r3, [sp]
1360:X-CUBE-AI/App/pb_decode.c ****     else if (field->data_size == sizeof(int_least16_t))
 4417              		.loc 1 1360 35 view .LVU1187
 4418 005e 3360     		str	r3, [r6]
1360:X-CUBE-AI/App/pb_decode.c ****     else if (field->data_size == sizeof(int_least16_t))
 4419              		.loc 1 1360 17 view .LVU1188
ARM GAS  /tmp/ccbrCuLB.s 			page 123


 4420 0060 9846     		mov	r8, r3
 4421 0062 4FEAE379 		asr	r9, r3, #31
 4422              	.LVL387:
1360:X-CUBE-AI/App/pb_decode.c ****     else if (field->data_size == sizeof(int_least16_t))
 4423              		.loc 1 1360 17 view .LVU1189
 4424 0066 ECE7     		b	.L400
 4425              	.LVL388:
 4426              	.L409:
1362:X-CUBE-AI/App/pb_decode.c ****     else if (field->data_size == sizeof(int_least8_t))
 4427              		.loc 1 1362 9 is_stmt 1 view .LVU1190
1362:X-CUBE-AI/App/pb_decode.c ****     else if (field->data_size == sizeof(int_least8_t))
 4428              		.loc 1 1362 43 is_stmt 0 view .LVU1191
 4429 0068 BDF90080 		ldrsh	r8, [sp]
1362:X-CUBE-AI/App/pb_decode.c ****     else if (field->data_size == sizeof(int_least8_t))
 4430              		.loc 1 1362 41 view .LVU1192
 4431 006c A6F80080 		strh	r8, [r6]	@ movhi
1362:X-CUBE-AI/App/pb_decode.c ****     else if (field->data_size == sizeof(int_least8_t))
 4432              		.loc 1 1362 17 view .LVU1193
 4433 0070 0FFA88F8 		sxth	r8, r8
 4434 0074 4FEAE879 		asr	r9, r8, #31
 4435              	.LVL389:
1362:X-CUBE-AI/App/pb_decode.c ****     else if (field->data_size == sizeof(int_least8_t))
 4436              		.loc 1 1362 17 view .LVU1194
 4437 0078 E3E7     		b	.L400
 4438              	.LVL390:
 4439              	.L403:
1366:X-CUBE-AI/App/pb_decode.c **** 
 4440              		.loc 1 1366 9 is_stmt 1 view .LVU1195
 4441 007a E368     		ldr	r3, [r4, #12]
 4442 007c 13B1     		cbz	r3, .L411
 4443              	.L404:
1366:X-CUBE-AI/App/pb_decode.c **** 
 4444              		.loc 1 1366 9 is_stmt 0 discriminator 4 view .LVU1196
 4445 007e E360     		str	r3, [r4, #12]
 4446 0080 0020     		movs	r0, #0
 4447 0082 E8E7     		b	.L398
 4448              	.L411:
1366:X-CUBE-AI/App/pb_decode.c **** 
 4449              		.loc 1 1366 9 view .LVU1197
 4450 0084 014B     		ldr	r3, .L412
 4451 0086 FAE7     		b	.L404
 4452              	.LVL391:
 4453              	.L410:
1369:X-CUBE-AI/App/pb_decode.c ****     
 4454              		.loc 1 1369 9 view .LVU1198
 4455 0088 014B     		ldr	r3, .L412+4
 4456 008a E2E7     		b	.L405
 4457              	.L413:
 4458              		.align	2
 4459              	.L412:
 4460 008c 00000000 		.word	.LC9
 4461 0090 14000000 		.word	.LC10
 4462              		.cfi_endproc
 4463              	.LFE34:
 4465              		.section	.text.pb_decode_fixed32,"ax",%progbits
 4466              		.align	1
 4467              		.global	pb_decode_fixed32
ARM GAS  /tmp/ccbrCuLB.s 			page 124


 4468              		.syntax unified
 4469              		.thumb
 4470              		.thumb_func
 4471              		.fpu fpv4-sp-d16
 4473              	pb_decode_fixed32:
 4474              	.LVL392:
 4475              	.LFB30:
1255:X-CUBE-AI/App/pb_decode.c ****     pb_byte_t bytes[4];
 4476              		.loc 1 1255 1 is_stmt 1 view -0
 4477              		.cfi_startproc
 4478              		@ args = 0, pretend = 0, frame = 8
 4479              		@ frame_needed = 0, uses_anonymous_args = 0
1255:X-CUBE-AI/App/pb_decode.c ****     pb_byte_t bytes[4];
 4480              		.loc 1 1255 1 is_stmt 0 view .LVU1200
 4481 0000 10B5     		push	{r4, lr}
 4482              	.LCFI105:
 4483              		.cfi_def_cfa_offset 8
 4484              		.cfi_offset 4, -8
 4485              		.cfi_offset 14, -4
 4486 0002 82B0     		sub	sp, sp, #8
 4487              	.LCFI106:
 4488              		.cfi_def_cfa_offset 16
 4489 0004 0C46     		mov	r4, r1
1256:X-CUBE-AI/App/pb_decode.c **** 
 4490              		.loc 1 1256 5 is_stmt 1 view .LVU1201
1258:X-CUBE-AI/App/pb_decode.c ****         return false;
 4491              		.loc 1 1258 5 view .LVU1202
1258:X-CUBE-AI/App/pb_decode.c ****         return false;
 4492              		.loc 1 1258 10 is_stmt 0 view .LVU1203
 4493 0006 0422     		movs	r2, #4
 4494 0008 0DEB0201 		add	r1, sp, r2
 4495              	.LVL393:
1258:X-CUBE-AI/App/pb_decode.c ****         return false;
 4496              		.loc 1 1258 10 view .LVU1204
 4497 000c FFF7FEFF 		bl	pb_read
 4498              	.LVL394:
1258:X-CUBE-AI/App/pb_decode.c ****         return false;
 4499              		.loc 1 1258 8 view .LVU1205
 4500 0010 70B1     		cbz	r0, .L415
1261:X-CUBE-AI/App/pb_decode.c ****                        ((uint32_t)bytes[1] << 8) |
 4501              		.loc 1 1261 5 is_stmt 1 view .LVU1206
1261:X-CUBE-AI/App/pb_decode.c ****                        ((uint32_t)bytes[1] << 8) |
 4502              		.loc 1 1261 40 is_stmt 0 view .LVU1207
 4503 0012 9DF80430 		ldrb	r3, [sp, #4]	@ zero_extendqisi2
1262:X-CUBE-AI/App/pb_decode.c ****                        ((uint32_t)bytes[2] << 16) |
 4504              		.loc 1 1262 40 view .LVU1208
 4505 0016 9DF80520 		ldrb	r2, [sp, #5]	@ zero_extendqisi2
1261:X-CUBE-AI/App/pb_decode.c ****                        ((uint32_t)bytes[1] << 8) |
 4506              		.loc 1 1261 50 view .LVU1209
 4507 001a 43EA0223 		orr	r3, r3, r2, lsl #8
1263:X-CUBE-AI/App/pb_decode.c ****                        ((uint32_t)bytes[3] << 24);
 4508              		.loc 1 1263 40 view .LVU1210
 4509 001e 9DF80620 		ldrb	r2, [sp, #6]	@ zero_extendqisi2
1262:X-CUBE-AI/App/pb_decode.c ****                        ((uint32_t)bytes[2] << 16) |
 4510              		.loc 1 1262 50 view .LVU1211
 4511 0022 43EA0243 		orr	r3, r3, r2, lsl #16
1264:X-CUBE-AI/App/pb_decode.c ****     return true;
ARM GAS  /tmp/ccbrCuLB.s 			page 125


 4512              		.loc 1 1264 40 view .LVU1212
 4513 0026 9DF80720 		ldrb	r2, [sp, #7]	@ zero_extendqisi2
1263:X-CUBE-AI/App/pb_decode.c ****                        ((uint32_t)bytes[3] << 24);
 4514              		.loc 1 1263 51 view .LVU1213
 4515 002a 43EA0263 		orr	r3, r3, r2, lsl #24
1261:X-CUBE-AI/App/pb_decode.c ****                        ((uint32_t)bytes[1] << 8) |
 4516              		.loc 1 1261 22 view .LVU1214
 4517 002e 2360     		str	r3, [r4]
1265:X-CUBE-AI/App/pb_decode.c **** }
 4518              		.loc 1 1265 5 is_stmt 1 view .LVU1215
 4519              	.L415:
1266:X-CUBE-AI/App/pb_decode.c **** 
 4520              		.loc 1 1266 1 is_stmt 0 view .LVU1216
 4521 0030 02B0     		add	sp, sp, #8
 4522              	.LCFI107:
 4523              		.cfi_def_cfa_offset 8
 4524              		@ sp needed
 4525 0032 10BD     		pop	{r4, pc}
1266:X-CUBE-AI/App/pb_decode.c **** 
 4526              		.loc 1 1266 1 view .LVU1217
 4527              		.cfi_endproc
 4528              	.LFE30:
 4530              		.section	.text.pb_dec_fixed32,"ax",%progbits
 4531              		.align	1
 4532              		.syntax unified
 4533              		.thumb
 4534              		.thumb_func
 4535              		.fpu fpv4-sp-d16
 4537              	pb_dec_fixed32:
 4538              	.LVL395:
 4539              	.LFB35:
1375:X-CUBE-AI/App/pb_decode.c ****     PB_UNUSED(field);
 4540              		.loc 1 1375 1 is_stmt 1 view -0
 4541              		.cfi_startproc
 4542              		@ args = 0, pretend = 0, frame = 0
 4543              		@ frame_needed = 0, uses_anonymous_args = 0
1375:X-CUBE-AI/App/pb_decode.c ****     PB_UNUSED(field);
 4544              		.loc 1 1375 1 is_stmt 0 view .LVU1219
 4545 0000 08B5     		push	{r3, lr}
 4546              	.LCFI108:
 4547              		.cfi_def_cfa_offset 8
 4548              		.cfi_offset 3, -8
 4549              		.cfi_offset 14, -4
1376:X-CUBE-AI/App/pb_decode.c ****     return pb_decode_fixed32(stream, dest);
 4550              		.loc 1 1376 5 is_stmt 1 view .LVU1220
1377:X-CUBE-AI/App/pb_decode.c **** }
 4551              		.loc 1 1377 5 view .LVU1221
1377:X-CUBE-AI/App/pb_decode.c **** }
 4552              		.loc 1 1377 12 is_stmt 0 view .LVU1222
 4553 0002 1146     		mov	r1, r2
 4554              	.LVL396:
1377:X-CUBE-AI/App/pb_decode.c **** }
 4555              		.loc 1 1377 12 view .LVU1223
 4556 0004 FFF7FEFF 		bl	pb_decode_fixed32
 4557              	.LVL397:
1378:X-CUBE-AI/App/pb_decode.c **** 
 4558              		.loc 1 1378 1 view .LVU1224
ARM GAS  /tmp/ccbrCuLB.s 			page 126


 4559 0008 08BD     		pop	{r3, pc}
 4560              		.cfi_endproc
 4561              	.LFE35:
 4563              		.section	.text.pb_decode_fixed64,"ax",%progbits
 4564              		.align	1
 4565              		.global	pb_decode_fixed64
 4566              		.syntax unified
 4567              		.thumb
 4568              		.thumb_func
 4569              		.fpu fpv4-sp-d16
 4571              	pb_decode_fixed64:
 4572              	.LVL398:
 4573              	.LFB31:
1270:X-CUBE-AI/App/pb_decode.c ****     pb_byte_t bytes[8];
 4574              		.loc 1 1270 1 is_stmt 1 view -0
 4575              		.cfi_startproc
 4576              		@ args = 0, pretend = 0, frame = 8
 4577              		@ frame_needed = 0, uses_anonymous_args = 0
1270:X-CUBE-AI/App/pb_decode.c ****     pb_byte_t bytes[8];
 4578              		.loc 1 1270 1 is_stmt 0 view .LVU1226
 4579 0000 D0B5     		push	{r4, r6, r7, lr}
 4580              	.LCFI109:
 4581              		.cfi_def_cfa_offset 16
 4582              		.cfi_offset 4, -16
 4583              		.cfi_offset 6, -12
 4584              		.cfi_offset 7, -8
 4585              		.cfi_offset 14, -4
 4586 0002 82B0     		sub	sp, sp, #8
 4587              	.LCFI110:
 4588              		.cfi_def_cfa_offset 24
 4589 0004 0C46     		mov	r4, r1
1271:X-CUBE-AI/App/pb_decode.c **** 
 4590              		.loc 1 1271 5 is_stmt 1 view .LVU1227
1273:X-CUBE-AI/App/pb_decode.c ****         return false;
 4591              		.loc 1 1273 5 view .LVU1228
1273:X-CUBE-AI/App/pb_decode.c ****         return false;
 4592              		.loc 1 1273 10 is_stmt 0 view .LVU1229
 4593 0006 0822     		movs	r2, #8
 4594 0008 6946     		mov	r1, sp
 4595              	.LVL399:
1273:X-CUBE-AI/App/pb_decode.c ****         return false;
 4596              		.loc 1 1273 10 view .LVU1230
 4597 000a FFF7FEFF 		bl	pb_read
 4598              	.LVL400:
1273:X-CUBE-AI/App/pb_decode.c ****         return false;
 4599              		.loc 1 1273 8 view .LVU1231
 4600 000e E8B1     		cbz	r0, .L420
1276:X-CUBE-AI/App/pb_decode.c ****                        ((uint64_t)bytes[1] << 8) |
 4601              		.loc 1 1276 5 is_stmt 1 view .LVU1232
1276:X-CUBE-AI/App/pb_decode.c ****                        ((uint64_t)bytes[1] << 8) |
 4602              		.loc 1 1276 44 is_stmt 0 view .LVU1233
 4603 0010 9DF80020 		ldrb	r2, [sp]	@ zero_extendqisi2
1277:X-CUBE-AI/App/pb_decode.c ****                        ((uint64_t)bytes[2] << 16) |
 4604              		.loc 1 1277 25 view .LVU1234
 4605 0014 9DF80160 		ldrb	r6, [sp, #1]	@ zero_extendqisi2
1276:X-CUBE-AI/App/pb_decode.c ****                        ((uint64_t)bytes[1] << 8) |
 4606              		.loc 1 1276 50 view .LVU1235
ARM GAS  /tmp/ccbrCuLB.s 			page 127


 4607 0018 42EA0622 		orr	r2, r2, r6, lsl #8
1278:X-CUBE-AI/App/pb_decode.c ****                        ((uint64_t)bytes[3] << 24) |
 4608              		.loc 1 1278 25 view .LVU1236
 4609 001c 9DF80260 		ldrb	r6, [sp, #2]	@ zero_extendqisi2
1277:X-CUBE-AI/App/pb_decode.c ****                        ((uint64_t)bytes[2] << 16) |
 4610              		.loc 1 1277 50 view .LVU1237
 4611 0020 42EA0642 		orr	r2, r2, r6, lsl #16
1279:X-CUBE-AI/App/pb_decode.c ****                        ((uint64_t)bytes[4] << 32) |
 4612              		.loc 1 1279 25 view .LVU1238
 4613 0024 9DF80360 		ldrb	r6, [sp, #3]	@ zero_extendqisi2
1278:X-CUBE-AI/App/pb_decode.c ****                        ((uint64_t)bytes[3] << 24) |
 4614              		.loc 1 1278 51 view .LVU1239
 4615 0028 42EA0662 		orr	r2, r2, r6, lsl #24
1279:X-CUBE-AI/App/pb_decode.c ****                        ((uint64_t)bytes[4] << 32) |
 4616              		.loc 1 1279 51 view .LVU1240
 4617 002c 9DF80430 		ldrb	r3, [sp, #4]	@ zero_extendqisi2
1281:X-CUBE-AI/App/pb_decode.c ****                        ((uint64_t)bytes[6] << 48) |
 4618              		.loc 1 1281 25 view .LVU1241
 4619 0030 9DF80560 		ldrb	r6, [sp, #5]	@ zero_extendqisi2
1280:X-CUBE-AI/App/pb_decode.c ****                        ((uint64_t)bytes[5] << 40) |
 4620              		.loc 1 1280 51 view .LVU1242
 4621 0034 43EA0623 		orr	r3, r3, r6, lsl #8
1282:X-CUBE-AI/App/pb_decode.c ****                        ((uint64_t)bytes[7] << 56);
 4622              		.loc 1 1282 25 view .LVU1243
 4623 0038 9DF80660 		ldrb	r6, [sp, #6]	@ zero_extendqisi2
1281:X-CUBE-AI/App/pb_decode.c ****                        ((uint64_t)bytes[6] << 48) |
 4624              		.loc 1 1281 51 view .LVU1244
 4625 003c 43EA0643 		orr	r3, r3, r6, lsl #16
1283:X-CUBE-AI/App/pb_decode.c ****     
 4626              		.loc 1 1283 25 view .LVU1245
 4627 0040 9DF80760 		ldrb	r6, [sp, #7]	@ zero_extendqisi2
1282:X-CUBE-AI/App/pb_decode.c ****                        ((uint64_t)bytes[7] << 56);
 4628              		.loc 1 1282 51 view .LVU1246
 4629 0044 43EA0663 		orr	r3, r3, r6, lsl #24
1276:X-CUBE-AI/App/pb_decode.c ****                        ((uint64_t)bytes[1] << 8) |
 4630              		.loc 1 1276 22 view .LVU1247
 4631 0048 2260     		str	r2, [r4]
 4632 004a 6360     		str	r3, [r4, #4]
1285:X-CUBE-AI/App/pb_decode.c **** }
 4633              		.loc 1 1285 5 is_stmt 1 view .LVU1248
 4634              	.L420:
1286:X-CUBE-AI/App/pb_decode.c **** #endif
 4635              		.loc 1 1286 1 is_stmt 0 view .LVU1249
 4636 004c 02B0     		add	sp, sp, #8
 4637              	.LCFI111:
 4638              		.cfi_def_cfa_offset 16
 4639              		@ sp needed
 4640 004e D0BD     		pop	{r4, r6, r7, pc}
1286:X-CUBE-AI/App/pb_decode.c **** #endif
 4641              		.loc 1 1286 1 view .LVU1250
 4642              		.cfi_endproc
 4643              	.LFE31:
 4645              		.section	.text.pb_dec_fixed64,"ax",%progbits
 4646              		.align	1
 4647              		.syntax unified
 4648              		.thumb
 4649              		.thumb_func
ARM GAS  /tmp/ccbrCuLB.s 			page 128


 4650              		.fpu fpv4-sp-d16
 4652              	pb_dec_fixed64:
 4653              	.LVL401:
 4654              	.LFB36:
1381:X-CUBE-AI/App/pb_decode.c ****     PB_UNUSED(field);
 4655              		.loc 1 1381 1 is_stmt 1 view -0
 4656              		.cfi_startproc
 4657              		@ args = 0, pretend = 0, frame = 0
 4658              		@ frame_needed = 0, uses_anonymous_args = 0
1381:X-CUBE-AI/App/pb_decode.c ****     PB_UNUSED(field);
 4659              		.loc 1 1381 1 is_stmt 0 view .LVU1252
 4660 0000 08B5     		push	{r3, lr}
 4661              	.LCFI112:
 4662              		.cfi_def_cfa_offset 8
 4663              		.cfi_offset 3, -8
 4664              		.cfi_offset 14, -4
1382:X-CUBE-AI/App/pb_decode.c **** #ifndef PB_WITHOUT_64BIT
 4665              		.loc 1 1382 5 is_stmt 1 view .LVU1253
1384:X-CUBE-AI/App/pb_decode.c **** #else
 4666              		.loc 1 1384 5 view .LVU1254
1384:X-CUBE-AI/App/pb_decode.c **** #else
 4667              		.loc 1 1384 12 is_stmt 0 view .LVU1255
 4668 0002 1146     		mov	r1, r2
 4669              	.LVL402:
1384:X-CUBE-AI/App/pb_decode.c **** #else
 4670              		.loc 1 1384 12 view .LVU1256
 4671 0004 FFF7FEFF 		bl	pb_decode_fixed64
 4672              	.LVL403:
1389:X-CUBE-AI/App/pb_decode.c **** 
 4673              		.loc 1 1389 1 view .LVU1257
 4674 0008 08BD     		pop	{r3, pc}
 4675              		.cfi_endproc
 4676              	.LFE36:
 4678              		.section	.rodata.PB_DECODERS,"a"
 4679              		.align	2
 4680              		.set	.LANCHOR0,. + 0
 4683              	PB_DECODERS:
 4684 0000 00000000 		.word	pb_dec_varint
 4685 0004 00000000 		.word	pb_dec_uvarint
 4686 0008 00000000 		.word	pb_dec_svarint
 4687 000c 00000000 		.word	pb_dec_fixed32
 4688 0010 00000000 		.word	pb_dec_fixed64
 4689 0014 00000000 		.word	pb_dec_bytes
 4690 0018 00000000 		.word	pb_dec_string
 4691 001c 00000000 		.word	pb_dec_submessage
 4692 0020 00000000 		.word	0
 4693 0024 00000000 		.word	pb_dec_fixed_length_bytes
 4694              		.text
 4695              	.Letext0:
 4696              		.file 2 "/usr/lib/gcc/arm-none-eabi/9.2.1/include/stdint.h"
 4697              		.file 3 "/usr/lib/gcc/arm-none-eabi/9.2.1/include/stddef.h"
 4698              		.file 4 "/usr/include/newlib/sys/_types.h"
 4699              		.file 5 "/usr/include/newlib/sys/reent.h"
 4700              		.file 6 "/usr/include/newlib/sys/lock.h"
 4701              		.file 7 "X-CUBE-AI/App/pb.h"
 4702              		.file 8 "X-CUBE-AI/App/pb_decode.h"
 4703              		.file 9 "X-CUBE-AI/App/pb_common.h"
ARM GAS  /tmp/ccbrCuLB.s 			page 129


 4704              		.file 10 "<built-in>"
ARM GAS  /tmp/ccbrCuLB.s 			page 130


DEFINED SYMBOLS
                            *ABS*:0000000000000000 pb_decode.c
     /tmp/ccbrCuLB.s:18     .text.buf_read:0000000000000000 $t
     /tmp/ccbrCuLB.s:25     .text.buf_read:0000000000000000 buf_read
     /tmp/ccbrCuLB.s:89     .rodata.pb_readbyte.str1.4:0000000000000000 $d
     /tmp/ccbrCuLB.s:96     .text.pb_readbyte:0000000000000000 $t
     /tmp/ccbrCuLB.s:102    .text.pb_readbyte:0000000000000000 pb_readbyte
     /tmp/ccbrCuLB.s:173    .text.pb_readbyte:0000000000000034 $d
     /tmp/ccbrCuLB.s:179    .rodata.pb_decode_varint32_eof.str1.4:0000000000000000 $d
     /tmp/ccbrCuLB.s:183    .text.pb_decode_varint32_eof:0000000000000000 $t
     /tmp/ccbrCuLB.s:189    .text.pb_decode_varint32_eof:0000000000000000 pb_decode_varint32_eof
     /tmp/ccbrCuLB.s:393    .text.pb_decode_varint32_eof:00000000000000bc $d
     /tmp/ccbrCuLB.s:399    .rodata.decode_pointer_field.str1.4:0000000000000000 $d
     /tmp/ccbrCuLB.s:403    .text.decode_pointer_field:0000000000000000 $t
     /tmp/ccbrCuLB.s:409    .text.decode_pointer_field:0000000000000000 decode_pointer_field
     /tmp/ccbrCuLB.s:438    .text.decode_pointer_field:0000000000000010 $d
     /tmp/ccbrCuLB.s:443    .text.iter_from_extension:0000000000000000 $t
     /tmp/ccbrCuLB.s:449    .text.iter_from_extension:0000000000000000 iter_from_extension
     /tmp/ccbrCuLB.s:515    .text.find_extension_field:0000000000000000 $t
     /tmp/ccbrCuLB.s:521    .text.find_extension_field:0000000000000000 find_extension_field
     /tmp/ccbrCuLB.s:576    .text.pb_field_set_to_default:0000000000000000 $t
     /tmp/ccbrCuLB.s:582    .text.pb_field_set_to_default:0000000000000000 pb_field_set_to_default
     /tmp/ccbrCuLB.s:800    .text.pb_message_set_to_defaults:0000000000000000 pb_message_set_to_defaults
     /tmp/ccbrCuLB.s:794    .text.pb_message_set_to_defaults:0000000000000000 $t
     /tmp/ccbrCuLB.s:854    .text.pb_read:0000000000000000 $t
     /tmp/ccbrCuLB.s:861    .text.pb_read:0000000000000000 pb_read
     /tmp/ccbrCuLB.s:1001   .text.pb_read:0000000000000074 $d
     /tmp/ccbrCuLB.s:1008   .text.pb_skip_varint:0000000000000000 $t
     /tmp/ccbrCuLB.s:1014   .text.pb_skip_varint:0000000000000000 pb_skip_varint
     /tmp/ccbrCuLB.s:1064   .rodata.read_raw_value.str1.4:0000000000000000 $d
     /tmp/ccbrCuLB.s:1068   .text.read_raw_value:0000000000000000 $t
     /tmp/ccbrCuLB.s:1074   .text.read_raw_value:0000000000000000 read_raw_value
     /tmp/ccbrCuLB.s:1214   .text.read_raw_value:0000000000000070 $d
     /tmp/ccbrCuLB.s:1219   .text.pb_istream_from_buffer:0000000000000000 $t
     /tmp/ccbrCuLB.s:1226   .text.pb_istream_from_buffer:0000000000000000 pb_istream_from_buffer
     /tmp/ccbrCuLB.s:1268   .text.pb_istream_from_buffer:0000000000000014 $d
     /tmp/ccbrCuLB.s:1273   .text.pb_decode_varint32:0000000000000000 $t
     /tmp/ccbrCuLB.s:1280   .text.pb_decode_varint32:0000000000000000 pb_decode_varint32
     /tmp/ccbrCuLB.s:1304   .text.pb_skip_string:0000000000000000 $t
     /tmp/ccbrCuLB.s:1310   .text.pb_skip_string:0000000000000000 pb_skip_string
     /tmp/ccbrCuLB.s:1359   .rodata.pb_dec_fixed_length_bytes.str1.4:0000000000000000 $d
     /tmp/ccbrCuLB.s:1366   .text.pb_dec_fixed_length_bytes:0000000000000000 $t
     /tmp/ccbrCuLB.s:1372   .text.pb_dec_fixed_length_bytes:0000000000000000 pb_dec_fixed_length_bytes
     /tmp/ccbrCuLB.s:1478   .text.pb_dec_fixed_length_bytes:0000000000000060 $d
     /tmp/ccbrCuLB.s:1484   .rodata.pb_dec_string.str1.4:0000000000000000 $d
     /tmp/ccbrCuLB.s:1491   .text.pb_dec_string:0000000000000000 $t
     /tmp/ccbrCuLB.s:1497   .text.pb_dec_string:0000000000000000 pb_dec_string
     /tmp/ccbrCuLB.s:1622   .text.pb_dec_string:0000000000000068 $d
     /tmp/ccbrCuLB.s:1629   .text.pb_dec_bytes:0000000000000000 $t
     /tmp/ccbrCuLB.s:1635   .text.pb_dec_bytes:0000000000000000 pb_dec_bytes
     /tmp/ccbrCuLB.s:1778   .text.pb_dec_bytes:000000000000007c $d
     /tmp/ccbrCuLB.s:1785   .text.pb_decode_varint:0000000000000000 $t
     /tmp/ccbrCuLB.s:1792   .text.pb_decode_varint:0000000000000000 pb_decode_varint
     /tmp/ccbrCuLB.s:1900   .text.pb_decode_varint:000000000000006c $d
     /tmp/ccbrCuLB.s:1905   .rodata.pb_dec_uvarint.str1.4:0000000000000000 $d
     /tmp/ccbrCuLB.s:1912   .text.pb_dec_uvarint:0000000000000000 $t
     /tmp/ccbrCuLB.s:1918   .text.pb_dec_uvarint:0000000000000000 pb_dec_uvarint
ARM GAS  /tmp/ccbrCuLB.s 			page 131


     /tmp/ccbrCuLB.s:2062   .text.pb_dec_uvarint:000000000000008c $d
     /tmp/ccbrCuLB.s:2068   .text.pb_dec_varint:0000000000000000 $t
     /tmp/ccbrCuLB.s:2074   .text.pb_dec_varint:0000000000000000 pb_dec_varint
     /tmp/ccbrCuLB.s:2237   .text.pb_dec_varint:0000000000000088 $d
     /tmp/ccbrCuLB.s:2243   .text.pb_decode_tag:0000000000000000 $t
     /tmp/ccbrCuLB.s:2250   .text.pb_decode_tag:0000000000000000 pb_decode_tag
     /tmp/ccbrCuLB.s:2338   .text.pb_skip_field:0000000000000000 $t
     /tmp/ccbrCuLB.s:2345   .text.pb_skip_field:0000000000000000 pb_skip_field
     /tmp/ccbrCuLB.s:2363   .text.pb_skip_field:000000000000000a $d
     /tmp/ccbrCuLB.s:2369   .text.pb_skip_field:0000000000000010 $t
     /tmp/ccbrCuLB.s:2430   .text.pb_skip_field:0000000000000040 $d
     /tmp/ccbrCuLB.s:2435   .rodata.pb_make_string_substream.str1.4:0000000000000000 $d
     /tmp/ccbrCuLB.s:2439   .text.pb_make_string_substream:0000000000000000 $t
     /tmp/ccbrCuLB.s:2446   .text.pb_make_string_substream:0000000000000000 pb_make_string_substream
     /tmp/ccbrCuLB.s:2524   .text.pb_make_string_substream:000000000000003c $d
     /tmp/ccbrCuLB.s:2529   .text.pb_close_string_substream:0000000000000000 $t
     /tmp/ccbrCuLB.s:2536   .text.pb_close_string_substream:0000000000000000 pb_close_string_substream
     /tmp/ccbrCuLB.s:2596   .rodata.decode_static_field.str1.4:0000000000000000 $d
     /tmp/ccbrCuLB.s:2603   .text.decode_static_field:0000000000000000 $t
     /tmp/ccbrCuLB.s:2609   .text.decode_static_field:0000000000000000 decode_static_field
     /tmp/ccbrCuLB.s:2950   .text.decode_static_field:0000000000000138 $d
     /tmp/ccbrCuLB.s:2957   .rodata.decode_callback_field.str1.4:0000000000000000 $d
     /tmp/ccbrCuLB.s:2961   .text.decode_callback_field:0000000000000000 $t
     /tmp/ccbrCuLB.s:2967   .text.decode_callback_field:0000000000000000 decode_callback_field
     /tmp/ccbrCuLB.s:3132   .text.decode_callback_field:0000000000000094 $d
     /tmp/ccbrCuLB.s:3138   .text.decode_field:0000000000000000 $t
     /tmp/ccbrCuLB.s:3144   .text.decode_field:0000000000000000 decode_field
     /tmp/ccbrCuLB.s:3211   .text.decode_field:0000000000000034 $d
     /tmp/ccbrCuLB.s:3216   .text.default_extension_decoder:0000000000000000 $t
     /tmp/ccbrCuLB.s:3222   .text.default_extension_decoder:0000000000000000 default_extension_decoder
     /tmp/ccbrCuLB.s:3296   .text.decode_extension:0000000000000000 $t
     /tmp/ccbrCuLB.s:3302   .text.decode_extension:0000000000000000 decode_extension
     /tmp/ccbrCuLB.s:3405   .rodata.pb_decode_noinit.str1.4:0000000000000000 $d
     /tmp/ccbrCuLB.s:3412   .text.pb_decode_noinit:0000000000000000 $t
     /tmp/ccbrCuLB.s:3419   .text.pb_decode_noinit:0000000000000000 pb_decode_noinit
     /tmp/ccbrCuLB.s:3863   .text.pb_decode_noinit:00000000000001bc $d
     /tmp/ccbrCuLB.s:3869   .text.pb_decode:0000000000000000 $t
     /tmp/ccbrCuLB.s:3876   .text.pb_decode:0000000000000000 pb_decode
     /tmp/ccbrCuLB.s:3919   .rodata.pb_dec_submessage.str1.4:0000000000000000 $d
     /tmp/ccbrCuLB.s:3923   .text.pb_dec_submessage:0000000000000000 $t
     /tmp/ccbrCuLB.s:3929   .text.pb_dec_submessage:0000000000000000 pb_dec_submessage
     /tmp/ccbrCuLB.s:4041   .text.pb_dec_submessage:0000000000000064 $d
     /tmp/ccbrCuLB.s:4046   .text.pb_decode_delimited_noinit:0000000000000000 $t
     /tmp/ccbrCuLB.s:4053   .text.pb_decode_delimited_noinit:0000000000000000 pb_decode_delimited_noinit
     /tmp/ccbrCuLB.s:4123   .text.pb_decode_delimited:0000000000000000 $t
     /tmp/ccbrCuLB.s:4130   .text.pb_decode_delimited:0000000000000000 pb_decode_delimited
     /tmp/ccbrCuLB.s:4200   .text.pb_decode_nullterminated:0000000000000000 $t
     /tmp/ccbrCuLB.s:4207   .text.pb_decode_nullterminated:0000000000000000 pb_decode_nullterminated
     /tmp/ccbrCuLB.s:4230   .text.pb_decode_svarint:0000000000000000 $t
     /tmp/ccbrCuLB.s:4237   .text.pb_decode_svarint:0000000000000000 pb_decode_svarint
     /tmp/ccbrCuLB.s:4310   .text.pb_dec_svarint:0000000000000000 $t
     /tmp/ccbrCuLB.s:4316   .text.pb_dec_svarint:0000000000000000 pb_dec_svarint
     /tmp/ccbrCuLB.s:4460   .text.pb_dec_svarint:000000000000008c $d
     /tmp/ccbrCuLB.s:4466   .text.pb_decode_fixed32:0000000000000000 $t
     /tmp/ccbrCuLB.s:4473   .text.pb_decode_fixed32:0000000000000000 pb_decode_fixed32
     /tmp/ccbrCuLB.s:4531   .text.pb_dec_fixed32:0000000000000000 $t
     /tmp/ccbrCuLB.s:4537   .text.pb_dec_fixed32:0000000000000000 pb_dec_fixed32
ARM GAS  /tmp/ccbrCuLB.s 			page 132


     /tmp/ccbrCuLB.s:4564   .text.pb_decode_fixed64:0000000000000000 $t
     /tmp/ccbrCuLB.s:4571   .text.pb_decode_fixed64:0000000000000000 pb_decode_fixed64
     /tmp/ccbrCuLB.s:4646   .text.pb_dec_fixed64:0000000000000000 $t
     /tmp/ccbrCuLB.s:4652   .text.pb_dec_fixed64:0000000000000000 pb_dec_fixed64
     /tmp/ccbrCuLB.s:4679   .rodata.PB_DECODERS:0000000000000000 $d
     /tmp/ccbrCuLB.s:4683   .rodata.PB_DECODERS:0000000000000000 PB_DECODERS

UNDEFINED SYMBOLS
pb_field_iter_begin
pb_field_iter_next
memcpy
memset
pb_field_iter_find
