ARM GAS  /tmp/ccQmN1qL.s 			page 1


   1              		.cpu cortex-m4
   2              		.eabi_attribute 27, 1
   3              		.eabi_attribute 28, 1
   4              		.eabi_attribute 20, 1
   5              		.eabi_attribute 21, 1
   6              		.eabi_attribute 23, 3
   7              		.eabi_attribute 24, 1
   8              		.eabi_attribute 25, 1
   9              		.eabi_attribute 26, 1
  10              		.eabi_attribute 30, 1
  11              		.eabi_attribute 34, 1
  12              		.eabi_attribute 18, 4
  13              		.file	"stm32l4xx_hal_flash_ex.c"
  14              		.text
  15              	.Ltext0:
  16              		.cfi_sections	.debug_frame
  17              		.section	.text.FLASH_MassErase,"ax",%progbits
  18              		.align	1
  19              		.arch armv7e-m
  20              		.syntax unified
  21              		.thumb
  22              		.thumb_func
  23              		.fpu fpv4-sp-d16
  25              	FLASH_MassErase:
  26              	.LVL0:
  27              	.LFB139:
  28              		.file 1 "Drivers/STM32L4xx_HAL_Driver/Src/stm32l4xx_hal_flash_ex.c"
   1:Drivers/STM32L4xx_HAL_Driver/Src/stm32l4xx_hal_flash_ex.c **** /**
   2:Drivers/STM32L4xx_HAL_Driver/Src/stm32l4xx_hal_flash_ex.c ****   ******************************************************************************
   3:Drivers/STM32L4xx_HAL_Driver/Src/stm32l4xx_hal_flash_ex.c ****   * @file    stm32l4xx_hal_flash_ex.c
   4:Drivers/STM32L4xx_HAL_Driver/Src/stm32l4xx_hal_flash_ex.c ****   * @author  MCD Application Team
   5:Drivers/STM32L4xx_HAL_Driver/Src/stm32l4xx_hal_flash_ex.c ****   * @brief   Extended FLASH HAL module driver.
   6:Drivers/STM32L4xx_HAL_Driver/Src/stm32l4xx_hal_flash_ex.c ****   *          This file provides firmware functions to manage the following
   7:Drivers/STM32L4xx_HAL_Driver/Src/stm32l4xx_hal_flash_ex.c ****   *          functionalities of the FLASH extended peripheral:
   8:Drivers/STM32L4xx_HAL_Driver/Src/stm32l4xx_hal_flash_ex.c ****   *           + Extended programming operations functions
   9:Drivers/STM32L4xx_HAL_Driver/Src/stm32l4xx_hal_flash_ex.c ****   *
  10:Drivers/STM32L4xx_HAL_Driver/Src/stm32l4xx_hal_flash_ex.c ****  @verbatim
  11:Drivers/STM32L4xx_HAL_Driver/Src/stm32l4xx_hal_flash_ex.c ****  ==============================================================================
  12:Drivers/STM32L4xx_HAL_Driver/Src/stm32l4xx_hal_flash_ex.c ****                    ##### Flash Extended features #####
  13:Drivers/STM32L4xx_HAL_Driver/Src/stm32l4xx_hal_flash_ex.c ****   ==============================================================================
  14:Drivers/STM32L4xx_HAL_Driver/Src/stm32l4xx_hal_flash_ex.c **** 
  15:Drivers/STM32L4xx_HAL_Driver/Src/stm32l4xx_hal_flash_ex.c ****   [..] Comparing to other previous devices, the FLASH interface for STM32L4xx
  16:Drivers/STM32L4xx_HAL_Driver/Src/stm32l4xx_hal_flash_ex.c ****        devices contains the following additional features
  17:Drivers/STM32L4xx_HAL_Driver/Src/stm32l4xx_hal_flash_ex.c **** 
  18:Drivers/STM32L4xx_HAL_Driver/Src/stm32l4xx_hal_flash_ex.c ****        (+) Capacity up to 2 Mbyte with dual bank architecture supporting read-while-write
  19:Drivers/STM32L4xx_HAL_Driver/Src/stm32l4xx_hal_flash_ex.c ****            capability (RWW)
  20:Drivers/STM32L4xx_HAL_Driver/Src/stm32l4xx_hal_flash_ex.c ****        (+) Dual bank memory organization
  21:Drivers/STM32L4xx_HAL_Driver/Src/stm32l4xx_hal_flash_ex.c ****        (+) PCROP protection for all banks
  22:Drivers/STM32L4xx_HAL_Driver/Src/stm32l4xx_hal_flash_ex.c **** 
  23:Drivers/STM32L4xx_HAL_Driver/Src/stm32l4xx_hal_flash_ex.c ****                         ##### How to use this driver #####
  24:Drivers/STM32L4xx_HAL_Driver/Src/stm32l4xx_hal_flash_ex.c ****  ==============================================================================
  25:Drivers/STM32L4xx_HAL_Driver/Src/stm32l4xx_hal_flash_ex.c ****   [..] This driver provides functions to configure and program the FLASH memory
  26:Drivers/STM32L4xx_HAL_Driver/Src/stm32l4xx_hal_flash_ex.c ****        of all STM32L4xx devices. It includes
  27:Drivers/STM32L4xx_HAL_Driver/Src/stm32l4xx_hal_flash_ex.c ****       (#) Flash Memory Erase functions:
  28:Drivers/STM32L4xx_HAL_Driver/Src/stm32l4xx_hal_flash_ex.c ****            (++) Lock and Unlock the FLASH interface using HAL_FLASH_Unlock() and
  29:Drivers/STM32L4xx_HAL_Driver/Src/stm32l4xx_hal_flash_ex.c ****                 HAL_FLASH_Lock() functions
  30:Drivers/STM32L4xx_HAL_Driver/Src/stm32l4xx_hal_flash_ex.c ****            (++) Erase function: Erase page, erase all sectors
ARM GAS  /tmp/ccQmN1qL.s 			page 2


  31:Drivers/STM32L4xx_HAL_Driver/Src/stm32l4xx_hal_flash_ex.c ****            (++) There are two modes of erase :
  32:Drivers/STM32L4xx_HAL_Driver/Src/stm32l4xx_hal_flash_ex.c ****              (+++) Polling Mode using HAL_FLASHEx_Erase()
  33:Drivers/STM32L4xx_HAL_Driver/Src/stm32l4xx_hal_flash_ex.c ****              (+++) Interrupt Mode using HAL_FLASHEx_Erase_IT()
  34:Drivers/STM32L4xx_HAL_Driver/Src/stm32l4xx_hal_flash_ex.c **** 
  35:Drivers/STM32L4xx_HAL_Driver/Src/stm32l4xx_hal_flash_ex.c ****       (#) Option Bytes Programming function: Use HAL_FLASHEx_OBProgram() to :
  36:Drivers/STM32L4xx_HAL_Driver/Src/stm32l4xx_hal_flash_ex.c ****         (++) Set/Reset the write protection
  37:Drivers/STM32L4xx_HAL_Driver/Src/stm32l4xx_hal_flash_ex.c ****         (++) Set the Read protection Level
  38:Drivers/STM32L4xx_HAL_Driver/Src/stm32l4xx_hal_flash_ex.c ****         (++) Program the user Option Bytes
  39:Drivers/STM32L4xx_HAL_Driver/Src/stm32l4xx_hal_flash_ex.c ****         (++) Configure the PCROP protection
  40:Drivers/STM32L4xx_HAL_Driver/Src/stm32l4xx_hal_flash_ex.c **** 
  41:Drivers/STM32L4xx_HAL_Driver/Src/stm32l4xx_hal_flash_ex.c ****       (#) Get Option Bytes Configuration function: Use HAL_FLASHEx_OBGetConfig() to :
  42:Drivers/STM32L4xx_HAL_Driver/Src/stm32l4xx_hal_flash_ex.c ****         (++) Get the value of a write protection area
  43:Drivers/STM32L4xx_HAL_Driver/Src/stm32l4xx_hal_flash_ex.c ****         (++) Know if the read protection is activated
  44:Drivers/STM32L4xx_HAL_Driver/Src/stm32l4xx_hal_flash_ex.c ****         (++) Get the value of the user Option Bytes
  45:Drivers/STM32L4xx_HAL_Driver/Src/stm32l4xx_hal_flash_ex.c ****         (++) Get the value of a PCROP area
  46:Drivers/STM32L4xx_HAL_Driver/Src/stm32l4xx_hal_flash_ex.c **** 
  47:Drivers/STM32L4xx_HAL_Driver/Src/stm32l4xx_hal_flash_ex.c ****  @endverbatim
  48:Drivers/STM32L4xx_HAL_Driver/Src/stm32l4xx_hal_flash_ex.c ****   ******************************************************************************
  49:Drivers/STM32L4xx_HAL_Driver/Src/stm32l4xx_hal_flash_ex.c ****   * @attention
  50:Drivers/STM32L4xx_HAL_Driver/Src/stm32l4xx_hal_flash_ex.c ****   *
  51:Drivers/STM32L4xx_HAL_Driver/Src/stm32l4xx_hal_flash_ex.c ****   * Copyright (c) 2017 STMicroelectronics.
  52:Drivers/STM32L4xx_HAL_Driver/Src/stm32l4xx_hal_flash_ex.c ****   * All rights reserved.
  53:Drivers/STM32L4xx_HAL_Driver/Src/stm32l4xx_hal_flash_ex.c ****   *
  54:Drivers/STM32L4xx_HAL_Driver/Src/stm32l4xx_hal_flash_ex.c ****   * This software is licensed under terms that can be found in the LICENSE file in
  55:Drivers/STM32L4xx_HAL_Driver/Src/stm32l4xx_hal_flash_ex.c ****   * the root directory of this software component.
  56:Drivers/STM32L4xx_HAL_Driver/Src/stm32l4xx_hal_flash_ex.c ****   * If no LICENSE file comes with this software, it is provided AS-IS.
  57:Drivers/STM32L4xx_HAL_Driver/Src/stm32l4xx_hal_flash_ex.c ****   ******************************************************************************
  58:Drivers/STM32L4xx_HAL_Driver/Src/stm32l4xx_hal_flash_ex.c ****   */
  59:Drivers/STM32L4xx_HAL_Driver/Src/stm32l4xx_hal_flash_ex.c **** 
  60:Drivers/STM32L4xx_HAL_Driver/Src/stm32l4xx_hal_flash_ex.c **** /* Includes ------------------------------------------------------------------*/
  61:Drivers/STM32L4xx_HAL_Driver/Src/stm32l4xx_hal_flash_ex.c **** #include "stm32l4xx_hal.h"
  62:Drivers/STM32L4xx_HAL_Driver/Src/stm32l4xx_hal_flash_ex.c **** 
  63:Drivers/STM32L4xx_HAL_Driver/Src/stm32l4xx_hal_flash_ex.c **** /** @addtogroup STM32L4xx_HAL_Driver
  64:Drivers/STM32L4xx_HAL_Driver/Src/stm32l4xx_hal_flash_ex.c ****   * @{
  65:Drivers/STM32L4xx_HAL_Driver/Src/stm32l4xx_hal_flash_ex.c ****   */
  66:Drivers/STM32L4xx_HAL_Driver/Src/stm32l4xx_hal_flash_ex.c **** 
  67:Drivers/STM32L4xx_HAL_Driver/Src/stm32l4xx_hal_flash_ex.c **** /** @defgroup FLASHEx FLASHEx
  68:Drivers/STM32L4xx_HAL_Driver/Src/stm32l4xx_hal_flash_ex.c ****   * @brief FLASH Extended HAL module driver
  69:Drivers/STM32L4xx_HAL_Driver/Src/stm32l4xx_hal_flash_ex.c ****   * @{
  70:Drivers/STM32L4xx_HAL_Driver/Src/stm32l4xx_hal_flash_ex.c ****   */
  71:Drivers/STM32L4xx_HAL_Driver/Src/stm32l4xx_hal_flash_ex.c **** 
  72:Drivers/STM32L4xx_HAL_Driver/Src/stm32l4xx_hal_flash_ex.c **** #ifdef HAL_FLASH_MODULE_ENABLED
  73:Drivers/STM32L4xx_HAL_Driver/Src/stm32l4xx_hal_flash_ex.c **** 
  74:Drivers/STM32L4xx_HAL_Driver/Src/stm32l4xx_hal_flash_ex.c **** /* Private typedef -----------------------------------------------------------*/
  75:Drivers/STM32L4xx_HAL_Driver/Src/stm32l4xx_hal_flash_ex.c **** /* Private define ------------------------------------------------------------*/
  76:Drivers/STM32L4xx_HAL_Driver/Src/stm32l4xx_hal_flash_ex.c **** /* Private macro -------------------------------------------------------------*/
  77:Drivers/STM32L4xx_HAL_Driver/Src/stm32l4xx_hal_flash_ex.c **** /* Private variables ---------------------------------------------------------*/
  78:Drivers/STM32L4xx_HAL_Driver/Src/stm32l4xx_hal_flash_ex.c **** /* Private function prototypes -----------------------------------------------*/
  79:Drivers/STM32L4xx_HAL_Driver/Src/stm32l4xx_hal_flash_ex.c **** /** @defgroup FLASHEx_Private_Functions FLASHEx Private Functions
  80:Drivers/STM32L4xx_HAL_Driver/Src/stm32l4xx_hal_flash_ex.c ****  * @{
  81:Drivers/STM32L4xx_HAL_Driver/Src/stm32l4xx_hal_flash_ex.c ****  */
  82:Drivers/STM32L4xx_HAL_Driver/Src/stm32l4xx_hal_flash_ex.c **** static void              FLASH_MassErase(uint32_t Banks);
  83:Drivers/STM32L4xx_HAL_Driver/Src/stm32l4xx_hal_flash_ex.c **** static HAL_StatusTypeDef FLASH_OB_WRPConfig(uint32_t WRPArea, uint32_t WRPStartOffset, uint32_t WRD
  84:Drivers/STM32L4xx_HAL_Driver/Src/stm32l4xx_hal_flash_ex.c **** static HAL_StatusTypeDef FLASH_OB_RDPConfig(uint32_t RDPLevel);
  85:Drivers/STM32L4xx_HAL_Driver/Src/stm32l4xx_hal_flash_ex.c **** static HAL_StatusTypeDef FLASH_OB_UserConfig(uint32_t UserType, uint32_t UserConfig);
  86:Drivers/STM32L4xx_HAL_Driver/Src/stm32l4xx_hal_flash_ex.c **** static HAL_StatusTypeDef FLASH_OB_PCROPConfig(uint32_t PCROPConfig, uint32_t PCROPStartAddr, uint32
  87:Drivers/STM32L4xx_HAL_Driver/Src/stm32l4xx_hal_flash_ex.c **** static void              FLASH_OB_GetWRP(uint32_t WRPArea, uint32_t * WRPStartOffset, uint32_t * WR
ARM GAS  /tmp/ccQmN1qL.s 			page 3


  88:Drivers/STM32L4xx_HAL_Driver/Src/stm32l4xx_hal_flash_ex.c **** static uint32_t          FLASH_OB_GetRDP(void);
  89:Drivers/STM32L4xx_HAL_Driver/Src/stm32l4xx_hal_flash_ex.c **** static uint32_t          FLASH_OB_GetUser(void);
  90:Drivers/STM32L4xx_HAL_Driver/Src/stm32l4xx_hal_flash_ex.c **** static void              FLASH_OB_GetPCROP(uint32_t * PCROPConfig, uint32_t * PCROPStartAddr, uint3
  91:Drivers/STM32L4xx_HAL_Driver/Src/stm32l4xx_hal_flash_ex.c **** /**
  92:Drivers/STM32L4xx_HAL_Driver/Src/stm32l4xx_hal_flash_ex.c ****   * @}
  93:Drivers/STM32L4xx_HAL_Driver/Src/stm32l4xx_hal_flash_ex.c ****   */
  94:Drivers/STM32L4xx_HAL_Driver/Src/stm32l4xx_hal_flash_ex.c **** 
  95:Drivers/STM32L4xx_HAL_Driver/Src/stm32l4xx_hal_flash_ex.c **** /* Exported functions -------------------------------------------------------*/
  96:Drivers/STM32L4xx_HAL_Driver/Src/stm32l4xx_hal_flash_ex.c **** /** @defgroup FLASHEx_Exported_Functions FLASHEx Exported Functions
  97:Drivers/STM32L4xx_HAL_Driver/Src/stm32l4xx_hal_flash_ex.c ****   * @{
  98:Drivers/STM32L4xx_HAL_Driver/Src/stm32l4xx_hal_flash_ex.c ****   */
  99:Drivers/STM32L4xx_HAL_Driver/Src/stm32l4xx_hal_flash_ex.c **** 
 100:Drivers/STM32L4xx_HAL_Driver/Src/stm32l4xx_hal_flash_ex.c **** /** @defgroup FLASHEx_Exported_Functions_Group1 Extended IO operation functions
 101:Drivers/STM32L4xx_HAL_Driver/Src/stm32l4xx_hal_flash_ex.c ****  *  @brief   Extended IO operation functions
 102:Drivers/STM32L4xx_HAL_Driver/Src/stm32l4xx_hal_flash_ex.c ****  *
 103:Drivers/STM32L4xx_HAL_Driver/Src/stm32l4xx_hal_flash_ex.c **** @verbatim
 104:Drivers/STM32L4xx_HAL_Driver/Src/stm32l4xx_hal_flash_ex.c ****  ===============================================================================
 105:Drivers/STM32L4xx_HAL_Driver/Src/stm32l4xx_hal_flash_ex.c ****                 ##### Extended programming operation functions #####
 106:Drivers/STM32L4xx_HAL_Driver/Src/stm32l4xx_hal_flash_ex.c ****  ===============================================================================
 107:Drivers/STM32L4xx_HAL_Driver/Src/stm32l4xx_hal_flash_ex.c ****     [..]
 108:Drivers/STM32L4xx_HAL_Driver/Src/stm32l4xx_hal_flash_ex.c ****     This subsection provides a set of functions allowing to manage the Extended FLASH
 109:Drivers/STM32L4xx_HAL_Driver/Src/stm32l4xx_hal_flash_ex.c ****     programming operations Operations.
 110:Drivers/STM32L4xx_HAL_Driver/Src/stm32l4xx_hal_flash_ex.c **** 
 111:Drivers/STM32L4xx_HAL_Driver/Src/stm32l4xx_hal_flash_ex.c **** @endverbatim
 112:Drivers/STM32L4xx_HAL_Driver/Src/stm32l4xx_hal_flash_ex.c ****   * @{
 113:Drivers/STM32L4xx_HAL_Driver/Src/stm32l4xx_hal_flash_ex.c ****   */
 114:Drivers/STM32L4xx_HAL_Driver/Src/stm32l4xx_hal_flash_ex.c **** /**
 115:Drivers/STM32L4xx_HAL_Driver/Src/stm32l4xx_hal_flash_ex.c ****   * @brief  Perform a mass erase or erase the specified FLASH memory pages.
 116:Drivers/STM32L4xx_HAL_Driver/Src/stm32l4xx_hal_flash_ex.c ****   * @param[in]  pEraseInit: pointer to an FLASH_EraseInitTypeDef structure that
 117:Drivers/STM32L4xx_HAL_Driver/Src/stm32l4xx_hal_flash_ex.c ****   *         contains the configuration information for the erasing.
 118:Drivers/STM32L4xx_HAL_Driver/Src/stm32l4xx_hal_flash_ex.c ****   *
 119:Drivers/STM32L4xx_HAL_Driver/Src/stm32l4xx_hal_flash_ex.c ****   * @param[out]  PageError  : pointer to variable that contains the configuration
 120:Drivers/STM32L4xx_HAL_Driver/Src/stm32l4xx_hal_flash_ex.c ****   *         information on faulty page in case of error (0xFFFFFFFF means that all
 121:Drivers/STM32L4xx_HAL_Driver/Src/stm32l4xx_hal_flash_ex.c ****   *         the pages have been correctly erased)
 122:Drivers/STM32L4xx_HAL_Driver/Src/stm32l4xx_hal_flash_ex.c ****   *
 123:Drivers/STM32L4xx_HAL_Driver/Src/stm32l4xx_hal_flash_ex.c ****   * @retval HAL Status
 124:Drivers/STM32L4xx_HAL_Driver/Src/stm32l4xx_hal_flash_ex.c ****   */
 125:Drivers/STM32L4xx_HAL_Driver/Src/stm32l4xx_hal_flash_ex.c **** HAL_StatusTypeDef HAL_FLASHEx_Erase(FLASH_EraseInitTypeDef *pEraseInit, uint32_t *PageError)
 126:Drivers/STM32L4xx_HAL_Driver/Src/stm32l4xx_hal_flash_ex.c **** {
 127:Drivers/STM32L4xx_HAL_Driver/Src/stm32l4xx_hal_flash_ex.c ****   HAL_StatusTypeDef status;
 128:Drivers/STM32L4xx_HAL_Driver/Src/stm32l4xx_hal_flash_ex.c ****   uint32_t page_index;
 129:Drivers/STM32L4xx_HAL_Driver/Src/stm32l4xx_hal_flash_ex.c **** 
 130:Drivers/STM32L4xx_HAL_Driver/Src/stm32l4xx_hal_flash_ex.c ****   /* Process Locked */
 131:Drivers/STM32L4xx_HAL_Driver/Src/stm32l4xx_hal_flash_ex.c ****   __HAL_LOCK(&pFlash);
 132:Drivers/STM32L4xx_HAL_Driver/Src/stm32l4xx_hal_flash_ex.c **** 
 133:Drivers/STM32L4xx_HAL_Driver/Src/stm32l4xx_hal_flash_ex.c ****   /* Check the parameters */
 134:Drivers/STM32L4xx_HAL_Driver/Src/stm32l4xx_hal_flash_ex.c ****   assert_param(IS_FLASH_TYPEERASE(pEraseInit->TypeErase));
 135:Drivers/STM32L4xx_HAL_Driver/Src/stm32l4xx_hal_flash_ex.c **** 
 136:Drivers/STM32L4xx_HAL_Driver/Src/stm32l4xx_hal_flash_ex.c ****   /* Wait for last operation to be completed */
 137:Drivers/STM32L4xx_HAL_Driver/Src/stm32l4xx_hal_flash_ex.c ****   status = FLASH_WaitForLastOperation((uint32_t)FLASH_TIMEOUT_VALUE);
 138:Drivers/STM32L4xx_HAL_Driver/Src/stm32l4xx_hal_flash_ex.c **** 
 139:Drivers/STM32L4xx_HAL_Driver/Src/stm32l4xx_hal_flash_ex.c ****   if (status == HAL_OK)
 140:Drivers/STM32L4xx_HAL_Driver/Src/stm32l4xx_hal_flash_ex.c ****   {
 141:Drivers/STM32L4xx_HAL_Driver/Src/stm32l4xx_hal_flash_ex.c ****     pFlash.ErrorCode = HAL_FLASH_ERROR_NONE;
 142:Drivers/STM32L4xx_HAL_Driver/Src/stm32l4xx_hal_flash_ex.c **** 
 143:Drivers/STM32L4xx_HAL_Driver/Src/stm32l4xx_hal_flash_ex.c ****     /* Deactivate the cache if they are activated to avoid data misbehavior */
 144:Drivers/STM32L4xx_HAL_Driver/Src/stm32l4xx_hal_flash_ex.c ****     if(READ_BIT(FLASH->ACR, FLASH_ACR_ICEN) != 0U)
ARM GAS  /tmp/ccQmN1qL.s 			page 4


 145:Drivers/STM32L4xx_HAL_Driver/Src/stm32l4xx_hal_flash_ex.c ****     {
 146:Drivers/STM32L4xx_HAL_Driver/Src/stm32l4xx_hal_flash_ex.c ****       if(READ_BIT(FLASH->ACR, FLASH_ACR_DCEN) != 0U)
 147:Drivers/STM32L4xx_HAL_Driver/Src/stm32l4xx_hal_flash_ex.c ****       {
 148:Drivers/STM32L4xx_HAL_Driver/Src/stm32l4xx_hal_flash_ex.c ****         /* Disable data cache  */
 149:Drivers/STM32L4xx_HAL_Driver/Src/stm32l4xx_hal_flash_ex.c ****         __HAL_FLASH_DATA_CACHE_DISABLE();
 150:Drivers/STM32L4xx_HAL_Driver/Src/stm32l4xx_hal_flash_ex.c ****         pFlash.CacheToReactivate = FLASH_CACHE_ICACHE_DCACHE_ENABLED;
 151:Drivers/STM32L4xx_HAL_Driver/Src/stm32l4xx_hal_flash_ex.c ****       }
 152:Drivers/STM32L4xx_HAL_Driver/Src/stm32l4xx_hal_flash_ex.c ****       else
 153:Drivers/STM32L4xx_HAL_Driver/Src/stm32l4xx_hal_flash_ex.c ****       {
 154:Drivers/STM32L4xx_HAL_Driver/Src/stm32l4xx_hal_flash_ex.c ****         pFlash.CacheToReactivate = FLASH_CACHE_ICACHE_ENABLED;
 155:Drivers/STM32L4xx_HAL_Driver/Src/stm32l4xx_hal_flash_ex.c ****       }
 156:Drivers/STM32L4xx_HAL_Driver/Src/stm32l4xx_hal_flash_ex.c ****     }
 157:Drivers/STM32L4xx_HAL_Driver/Src/stm32l4xx_hal_flash_ex.c ****     else if(READ_BIT(FLASH->ACR, FLASH_ACR_DCEN) != 0U)
 158:Drivers/STM32L4xx_HAL_Driver/Src/stm32l4xx_hal_flash_ex.c ****     {
 159:Drivers/STM32L4xx_HAL_Driver/Src/stm32l4xx_hal_flash_ex.c ****       /* Disable data cache  */
 160:Drivers/STM32L4xx_HAL_Driver/Src/stm32l4xx_hal_flash_ex.c ****       __HAL_FLASH_DATA_CACHE_DISABLE();
 161:Drivers/STM32L4xx_HAL_Driver/Src/stm32l4xx_hal_flash_ex.c ****       pFlash.CacheToReactivate = FLASH_CACHE_DCACHE_ENABLED;
 162:Drivers/STM32L4xx_HAL_Driver/Src/stm32l4xx_hal_flash_ex.c ****     }
 163:Drivers/STM32L4xx_HAL_Driver/Src/stm32l4xx_hal_flash_ex.c ****     else
 164:Drivers/STM32L4xx_HAL_Driver/Src/stm32l4xx_hal_flash_ex.c ****     {
 165:Drivers/STM32L4xx_HAL_Driver/Src/stm32l4xx_hal_flash_ex.c ****       pFlash.CacheToReactivate = FLASH_CACHE_DISABLED;
 166:Drivers/STM32L4xx_HAL_Driver/Src/stm32l4xx_hal_flash_ex.c ****     }
 167:Drivers/STM32L4xx_HAL_Driver/Src/stm32l4xx_hal_flash_ex.c **** 
 168:Drivers/STM32L4xx_HAL_Driver/Src/stm32l4xx_hal_flash_ex.c ****     if (pEraseInit->TypeErase == FLASH_TYPEERASE_MASSERASE)
 169:Drivers/STM32L4xx_HAL_Driver/Src/stm32l4xx_hal_flash_ex.c ****     {
 170:Drivers/STM32L4xx_HAL_Driver/Src/stm32l4xx_hal_flash_ex.c ****       /* Mass erase to be done */
 171:Drivers/STM32L4xx_HAL_Driver/Src/stm32l4xx_hal_flash_ex.c ****       FLASH_MassErase(pEraseInit->Banks);
 172:Drivers/STM32L4xx_HAL_Driver/Src/stm32l4xx_hal_flash_ex.c **** 
 173:Drivers/STM32L4xx_HAL_Driver/Src/stm32l4xx_hal_flash_ex.c ****       /* Wait for last operation to be completed */
 174:Drivers/STM32L4xx_HAL_Driver/Src/stm32l4xx_hal_flash_ex.c ****       status = FLASH_WaitForLastOperation((uint32_t)FLASH_TIMEOUT_VALUE);
 175:Drivers/STM32L4xx_HAL_Driver/Src/stm32l4xx_hal_flash_ex.c **** 
 176:Drivers/STM32L4xx_HAL_Driver/Src/stm32l4xx_hal_flash_ex.c **** #if defined (STM32L471xx) || defined (STM32L475xx) || defined (STM32L476xx) || defined (STM32L485xx
 177:Drivers/STM32L4xx_HAL_Driver/Src/stm32l4xx_hal_flash_ex.c ****     defined (STM32L496xx) || defined (STM32L4A6xx) || \
 178:Drivers/STM32L4xx_HAL_Driver/Src/stm32l4xx_hal_flash_ex.c ****     defined (STM32L4P5xx) || defined (STM32L4Q5xx) || \
 179:Drivers/STM32L4xx_HAL_Driver/Src/stm32l4xx_hal_flash_ex.c ****     defined (STM32L4R5xx) || defined (STM32L4R7xx) || defined (STM32L4R9xx) || defined (STM32L4S5xx
 180:Drivers/STM32L4xx_HAL_Driver/Src/stm32l4xx_hal_flash_ex.c ****       /* If the erase operation is completed, disable the MER1 and MER2 Bits */
 181:Drivers/STM32L4xx_HAL_Driver/Src/stm32l4xx_hal_flash_ex.c ****       CLEAR_BIT(FLASH->CR, (FLASH_CR_MER1 | FLASH_CR_MER2));
 182:Drivers/STM32L4xx_HAL_Driver/Src/stm32l4xx_hal_flash_ex.c **** #else
 183:Drivers/STM32L4xx_HAL_Driver/Src/stm32l4xx_hal_flash_ex.c ****       /* If the erase operation is completed, disable the MER1 Bit */
 184:Drivers/STM32L4xx_HAL_Driver/Src/stm32l4xx_hal_flash_ex.c ****       CLEAR_BIT(FLASH->CR, (FLASH_CR_MER1));
 185:Drivers/STM32L4xx_HAL_Driver/Src/stm32l4xx_hal_flash_ex.c **** #endif
 186:Drivers/STM32L4xx_HAL_Driver/Src/stm32l4xx_hal_flash_ex.c ****     }
 187:Drivers/STM32L4xx_HAL_Driver/Src/stm32l4xx_hal_flash_ex.c ****     else
 188:Drivers/STM32L4xx_HAL_Driver/Src/stm32l4xx_hal_flash_ex.c ****     {
 189:Drivers/STM32L4xx_HAL_Driver/Src/stm32l4xx_hal_flash_ex.c ****       /*Initialization of PageError variable*/
 190:Drivers/STM32L4xx_HAL_Driver/Src/stm32l4xx_hal_flash_ex.c ****       *PageError = 0xFFFFFFFFU;
 191:Drivers/STM32L4xx_HAL_Driver/Src/stm32l4xx_hal_flash_ex.c **** 
 192:Drivers/STM32L4xx_HAL_Driver/Src/stm32l4xx_hal_flash_ex.c ****       for(page_index = pEraseInit->Page; page_index < (pEraseInit->Page + pEraseInit->NbPages); pag
 193:Drivers/STM32L4xx_HAL_Driver/Src/stm32l4xx_hal_flash_ex.c ****       {
 194:Drivers/STM32L4xx_HAL_Driver/Src/stm32l4xx_hal_flash_ex.c ****         FLASH_PageErase(page_index, pEraseInit->Banks);
 195:Drivers/STM32L4xx_HAL_Driver/Src/stm32l4xx_hal_flash_ex.c **** 
 196:Drivers/STM32L4xx_HAL_Driver/Src/stm32l4xx_hal_flash_ex.c ****         /* Wait for last operation to be completed */
 197:Drivers/STM32L4xx_HAL_Driver/Src/stm32l4xx_hal_flash_ex.c ****         status = FLASH_WaitForLastOperation((uint32_t)FLASH_TIMEOUT_VALUE);
 198:Drivers/STM32L4xx_HAL_Driver/Src/stm32l4xx_hal_flash_ex.c **** 
 199:Drivers/STM32L4xx_HAL_Driver/Src/stm32l4xx_hal_flash_ex.c ****         /* If the erase operation is completed, disable the PER Bit */
 200:Drivers/STM32L4xx_HAL_Driver/Src/stm32l4xx_hal_flash_ex.c ****         CLEAR_BIT(FLASH->CR, (FLASH_CR_PER | FLASH_CR_PNB));
 201:Drivers/STM32L4xx_HAL_Driver/Src/stm32l4xx_hal_flash_ex.c **** 
ARM GAS  /tmp/ccQmN1qL.s 			page 5


 202:Drivers/STM32L4xx_HAL_Driver/Src/stm32l4xx_hal_flash_ex.c ****         if (status != HAL_OK)
 203:Drivers/STM32L4xx_HAL_Driver/Src/stm32l4xx_hal_flash_ex.c ****         {
 204:Drivers/STM32L4xx_HAL_Driver/Src/stm32l4xx_hal_flash_ex.c ****           /* In case of error, stop erase procedure and return the faulty address */
 205:Drivers/STM32L4xx_HAL_Driver/Src/stm32l4xx_hal_flash_ex.c ****           *PageError = page_index;
 206:Drivers/STM32L4xx_HAL_Driver/Src/stm32l4xx_hal_flash_ex.c ****           break;
 207:Drivers/STM32L4xx_HAL_Driver/Src/stm32l4xx_hal_flash_ex.c ****         }
 208:Drivers/STM32L4xx_HAL_Driver/Src/stm32l4xx_hal_flash_ex.c ****       }
 209:Drivers/STM32L4xx_HAL_Driver/Src/stm32l4xx_hal_flash_ex.c ****     }
 210:Drivers/STM32L4xx_HAL_Driver/Src/stm32l4xx_hal_flash_ex.c **** 
 211:Drivers/STM32L4xx_HAL_Driver/Src/stm32l4xx_hal_flash_ex.c ****     /* Flush the caches to be sure of the data consistency */
 212:Drivers/STM32L4xx_HAL_Driver/Src/stm32l4xx_hal_flash_ex.c ****     FLASH_FlushCaches();
 213:Drivers/STM32L4xx_HAL_Driver/Src/stm32l4xx_hal_flash_ex.c ****   }
 214:Drivers/STM32L4xx_HAL_Driver/Src/stm32l4xx_hal_flash_ex.c **** 
 215:Drivers/STM32L4xx_HAL_Driver/Src/stm32l4xx_hal_flash_ex.c ****   /* Process Unlocked */
 216:Drivers/STM32L4xx_HAL_Driver/Src/stm32l4xx_hal_flash_ex.c ****   __HAL_UNLOCK(&pFlash);
 217:Drivers/STM32L4xx_HAL_Driver/Src/stm32l4xx_hal_flash_ex.c **** 
 218:Drivers/STM32L4xx_HAL_Driver/Src/stm32l4xx_hal_flash_ex.c ****   return status;
 219:Drivers/STM32L4xx_HAL_Driver/Src/stm32l4xx_hal_flash_ex.c **** }
 220:Drivers/STM32L4xx_HAL_Driver/Src/stm32l4xx_hal_flash_ex.c **** 
 221:Drivers/STM32L4xx_HAL_Driver/Src/stm32l4xx_hal_flash_ex.c **** /**
 222:Drivers/STM32L4xx_HAL_Driver/Src/stm32l4xx_hal_flash_ex.c ****   * @brief  Perform a mass erase or erase the specified FLASH memory pages with interrupt enabled.
 223:Drivers/STM32L4xx_HAL_Driver/Src/stm32l4xx_hal_flash_ex.c ****   * @param  pEraseInit pointer to an FLASH_EraseInitTypeDef structure that
 224:Drivers/STM32L4xx_HAL_Driver/Src/stm32l4xx_hal_flash_ex.c ****   *         contains the configuration information for the erasing.
 225:Drivers/STM32L4xx_HAL_Driver/Src/stm32l4xx_hal_flash_ex.c ****   *
 226:Drivers/STM32L4xx_HAL_Driver/Src/stm32l4xx_hal_flash_ex.c ****   * @retval HAL Status
 227:Drivers/STM32L4xx_HAL_Driver/Src/stm32l4xx_hal_flash_ex.c ****   */
 228:Drivers/STM32L4xx_HAL_Driver/Src/stm32l4xx_hal_flash_ex.c **** HAL_StatusTypeDef HAL_FLASHEx_Erase_IT(FLASH_EraseInitTypeDef *pEraseInit)
 229:Drivers/STM32L4xx_HAL_Driver/Src/stm32l4xx_hal_flash_ex.c **** {
 230:Drivers/STM32L4xx_HAL_Driver/Src/stm32l4xx_hal_flash_ex.c ****   HAL_StatusTypeDef status = HAL_OK;
 231:Drivers/STM32L4xx_HAL_Driver/Src/stm32l4xx_hal_flash_ex.c **** 
 232:Drivers/STM32L4xx_HAL_Driver/Src/stm32l4xx_hal_flash_ex.c ****   /* Process Locked */
 233:Drivers/STM32L4xx_HAL_Driver/Src/stm32l4xx_hal_flash_ex.c ****   __HAL_LOCK(&pFlash);
 234:Drivers/STM32L4xx_HAL_Driver/Src/stm32l4xx_hal_flash_ex.c **** 
 235:Drivers/STM32L4xx_HAL_Driver/Src/stm32l4xx_hal_flash_ex.c ****   /* Check the parameters */
 236:Drivers/STM32L4xx_HAL_Driver/Src/stm32l4xx_hal_flash_ex.c ****   assert_param(IS_FLASH_TYPEERASE(pEraseInit->TypeErase));
 237:Drivers/STM32L4xx_HAL_Driver/Src/stm32l4xx_hal_flash_ex.c **** 
 238:Drivers/STM32L4xx_HAL_Driver/Src/stm32l4xx_hal_flash_ex.c ****   pFlash.ErrorCode = HAL_FLASH_ERROR_NONE;
 239:Drivers/STM32L4xx_HAL_Driver/Src/stm32l4xx_hal_flash_ex.c **** 
 240:Drivers/STM32L4xx_HAL_Driver/Src/stm32l4xx_hal_flash_ex.c ****   /* Deactivate the cache if they are activated to avoid data misbehavior */
 241:Drivers/STM32L4xx_HAL_Driver/Src/stm32l4xx_hal_flash_ex.c ****   if(READ_BIT(FLASH->ACR, FLASH_ACR_ICEN) != 0U)
 242:Drivers/STM32L4xx_HAL_Driver/Src/stm32l4xx_hal_flash_ex.c ****   {
 243:Drivers/STM32L4xx_HAL_Driver/Src/stm32l4xx_hal_flash_ex.c ****     if(READ_BIT(FLASH->ACR, FLASH_ACR_DCEN) != 0U)
 244:Drivers/STM32L4xx_HAL_Driver/Src/stm32l4xx_hal_flash_ex.c ****     {
 245:Drivers/STM32L4xx_HAL_Driver/Src/stm32l4xx_hal_flash_ex.c ****       /* Disable data cache  */
 246:Drivers/STM32L4xx_HAL_Driver/Src/stm32l4xx_hal_flash_ex.c ****       __HAL_FLASH_DATA_CACHE_DISABLE();
 247:Drivers/STM32L4xx_HAL_Driver/Src/stm32l4xx_hal_flash_ex.c ****       pFlash.CacheToReactivate = FLASH_CACHE_ICACHE_DCACHE_ENABLED;
 248:Drivers/STM32L4xx_HAL_Driver/Src/stm32l4xx_hal_flash_ex.c ****     }
 249:Drivers/STM32L4xx_HAL_Driver/Src/stm32l4xx_hal_flash_ex.c ****     else
 250:Drivers/STM32L4xx_HAL_Driver/Src/stm32l4xx_hal_flash_ex.c ****     {
 251:Drivers/STM32L4xx_HAL_Driver/Src/stm32l4xx_hal_flash_ex.c ****       pFlash.CacheToReactivate = FLASH_CACHE_ICACHE_ENABLED;
 252:Drivers/STM32L4xx_HAL_Driver/Src/stm32l4xx_hal_flash_ex.c ****     }
 253:Drivers/STM32L4xx_HAL_Driver/Src/stm32l4xx_hal_flash_ex.c ****   }
 254:Drivers/STM32L4xx_HAL_Driver/Src/stm32l4xx_hal_flash_ex.c ****   else if(READ_BIT(FLASH->ACR, FLASH_ACR_DCEN) != 0U)
 255:Drivers/STM32L4xx_HAL_Driver/Src/stm32l4xx_hal_flash_ex.c ****   {
 256:Drivers/STM32L4xx_HAL_Driver/Src/stm32l4xx_hal_flash_ex.c ****     /* Disable data cache  */
 257:Drivers/STM32L4xx_HAL_Driver/Src/stm32l4xx_hal_flash_ex.c ****     __HAL_FLASH_DATA_CACHE_DISABLE();
 258:Drivers/STM32L4xx_HAL_Driver/Src/stm32l4xx_hal_flash_ex.c ****     pFlash.CacheToReactivate = FLASH_CACHE_DCACHE_ENABLED;
ARM GAS  /tmp/ccQmN1qL.s 			page 6


 259:Drivers/STM32L4xx_HAL_Driver/Src/stm32l4xx_hal_flash_ex.c ****   }
 260:Drivers/STM32L4xx_HAL_Driver/Src/stm32l4xx_hal_flash_ex.c ****   else
 261:Drivers/STM32L4xx_HAL_Driver/Src/stm32l4xx_hal_flash_ex.c ****   {
 262:Drivers/STM32L4xx_HAL_Driver/Src/stm32l4xx_hal_flash_ex.c ****     pFlash.CacheToReactivate = FLASH_CACHE_DISABLED;
 263:Drivers/STM32L4xx_HAL_Driver/Src/stm32l4xx_hal_flash_ex.c ****   }
 264:Drivers/STM32L4xx_HAL_Driver/Src/stm32l4xx_hal_flash_ex.c **** 
 265:Drivers/STM32L4xx_HAL_Driver/Src/stm32l4xx_hal_flash_ex.c ****   /* Enable End of Operation and Error interrupts */
 266:Drivers/STM32L4xx_HAL_Driver/Src/stm32l4xx_hal_flash_ex.c ****   __HAL_FLASH_ENABLE_IT(FLASH_IT_EOP | FLASH_IT_OPERR);
 267:Drivers/STM32L4xx_HAL_Driver/Src/stm32l4xx_hal_flash_ex.c **** 
 268:Drivers/STM32L4xx_HAL_Driver/Src/stm32l4xx_hal_flash_ex.c ****   pFlash.Bank = pEraseInit->Banks;
 269:Drivers/STM32L4xx_HAL_Driver/Src/stm32l4xx_hal_flash_ex.c **** 
 270:Drivers/STM32L4xx_HAL_Driver/Src/stm32l4xx_hal_flash_ex.c ****   if (pEraseInit->TypeErase == FLASH_TYPEERASE_MASSERASE)
 271:Drivers/STM32L4xx_HAL_Driver/Src/stm32l4xx_hal_flash_ex.c ****   {
 272:Drivers/STM32L4xx_HAL_Driver/Src/stm32l4xx_hal_flash_ex.c ****     /* Mass erase to be done */
 273:Drivers/STM32L4xx_HAL_Driver/Src/stm32l4xx_hal_flash_ex.c ****     pFlash.ProcedureOnGoing = FLASH_PROC_MASS_ERASE;
 274:Drivers/STM32L4xx_HAL_Driver/Src/stm32l4xx_hal_flash_ex.c ****     FLASH_MassErase(pEraseInit->Banks);
 275:Drivers/STM32L4xx_HAL_Driver/Src/stm32l4xx_hal_flash_ex.c ****   }
 276:Drivers/STM32L4xx_HAL_Driver/Src/stm32l4xx_hal_flash_ex.c ****   else
 277:Drivers/STM32L4xx_HAL_Driver/Src/stm32l4xx_hal_flash_ex.c ****   {
 278:Drivers/STM32L4xx_HAL_Driver/Src/stm32l4xx_hal_flash_ex.c ****     /* Erase by page to be done */
 279:Drivers/STM32L4xx_HAL_Driver/Src/stm32l4xx_hal_flash_ex.c ****     pFlash.ProcedureOnGoing = FLASH_PROC_PAGE_ERASE;
 280:Drivers/STM32L4xx_HAL_Driver/Src/stm32l4xx_hal_flash_ex.c ****     pFlash.NbPagesToErase = pEraseInit->NbPages;
 281:Drivers/STM32L4xx_HAL_Driver/Src/stm32l4xx_hal_flash_ex.c ****     pFlash.Page = pEraseInit->Page;
 282:Drivers/STM32L4xx_HAL_Driver/Src/stm32l4xx_hal_flash_ex.c **** 
 283:Drivers/STM32L4xx_HAL_Driver/Src/stm32l4xx_hal_flash_ex.c ****     /*Erase 1st page and wait for IT */
 284:Drivers/STM32L4xx_HAL_Driver/Src/stm32l4xx_hal_flash_ex.c ****     FLASH_PageErase(pEraseInit->Page, pEraseInit->Banks);
 285:Drivers/STM32L4xx_HAL_Driver/Src/stm32l4xx_hal_flash_ex.c ****   }
 286:Drivers/STM32L4xx_HAL_Driver/Src/stm32l4xx_hal_flash_ex.c **** 
 287:Drivers/STM32L4xx_HAL_Driver/Src/stm32l4xx_hal_flash_ex.c ****   return status;
 288:Drivers/STM32L4xx_HAL_Driver/Src/stm32l4xx_hal_flash_ex.c **** }
 289:Drivers/STM32L4xx_HAL_Driver/Src/stm32l4xx_hal_flash_ex.c **** 
 290:Drivers/STM32L4xx_HAL_Driver/Src/stm32l4xx_hal_flash_ex.c **** /**
 291:Drivers/STM32L4xx_HAL_Driver/Src/stm32l4xx_hal_flash_ex.c ****   * @brief  Program Option bytes.
 292:Drivers/STM32L4xx_HAL_Driver/Src/stm32l4xx_hal_flash_ex.c ****   * @param  pOBInit pointer to an FLASH_OBInitStruct structure that
 293:Drivers/STM32L4xx_HAL_Driver/Src/stm32l4xx_hal_flash_ex.c ****   *         contains the configuration information for the programming.
 294:Drivers/STM32L4xx_HAL_Driver/Src/stm32l4xx_hal_flash_ex.c ****   *
 295:Drivers/STM32L4xx_HAL_Driver/Src/stm32l4xx_hal_flash_ex.c ****   * @retval HAL Status
 296:Drivers/STM32L4xx_HAL_Driver/Src/stm32l4xx_hal_flash_ex.c ****   */
 297:Drivers/STM32L4xx_HAL_Driver/Src/stm32l4xx_hal_flash_ex.c **** HAL_StatusTypeDef HAL_FLASHEx_OBProgram(FLASH_OBProgramInitTypeDef *pOBInit)
 298:Drivers/STM32L4xx_HAL_Driver/Src/stm32l4xx_hal_flash_ex.c **** {
 299:Drivers/STM32L4xx_HAL_Driver/Src/stm32l4xx_hal_flash_ex.c ****   HAL_StatusTypeDef status = HAL_OK;
 300:Drivers/STM32L4xx_HAL_Driver/Src/stm32l4xx_hal_flash_ex.c **** 
 301:Drivers/STM32L4xx_HAL_Driver/Src/stm32l4xx_hal_flash_ex.c ****   /* Process Locked */
 302:Drivers/STM32L4xx_HAL_Driver/Src/stm32l4xx_hal_flash_ex.c ****   __HAL_LOCK(&pFlash);
 303:Drivers/STM32L4xx_HAL_Driver/Src/stm32l4xx_hal_flash_ex.c **** 
 304:Drivers/STM32L4xx_HAL_Driver/Src/stm32l4xx_hal_flash_ex.c ****   /* Check the parameters */
 305:Drivers/STM32L4xx_HAL_Driver/Src/stm32l4xx_hal_flash_ex.c ****   assert_param(IS_OPTIONBYTE(pOBInit->OptionType));
 306:Drivers/STM32L4xx_HAL_Driver/Src/stm32l4xx_hal_flash_ex.c **** 
 307:Drivers/STM32L4xx_HAL_Driver/Src/stm32l4xx_hal_flash_ex.c ****   pFlash.ErrorCode = HAL_FLASH_ERROR_NONE;
 308:Drivers/STM32L4xx_HAL_Driver/Src/stm32l4xx_hal_flash_ex.c **** 
 309:Drivers/STM32L4xx_HAL_Driver/Src/stm32l4xx_hal_flash_ex.c ****   /* Write protection configuration */
 310:Drivers/STM32L4xx_HAL_Driver/Src/stm32l4xx_hal_flash_ex.c ****   if((pOBInit->OptionType & OPTIONBYTE_WRP) != 0U)
 311:Drivers/STM32L4xx_HAL_Driver/Src/stm32l4xx_hal_flash_ex.c ****   {
 312:Drivers/STM32L4xx_HAL_Driver/Src/stm32l4xx_hal_flash_ex.c ****     /* Configure of Write protection on the selected area */
 313:Drivers/STM32L4xx_HAL_Driver/Src/stm32l4xx_hal_flash_ex.c ****     if(FLASH_OB_WRPConfig(pOBInit->WRPArea, pOBInit->WRPStartOffset, pOBInit->WRPEndOffset) != HAL_
 314:Drivers/STM32L4xx_HAL_Driver/Src/stm32l4xx_hal_flash_ex.c ****     {
 315:Drivers/STM32L4xx_HAL_Driver/Src/stm32l4xx_hal_flash_ex.c ****       status = HAL_ERROR;
ARM GAS  /tmp/ccQmN1qL.s 			page 7


 316:Drivers/STM32L4xx_HAL_Driver/Src/stm32l4xx_hal_flash_ex.c ****     }
 317:Drivers/STM32L4xx_HAL_Driver/Src/stm32l4xx_hal_flash_ex.c **** 
 318:Drivers/STM32L4xx_HAL_Driver/Src/stm32l4xx_hal_flash_ex.c ****   }
 319:Drivers/STM32L4xx_HAL_Driver/Src/stm32l4xx_hal_flash_ex.c **** 
 320:Drivers/STM32L4xx_HAL_Driver/Src/stm32l4xx_hal_flash_ex.c ****   /* Read protection configuration */
 321:Drivers/STM32L4xx_HAL_Driver/Src/stm32l4xx_hal_flash_ex.c ****   if((pOBInit->OptionType & OPTIONBYTE_RDP) != 0U)
 322:Drivers/STM32L4xx_HAL_Driver/Src/stm32l4xx_hal_flash_ex.c ****   {
 323:Drivers/STM32L4xx_HAL_Driver/Src/stm32l4xx_hal_flash_ex.c ****     /* Configure the Read protection level */
 324:Drivers/STM32L4xx_HAL_Driver/Src/stm32l4xx_hal_flash_ex.c ****     if(FLASH_OB_RDPConfig(pOBInit->RDPLevel) != HAL_OK)
 325:Drivers/STM32L4xx_HAL_Driver/Src/stm32l4xx_hal_flash_ex.c ****     {
 326:Drivers/STM32L4xx_HAL_Driver/Src/stm32l4xx_hal_flash_ex.c ****       status = HAL_ERROR;
 327:Drivers/STM32L4xx_HAL_Driver/Src/stm32l4xx_hal_flash_ex.c ****     }
 328:Drivers/STM32L4xx_HAL_Driver/Src/stm32l4xx_hal_flash_ex.c ****   }
 329:Drivers/STM32L4xx_HAL_Driver/Src/stm32l4xx_hal_flash_ex.c **** 
 330:Drivers/STM32L4xx_HAL_Driver/Src/stm32l4xx_hal_flash_ex.c ****   /* User Configuration */
 331:Drivers/STM32L4xx_HAL_Driver/Src/stm32l4xx_hal_flash_ex.c ****   if((pOBInit->OptionType & OPTIONBYTE_USER) != 0U)
 332:Drivers/STM32L4xx_HAL_Driver/Src/stm32l4xx_hal_flash_ex.c ****   {
 333:Drivers/STM32L4xx_HAL_Driver/Src/stm32l4xx_hal_flash_ex.c ****     /* Configure the user option bytes */
 334:Drivers/STM32L4xx_HAL_Driver/Src/stm32l4xx_hal_flash_ex.c ****     if(FLASH_OB_UserConfig(pOBInit->USERType, pOBInit->USERConfig) != HAL_OK)
 335:Drivers/STM32L4xx_HAL_Driver/Src/stm32l4xx_hal_flash_ex.c ****     {
 336:Drivers/STM32L4xx_HAL_Driver/Src/stm32l4xx_hal_flash_ex.c ****       status = HAL_ERROR;
 337:Drivers/STM32L4xx_HAL_Driver/Src/stm32l4xx_hal_flash_ex.c ****     }
 338:Drivers/STM32L4xx_HAL_Driver/Src/stm32l4xx_hal_flash_ex.c ****   }
 339:Drivers/STM32L4xx_HAL_Driver/Src/stm32l4xx_hal_flash_ex.c **** 
 340:Drivers/STM32L4xx_HAL_Driver/Src/stm32l4xx_hal_flash_ex.c ****   /* PCROP Configuration */
 341:Drivers/STM32L4xx_HAL_Driver/Src/stm32l4xx_hal_flash_ex.c ****   if((pOBInit->OptionType & OPTIONBYTE_PCROP) != 0U)
 342:Drivers/STM32L4xx_HAL_Driver/Src/stm32l4xx_hal_flash_ex.c ****   {
 343:Drivers/STM32L4xx_HAL_Driver/Src/stm32l4xx_hal_flash_ex.c ****     if (pOBInit->PCROPStartAddr != pOBInit->PCROPEndAddr)
 344:Drivers/STM32L4xx_HAL_Driver/Src/stm32l4xx_hal_flash_ex.c ****     {
 345:Drivers/STM32L4xx_HAL_Driver/Src/stm32l4xx_hal_flash_ex.c ****       /* Configure the Proprietary code readout protection */
 346:Drivers/STM32L4xx_HAL_Driver/Src/stm32l4xx_hal_flash_ex.c ****       if(FLASH_OB_PCROPConfig(pOBInit->PCROPConfig, pOBInit->PCROPStartAddr, pOBInit->PCROPEndAddr)
 347:Drivers/STM32L4xx_HAL_Driver/Src/stm32l4xx_hal_flash_ex.c ****       {
 348:Drivers/STM32L4xx_HAL_Driver/Src/stm32l4xx_hal_flash_ex.c ****         status = HAL_ERROR;
 349:Drivers/STM32L4xx_HAL_Driver/Src/stm32l4xx_hal_flash_ex.c ****       }
 350:Drivers/STM32L4xx_HAL_Driver/Src/stm32l4xx_hal_flash_ex.c ****     }
 351:Drivers/STM32L4xx_HAL_Driver/Src/stm32l4xx_hal_flash_ex.c ****   }
 352:Drivers/STM32L4xx_HAL_Driver/Src/stm32l4xx_hal_flash_ex.c **** 
 353:Drivers/STM32L4xx_HAL_Driver/Src/stm32l4xx_hal_flash_ex.c ****   /* Process Unlocked */
 354:Drivers/STM32L4xx_HAL_Driver/Src/stm32l4xx_hal_flash_ex.c ****   __HAL_UNLOCK(&pFlash);
 355:Drivers/STM32L4xx_HAL_Driver/Src/stm32l4xx_hal_flash_ex.c **** 
 356:Drivers/STM32L4xx_HAL_Driver/Src/stm32l4xx_hal_flash_ex.c ****   return status;
 357:Drivers/STM32L4xx_HAL_Driver/Src/stm32l4xx_hal_flash_ex.c **** }
 358:Drivers/STM32L4xx_HAL_Driver/Src/stm32l4xx_hal_flash_ex.c **** 
 359:Drivers/STM32L4xx_HAL_Driver/Src/stm32l4xx_hal_flash_ex.c **** /**
 360:Drivers/STM32L4xx_HAL_Driver/Src/stm32l4xx_hal_flash_ex.c ****   * @brief  Get the Option bytes configuration.
 361:Drivers/STM32L4xx_HAL_Driver/Src/stm32l4xx_hal_flash_ex.c ****   * @param  pOBInit pointer to an FLASH_OBInitStruct structure that contains the
 362:Drivers/STM32L4xx_HAL_Driver/Src/stm32l4xx_hal_flash_ex.c ****   *                  configuration information.
 363:Drivers/STM32L4xx_HAL_Driver/Src/stm32l4xx_hal_flash_ex.c ****   * @note   The fields pOBInit->WRPArea and pOBInit->PCROPConfig should indicate
 364:Drivers/STM32L4xx_HAL_Driver/Src/stm32l4xx_hal_flash_ex.c ****   *         which area is requested for the WRP and PCROP, else no information will be returned
 365:Drivers/STM32L4xx_HAL_Driver/Src/stm32l4xx_hal_flash_ex.c ****   *
 366:Drivers/STM32L4xx_HAL_Driver/Src/stm32l4xx_hal_flash_ex.c ****   * @retval None
 367:Drivers/STM32L4xx_HAL_Driver/Src/stm32l4xx_hal_flash_ex.c ****   */
 368:Drivers/STM32L4xx_HAL_Driver/Src/stm32l4xx_hal_flash_ex.c **** void HAL_FLASHEx_OBGetConfig(FLASH_OBProgramInitTypeDef *pOBInit)
 369:Drivers/STM32L4xx_HAL_Driver/Src/stm32l4xx_hal_flash_ex.c **** {
 370:Drivers/STM32L4xx_HAL_Driver/Src/stm32l4xx_hal_flash_ex.c ****   pOBInit->OptionType = (OPTIONBYTE_RDP | OPTIONBYTE_USER);
 371:Drivers/STM32L4xx_HAL_Driver/Src/stm32l4xx_hal_flash_ex.c **** 
 372:Drivers/STM32L4xx_HAL_Driver/Src/stm32l4xx_hal_flash_ex.c **** #if defined (STM32L471xx) || defined (STM32L475xx) || defined (STM32L476xx) || defined (STM32L485xx
ARM GAS  /tmp/ccQmN1qL.s 			page 8


 373:Drivers/STM32L4xx_HAL_Driver/Src/stm32l4xx_hal_flash_ex.c ****     defined (STM32L496xx) || defined (STM32L4A6xx) || \
 374:Drivers/STM32L4xx_HAL_Driver/Src/stm32l4xx_hal_flash_ex.c ****     defined (STM32L4P5xx) || defined (STM32L4Q5xx) || \
 375:Drivers/STM32L4xx_HAL_Driver/Src/stm32l4xx_hal_flash_ex.c ****     defined (STM32L4R5xx) || defined (STM32L4R7xx) || defined (STM32L4R9xx) || defined (STM32L4S5xx
 376:Drivers/STM32L4xx_HAL_Driver/Src/stm32l4xx_hal_flash_ex.c ****   if((pOBInit->WRPArea == OB_WRPAREA_BANK1_AREAA) || (pOBInit->WRPArea == OB_WRPAREA_BANK1_AREAB) |
 377:Drivers/STM32L4xx_HAL_Driver/Src/stm32l4xx_hal_flash_ex.c ****      (pOBInit->WRPArea == OB_WRPAREA_BANK2_AREAA) || (pOBInit->WRPArea == OB_WRPAREA_BANK2_AREAB))
 378:Drivers/STM32L4xx_HAL_Driver/Src/stm32l4xx_hal_flash_ex.c **** #else
 379:Drivers/STM32L4xx_HAL_Driver/Src/stm32l4xx_hal_flash_ex.c ****   if((pOBInit->WRPArea == OB_WRPAREA_BANK1_AREAA) || (pOBInit->WRPArea == OB_WRPAREA_BANK1_AREAB))
 380:Drivers/STM32L4xx_HAL_Driver/Src/stm32l4xx_hal_flash_ex.c **** #endif
 381:Drivers/STM32L4xx_HAL_Driver/Src/stm32l4xx_hal_flash_ex.c ****   {
 382:Drivers/STM32L4xx_HAL_Driver/Src/stm32l4xx_hal_flash_ex.c ****     pOBInit->OptionType |= OPTIONBYTE_WRP;
 383:Drivers/STM32L4xx_HAL_Driver/Src/stm32l4xx_hal_flash_ex.c ****     /* Get write protection on the selected area */
 384:Drivers/STM32L4xx_HAL_Driver/Src/stm32l4xx_hal_flash_ex.c ****     FLASH_OB_GetWRP(pOBInit->WRPArea, &(pOBInit->WRPStartOffset), &(pOBInit->WRPEndOffset));
 385:Drivers/STM32L4xx_HAL_Driver/Src/stm32l4xx_hal_flash_ex.c ****   }
 386:Drivers/STM32L4xx_HAL_Driver/Src/stm32l4xx_hal_flash_ex.c **** 
 387:Drivers/STM32L4xx_HAL_Driver/Src/stm32l4xx_hal_flash_ex.c ****   /* Get Read protection level */
 388:Drivers/STM32L4xx_HAL_Driver/Src/stm32l4xx_hal_flash_ex.c ****   pOBInit->RDPLevel = FLASH_OB_GetRDP();
 389:Drivers/STM32L4xx_HAL_Driver/Src/stm32l4xx_hal_flash_ex.c **** 
 390:Drivers/STM32L4xx_HAL_Driver/Src/stm32l4xx_hal_flash_ex.c ****   /* Get the user option bytes */
 391:Drivers/STM32L4xx_HAL_Driver/Src/stm32l4xx_hal_flash_ex.c ****   pOBInit->USERConfig = FLASH_OB_GetUser();
 392:Drivers/STM32L4xx_HAL_Driver/Src/stm32l4xx_hal_flash_ex.c **** 
 393:Drivers/STM32L4xx_HAL_Driver/Src/stm32l4xx_hal_flash_ex.c **** #if defined (STM32L471xx) || defined (STM32L475xx) || defined (STM32L476xx) || defined (STM32L485xx
 394:Drivers/STM32L4xx_HAL_Driver/Src/stm32l4xx_hal_flash_ex.c ****     defined (STM32L496xx) || defined (STM32L4A6xx) || \
 395:Drivers/STM32L4xx_HAL_Driver/Src/stm32l4xx_hal_flash_ex.c ****     defined (STM32L4P5xx) || defined (STM32L4Q5xx) || \
 396:Drivers/STM32L4xx_HAL_Driver/Src/stm32l4xx_hal_flash_ex.c ****     defined (STM32L4R5xx) || defined (STM32L4R7xx) || defined (STM32L4R9xx) || defined (STM32L4S5xx
 397:Drivers/STM32L4xx_HAL_Driver/Src/stm32l4xx_hal_flash_ex.c ****   if((pOBInit->PCROPConfig == FLASH_BANK_1) || (pOBInit->PCROPConfig == FLASH_BANK_2))
 398:Drivers/STM32L4xx_HAL_Driver/Src/stm32l4xx_hal_flash_ex.c **** #else
 399:Drivers/STM32L4xx_HAL_Driver/Src/stm32l4xx_hal_flash_ex.c ****   if(pOBInit->PCROPConfig == FLASH_BANK_1)
 400:Drivers/STM32L4xx_HAL_Driver/Src/stm32l4xx_hal_flash_ex.c **** #endif
 401:Drivers/STM32L4xx_HAL_Driver/Src/stm32l4xx_hal_flash_ex.c ****   {
 402:Drivers/STM32L4xx_HAL_Driver/Src/stm32l4xx_hal_flash_ex.c ****     pOBInit->OptionType |= OPTIONBYTE_PCROP;
 403:Drivers/STM32L4xx_HAL_Driver/Src/stm32l4xx_hal_flash_ex.c ****     /* Get the Proprietary code readout protection */
 404:Drivers/STM32L4xx_HAL_Driver/Src/stm32l4xx_hal_flash_ex.c ****     FLASH_OB_GetPCROP(&(pOBInit->PCROPConfig), &(pOBInit->PCROPStartAddr), &(pOBInit->PCROPEndAddr)
 405:Drivers/STM32L4xx_HAL_Driver/Src/stm32l4xx_hal_flash_ex.c ****   }
 406:Drivers/STM32L4xx_HAL_Driver/Src/stm32l4xx_hal_flash_ex.c **** }
 407:Drivers/STM32L4xx_HAL_Driver/Src/stm32l4xx_hal_flash_ex.c **** 
 408:Drivers/STM32L4xx_HAL_Driver/Src/stm32l4xx_hal_flash_ex.c **** /**
 409:Drivers/STM32L4xx_HAL_Driver/Src/stm32l4xx_hal_flash_ex.c ****   * @}
 410:Drivers/STM32L4xx_HAL_Driver/Src/stm32l4xx_hal_flash_ex.c ****   */
 411:Drivers/STM32L4xx_HAL_Driver/Src/stm32l4xx_hal_flash_ex.c **** 
 412:Drivers/STM32L4xx_HAL_Driver/Src/stm32l4xx_hal_flash_ex.c **** #if defined (FLASH_CFGR_LVEN)
 413:Drivers/STM32L4xx_HAL_Driver/Src/stm32l4xx_hal_flash_ex.c **** /** @defgroup FLASHEx_Exported_Functions_Group2 Extended specific configuration functions
 414:Drivers/STM32L4xx_HAL_Driver/Src/stm32l4xx_hal_flash_ex.c ****  *  @brief   Extended specific configuration functions
 415:Drivers/STM32L4xx_HAL_Driver/Src/stm32l4xx_hal_flash_ex.c ****  *
 416:Drivers/STM32L4xx_HAL_Driver/Src/stm32l4xx_hal_flash_ex.c **** @verbatim
 417:Drivers/STM32L4xx_HAL_Driver/Src/stm32l4xx_hal_flash_ex.c ****  ===============================================================================
 418:Drivers/STM32L4xx_HAL_Driver/Src/stm32l4xx_hal_flash_ex.c ****                 ##### Extended specific configuration functions #####
 419:Drivers/STM32L4xx_HAL_Driver/Src/stm32l4xx_hal_flash_ex.c ****  ===============================================================================
 420:Drivers/STM32L4xx_HAL_Driver/Src/stm32l4xx_hal_flash_ex.c ****     [..]
 421:Drivers/STM32L4xx_HAL_Driver/Src/stm32l4xx_hal_flash_ex.c ****     This subsection provides a set of functions allowing to manage the Extended FLASH
 422:Drivers/STM32L4xx_HAL_Driver/Src/stm32l4xx_hal_flash_ex.c ****     specific configurations.
 423:Drivers/STM32L4xx_HAL_Driver/Src/stm32l4xx_hal_flash_ex.c **** 
 424:Drivers/STM32L4xx_HAL_Driver/Src/stm32l4xx_hal_flash_ex.c **** @endverbatim
 425:Drivers/STM32L4xx_HAL_Driver/Src/stm32l4xx_hal_flash_ex.c ****   * @{
 426:Drivers/STM32L4xx_HAL_Driver/Src/stm32l4xx_hal_flash_ex.c ****   */
 427:Drivers/STM32L4xx_HAL_Driver/Src/stm32l4xx_hal_flash_ex.c **** 
 428:Drivers/STM32L4xx_HAL_Driver/Src/stm32l4xx_hal_flash_ex.c **** /**
 429:Drivers/STM32L4xx_HAL_Driver/Src/stm32l4xx_hal_flash_ex.c ****   * @brief  Configuration of the LVE pin of the Flash (managed by power controller
ARM GAS  /tmp/ccQmN1qL.s 			page 9


 430:Drivers/STM32L4xx_HAL_Driver/Src/stm32l4xx_hal_flash_ex.c ****   *         or forced to low in order to use an external SMPS)
 431:Drivers/STM32L4xx_HAL_Driver/Src/stm32l4xx_hal_flash_ex.c ****   * @param  ConfigLVE Configuration of the LVE pin,
 432:Drivers/STM32L4xx_HAL_Driver/Src/stm32l4xx_hal_flash_ex.c ****   *              This parameter can be one of the following values:
 433:Drivers/STM32L4xx_HAL_Driver/Src/stm32l4xx_hal_flash_ex.c ****   *                @arg FLASH_LVE_PIN_CTRL: LVE FLASH pin controlled by power controller
 434:Drivers/STM32L4xx_HAL_Driver/Src/stm32l4xx_hal_flash_ex.c ****   *                @arg FLASH_LVE_PIN_FORCED: LVE FLASH pin enforced to low (external SMPS used)
 435:Drivers/STM32L4xx_HAL_Driver/Src/stm32l4xx_hal_flash_ex.c ****   *
 436:Drivers/STM32L4xx_HAL_Driver/Src/stm32l4xx_hal_flash_ex.c ****   * @note   Before enforcing the LVE pin to low, the SOC should be in low voltage
 437:Drivers/STM32L4xx_HAL_Driver/Src/stm32l4xx_hal_flash_ex.c ****   *         range 2 and the voltage VDD12 should be higher than 1.08V and SMPS is ON.
 438:Drivers/STM32L4xx_HAL_Driver/Src/stm32l4xx_hal_flash_ex.c ****   *
 439:Drivers/STM32L4xx_HAL_Driver/Src/stm32l4xx_hal_flash_ex.c ****   * @retval HAL Status
 440:Drivers/STM32L4xx_HAL_Driver/Src/stm32l4xx_hal_flash_ex.c ****   */
 441:Drivers/STM32L4xx_HAL_Driver/Src/stm32l4xx_hal_flash_ex.c **** HAL_StatusTypeDef HAL_FLASHEx_ConfigLVEPin(uint32_t ConfigLVE)
 442:Drivers/STM32L4xx_HAL_Driver/Src/stm32l4xx_hal_flash_ex.c **** {
 443:Drivers/STM32L4xx_HAL_Driver/Src/stm32l4xx_hal_flash_ex.c ****   HAL_StatusTypeDef status;
 444:Drivers/STM32L4xx_HAL_Driver/Src/stm32l4xx_hal_flash_ex.c **** 
 445:Drivers/STM32L4xx_HAL_Driver/Src/stm32l4xx_hal_flash_ex.c ****   /* Process Locked */
 446:Drivers/STM32L4xx_HAL_Driver/Src/stm32l4xx_hal_flash_ex.c ****   __HAL_LOCK(&pFlash);
 447:Drivers/STM32L4xx_HAL_Driver/Src/stm32l4xx_hal_flash_ex.c **** 
 448:Drivers/STM32L4xx_HAL_Driver/Src/stm32l4xx_hal_flash_ex.c ****   /* Check the parameters */
 449:Drivers/STM32L4xx_HAL_Driver/Src/stm32l4xx_hal_flash_ex.c ****   assert_param(IS_FLASH_LVE_PIN(ConfigLVE));
 450:Drivers/STM32L4xx_HAL_Driver/Src/stm32l4xx_hal_flash_ex.c **** 
 451:Drivers/STM32L4xx_HAL_Driver/Src/stm32l4xx_hal_flash_ex.c ****   /* Wait for last operation to be completed */
 452:Drivers/STM32L4xx_HAL_Driver/Src/stm32l4xx_hal_flash_ex.c ****   status = FLASH_WaitForLastOperation((uint32_t)FLASH_TIMEOUT_VALUE);
 453:Drivers/STM32L4xx_HAL_Driver/Src/stm32l4xx_hal_flash_ex.c **** 
 454:Drivers/STM32L4xx_HAL_Driver/Src/stm32l4xx_hal_flash_ex.c ****   if (status == HAL_OK)
 455:Drivers/STM32L4xx_HAL_Driver/Src/stm32l4xx_hal_flash_ex.c ****   {
 456:Drivers/STM32L4xx_HAL_Driver/Src/stm32l4xx_hal_flash_ex.c ****     /* Check that the voltage scaling is range 2 */
 457:Drivers/STM32L4xx_HAL_Driver/Src/stm32l4xx_hal_flash_ex.c ****     if (HAL_PWREx_GetVoltageRange() == PWR_REGULATOR_VOLTAGE_SCALE2)
 458:Drivers/STM32L4xx_HAL_Driver/Src/stm32l4xx_hal_flash_ex.c ****     {
 459:Drivers/STM32L4xx_HAL_Driver/Src/stm32l4xx_hal_flash_ex.c ****       /* Configure the LVEN bit */
 460:Drivers/STM32L4xx_HAL_Driver/Src/stm32l4xx_hal_flash_ex.c ****       MODIFY_REG(FLASH->CFGR, FLASH_CFGR_LVEN, ConfigLVE);
 461:Drivers/STM32L4xx_HAL_Driver/Src/stm32l4xx_hal_flash_ex.c **** 
 462:Drivers/STM32L4xx_HAL_Driver/Src/stm32l4xx_hal_flash_ex.c ****       /* Check that the bit has been correctly configured */
 463:Drivers/STM32L4xx_HAL_Driver/Src/stm32l4xx_hal_flash_ex.c ****       if (READ_BIT(FLASH->CFGR, FLASH_CFGR_LVEN) != ConfigLVE)
 464:Drivers/STM32L4xx_HAL_Driver/Src/stm32l4xx_hal_flash_ex.c ****       {
 465:Drivers/STM32L4xx_HAL_Driver/Src/stm32l4xx_hal_flash_ex.c ****         status = HAL_ERROR;
 466:Drivers/STM32L4xx_HAL_Driver/Src/stm32l4xx_hal_flash_ex.c ****       }
 467:Drivers/STM32L4xx_HAL_Driver/Src/stm32l4xx_hal_flash_ex.c ****     }
 468:Drivers/STM32L4xx_HAL_Driver/Src/stm32l4xx_hal_flash_ex.c ****     else
 469:Drivers/STM32L4xx_HAL_Driver/Src/stm32l4xx_hal_flash_ex.c ****     {
 470:Drivers/STM32L4xx_HAL_Driver/Src/stm32l4xx_hal_flash_ex.c ****       /* Not allow to force Flash LVE pin if not in voltage range 2 */
 471:Drivers/STM32L4xx_HAL_Driver/Src/stm32l4xx_hal_flash_ex.c ****       status = HAL_ERROR;
 472:Drivers/STM32L4xx_HAL_Driver/Src/stm32l4xx_hal_flash_ex.c ****     }
 473:Drivers/STM32L4xx_HAL_Driver/Src/stm32l4xx_hal_flash_ex.c ****   }
 474:Drivers/STM32L4xx_HAL_Driver/Src/stm32l4xx_hal_flash_ex.c **** 
 475:Drivers/STM32L4xx_HAL_Driver/Src/stm32l4xx_hal_flash_ex.c ****   /* Process Unlocked */
 476:Drivers/STM32L4xx_HAL_Driver/Src/stm32l4xx_hal_flash_ex.c ****   __HAL_UNLOCK(&pFlash);
 477:Drivers/STM32L4xx_HAL_Driver/Src/stm32l4xx_hal_flash_ex.c **** 
 478:Drivers/STM32L4xx_HAL_Driver/Src/stm32l4xx_hal_flash_ex.c ****   return status;
 479:Drivers/STM32L4xx_HAL_Driver/Src/stm32l4xx_hal_flash_ex.c **** }
 480:Drivers/STM32L4xx_HAL_Driver/Src/stm32l4xx_hal_flash_ex.c **** 
 481:Drivers/STM32L4xx_HAL_Driver/Src/stm32l4xx_hal_flash_ex.c **** /**
 482:Drivers/STM32L4xx_HAL_Driver/Src/stm32l4xx_hal_flash_ex.c ****   * @}
 483:Drivers/STM32L4xx_HAL_Driver/Src/stm32l4xx_hal_flash_ex.c ****   */
 484:Drivers/STM32L4xx_HAL_Driver/Src/stm32l4xx_hal_flash_ex.c **** #endif /* FLASH_CFGR_LVEN */
 485:Drivers/STM32L4xx_HAL_Driver/Src/stm32l4xx_hal_flash_ex.c **** 
 486:Drivers/STM32L4xx_HAL_Driver/Src/stm32l4xx_hal_flash_ex.c **** /**
ARM GAS  /tmp/ccQmN1qL.s 			page 10


 487:Drivers/STM32L4xx_HAL_Driver/Src/stm32l4xx_hal_flash_ex.c ****   * @}
 488:Drivers/STM32L4xx_HAL_Driver/Src/stm32l4xx_hal_flash_ex.c ****   */
 489:Drivers/STM32L4xx_HAL_Driver/Src/stm32l4xx_hal_flash_ex.c **** 
 490:Drivers/STM32L4xx_HAL_Driver/Src/stm32l4xx_hal_flash_ex.c **** /* Private functions ---------------------------------------------------------*/
 491:Drivers/STM32L4xx_HAL_Driver/Src/stm32l4xx_hal_flash_ex.c **** 
 492:Drivers/STM32L4xx_HAL_Driver/Src/stm32l4xx_hal_flash_ex.c **** /** @addtogroup FLASHEx_Private_Functions
 493:Drivers/STM32L4xx_HAL_Driver/Src/stm32l4xx_hal_flash_ex.c ****   * @{
 494:Drivers/STM32L4xx_HAL_Driver/Src/stm32l4xx_hal_flash_ex.c ****   */
 495:Drivers/STM32L4xx_HAL_Driver/Src/stm32l4xx_hal_flash_ex.c **** /**
 496:Drivers/STM32L4xx_HAL_Driver/Src/stm32l4xx_hal_flash_ex.c ****   * @brief  Mass erase of FLASH memory.
 497:Drivers/STM32L4xx_HAL_Driver/Src/stm32l4xx_hal_flash_ex.c ****   * @param  Banks Banks to be erased
 498:Drivers/STM32L4xx_HAL_Driver/Src/stm32l4xx_hal_flash_ex.c ****   *          This parameter can be one of the following values:
 499:Drivers/STM32L4xx_HAL_Driver/Src/stm32l4xx_hal_flash_ex.c ****   *            @arg FLASH_BANK_1: Bank1 to be erased
 500:Drivers/STM32L4xx_HAL_Driver/Src/stm32l4xx_hal_flash_ex.c ****   *            @arg FLASH_BANK_2: Bank2 to be erased
 501:Drivers/STM32L4xx_HAL_Driver/Src/stm32l4xx_hal_flash_ex.c ****   *            @arg FLASH_BANK_BOTH: Bank1 and Bank2 to be erased
 502:Drivers/STM32L4xx_HAL_Driver/Src/stm32l4xx_hal_flash_ex.c ****   * @retval None
 503:Drivers/STM32L4xx_HAL_Driver/Src/stm32l4xx_hal_flash_ex.c ****   */
 504:Drivers/STM32L4xx_HAL_Driver/Src/stm32l4xx_hal_flash_ex.c **** static void FLASH_MassErase(uint32_t Banks)
 505:Drivers/STM32L4xx_HAL_Driver/Src/stm32l4xx_hal_flash_ex.c **** {
  29              		.loc 1 505 1 view -0
  30              		.cfi_startproc
  31              		@ args = 0, pretend = 0, frame = 0
  32              		@ frame_needed = 0, uses_anonymous_args = 0
  33              		@ link register save eliminated.
 506:Drivers/STM32L4xx_HAL_Driver/Src/stm32l4xx_hal_flash_ex.c **** #if defined (STM32L4P5xx) || defined (STM32L4Q5xx) || defined (STM32L4R5xx) || defined (STM32L4R7xx
 507:Drivers/STM32L4xx_HAL_Driver/Src/stm32l4xx_hal_flash_ex.c ****   if (READ_BIT(FLASH->OPTR, FLASH_OPTR_DBANK) != 0U)
  34              		.loc 1 507 3 view .LVU1
  35              		.loc 1 507 7 is_stmt 0 view .LVU2
  36 0000 114B     		ldr	r3, .L5
  37 0002 1B6A     		ldr	r3, [r3, #32]
  38              		.loc 1 507 6 view .LVU3
  39 0004 13F4800F 		tst	r3, #4194304
  40 0008 10D0     		beq	.L2
 508:Drivers/STM32L4xx_HAL_Driver/Src/stm32l4xx_hal_flash_ex.c **** #endif
 509:Drivers/STM32L4xx_HAL_Driver/Src/stm32l4xx_hal_flash_ex.c ****   {
 510:Drivers/STM32L4xx_HAL_Driver/Src/stm32l4xx_hal_flash_ex.c ****     /* Check the parameters */
 511:Drivers/STM32L4xx_HAL_Driver/Src/stm32l4xx_hal_flash_ex.c ****     assert_param(IS_FLASH_BANK(Banks));
  41              		.loc 1 511 5 is_stmt 1 view .LVU4
 512:Drivers/STM32L4xx_HAL_Driver/Src/stm32l4xx_hal_flash_ex.c **** 
 513:Drivers/STM32L4xx_HAL_Driver/Src/stm32l4xx_hal_flash_ex.c ****     /* Set the Mass Erase Bit for the bank 1 if requested */
 514:Drivers/STM32L4xx_HAL_Driver/Src/stm32l4xx_hal_flash_ex.c ****     if((Banks & FLASH_BANK_1) != 0U)
  42              		.loc 1 514 5 view .LVU5
  43              		.loc 1 514 7 is_stmt 0 view .LVU6
  44 000a 10F0010F 		tst	r0, #1
  45 000e 04D0     		beq	.L3
 515:Drivers/STM32L4xx_HAL_Driver/Src/stm32l4xx_hal_flash_ex.c ****     {
 516:Drivers/STM32L4xx_HAL_Driver/Src/stm32l4xx_hal_flash_ex.c ****       SET_BIT(FLASH->CR, FLASH_CR_MER1);
  46              		.loc 1 516 7 is_stmt 1 view .LVU7
  47 0010 0D4A     		ldr	r2, .L5
  48 0012 5369     		ldr	r3, [r2, #20]
  49 0014 43F00403 		orr	r3, r3, #4
  50 0018 5361     		str	r3, [r2, #20]
  51              	.L3:
 517:Drivers/STM32L4xx_HAL_Driver/Src/stm32l4xx_hal_flash_ex.c ****     }
 518:Drivers/STM32L4xx_HAL_Driver/Src/stm32l4xx_hal_flash_ex.c **** 
 519:Drivers/STM32L4xx_HAL_Driver/Src/stm32l4xx_hal_flash_ex.c **** #if defined (STM32L471xx) || defined (STM32L475xx) || defined (STM32L476xx) || defined (STM32L485xx
 520:Drivers/STM32L4xx_HAL_Driver/Src/stm32l4xx_hal_flash_ex.c ****     defined (STM32L496xx) || defined (STM32L4A6xx) || \
ARM GAS  /tmp/ccQmN1qL.s 			page 11


 521:Drivers/STM32L4xx_HAL_Driver/Src/stm32l4xx_hal_flash_ex.c ****     defined (STM32L4P5xx) || defined (STM32L4Q5xx) || \
 522:Drivers/STM32L4xx_HAL_Driver/Src/stm32l4xx_hal_flash_ex.c ****     defined (STM32L4R5xx) || defined (STM32L4R7xx) || defined (STM32L4R9xx) || defined (STM32L4S5xx
 523:Drivers/STM32L4xx_HAL_Driver/Src/stm32l4xx_hal_flash_ex.c ****     /* Set the Mass Erase Bit for the bank 2 if requested */
 524:Drivers/STM32L4xx_HAL_Driver/Src/stm32l4xx_hal_flash_ex.c ****     if((Banks & FLASH_BANK_2) != 0U)
  52              		.loc 1 524 5 view .LVU8
  53              		.loc 1 524 7 is_stmt 0 view .LVU9
  54 001a 10F0020F 		tst	r0, #2
  55 001e 0CD0     		beq	.L4
 525:Drivers/STM32L4xx_HAL_Driver/Src/stm32l4xx_hal_flash_ex.c ****     {
 526:Drivers/STM32L4xx_HAL_Driver/Src/stm32l4xx_hal_flash_ex.c ****       SET_BIT(FLASH->CR, FLASH_CR_MER2);
  56              		.loc 1 526 7 is_stmt 1 view .LVU10
  57 0020 094A     		ldr	r2, .L5
  58 0022 5369     		ldr	r3, [r2, #20]
  59 0024 43F40043 		orr	r3, r3, #32768
  60 0028 5361     		str	r3, [r2, #20]
  61 002a 06E0     		b	.L4
  62              	.L2:
 527:Drivers/STM32L4xx_HAL_Driver/Src/stm32l4xx_hal_flash_ex.c ****     }
 528:Drivers/STM32L4xx_HAL_Driver/Src/stm32l4xx_hal_flash_ex.c **** #endif
 529:Drivers/STM32L4xx_HAL_Driver/Src/stm32l4xx_hal_flash_ex.c ****   }
 530:Drivers/STM32L4xx_HAL_Driver/Src/stm32l4xx_hal_flash_ex.c **** #if defined (STM32L4P5xx) || defined (STM32L4Q5xx) || defined (STM32L4R5xx) || defined (STM32L4R7xx
 531:Drivers/STM32L4xx_HAL_Driver/Src/stm32l4xx_hal_flash_ex.c ****   else
 532:Drivers/STM32L4xx_HAL_Driver/Src/stm32l4xx_hal_flash_ex.c ****   {
 533:Drivers/STM32L4xx_HAL_Driver/Src/stm32l4xx_hal_flash_ex.c ****     SET_BIT(FLASH->CR, (FLASH_CR_MER1 | FLASH_CR_MER2));
  63              		.loc 1 533 5 view .LVU11
  64 002c 064A     		ldr	r2, .L5
  65 002e 5369     		ldr	r3, [r2, #20]
  66 0030 43F40043 		orr	r3, r3, #32768
  67 0034 43F00403 		orr	r3, r3, #4
  68 0038 5361     		str	r3, [r2, #20]
  69              	.L4:
 534:Drivers/STM32L4xx_HAL_Driver/Src/stm32l4xx_hal_flash_ex.c ****   }
 535:Drivers/STM32L4xx_HAL_Driver/Src/stm32l4xx_hal_flash_ex.c **** #endif
 536:Drivers/STM32L4xx_HAL_Driver/Src/stm32l4xx_hal_flash_ex.c **** 
 537:Drivers/STM32L4xx_HAL_Driver/Src/stm32l4xx_hal_flash_ex.c ****   /* Proceed to erase all sectors */
 538:Drivers/STM32L4xx_HAL_Driver/Src/stm32l4xx_hal_flash_ex.c ****   SET_BIT(FLASH->CR, FLASH_CR_STRT);
  70              		.loc 1 538 3 view .LVU12
  71 003a 034A     		ldr	r2, .L5
  72 003c 5369     		ldr	r3, [r2, #20]
  73 003e 43F48033 		orr	r3, r3, #65536
  74 0042 5361     		str	r3, [r2, #20]
 539:Drivers/STM32L4xx_HAL_Driver/Src/stm32l4xx_hal_flash_ex.c **** }
  75              		.loc 1 539 1 is_stmt 0 view .LVU13
  76 0044 7047     		bx	lr
  77              	.L6:
  78 0046 00BF     		.align	2
  79              	.L5:
  80 0048 00200240 		.word	1073881088
  81              		.cfi_endproc
  82              	.LFE139:
  84              		.section	.text.FLASH_OB_GetWRP,"ax",%progbits
  85              		.align	1
  86              		.syntax unified
  87              		.thumb
  88              		.thumb_func
  89              		.fpu fpv4-sp-d16
  91              	FLASH_OB_GetWRP:
ARM GAS  /tmp/ccQmN1qL.s 			page 12


  92              	.LVL1:
  93              	.LFB146:
 540:Drivers/STM32L4xx_HAL_Driver/Src/stm32l4xx_hal_flash_ex.c **** 
 541:Drivers/STM32L4xx_HAL_Driver/Src/stm32l4xx_hal_flash_ex.c **** /**
 542:Drivers/STM32L4xx_HAL_Driver/Src/stm32l4xx_hal_flash_ex.c ****   * @brief  Erase the specified FLASH memory page.
 543:Drivers/STM32L4xx_HAL_Driver/Src/stm32l4xx_hal_flash_ex.c ****   * @param  Page FLASH page to erase
 544:Drivers/STM32L4xx_HAL_Driver/Src/stm32l4xx_hal_flash_ex.c ****   *         This parameter must be a value between 0 and (max number of pages in the bank - 1)
 545:Drivers/STM32L4xx_HAL_Driver/Src/stm32l4xx_hal_flash_ex.c ****   * @param  Banks Bank(s) where the page will be erased
 546:Drivers/STM32L4xx_HAL_Driver/Src/stm32l4xx_hal_flash_ex.c ****   *          This parameter can be one of the following values:
 547:Drivers/STM32L4xx_HAL_Driver/Src/stm32l4xx_hal_flash_ex.c ****   *            @arg FLASH_BANK_1: Page in bank 1 to be erased
 548:Drivers/STM32L4xx_HAL_Driver/Src/stm32l4xx_hal_flash_ex.c ****   *            @arg FLASH_BANK_2: Page in bank 2 to be erased
 549:Drivers/STM32L4xx_HAL_Driver/Src/stm32l4xx_hal_flash_ex.c ****   * @retval None
 550:Drivers/STM32L4xx_HAL_Driver/Src/stm32l4xx_hal_flash_ex.c ****   */
 551:Drivers/STM32L4xx_HAL_Driver/Src/stm32l4xx_hal_flash_ex.c **** void FLASH_PageErase(uint32_t Page, uint32_t Banks)
 552:Drivers/STM32L4xx_HAL_Driver/Src/stm32l4xx_hal_flash_ex.c **** {
 553:Drivers/STM32L4xx_HAL_Driver/Src/stm32l4xx_hal_flash_ex.c ****   /* Check the parameters */
 554:Drivers/STM32L4xx_HAL_Driver/Src/stm32l4xx_hal_flash_ex.c ****   assert_param(IS_FLASH_PAGE(Page));
 555:Drivers/STM32L4xx_HAL_Driver/Src/stm32l4xx_hal_flash_ex.c **** 
 556:Drivers/STM32L4xx_HAL_Driver/Src/stm32l4xx_hal_flash_ex.c **** #if defined (STM32L471xx) || defined (STM32L475xx) || defined (STM32L476xx) || defined (STM32L485xx
 557:Drivers/STM32L4xx_HAL_Driver/Src/stm32l4xx_hal_flash_ex.c ****     defined (STM32L496xx) || defined (STM32L4A6xx) || \
 558:Drivers/STM32L4xx_HAL_Driver/Src/stm32l4xx_hal_flash_ex.c ****     defined (STM32L4P5xx) || defined (STM32L4Q5xx) || \
 559:Drivers/STM32L4xx_HAL_Driver/Src/stm32l4xx_hal_flash_ex.c ****     defined (STM32L4R5xx) || defined (STM32L4R7xx) || defined (STM32L4R9xx) || defined (STM32L4S5xx
 560:Drivers/STM32L4xx_HAL_Driver/Src/stm32l4xx_hal_flash_ex.c **** #if defined (STM32L4P5xx) || defined (STM32L4Q5xx) || defined (STM32L4R5xx) || defined (STM32L4R7xx
 561:Drivers/STM32L4xx_HAL_Driver/Src/stm32l4xx_hal_flash_ex.c ****   if(READ_BIT(FLASH->OPTR, FLASH_OPTR_DBANK) == 0U)
 562:Drivers/STM32L4xx_HAL_Driver/Src/stm32l4xx_hal_flash_ex.c ****   {
 563:Drivers/STM32L4xx_HAL_Driver/Src/stm32l4xx_hal_flash_ex.c ****     CLEAR_BIT(FLASH->CR, FLASH_CR_BKER);
 564:Drivers/STM32L4xx_HAL_Driver/Src/stm32l4xx_hal_flash_ex.c ****   }
 565:Drivers/STM32L4xx_HAL_Driver/Src/stm32l4xx_hal_flash_ex.c ****   else
 566:Drivers/STM32L4xx_HAL_Driver/Src/stm32l4xx_hal_flash_ex.c **** #endif
 567:Drivers/STM32L4xx_HAL_Driver/Src/stm32l4xx_hal_flash_ex.c ****   {
 568:Drivers/STM32L4xx_HAL_Driver/Src/stm32l4xx_hal_flash_ex.c ****     assert_param(IS_FLASH_BANK_EXCLUSIVE(Banks));
 569:Drivers/STM32L4xx_HAL_Driver/Src/stm32l4xx_hal_flash_ex.c **** 
 570:Drivers/STM32L4xx_HAL_Driver/Src/stm32l4xx_hal_flash_ex.c ****     if((Banks & FLASH_BANK_1) != 0U)
 571:Drivers/STM32L4xx_HAL_Driver/Src/stm32l4xx_hal_flash_ex.c ****     {
 572:Drivers/STM32L4xx_HAL_Driver/Src/stm32l4xx_hal_flash_ex.c ****       CLEAR_BIT(FLASH->CR, FLASH_CR_BKER);
 573:Drivers/STM32L4xx_HAL_Driver/Src/stm32l4xx_hal_flash_ex.c ****     }
 574:Drivers/STM32L4xx_HAL_Driver/Src/stm32l4xx_hal_flash_ex.c ****     else
 575:Drivers/STM32L4xx_HAL_Driver/Src/stm32l4xx_hal_flash_ex.c ****     {
 576:Drivers/STM32L4xx_HAL_Driver/Src/stm32l4xx_hal_flash_ex.c ****       SET_BIT(FLASH->CR, FLASH_CR_BKER);
 577:Drivers/STM32L4xx_HAL_Driver/Src/stm32l4xx_hal_flash_ex.c ****     }
 578:Drivers/STM32L4xx_HAL_Driver/Src/stm32l4xx_hal_flash_ex.c ****   }
 579:Drivers/STM32L4xx_HAL_Driver/Src/stm32l4xx_hal_flash_ex.c **** #else
 580:Drivers/STM32L4xx_HAL_Driver/Src/stm32l4xx_hal_flash_ex.c ****   /* Prevent unused argument(s) compilation warning */
 581:Drivers/STM32L4xx_HAL_Driver/Src/stm32l4xx_hal_flash_ex.c ****   UNUSED(Banks);
 582:Drivers/STM32L4xx_HAL_Driver/Src/stm32l4xx_hal_flash_ex.c **** #endif
 583:Drivers/STM32L4xx_HAL_Driver/Src/stm32l4xx_hal_flash_ex.c **** 
 584:Drivers/STM32L4xx_HAL_Driver/Src/stm32l4xx_hal_flash_ex.c ****   /* Proceed to erase the page */
 585:Drivers/STM32L4xx_HAL_Driver/Src/stm32l4xx_hal_flash_ex.c ****   MODIFY_REG(FLASH->CR, FLASH_CR_PNB, ((Page & 0xFFU) << FLASH_CR_PNB_Pos));
 586:Drivers/STM32L4xx_HAL_Driver/Src/stm32l4xx_hal_flash_ex.c ****   SET_BIT(FLASH->CR, FLASH_CR_PER);
 587:Drivers/STM32L4xx_HAL_Driver/Src/stm32l4xx_hal_flash_ex.c ****   SET_BIT(FLASH->CR, FLASH_CR_STRT);
 588:Drivers/STM32L4xx_HAL_Driver/Src/stm32l4xx_hal_flash_ex.c **** }
 589:Drivers/STM32L4xx_HAL_Driver/Src/stm32l4xx_hal_flash_ex.c **** 
 590:Drivers/STM32L4xx_HAL_Driver/Src/stm32l4xx_hal_flash_ex.c **** /**
 591:Drivers/STM32L4xx_HAL_Driver/Src/stm32l4xx_hal_flash_ex.c ****   * @brief  Flush the instruction and data caches.
 592:Drivers/STM32L4xx_HAL_Driver/Src/stm32l4xx_hal_flash_ex.c ****   * @retval None
 593:Drivers/STM32L4xx_HAL_Driver/Src/stm32l4xx_hal_flash_ex.c ****   */
 594:Drivers/STM32L4xx_HAL_Driver/Src/stm32l4xx_hal_flash_ex.c **** void FLASH_FlushCaches(void)
ARM GAS  /tmp/ccQmN1qL.s 			page 13


 595:Drivers/STM32L4xx_HAL_Driver/Src/stm32l4xx_hal_flash_ex.c **** {
 596:Drivers/STM32L4xx_HAL_Driver/Src/stm32l4xx_hal_flash_ex.c ****   FLASH_CacheTypeDef cache = pFlash.CacheToReactivate;
 597:Drivers/STM32L4xx_HAL_Driver/Src/stm32l4xx_hal_flash_ex.c **** 
 598:Drivers/STM32L4xx_HAL_Driver/Src/stm32l4xx_hal_flash_ex.c ****   /* Flush instruction cache  */
 599:Drivers/STM32L4xx_HAL_Driver/Src/stm32l4xx_hal_flash_ex.c ****   if((cache == FLASH_CACHE_ICACHE_ENABLED) ||
 600:Drivers/STM32L4xx_HAL_Driver/Src/stm32l4xx_hal_flash_ex.c ****      (cache == FLASH_CACHE_ICACHE_DCACHE_ENABLED))
 601:Drivers/STM32L4xx_HAL_Driver/Src/stm32l4xx_hal_flash_ex.c ****   {
 602:Drivers/STM32L4xx_HAL_Driver/Src/stm32l4xx_hal_flash_ex.c ****     /* Disable instruction cache */
 603:Drivers/STM32L4xx_HAL_Driver/Src/stm32l4xx_hal_flash_ex.c ****     __HAL_FLASH_INSTRUCTION_CACHE_DISABLE();
 604:Drivers/STM32L4xx_HAL_Driver/Src/stm32l4xx_hal_flash_ex.c ****     /* Reset instruction cache */
 605:Drivers/STM32L4xx_HAL_Driver/Src/stm32l4xx_hal_flash_ex.c ****     __HAL_FLASH_INSTRUCTION_CACHE_RESET();
 606:Drivers/STM32L4xx_HAL_Driver/Src/stm32l4xx_hal_flash_ex.c ****     /* Enable instruction cache */
 607:Drivers/STM32L4xx_HAL_Driver/Src/stm32l4xx_hal_flash_ex.c ****     __HAL_FLASH_INSTRUCTION_CACHE_ENABLE();
 608:Drivers/STM32L4xx_HAL_Driver/Src/stm32l4xx_hal_flash_ex.c ****   }
 609:Drivers/STM32L4xx_HAL_Driver/Src/stm32l4xx_hal_flash_ex.c **** 
 610:Drivers/STM32L4xx_HAL_Driver/Src/stm32l4xx_hal_flash_ex.c ****   /* Flush data cache */
 611:Drivers/STM32L4xx_HAL_Driver/Src/stm32l4xx_hal_flash_ex.c ****   if((cache == FLASH_CACHE_DCACHE_ENABLED) ||
 612:Drivers/STM32L4xx_HAL_Driver/Src/stm32l4xx_hal_flash_ex.c ****      (cache == FLASH_CACHE_ICACHE_DCACHE_ENABLED))
 613:Drivers/STM32L4xx_HAL_Driver/Src/stm32l4xx_hal_flash_ex.c ****   {
 614:Drivers/STM32L4xx_HAL_Driver/Src/stm32l4xx_hal_flash_ex.c ****     /* Reset data cache */
 615:Drivers/STM32L4xx_HAL_Driver/Src/stm32l4xx_hal_flash_ex.c ****     __HAL_FLASH_DATA_CACHE_RESET();
 616:Drivers/STM32L4xx_HAL_Driver/Src/stm32l4xx_hal_flash_ex.c ****     /* Enable data cache */
 617:Drivers/STM32L4xx_HAL_Driver/Src/stm32l4xx_hal_flash_ex.c ****     __HAL_FLASH_DATA_CACHE_ENABLE();
 618:Drivers/STM32L4xx_HAL_Driver/Src/stm32l4xx_hal_flash_ex.c ****   }
 619:Drivers/STM32L4xx_HAL_Driver/Src/stm32l4xx_hal_flash_ex.c **** 
 620:Drivers/STM32L4xx_HAL_Driver/Src/stm32l4xx_hal_flash_ex.c ****   /* Reset internal variable */
 621:Drivers/STM32L4xx_HAL_Driver/Src/stm32l4xx_hal_flash_ex.c ****   pFlash.CacheToReactivate = FLASH_CACHE_DISABLED;
 622:Drivers/STM32L4xx_HAL_Driver/Src/stm32l4xx_hal_flash_ex.c **** }
 623:Drivers/STM32L4xx_HAL_Driver/Src/stm32l4xx_hal_flash_ex.c **** 
 624:Drivers/STM32L4xx_HAL_Driver/Src/stm32l4xx_hal_flash_ex.c **** /**
 625:Drivers/STM32L4xx_HAL_Driver/Src/stm32l4xx_hal_flash_ex.c ****   * @brief  Configure the write protection of the desired pages.
 626:Drivers/STM32L4xx_HAL_Driver/Src/stm32l4xx_hal_flash_ex.c ****   *
 627:Drivers/STM32L4xx_HAL_Driver/Src/stm32l4xx_hal_flash_ex.c ****   * @note   When the memory read protection level is selected (RDP level = 1),
 628:Drivers/STM32L4xx_HAL_Driver/Src/stm32l4xx_hal_flash_ex.c ****   *         it is not possible to program or erase Flash memory if the CPU debug
 629:Drivers/STM32L4xx_HAL_Driver/Src/stm32l4xx_hal_flash_ex.c ****   *         features are connected (JTAG or single wire) or boot code is being
 630:Drivers/STM32L4xx_HAL_Driver/Src/stm32l4xx_hal_flash_ex.c ****   *         executed from RAM or System flash, even if WRP is not activated.
 631:Drivers/STM32L4xx_HAL_Driver/Src/stm32l4xx_hal_flash_ex.c ****   * @note   To configure the WRP options, the option lock bit OPTLOCK must be
 632:Drivers/STM32L4xx_HAL_Driver/Src/stm32l4xx_hal_flash_ex.c ****   *         cleared with the call of the HAL_FLASH_OB_Unlock() function.
 633:Drivers/STM32L4xx_HAL_Driver/Src/stm32l4xx_hal_flash_ex.c ****   * @note   To validate the WRP options, the option bytes must be reloaded
 634:Drivers/STM32L4xx_HAL_Driver/Src/stm32l4xx_hal_flash_ex.c ****   *         through the call of the HAL_FLASH_OB_Launch() function.
 635:Drivers/STM32L4xx_HAL_Driver/Src/stm32l4xx_hal_flash_ex.c ****   *
 636:Drivers/STM32L4xx_HAL_Driver/Src/stm32l4xx_hal_flash_ex.c ****   * @param  WRPArea specifies the area to be configured.
 637:Drivers/STM32L4xx_HAL_Driver/Src/stm32l4xx_hal_flash_ex.c ****   *          This parameter can be one of the following values:
 638:Drivers/STM32L4xx_HAL_Driver/Src/stm32l4xx_hal_flash_ex.c ****   *            @arg OB_WRPAREA_BANK1_AREAA: Flash Bank 1 Area A
 639:Drivers/STM32L4xx_HAL_Driver/Src/stm32l4xx_hal_flash_ex.c ****   *            @arg OB_WRPAREA_BANK1_AREAB: Flash Bank 1 Area B
 640:Drivers/STM32L4xx_HAL_Driver/Src/stm32l4xx_hal_flash_ex.c ****   *            @arg OB_WRPAREA_BANK2_AREAA: Flash Bank 2 Area A  (don't apply for STM32L43x/STM32L4
 641:Drivers/STM32L4xx_HAL_Driver/Src/stm32l4xx_hal_flash_ex.c ****   *            @arg OB_WRPAREA_BANK2_AREAB: Flash Bank 2 Area B  (don't apply for STM32L43x/STM32L4
 642:Drivers/STM32L4xx_HAL_Driver/Src/stm32l4xx_hal_flash_ex.c ****   *
 643:Drivers/STM32L4xx_HAL_Driver/Src/stm32l4xx_hal_flash_ex.c ****   * @param  WRPStartOffset specifies the start page of the write protected area
 644:Drivers/STM32L4xx_HAL_Driver/Src/stm32l4xx_hal_flash_ex.c ****   *          This parameter can be page number between 0 and (max number of pages in the bank - 1)
 645:Drivers/STM32L4xx_HAL_Driver/Src/stm32l4xx_hal_flash_ex.c ****   *
 646:Drivers/STM32L4xx_HAL_Driver/Src/stm32l4xx_hal_flash_ex.c ****   * @param  WRDPEndOffset specifies the end page of the write protected area
 647:Drivers/STM32L4xx_HAL_Driver/Src/stm32l4xx_hal_flash_ex.c ****   *          This parameter can be page number between WRPStartOffset and (max number of pages in t
 648:Drivers/STM32L4xx_HAL_Driver/Src/stm32l4xx_hal_flash_ex.c ****   *
 649:Drivers/STM32L4xx_HAL_Driver/Src/stm32l4xx_hal_flash_ex.c ****   * @retval HAL Status
 650:Drivers/STM32L4xx_HAL_Driver/Src/stm32l4xx_hal_flash_ex.c ****   */
 651:Drivers/STM32L4xx_HAL_Driver/Src/stm32l4xx_hal_flash_ex.c **** static HAL_StatusTypeDef FLASH_OB_WRPConfig(uint32_t WRPArea, uint32_t WRPStartOffset, uint32_t WRD
ARM GAS  /tmp/ccQmN1qL.s 			page 14


 652:Drivers/STM32L4xx_HAL_Driver/Src/stm32l4xx_hal_flash_ex.c **** {
 653:Drivers/STM32L4xx_HAL_Driver/Src/stm32l4xx_hal_flash_ex.c ****   HAL_StatusTypeDef status;
 654:Drivers/STM32L4xx_HAL_Driver/Src/stm32l4xx_hal_flash_ex.c **** 
 655:Drivers/STM32L4xx_HAL_Driver/Src/stm32l4xx_hal_flash_ex.c ****   /* Check the parameters */
 656:Drivers/STM32L4xx_HAL_Driver/Src/stm32l4xx_hal_flash_ex.c ****   assert_param(IS_OB_WRPAREA(WRPArea));
 657:Drivers/STM32L4xx_HAL_Driver/Src/stm32l4xx_hal_flash_ex.c ****   assert_param(IS_FLASH_PAGE(WRPStartOffset));
 658:Drivers/STM32L4xx_HAL_Driver/Src/stm32l4xx_hal_flash_ex.c ****   assert_param(IS_FLASH_PAGE(WRDPEndOffset));
 659:Drivers/STM32L4xx_HAL_Driver/Src/stm32l4xx_hal_flash_ex.c **** 
 660:Drivers/STM32L4xx_HAL_Driver/Src/stm32l4xx_hal_flash_ex.c ****   /* Wait for last operation to be completed */
 661:Drivers/STM32L4xx_HAL_Driver/Src/stm32l4xx_hal_flash_ex.c ****   status = FLASH_WaitForLastOperation((uint32_t)FLASH_TIMEOUT_VALUE);
 662:Drivers/STM32L4xx_HAL_Driver/Src/stm32l4xx_hal_flash_ex.c **** 
 663:Drivers/STM32L4xx_HAL_Driver/Src/stm32l4xx_hal_flash_ex.c ****   if(status == HAL_OK)
 664:Drivers/STM32L4xx_HAL_Driver/Src/stm32l4xx_hal_flash_ex.c ****   {
 665:Drivers/STM32L4xx_HAL_Driver/Src/stm32l4xx_hal_flash_ex.c ****     /* Configure the write protected area */
 666:Drivers/STM32L4xx_HAL_Driver/Src/stm32l4xx_hal_flash_ex.c ****     if(WRPArea == OB_WRPAREA_BANK1_AREAA)
 667:Drivers/STM32L4xx_HAL_Driver/Src/stm32l4xx_hal_flash_ex.c ****     {
 668:Drivers/STM32L4xx_HAL_Driver/Src/stm32l4xx_hal_flash_ex.c ****       MODIFY_REG(FLASH->WRP1AR, (FLASH_WRP1AR_WRP1A_STRT | FLASH_WRP1AR_WRP1A_END),
 669:Drivers/STM32L4xx_HAL_Driver/Src/stm32l4xx_hal_flash_ex.c ****                  (WRPStartOffset | (WRDPEndOffset << 16)));
 670:Drivers/STM32L4xx_HAL_Driver/Src/stm32l4xx_hal_flash_ex.c ****     }
 671:Drivers/STM32L4xx_HAL_Driver/Src/stm32l4xx_hal_flash_ex.c ****     else if(WRPArea == OB_WRPAREA_BANK1_AREAB)
 672:Drivers/STM32L4xx_HAL_Driver/Src/stm32l4xx_hal_flash_ex.c ****     {
 673:Drivers/STM32L4xx_HAL_Driver/Src/stm32l4xx_hal_flash_ex.c ****       MODIFY_REG(FLASH->WRP1BR, (FLASH_WRP1BR_WRP1B_STRT | FLASH_WRP1BR_WRP1B_END),
 674:Drivers/STM32L4xx_HAL_Driver/Src/stm32l4xx_hal_flash_ex.c ****                  (WRPStartOffset | (WRDPEndOffset << 16)));
 675:Drivers/STM32L4xx_HAL_Driver/Src/stm32l4xx_hal_flash_ex.c ****     }
 676:Drivers/STM32L4xx_HAL_Driver/Src/stm32l4xx_hal_flash_ex.c **** #if defined (STM32L471xx) || defined (STM32L475xx) || defined (STM32L476xx) || defined (STM32L485xx
 677:Drivers/STM32L4xx_HAL_Driver/Src/stm32l4xx_hal_flash_ex.c ****     defined (STM32L496xx) || defined (STM32L4A6xx) || \
 678:Drivers/STM32L4xx_HAL_Driver/Src/stm32l4xx_hal_flash_ex.c ****     defined (STM32L4P5xx) || defined (STM32L4Q5xx) || \
 679:Drivers/STM32L4xx_HAL_Driver/Src/stm32l4xx_hal_flash_ex.c ****     defined (STM32L4R5xx) || defined (STM32L4R7xx) || defined (STM32L4R9xx) || defined (STM32L4S5xx
 680:Drivers/STM32L4xx_HAL_Driver/Src/stm32l4xx_hal_flash_ex.c ****     else if(WRPArea == OB_WRPAREA_BANK2_AREAA)
 681:Drivers/STM32L4xx_HAL_Driver/Src/stm32l4xx_hal_flash_ex.c ****     {
 682:Drivers/STM32L4xx_HAL_Driver/Src/stm32l4xx_hal_flash_ex.c ****       MODIFY_REG(FLASH->WRP2AR, (FLASH_WRP2AR_WRP2A_STRT | FLASH_WRP2AR_WRP2A_END),
 683:Drivers/STM32L4xx_HAL_Driver/Src/stm32l4xx_hal_flash_ex.c ****                  (WRPStartOffset | (WRDPEndOffset << 16)));
 684:Drivers/STM32L4xx_HAL_Driver/Src/stm32l4xx_hal_flash_ex.c ****     }
 685:Drivers/STM32L4xx_HAL_Driver/Src/stm32l4xx_hal_flash_ex.c ****     else if(WRPArea == OB_WRPAREA_BANK2_AREAB)
 686:Drivers/STM32L4xx_HAL_Driver/Src/stm32l4xx_hal_flash_ex.c ****     {
 687:Drivers/STM32L4xx_HAL_Driver/Src/stm32l4xx_hal_flash_ex.c ****       MODIFY_REG(FLASH->WRP2BR, (FLASH_WRP2BR_WRP2B_STRT | FLASH_WRP2BR_WRP2B_END),
 688:Drivers/STM32L4xx_HAL_Driver/Src/stm32l4xx_hal_flash_ex.c ****                  (WRPStartOffset | (WRDPEndOffset << 16)));
 689:Drivers/STM32L4xx_HAL_Driver/Src/stm32l4xx_hal_flash_ex.c ****     }
 690:Drivers/STM32L4xx_HAL_Driver/Src/stm32l4xx_hal_flash_ex.c **** #endif
 691:Drivers/STM32L4xx_HAL_Driver/Src/stm32l4xx_hal_flash_ex.c ****     else
 692:Drivers/STM32L4xx_HAL_Driver/Src/stm32l4xx_hal_flash_ex.c ****     {
 693:Drivers/STM32L4xx_HAL_Driver/Src/stm32l4xx_hal_flash_ex.c ****       /* Nothing to do */
 694:Drivers/STM32L4xx_HAL_Driver/Src/stm32l4xx_hal_flash_ex.c ****     }
 695:Drivers/STM32L4xx_HAL_Driver/Src/stm32l4xx_hal_flash_ex.c **** 
 696:Drivers/STM32L4xx_HAL_Driver/Src/stm32l4xx_hal_flash_ex.c ****     /* Set OPTSTRT Bit */
 697:Drivers/STM32L4xx_HAL_Driver/Src/stm32l4xx_hal_flash_ex.c ****     SET_BIT(FLASH->CR, FLASH_CR_OPTSTRT);
 698:Drivers/STM32L4xx_HAL_Driver/Src/stm32l4xx_hal_flash_ex.c **** 
 699:Drivers/STM32L4xx_HAL_Driver/Src/stm32l4xx_hal_flash_ex.c ****     /* Wait for last operation to be completed */
 700:Drivers/STM32L4xx_HAL_Driver/Src/stm32l4xx_hal_flash_ex.c ****     status = FLASH_WaitForLastOperation((uint32_t)FLASH_TIMEOUT_VALUE);
 701:Drivers/STM32L4xx_HAL_Driver/Src/stm32l4xx_hal_flash_ex.c **** 
 702:Drivers/STM32L4xx_HAL_Driver/Src/stm32l4xx_hal_flash_ex.c ****     /* If the option byte program operation is completed, disable the OPTSTRT Bit */
 703:Drivers/STM32L4xx_HAL_Driver/Src/stm32l4xx_hal_flash_ex.c ****     CLEAR_BIT(FLASH->CR, FLASH_CR_OPTSTRT);
 704:Drivers/STM32L4xx_HAL_Driver/Src/stm32l4xx_hal_flash_ex.c ****   }
 705:Drivers/STM32L4xx_HAL_Driver/Src/stm32l4xx_hal_flash_ex.c **** 
 706:Drivers/STM32L4xx_HAL_Driver/Src/stm32l4xx_hal_flash_ex.c ****   return status;
 707:Drivers/STM32L4xx_HAL_Driver/Src/stm32l4xx_hal_flash_ex.c **** }
 708:Drivers/STM32L4xx_HAL_Driver/Src/stm32l4xx_hal_flash_ex.c **** 
ARM GAS  /tmp/ccQmN1qL.s 			page 15


 709:Drivers/STM32L4xx_HAL_Driver/Src/stm32l4xx_hal_flash_ex.c **** /**
 710:Drivers/STM32L4xx_HAL_Driver/Src/stm32l4xx_hal_flash_ex.c ****   * @brief  Set the read protection level.
 711:Drivers/STM32L4xx_HAL_Driver/Src/stm32l4xx_hal_flash_ex.c ****   *
 712:Drivers/STM32L4xx_HAL_Driver/Src/stm32l4xx_hal_flash_ex.c ****   * @note   To configure the RDP level, the option lock bit OPTLOCK must be
 713:Drivers/STM32L4xx_HAL_Driver/Src/stm32l4xx_hal_flash_ex.c ****   *         cleared with the call of the HAL_FLASH_OB_Unlock() function.
 714:Drivers/STM32L4xx_HAL_Driver/Src/stm32l4xx_hal_flash_ex.c ****   * @note   To validate the RDP level, the option bytes must be reloaded
 715:Drivers/STM32L4xx_HAL_Driver/Src/stm32l4xx_hal_flash_ex.c ****   *         through the call of the HAL_FLASH_OB_Launch() function.
 716:Drivers/STM32L4xx_HAL_Driver/Src/stm32l4xx_hal_flash_ex.c ****   * @note   !!! Warning : When enabling OB_RDP level 2 it's no more possible
 717:Drivers/STM32L4xx_HAL_Driver/Src/stm32l4xx_hal_flash_ex.c ****   *         to go back to level 1 or 0 !!!
 718:Drivers/STM32L4xx_HAL_Driver/Src/stm32l4xx_hal_flash_ex.c ****   *
 719:Drivers/STM32L4xx_HAL_Driver/Src/stm32l4xx_hal_flash_ex.c ****   * @param  RDPLevel specifies the read protection level.
 720:Drivers/STM32L4xx_HAL_Driver/Src/stm32l4xx_hal_flash_ex.c ****   *         This parameter can be one of the following values:
 721:Drivers/STM32L4xx_HAL_Driver/Src/stm32l4xx_hal_flash_ex.c ****   *            @arg OB_RDP_LEVEL_0: No protection
 722:Drivers/STM32L4xx_HAL_Driver/Src/stm32l4xx_hal_flash_ex.c ****   *            @arg OB_RDP_LEVEL_1: Read protection of the memory
 723:Drivers/STM32L4xx_HAL_Driver/Src/stm32l4xx_hal_flash_ex.c ****   *            @arg OB_RDP_LEVEL_2: Full chip protection
 724:Drivers/STM32L4xx_HAL_Driver/Src/stm32l4xx_hal_flash_ex.c ****   *
 725:Drivers/STM32L4xx_HAL_Driver/Src/stm32l4xx_hal_flash_ex.c ****   * @retval HAL status
 726:Drivers/STM32L4xx_HAL_Driver/Src/stm32l4xx_hal_flash_ex.c ****   */
 727:Drivers/STM32L4xx_HAL_Driver/Src/stm32l4xx_hal_flash_ex.c **** static HAL_StatusTypeDef FLASH_OB_RDPConfig(uint32_t RDPLevel)
 728:Drivers/STM32L4xx_HAL_Driver/Src/stm32l4xx_hal_flash_ex.c **** {
 729:Drivers/STM32L4xx_HAL_Driver/Src/stm32l4xx_hal_flash_ex.c ****   HAL_StatusTypeDef status;
 730:Drivers/STM32L4xx_HAL_Driver/Src/stm32l4xx_hal_flash_ex.c **** 
 731:Drivers/STM32L4xx_HAL_Driver/Src/stm32l4xx_hal_flash_ex.c ****   /* Check the parameters */
 732:Drivers/STM32L4xx_HAL_Driver/Src/stm32l4xx_hal_flash_ex.c ****   assert_param(IS_OB_RDP_LEVEL(RDPLevel));
 733:Drivers/STM32L4xx_HAL_Driver/Src/stm32l4xx_hal_flash_ex.c **** 
 734:Drivers/STM32L4xx_HAL_Driver/Src/stm32l4xx_hal_flash_ex.c ****   /* Wait for last operation to be completed */
 735:Drivers/STM32L4xx_HAL_Driver/Src/stm32l4xx_hal_flash_ex.c ****   status = FLASH_WaitForLastOperation((uint32_t)FLASH_TIMEOUT_VALUE);
 736:Drivers/STM32L4xx_HAL_Driver/Src/stm32l4xx_hal_flash_ex.c **** 
 737:Drivers/STM32L4xx_HAL_Driver/Src/stm32l4xx_hal_flash_ex.c ****   if(status == HAL_OK)
 738:Drivers/STM32L4xx_HAL_Driver/Src/stm32l4xx_hal_flash_ex.c ****   {
 739:Drivers/STM32L4xx_HAL_Driver/Src/stm32l4xx_hal_flash_ex.c ****     /* Configure the RDP level in the option bytes register */
 740:Drivers/STM32L4xx_HAL_Driver/Src/stm32l4xx_hal_flash_ex.c ****     MODIFY_REG(FLASH->OPTR, FLASH_OPTR_RDP, RDPLevel);
 741:Drivers/STM32L4xx_HAL_Driver/Src/stm32l4xx_hal_flash_ex.c **** 
 742:Drivers/STM32L4xx_HAL_Driver/Src/stm32l4xx_hal_flash_ex.c ****     /* Set OPTSTRT Bit */
 743:Drivers/STM32L4xx_HAL_Driver/Src/stm32l4xx_hal_flash_ex.c ****     SET_BIT(FLASH->CR, FLASH_CR_OPTSTRT);
 744:Drivers/STM32L4xx_HAL_Driver/Src/stm32l4xx_hal_flash_ex.c **** 
 745:Drivers/STM32L4xx_HAL_Driver/Src/stm32l4xx_hal_flash_ex.c ****     /* Wait for last operation to be completed */
 746:Drivers/STM32L4xx_HAL_Driver/Src/stm32l4xx_hal_flash_ex.c ****     status = FLASH_WaitForLastOperation((uint32_t)FLASH_TIMEOUT_VALUE);
 747:Drivers/STM32L4xx_HAL_Driver/Src/stm32l4xx_hal_flash_ex.c **** 
 748:Drivers/STM32L4xx_HAL_Driver/Src/stm32l4xx_hal_flash_ex.c ****     /* If the option byte program operation is completed, disable the OPTSTRT Bit */
 749:Drivers/STM32L4xx_HAL_Driver/Src/stm32l4xx_hal_flash_ex.c ****     CLEAR_BIT(FLASH->CR, FLASH_CR_OPTSTRT);
 750:Drivers/STM32L4xx_HAL_Driver/Src/stm32l4xx_hal_flash_ex.c ****   }
 751:Drivers/STM32L4xx_HAL_Driver/Src/stm32l4xx_hal_flash_ex.c **** 
 752:Drivers/STM32L4xx_HAL_Driver/Src/stm32l4xx_hal_flash_ex.c ****   return status;
 753:Drivers/STM32L4xx_HAL_Driver/Src/stm32l4xx_hal_flash_ex.c **** }
 754:Drivers/STM32L4xx_HAL_Driver/Src/stm32l4xx_hal_flash_ex.c **** 
 755:Drivers/STM32L4xx_HAL_Driver/Src/stm32l4xx_hal_flash_ex.c **** /**
 756:Drivers/STM32L4xx_HAL_Driver/Src/stm32l4xx_hal_flash_ex.c ****   * @brief  Program the FLASH User Option Byte.
 757:Drivers/STM32L4xx_HAL_Driver/Src/stm32l4xx_hal_flash_ex.c ****   *
 758:Drivers/STM32L4xx_HAL_Driver/Src/stm32l4xx_hal_flash_ex.c ****   * @note   To configure the user option bytes, the option lock bit OPTLOCK must
 759:Drivers/STM32L4xx_HAL_Driver/Src/stm32l4xx_hal_flash_ex.c ****   *         be cleared with the call of the HAL_FLASH_OB_Unlock() function.
 760:Drivers/STM32L4xx_HAL_Driver/Src/stm32l4xx_hal_flash_ex.c ****   * @note   To validate the user option bytes, the option bytes must be reloaded
 761:Drivers/STM32L4xx_HAL_Driver/Src/stm32l4xx_hal_flash_ex.c ****   *         through the call of the HAL_FLASH_OB_Launch() function.
 762:Drivers/STM32L4xx_HAL_Driver/Src/stm32l4xx_hal_flash_ex.c ****   *
 763:Drivers/STM32L4xx_HAL_Driver/Src/stm32l4xx_hal_flash_ex.c ****   * @param  UserType The FLASH User Option Bytes to be modified
 764:Drivers/STM32L4xx_HAL_Driver/Src/stm32l4xx_hal_flash_ex.c ****   * @param  UserConfig The FLASH User Option Bytes values:
 765:Drivers/STM32L4xx_HAL_Driver/Src/stm32l4xx_hal_flash_ex.c ****   *         BOR_LEV(Bit8-10), nRST_STOP(Bit12), nRST_STDBY(Bit13), IWDG_SW(Bit16),
ARM GAS  /tmp/ccQmN1qL.s 			page 16


 766:Drivers/STM32L4xx_HAL_Driver/Src/stm32l4xx_hal_flash_ex.c ****   *         IWDG_STOP(Bit17), IWDG_STDBY(Bit18), WWDG_SW(Bit19), BFB2(Bit20),
 767:Drivers/STM32L4xx_HAL_Driver/Src/stm32l4xx_hal_flash_ex.c ****   *         DUALBANK(Bit21), nBOOT1(Bit23), SRAM2_PE(Bit24) and SRAM2_RST(Bit25).
 768:Drivers/STM32L4xx_HAL_Driver/Src/stm32l4xx_hal_flash_ex.c ****   *
 769:Drivers/STM32L4xx_HAL_Driver/Src/stm32l4xx_hal_flash_ex.c ****   * @retval HAL status
 770:Drivers/STM32L4xx_HAL_Driver/Src/stm32l4xx_hal_flash_ex.c ****   */
 771:Drivers/STM32L4xx_HAL_Driver/Src/stm32l4xx_hal_flash_ex.c **** static HAL_StatusTypeDef FLASH_OB_UserConfig(uint32_t UserType, uint32_t UserConfig)
 772:Drivers/STM32L4xx_HAL_Driver/Src/stm32l4xx_hal_flash_ex.c **** {
 773:Drivers/STM32L4xx_HAL_Driver/Src/stm32l4xx_hal_flash_ex.c ****   uint32_t optr_reg_val = 0;
 774:Drivers/STM32L4xx_HAL_Driver/Src/stm32l4xx_hal_flash_ex.c ****   uint32_t optr_reg_mask = 0;
 775:Drivers/STM32L4xx_HAL_Driver/Src/stm32l4xx_hal_flash_ex.c ****   HAL_StatusTypeDef status;
 776:Drivers/STM32L4xx_HAL_Driver/Src/stm32l4xx_hal_flash_ex.c **** 
 777:Drivers/STM32L4xx_HAL_Driver/Src/stm32l4xx_hal_flash_ex.c ****   /* Check the parameters */
 778:Drivers/STM32L4xx_HAL_Driver/Src/stm32l4xx_hal_flash_ex.c ****   assert_param(IS_OB_USER_TYPE(UserType));
 779:Drivers/STM32L4xx_HAL_Driver/Src/stm32l4xx_hal_flash_ex.c **** 
 780:Drivers/STM32L4xx_HAL_Driver/Src/stm32l4xx_hal_flash_ex.c ****   /* Wait for last operation to be completed */
 781:Drivers/STM32L4xx_HAL_Driver/Src/stm32l4xx_hal_flash_ex.c ****   status = FLASH_WaitForLastOperation((uint32_t)FLASH_TIMEOUT_VALUE);
 782:Drivers/STM32L4xx_HAL_Driver/Src/stm32l4xx_hal_flash_ex.c **** 
 783:Drivers/STM32L4xx_HAL_Driver/Src/stm32l4xx_hal_flash_ex.c ****   if(status == HAL_OK)
 784:Drivers/STM32L4xx_HAL_Driver/Src/stm32l4xx_hal_flash_ex.c ****   {
 785:Drivers/STM32L4xx_HAL_Driver/Src/stm32l4xx_hal_flash_ex.c ****     if((UserType & OB_USER_BOR_LEV) != 0U)
 786:Drivers/STM32L4xx_HAL_Driver/Src/stm32l4xx_hal_flash_ex.c ****     {
 787:Drivers/STM32L4xx_HAL_Driver/Src/stm32l4xx_hal_flash_ex.c ****       /* BOR level option byte should be modified */
 788:Drivers/STM32L4xx_HAL_Driver/Src/stm32l4xx_hal_flash_ex.c ****       assert_param(IS_OB_USER_BOR_LEVEL(UserConfig & FLASH_OPTR_BOR_LEV));
 789:Drivers/STM32L4xx_HAL_Driver/Src/stm32l4xx_hal_flash_ex.c **** 
 790:Drivers/STM32L4xx_HAL_Driver/Src/stm32l4xx_hal_flash_ex.c ****       /* Set value and mask for BOR level option byte */
 791:Drivers/STM32L4xx_HAL_Driver/Src/stm32l4xx_hal_flash_ex.c ****       optr_reg_val |= (UserConfig & FLASH_OPTR_BOR_LEV);
 792:Drivers/STM32L4xx_HAL_Driver/Src/stm32l4xx_hal_flash_ex.c ****       optr_reg_mask |= FLASH_OPTR_BOR_LEV;
 793:Drivers/STM32L4xx_HAL_Driver/Src/stm32l4xx_hal_flash_ex.c ****     }
 794:Drivers/STM32L4xx_HAL_Driver/Src/stm32l4xx_hal_flash_ex.c **** 
 795:Drivers/STM32L4xx_HAL_Driver/Src/stm32l4xx_hal_flash_ex.c ****     if((UserType & OB_USER_nRST_STOP) != 0U)
 796:Drivers/STM32L4xx_HAL_Driver/Src/stm32l4xx_hal_flash_ex.c ****     {
 797:Drivers/STM32L4xx_HAL_Driver/Src/stm32l4xx_hal_flash_ex.c ****       /* nRST_STOP option byte should be modified */
 798:Drivers/STM32L4xx_HAL_Driver/Src/stm32l4xx_hal_flash_ex.c ****       assert_param(IS_OB_USER_STOP(UserConfig & FLASH_OPTR_nRST_STOP));
 799:Drivers/STM32L4xx_HAL_Driver/Src/stm32l4xx_hal_flash_ex.c **** 
 800:Drivers/STM32L4xx_HAL_Driver/Src/stm32l4xx_hal_flash_ex.c ****       /* Set value and mask for nRST_STOP option byte */
 801:Drivers/STM32L4xx_HAL_Driver/Src/stm32l4xx_hal_flash_ex.c ****       optr_reg_val |= (UserConfig & FLASH_OPTR_nRST_STOP);
 802:Drivers/STM32L4xx_HAL_Driver/Src/stm32l4xx_hal_flash_ex.c ****       optr_reg_mask |= FLASH_OPTR_nRST_STOP;
 803:Drivers/STM32L4xx_HAL_Driver/Src/stm32l4xx_hal_flash_ex.c ****     }
 804:Drivers/STM32L4xx_HAL_Driver/Src/stm32l4xx_hal_flash_ex.c **** 
 805:Drivers/STM32L4xx_HAL_Driver/Src/stm32l4xx_hal_flash_ex.c ****     if((UserType & OB_USER_nRST_STDBY) != 0U)
 806:Drivers/STM32L4xx_HAL_Driver/Src/stm32l4xx_hal_flash_ex.c ****     {
 807:Drivers/STM32L4xx_HAL_Driver/Src/stm32l4xx_hal_flash_ex.c ****       /* nRST_STDBY option byte should be modified */
 808:Drivers/STM32L4xx_HAL_Driver/Src/stm32l4xx_hal_flash_ex.c ****       assert_param(IS_OB_USER_STANDBY(UserConfig & FLASH_OPTR_nRST_STDBY));
 809:Drivers/STM32L4xx_HAL_Driver/Src/stm32l4xx_hal_flash_ex.c **** 
 810:Drivers/STM32L4xx_HAL_Driver/Src/stm32l4xx_hal_flash_ex.c ****       /* Set value and mask for nRST_STDBY option byte */
 811:Drivers/STM32L4xx_HAL_Driver/Src/stm32l4xx_hal_flash_ex.c ****       optr_reg_val |= (UserConfig & FLASH_OPTR_nRST_STDBY);
 812:Drivers/STM32L4xx_HAL_Driver/Src/stm32l4xx_hal_flash_ex.c ****       optr_reg_mask |= FLASH_OPTR_nRST_STDBY;
 813:Drivers/STM32L4xx_HAL_Driver/Src/stm32l4xx_hal_flash_ex.c ****     }
 814:Drivers/STM32L4xx_HAL_Driver/Src/stm32l4xx_hal_flash_ex.c **** 
 815:Drivers/STM32L4xx_HAL_Driver/Src/stm32l4xx_hal_flash_ex.c ****     if((UserType & OB_USER_nRST_SHDW) != 0U)
 816:Drivers/STM32L4xx_HAL_Driver/Src/stm32l4xx_hal_flash_ex.c ****     {
 817:Drivers/STM32L4xx_HAL_Driver/Src/stm32l4xx_hal_flash_ex.c ****       /* nRST_SHDW option byte should be modified */
 818:Drivers/STM32L4xx_HAL_Driver/Src/stm32l4xx_hal_flash_ex.c ****       assert_param(IS_OB_USER_SHUTDOWN(UserConfig & FLASH_OPTR_nRST_SHDW));
 819:Drivers/STM32L4xx_HAL_Driver/Src/stm32l4xx_hal_flash_ex.c **** 
 820:Drivers/STM32L4xx_HAL_Driver/Src/stm32l4xx_hal_flash_ex.c ****       /* Set value and mask for nRST_SHDW option byte */
 821:Drivers/STM32L4xx_HAL_Driver/Src/stm32l4xx_hal_flash_ex.c ****       optr_reg_val |= (UserConfig & FLASH_OPTR_nRST_SHDW);
 822:Drivers/STM32L4xx_HAL_Driver/Src/stm32l4xx_hal_flash_ex.c ****       optr_reg_mask |= FLASH_OPTR_nRST_SHDW;
ARM GAS  /tmp/ccQmN1qL.s 			page 17


 823:Drivers/STM32L4xx_HAL_Driver/Src/stm32l4xx_hal_flash_ex.c ****     }
 824:Drivers/STM32L4xx_HAL_Driver/Src/stm32l4xx_hal_flash_ex.c **** 
 825:Drivers/STM32L4xx_HAL_Driver/Src/stm32l4xx_hal_flash_ex.c ****     if((UserType & OB_USER_IWDG_SW) != 0U)
 826:Drivers/STM32L4xx_HAL_Driver/Src/stm32l4xx_hal_flash_ex.c ****     {
 827:Drivers/STM32L4xx_HAL_Driver/Src/stm32l4xx_hal_flash_ex.c ****       /* IWDG_SW option byte should be modified */
 828:Drivers/STM32L4xx_HAL_Driver/Src/stm32l4xx_hal_flash_ex.c ****       assert_param(IS_OB_USER_IWDG(UserConfig & FLASH_OPTR_IWDG_SW));
 829:Drivers/STM32L4xx_HAL_Driver/Src/stm32l4xx_hal_flash_ex.c **** 
 830:Drivers/STM32L4xx_HAL_Driver/Src/stm32l4xx_hal_flash_ex.c ****       /* Set value and mask for IWDG_SW option byte */
 831:Drivers/STM32L4xx_HAL_Driver/Src/stm32l4xx_hal_flash_ex.c ****       optr_reg_val |= (UserConfig & FLASH_OPTR_IWDG_SW);
 832:Drivers/STM32L4xx_HAL_Driver/Src/stm32l4xx_hal_flash_ex.c ****       optr_reg_mask |= FLASH_OPTR_IWDG_SW;
 833:Drivers/STM32L4xx_HAL_Driver/Src/stm32l4xx_hal_flash_ex.c ****     }
 834:Drivers/STM32L4xx_HAL_Driver/Src/stm32l4xx_hal_flash_ex.c **** 
 835:Drivers/STM32L4xx_HAL_Driver/Src/stm32l4xx_hal_flash_ex.c ****     if((UserType & OB_USER_IWDG_STOP) != 0U)
 836:Drivers/STM32L4xx_HAL_Driver/Src/stm32l4xx_hal_flash_ex.c ****     {
 837:Drivers/STM32L4xx_HAL_Driver/Src/stm32l4xx_hal_flash_ex.c ****       /* IWDG_STOP option byte should be modified */
 838:Drivers/STM32L4xx_HAL_Driver/Src/stm32l4xx_hal_flash_ex.c ****       assert_param(IS_OB_USER_IWDG_STOP(UserConfig & FLASH_OPTR_IWDG_STOP));
 839:Drivers/STM32L4xx_HAL_Driver/Src/stm32l4xx_hal_flash_ex.c **** 
 840:Drivers/STM32L4xx_HAL_Driver/Src/stm32l4xx_hal_flash_ex.c ****       /* Set value and mask for IWDG_STOP option byte */
 841:Drivers/STM32L4xx_HAL_Driver/Src/stm32l4xx_hal_flash_ex.c ****       optr_reg_val |= (UserConfig & FLASH_OPTR_IWDG_STOP);
 842:Drivers/STM32L4xx_HAL_Driver/Src/stm32l4xx_hal_flash_ex.c ****       optr_reg_mask |= FLASH_OPTR_IWDG_STOP;
 843:Drivers/STM32L4xx_HAL_Driver/Src/stm32l4xx_hal_flash_ex.c ****     }
 844:Drivers/STM32L4xx_HAL_Driver/Src/stm32l4xx_hal_flash_ex.c **** 
 845:Drivers/STM32L4xx_HAL_Driver/Src/stm32l4xx_hal_flash_ex.c ****     if((UserType & OB_USER_IWDG_STDBY) != 0U)
 846:Drivers/STM32L4xx_HAL_Driver/Src/stm32l4xx_hal_flash_ex.c ****     {
 847:Drivers/STM32L4xx_HAL_Driver/Src/stm32l4xx_hal_flash_ex.c ****       /* IWDG_STDBY option byte should be modified */
 848:Drivers/STM32L4xx_HAL_Driver/Src/stm32l4xx_hal_flash_ex.c ****       assert_param(IS_OB_USER_IWDG_STDBY(UserConfig & FLASH_OPTR_IWDG_STDBY));
 849:Drivers/STM32L4xx_HAL_Driver/Src/stm32l4xx_hal_flash_ex.c **** 
 850:Drivers/STM32L4xx_HAL_Driver/Src/stm32l4xx_hal_flash_ex.c ****       /* Set value and mask for IWDG_STDBY option byte */
 851:Drivers/STM32L4xx_HAL_Driver/Src/stm32l4xx_hal_flash_ex.c ****       optr_reg_val |= (UserConfig & FLASH_OPTR_IWDG_STDBY);
 852:Drivers/STM32L4xx_HAL_Driver/Src/stm32l4xx_hal_flash_ex.c ****       optr_reg_mask |= FLASH_OPTR_IWDG_STDBY;
 853:Drivers/STM32L4xx_HAL_Driver/Src/stm32l4xx_hal_flash_ex.c ****     }
 854:Drivers/STM32L4xx_HAL_Driver/Src/stm32l4xx_hal_flash_ex.c **** 
 855:Drivers/STM32L4xx_HAL_Driver/Src/stm32l4xx_hal_flash_ex.c ****     if((UserType & OB_USER_WWDG_SW) != 0U)
 856:Drivers/STM32L4xx_HAL_Driver/Src/stm32l4xx_hal_flash_ex.c ****     {
 857:Drivers/STM32L4xx_HAL_Driver/Src/stm32l4xx_hal_flash_ex.c ****       /* WWDG_SW option byte should be modified */
 858:Drivers/STM32L4xx_HAL_Driver/Src/stm32l4xx_hal_flash_ex.c ****       assert_param(IS_OB_USER_WWDG(UserConfig & FLASH_OPTR_WWDG_SW));
 859:Drivers/STM32L4xx_HAL_Driver/Src/stm32l4xx_hal_flash_ex.c **** 
 860:Drivers/STM32L4xx_HAL_Driver/Src/stm32l4xx_hal_flash_ex.c ****       /* Set value and mask for WWDG_SW option byte */
 861:Drivers/STM32L4xx_HAL_Driver/Src/stm32l4xx_hal_flash_ex.c ****       optr_reg_val |= (UserConfig & FLASH_OPTR_WWDG_SW);
 862:Drivers/STM32L4xx_HAL_Driver/Src/stm32l4xx_hal_flash_ex.c ****       optr_reg_mask |= FLASH_OPTR_WWDG_SW;
 863:Drivers/STM32L4xx_HAL_Driver/Src/stm32l4xx_hal_flash_ex.c ****     }
 864:Drivers/STM32L4xx_HAL_Driver/Src/stm32l4xx_hal_flash_ex.c **** 
 865:Drivers/STM32L4xx_HAL_Driver/Src/stm32l4xx_hal_flash_ex.c **** #if defined (STM32L471xx) || defined (STM32L475xx) || defined (STM32L476xx) || defined (STM32L485xx
 866:Drivers/STM32L4xx_HAL_Driver/Src/stm32l4xx_hal_flash_ex.c ****     defined (STM32L496xx) || defined (STM32L4A6xx) || \
 867:Drivers/STM32L4xx_HAL_Driver/Src/stm32l4xx_hal_flash_ex.c ****     defined (STM32L4P5xx) || defined (STM32L4Q5xx) || \
 868:Drivers/STM32L4xx_HAL_Driver/Src/stm32l4xx_hal_flash_ex.c ****     defined (STM32L4R5xx) || defined (STM32L4R7xx) || defined (STM32L4R9xx) || defined (STM32L4S5xx
 869:Drivers/STM32L4xx_HAL_Driver/Src/stm32l4xx_hal_flash_ex.c ****     if((UserType & OB_USER_BFB2) != 0U)
 870:Drivers/STM32L4xx_HAL_Driver/Src/stm32l4xx_hal_flash_ex.c ****     {
 871:Drivers/STM32L4xx_HAL_Driver/Src/stm32l4xx_hal_flash_ex.c ****       /* BFB2 option byte should be modified */
 872:Drivers/STM32L4xx_HAL_Driver/Src/stm32l4xx_hal_flash_ex.c ****       assert_param(IS_OB_USER_BFB2(UserConfig & FLASH_OPTR_BFB2));
 873:Drivers/STM32L4xx_HAL_Driver/Src/stm32l4xx_hal_flash_ex.c **** 
 874:Drivers/STM32L4xx_HAL_Driver/Src/stm32l4xx_hal_flash_ex.c ****       /* Set value and mask for BFB2 option byte */
 875:Drivers/STM32L4xx_HAL_Driver/Src/stm32l4xx_hal_flash_ex.c ****       optr_reg_val |= (UserConfig & FLASH_OPTR_BFB2);
 876:Drivers/STM32L4xx_HAL_Driver/Src/stm32l4xx_hal_flash_ex.c ****       optr_reg_mask |= FLASH_OPTR_BFB2;
 877:Drivers/STM32L4xx_HAL_Driver/Src/stm32l4xx_hal_flash_ex.c ****     }
 878:Drivers/STM32L4xx_HAL_Driver/Src/stm32l4xx_hal_flash_ex.c **** 
 879:Drivers/STM32L4xx_HAL_Driver/Src/stm32l4xx_hal_flash_ex.c ****     if((UserType & OB_USER_DUALBANK) != 0U)
ARM GAS  /tmp/ccQmN1qL.s 			page 18


 880:Drivers/STM32L4xx_HAL_Driver/Src/stm32l4xx_hal_flash_ex.c ****     {
 881:Drivers/STM32L4xx_HAL_Driver/Src/stm32l4xx_hal_flash_ex.c **** #if defined (STM32L4P5xx) || defined (STM32L4Q5xx) || defined (STM32L4R5xx) || defined (STM32L4R7xx
 882:Drivers/STM32L4xx_HAL_Driver/Src/stm32l4xx_hal_flash_ex.c ****       /* DUALBANK option byte should be modified */
 883:Drivers/STM32L4xx_HAL_Driver/Src/stm32l4xx_hal_flash_ex.c ****       assert_param(IS_OB_USER_DUALBANK(UserConfig & FLASH_OPTR_DB1M));
 884:Drivers/STM32L4xx_HAL_Driver/Src/stm32l4xx_hal_flash_ex.c **** 
 885:Drivers/STM32L4xx_HAL_Driver/Src/stm32l4xx_hal_flash_ex.c ****       /* Set value and mask for DUALBANK option byte */
 886:Drivers/STM32L4xx_HAL_Driver/Src/stm32l4xx_hal_flash_ex.c ****       optr_reg_val |= (UserConfig & FLASH_OPTR_DB1M);
 887:Drivers/STM32L4xx_HAL_Driver/Src/stm32l4xx_hal_flash_ex.c ****       optr_reg_mask |= FLASH_OPTR_DB1M;
 888:Drivers/STM32L4xx_HAL_Driver/Src/stm32l4xx_hal_flash_ex.c **** #else
 889:Drivers/STM32L4xx_HAL_Driver/Src/stm32l4xx_hal_flash_ex.c ****       /* DUALBANK option byte should be modified */
 890:Drivers/STM32L4xx_HAL_Driver/Src/stm32l4xx_hal_flash_ex.c ****       assert_param(IS_OB_USER_DUALBANK(UserConfig & FLASH_OPTR_DUALBANK));
 891:Drivers/STM32L4xx_HAL_Driver/Src/stm32l4xx_hal_flash_ex.c **** 
 892:Drivers/STM32L4xx_HAL_Driver/Src/stm32l4xx_hal_flash_ex.c ****       /* Set value and mask for DUALBANK option byte */
 893:Drivers/STM32L4xx_HAL_Driver/Src/stm32l4xx_hal_flash_ex.c ****       optr_reg_val |= (UserConfig & FLASH_OPTR_DUALBANK);
 894:Drivers/STM32L4xx_HAL_Driver/Src/stm32l4xx_hal_flash_ex.c ****       optr_reg_mask |= FLASH_OPTR_DUALBANK;
 895:Drivers/STM32L4xx_HAL_Driver/Src/stm32l4xx_hal_flash_ex.c **** #endif
 896:Drivers/STM32L4xx_HAL_Driver/Src/stm32l4xx_hal_flash_ex.c ****     }
 897:Drivers/STM32L4xx_HAL_Driver/Src/stm32l4xx_hal_flash_ex.c **** #endif
 898:Drivers/STM32L4xx_HAL_Driver/Src/stm32l4xx_hal_flash_ex.c **** 
 899:Drivers/STM32L4xx_HAL_Driver/Src/stm32l4xx_hal_flash_ex.c ****     if((UserType & OB_USER_nBOOT1) != 0U)
 900:Drivers/STM32L4xx_HAL_Driver/Src/stm32l4xx_hal_flash_ex.c ****     {
 901:Drivers/STM32L4xx_HAL_Driver/Src/stm32l4xx_hal_flash_ex.c ****       /* nBOOT1 option byte should be modified */
 902:Drivers/STM32L4xx_HAL_Driver/Src/stm32l4xx_hal_flash_ex.c ****       assert_param(IS_OB_USER_BOOT1(UserConfig & FLASH_OPTR_nBOOT1));
 903:Drivers/STM32L4xx_HAL_Driver/Src/stm32l4xx_hal_flash_ex.c **** 
 904:Drivers/STM32L4xx_HAL_Driver/Src/stm32l4xx_hal_flash_ex.c ****       /* Set value and mask for nBOOT1 option byte */
 905:Drivers/STM32L4xx_HAL_Driver/Src/stm32l4xx_hal_flash_ex.c ****       optr_reg_val |= (UserConfig & FLASH_OPTR_nBOOT1);
 906:Drivers/STM32L4xx_HAL_Driver/Src/stm32l4xx_hal_flash_ex.c ****       optr_reg_mask |= FLASH_OPTR_nBOOT1;
 907:Drivers/STM32L4xx_HAL_Driver/Src/stm32l4xx_hal_flash_ex.c ****     }
 908:Drivers/STM32L4xx_HAL_Driver/Src/stm32l4xx_hal_flash_ex.c **** 
 909:Drivers/STM32L4xx_HAL_Driver/Src/stm32l4xx_hal_flash_ex.c ****     if((UserType & OB_USER_SRAM2_PE) != 0U)
 910:Drivers/STM32L4xx_HAL_Driver/Src/stm32l4xx_hal_flash_ex.c ****     {
 911:Drivers/STM32L4xx_HAL_Driver/Src/stm32l4xx_hal_flash_ex.c ****       /* SRAM2_PE option byte should be modified */
 912:Drivers/STM32L4xx_HAL_Driver/Src/stm32l4xx_hal_flash_ex.c ****       assert_param(IS_OB_USER_SRAM2_PARITY(UserConfig & FLASH_OPTR_SRAM2_PE));
 913:Drivers/STM32L4xx_HAL_Driver/Src/stm32l4xx_hal_flash_ex.c **** 
 914:Drivers/STM32L4xx_HAL_Driver/Src/stm32l4xx_hal_flash_ex.c ****       /* Set value and mask for SRAM2_PE option byte */
 915:Drivers/STM32L4xx_HAL_Driver/Src/stm32l4xx_hal_flash_ex.c ****       optr_reg_val |= (UserConfig & FLASH_OPTR_SRAM2_PE);
 916:Drivers/STM32L4xx_HAL_Driver/Src/stm32l4xx_hal_flash_ex.c ****       optr_reg_mask |= FLASH_OPTR_SRAM2_PE;
 917:Drivers/STM32L4xx_HAL_Driver/Src/stm32l4xx_hal_flash_ex.c ****     }
 918:Drivers/STM32L4xx_HAL_Driver/Src/stm32l4xx_hal_flash_ex.c **** 
 919:Drivers/STM32L4xx_HAL_Driver/Src/stm32l4xx_hal_flash_ex.c ****     if((UserType & OB_USER_SRAM2_RST) != 0U)
 920:Drivers/STM32L4xx_HAL_Driver/Src/stm32l4xx_hal_flash_ex.c ****     {
 921:Drivers/STM32L4xx_HAL_Driver/Src/stm32l4xx_hal_flash_ex.c ****       /* SRAM2_RST option byte should be modified */
 922:Drivers/STM32L4xx_HAL_Driver/Src/stm32l4xx_hal_flash_ex.c ****       assert_param(IS_OB_USER_SRAM2_RST(UserConfig & FLASH_OPTR_SRAM2_RST));
 923:Drivers/STM32L4xx_HAL_Driver/Src/stm32l4xx_hal_flash_ex.c **** 
 924:Drivers/STM32L4xx_HAL_Driver/Src/stm32l4xx_hal_flash_ex.c ****       /* Set value and mask for SRAM2_RST option byte */
 925:Drivers/STM32L4xx_HAL_Driver/Src/stm32l4xx_hal_flash_ex.c ****       optr_reg_val |= (UserConfig & FLASH_OPTR_SRAM2_RST);
 926:Drivers/STM32L4xx_HAL_Driver/Src/stm32l4xx_hal_flash_ex.c ****       optr_reg_mask |= FLASH_OPTR_SRAM2_RST;
 927:Drivers/STM32L4xx_HAL_Driver/Src/stm32l4xx_hal_flash_ex.c ****     }
 928:Drivers/STM32L4xx_HAL_Driver/Src/stm32l4xx_hal_flash_ex.c **** 
 929:Drivers/STM32L4xx_HAL_Driver/Src/stm32l4xx_hal_flash_ex.c **** #if defined (STM32L412xx) || defined (STM32L422xx) || defined (STM32L431xx) || defined (STM32L432xx
 930:Drivers/STM32L4xx_HAL_Driver/Src/stm32l4xx_hal_flash_ex.c ****     defined (STM32L442xx) || defined (STM32L443xx) || defined (STM32L451xx) || defined (STM32L452xx
 931:Drivers/STM32L4xx_HAL_Driver/Src/stm32l4xx_hal_flash_ex.c ****     defined (STM32L496xx) || defined (STM32L4A6xx) || \
 932:Drivers/STM32L4xx_HAL_Driver/Src/stm32l4xx_hal_flash_ex.c ****     defined (STM32L4P5xx) || defined (STM32L4Q5xx) || \
 933:Drivers/STM32L4xx_HAL_Driver/Src/stm32l4xx_hal_flash_ex.c ****     defined (STM32L4R5xx) || defined (STM32L4R7xx) || defined (STM32L4R9xx) || defined (STM32L4S5xx
 934:Drivers/STM32L4xx_HAL_Driver/Src/stm32l4xx_hal_flash_ex.c ****     if((UserType & OB_USER_nSWBOOT0) != 0U)
 935:Drivers/STM32L4xx_HAL_Driver/Src/stm32l4xx_hal_flash_ex.c ****     {
 936:Drivers/STM32L4xx_HAL_Driver/Src/stm32l4xx_hal_flash_ex.c ****       /* nSWBOOT0 option byte should be modified */
ARM GAS  /tmp/ccQmN1qL.s 			page 19


 937:Drivers/STM32L4xx_HAL_Driver/Src/stm32l4xx_hal_flash_ex.c ****       assert_param(IS_OB_USER_SWBOOT0(UserConfig & FLASH_OPTR_nSWBOOT0));
 938:Drivers/STM32L4xx_HAL_Driver/Src/stm32l4xx_hal_flash_ex.c **** 
 939:Drivers/STM32L4xx_HAL_Driver/Src/stm32l4xx_hal_flash_ex.c ****       /* Set value and mask for nSWBOOT0 option byte */
 940:Drivers/STM32L4xx_HAL_Driver/Src/stm32l4xx_hal_flash_ex.c ****       optr_reg_val |= (UserConfig & FLASH_OPTR_nSWBOOT0);
 941:Drivers/STM32L4xx_HAL_Driver/Src/stm32l4xx_hal_flash_ex.c ****       optr_reg_mask |= FLASH_OPTR_nSWBOOT0;
 942:Drivers/STM32L4xx_HAL_Driver/Src/stm32l4xx_hal_flash_ex.c ****     }
 943:Drivers/STM32L4xx_HAL_Driver/Src/stm32l4xx_hal_flash_ex.c **** 
 944:Drivers/STM32L4xx_HAL_Driver/Src/stm32l4xx_hal_flash_ex.c ****     if((UserType & OB_USER_nBOOT0) != 0U)
 945:Drivers/STM32L4xx_HAL_Driver/Src/stm32l4xx_hal_flash_ex.c ****     {
 946:Drivers/STM32L4xx_HAL_Driver/Src/stm32l4xx_hal_flash_ex.c ****       /* nBOOT0 option byte should be modified */
 947:Drivers/STM32L4xx_HAL_Driver/Src/stm32l4xx_hal_flash_ex.c ****       assert_param(IS_OB_USER_BOOT0(UserConfig & FLASH_OPTR_nBOOT0));
 948:Drivers/STM32L4xx_HAL_Driver/Src/stm32l4xx_hal_flash_ex.c **** 
 949:Drivers/STM32L4xx_HAL_Driver/Src/stm32l4xx_hal_flash_ex.c ****       /* Set value and mask for nBOOT0 option byte */
 950:Drivers/STM32L4xx_HAL_Driver/Src/stm32l4xx_hal_flash_ex.c ****       optr_reg_val |= (UserConfig & FLASH_OPTR_nBOOT0);
 951:Drivers/STM32L4xx_HAL_Driver/Src/stm32l4xx_hal_flash_ex.c ****       optr_reg_mask |= FLASH_OPTR_nBOOT0;
 952:Drivers/STM32L4xx_HAL_Driver/Src/stm32l4xx_hal_flash_ex.c ****     }
 953:Drivers/STM32L4xx_HAL_Driver/Src/stm32l4xx_hal_flash_ex.c **** #endif
 954:Drivers/STM32L4xx_HAL_Driver/Src/stm32l4xx_hal_flash_ex.c **** 
 955:Drivers/STM32L4xx_HAL_Driver/Src/stm32l4xx_hal_flash_ex.c ****     /* Configure the option bytes register */
 956:Drivers/STM32L4xx_HAL_Driver/Src/stm32l4xx_hal_flash_ex.c ****     MODIFY_REG(FLASH->OPTR, optr_reg_mask, optr_reg_val);
 957:Drivers/STM32L4xx_HAL_Driver/Src/stm32l4xx_hal_flash_ex.c **** 
 958:Drivers/STM32L4xx_HAL_Driver/Src/stm32l4xx_hal_flash_ex.c ****     /* Set OPTSTRT Bit */
 959:Drivers/STM32L4xx_HAL_Driver/Src/stm32l4xx_hal_flash_ex.c ****     SET_BIT(FLASH->CR, FLASH_CR_OPTSTRT);
 960:Drivers/STM32L4xx_HAL_Driver/Src/stm32l4xx_hal_flash_ex.c **** 
 961:Drivers/STM32L4xx_HAL_Driver/Src/stm32l4xx_hal_flash_ex.c ****     /* Wait for last operation to be completed */
 962:Drivers/STM32L4xx_HAL_Driver/Src/stm32l4xx_hal_flash_ex.c ****     status = FLASH_WaitForLastOperation((uint32_t)FLASH_TIMEOUT_VALUE);
 963:Drivers/STM32L4xx_HAL_Driver/Src/stm32l4xx_hal_flash_ex.c **** 
 964:Drivers/STM32L4xx_HAL_Driver/Src/stm32l4xx_hal_flash_ex.c ****     /* If the option byte program operation is completed, disable the OPTSTRT Bit */
 965:Drivers/STM32L4xx_HAL_Driver/Src/stm32l4xx_hal_flash_ex.c ****     CLEAR_BIT(FLASH->CR, FLASH_CR_OPTSTRT);
 966:Drivers/STM32L4xx_HAL_Driver/Src/stm32l4xx_hal_flash_ex.c ****   }
 967:Drivers/STM32L4xx_HAL_Driver/Src/stm32l4xx_hal_flash_ex.c **** 
 968:Drivers/STM32L4xx_HAL_Driver/Src/stm32l4xx_hal_flash_ex.c ****   return status;
 969:Drivers/STM32L4xx_HAL_Driver/Src/stm32l4xx_hal_flash_ex.c **** }
 970:Drivers/STM32L4xx_HAL_Driver/Src/stm32l4xx_hal_flash_ex.c **** 
 971:Drivers/STM32L4xx_HAL_Driver/Src/stm32l4xx_hal_flash_ex.c **** /**
 972:Drivers/STM32L4xx_HAL_Driver/Src/stm32l4xx_hal_flash_ex.c ****   * @brief  Configure the Proprietary code readout protection of the desired addresses.
 973:Drivers/STM32L4xx_HAL_Driver/Src/stm32l4xx_hal_flash_ex.c ****   *
 974:Drivers/STM32L4xx_HAL_Driver/Src/stm32l4xx_hal_flash_ex.c ****   * @note   To configure the PCROP options, the option lock bit OPTLOCK must be
 975:Drivers/STM32L4xx_HAL_Driver/Src/stm32l4xx_hal_flash_ex.c ****   *         cleared with the call of the HAL_FLASH_OB_Unlock() function.
 976:Drivers/STM32L4xx_HAL_Driver/Src/stm32l4xx_hal_flash_ex.c ****   * @note   To validate the PCROP options, the option bytes must be reloaded
 977:Drivers/STM32L4xx_HAL_Driver/Src/stm32l4xx_hal_flash_ex.c ****   *         through the call of the HAL_FLASH_OB_Launch() function.
 978:Drivers/STM32L4xx_HAL_Driver/Src/stm32l4xx_hal_flash_ex.c ****   *
 979:Drivers/STM32L4xx_HAL_Driver/Src/stm32l4xx_hal_flash_ex.c ****   * @param  PCROPConfig specifies the configuration (Bank to be configured and PCROP_RDP option).
 980:Drivers/STM32L4xx_HAL_Driver/Src/stm32l4xx_hal_flash_ex.c ****   *          This parameter must be a combination of FLASH_BANK_1 or FLASH_BANK_2
 981:Drivers/STM32L4xx_HAL_Driver/Src/stm32l4xx_hal_flash_ex.c ****   *          with OB_PCROP_RDP_NOT_ERASE or OB_PCROP_RDP_ERASE
 982:Drivers/STM32L4xx_HAL_Driver/Src/stm32l4xx_hal_flash_ex.c ****   *
 983:Drivers/STM32L4xx_HAL_Driver/Src/stm32l4xx_hal_flash_ex.c ****   * @param  PCROPStartAddr specifies the start address of the Proprietary code readout protection
 984:Drivers/STM32L4xx_HAL_Driver/Src/stm32l4xx_hal_flash_ex.c ****   *          This parameter can be an address between begin and end of the bank
 985:Drivers/STM32L4xx_HAL_Driver/Src/stm32l4xx_hal_flash_ex.c ****   *
 986:Drivers/STM32L4xx_HAL_Driver/Src/stm32l4xx_hal_flash_ex.c ****   * @param  PCROPEndAddr specifies the end address of the Proprietary code readout protection
 987:Drivers/STM32L4xx_HAL_Driver/Src/stm32l4xx_hal_flash_ex.c ****   *          This parameter can be an address between PCROPStartAddr and end of the bank
 988:Drivers/STM32L4xx_HAL_Driver/Src/stm32l4xx_hal_flash_ex.c ****   *
 989:Drivers/STM32L4xx_HAL_Driver/Src/stm32l4xx_hal_flash_ex.c ****   * @retval HAL Status
 990:Drivers/STM32L4xx_HAL_Driver/Src/stm32l4xx_hal_flash_ex.c ****   */
 991:Drivers/STM32L4xx_HAL_Driver/Src/stm32l4xx_hal_flash_ex.c **** static HAL_StatusTypeDef FLASH_OB_PCROPConfig(uint32_t PCROPConfig, uint32_t PCROPStartAddr, uint32
 992:Drivers/STM32L4xx_HAL_Driver/Src/stm32l4xx_hal_flash_ex.c **** {
 993:Drivers/STM32L4xx_HAL_Driver/Src/stm32l4xx_hal_flash_ex.c ****   HAL_StatusTypeDef status;
ARM GAS  /tmp/ccQmN1qL.s 			page 20


 994:Drivers/STM32L4xx_HAL_Driver/Src/stm32l4xx_hal_flash_ex.c ****   uint32_t reg_value;
 995:Drivers/STM32L4xx_HAL_Driver/Src/stm32l4xx_hal_flash_ex.c ****   uint32_t bank1_addr;
 996:Drivers/STM32L4xx_HAL_Driver/Src/stm32l4xx_hal_flash_ex.c **** #if defined (STM32L471xx) || defined (STM32L475xx) || defined (STM32L476xx) || defined (STM32L485xx
 997:Drivers/STM32L4xx_HAL_Driver/Src/stm32l4xx_hal_flash_ex.c ****     defined (STM32L496xx) || defined (STM32L4A6xx) || \
 998:Drivers/STM32L4xx_HAL_Driver/Src/stm32l4xx_hal_flash_ex.c ****     defined (STM32L4P5xx) || defined (STM32L4Q5xx) || \
 999:Drivers/STM32L4xx_HAL_Driver/Src/stm32l4xx_hal_flash_ex.c ****     defined (STM32L4R5xx) || defined (STM32L4R7xx) || defined (STM32L4R9xx) || defined (STM32L4S5xx
1000:Drivers/STM32L4xx_HAL_Driver/Src/stm32l4xx_hal_flash_ex.c ****   uint32_t bank2_addr;
1001:Drivers/STM32L4xx_HAL_Driver/Src/stm32l4xx_hal_flash_ex.c **** #endif
1002:Drivers/STM32L4xx_HAL_Driver/Src/stm32l4xx_hal_flash_ex.c **** 
1003:Drivers/STM32L4xx_HAL_Driver/Src/stm32l4xx_hal_flash_ex.c ****   /* Check the parameters */
1004:Drivers/STM32L4xx_HAL_Driver/Src/stm32l4xx_hal_flash_ex.c ****   assert_param(IS_FLASH_BANK_EXCLUSIVE(PCROPConfig & FLASH_BANK_BOTH));
1005:Drivers/STM32L4xx_HAL_Driver/Src/stm32l4xx_hal_flash_ex.c ****   assert_param(IS_OB_PCROP_RDP(PCROPConfig & FLASH_PCROP1ER_PCROP_RDP));
1006:Drivers/STM32L4xx_HAL_Driver/Src/stm32l4xx_hal_flash_ex.c ****   assert_param(IS_FLASH_MAIN_MEM_ADDRESS(PCROPStartAddr));
1007:Drivers/STM32L4xx_HAL_Driver/Src/stm32l4xx_hal_flash_ex.c ****   assert_param(IS_FLASH_MAIN_MEM_ADDRESS(PCROPEndAddr));
1008:Drivers/STM32L4xx_HAL_Driver/Src/stm32l4xx_hal_flash_ex.c **** 
1009:Drivers/STM32L4xx_HAL_Driver/Src/stm32l4xx_hal_flash_ex.c ****   /* Wait for last operation to be completed */
1010:Drivers/STM32L4xx_HAL_Driver/Src/stm32l4xx_hal_flash_ex.c ****   status = FLASH_WaitForLastOperation((uint32_t)FLASH_TIMEOUT_VALUE);
1011:Drivers/STM32L4xx_HAL_Driver/Src/stm32l4xx_hal_flash_ex.c **** 
1012:Drivers/STM32L4xx_HAL_Driver/Src/stm32l4xx_hal_flash_ex.c ****   if(status == HAL_OK)
1013:Drivers/STM32L4xx_HAL_Driver/Src/stm32l4xx_hal_flash_ex.c ****   {
1014:Drivers/STM32L4xx_HAL_Driver/Src/stm32l4xx_hal_flash_ex.c **** #if defined (STM32L471xx) || defined (STM32L475xx) || defined (STM32L476xx) || defined (STM32L485xx
1015:Drivers/STM32L4xx_HAL_Driver/Src/stm32l4xx_hal_flash_ex.c ****     defined (STM32L496xx) || defined (STM32L4A6xx) || \
1016:Drivers/STM32L4xx_HAL_Driver/Src/stm32l4xx_hal_flash_ex.c ****     defined (STM32L4P5xx) || defined (STM32L4Q5xx) || \
1017:Drivers/STM32L4xx_HAL_Driver/Src/stm32l4xx_hal_flash_ex.c ****     defined (STM32L4R5xx) || defined (STM32L4R7xx) || defined (STM32L4R9xx) || defined (STM32L4S5xx
1018:Drivers/STM32L4xx_HAL_Driver/Src/stm32l4xx_hal_flash_ex.c ****     /* Get the information about the bank swapping */
1019:Drivers/STM32L4xx_HAL_Driver/Src/stm32l4xx_hal_flash_ex.c ****     if (READ_BIT(SYSCFG->MEMRMP, SYSCFG_MEMRMP_FB_MODE) == 0U)
1020:Drivers/STM32L4xx_HAL_Driver/Src/stm32l4xx_hal_flash_ex.c ****     {
1021:Drivers/STM32L4xx_HAL_Driver/Src/stm32l4xx_hal_flash_ex.c ****       bank1_addr = FLASH_BASE;
1022:Drivers/STM32L4xx_HAL_Driver/Src/stm32l4xx_hal_flash_ex.c ****       bank2_addr = FLASH_BASE + FLASH_BANK_SIZE;
1023:Drivers/STM32L4xx_HAL_Driver/Src/stm32l4xx_hal_flash_ex.c ****     }
1024:Drivers/STM32L4xx_HAL_Driver/Src/stm32l4xx_hal_flash_ex.c ****     else
1025:Drivers/STM32L4xx_HAL_Driver/Src/stm32l4xx_hal_flash_ex.c ****     {
1026:Drivers/STM32L4xx_HAL_Driver/Src/stm32l4xx_hal_flash_ex.c ****       bank1_addr = FLASH_BASE + FLASH_BANK_SIZE;
1027:Drivers/STM32L4xx_HAL_Driver/Src/stm32l4xx_hal_flash_ex.c ****       bank2_addr = FLASH_BASE;
1028:Drivers/STM32L4xx_HAL_Driver/Src/stm32l4xx_hal_flash_ex.c ****     }
1029:Drivers/STM32L4xx_HAL_Driver/Src/stm32l4xx_hal_flash_ex.c **** #else
1030:Drivers/STM32L4xx_HAL_Driver/Src/stm32l4xx_hal_flash_ex.c ****     bank1_addr = FLASH_BASE;
1031:Drivers/STM32L4xx_HAL_Driver/Src/stm32l4xx_hal_flash_ex.c **** #endif
1032:Drivers/STM32L4xx_HAL_Driver/Src/stm32l4xx_hal_flash_ex.c **** 
1033:Drivers/STM32L4xx_HAL_Driver/Src/stm32l4xx_hal_flash_ex.c **** #if defined (STM32L4P5xx) || defined (STM32L4Q5xx) || defined (STM32L4R5xx) || defined (STM32L4R7xx
1034:Drivers/STM32L4xx_HAL_Driver/Src/stm32l4xx_hal_flash_ex.c ****     if (READ_BIT(FLASH->OPTR, FLASH_OPTR_DBANK) == 0U)
1035:Drivers/STM32L4xx_HAL_Driver/Src/stm32l4xx_hal_flash_ex.c ****     {
1036:Drivers/STM32L4xx_HAL_Driver/Src/stm32l4xx_hal_flash_ex.c ****       /* Configure the Proprietary code readout protection */
1037:Drivers/STM32L4xx_HAL_Driver/Src/stm32l4xx_hal_flash_ex.c ****       if((PCROPConfig & FLASH_BANK_BOTH) == FLASH_BANK_1)
1038:Drivers/STM32L4xx_HAL_Driver/Src/stm32l4xx_hal_flash_ex.c ****       {
1039:Drivers/STM32L4xx_HAL_Driver/Src/stm32l4xx_hal_flash_ex.c ****         reg_value = ((PCROPStartAddr - FLASH_BASE) >> 4);
1040:Drivers/STM32L4xx_HAL_Driver/Src/stm32l4xx_hal_flash_ex.c ****         MODIFY_REG(FLASH->PCROP1SR, FLASH_PCROP1SR_PCROP1_STRT, reg_value);
1041:Drivers/STM32L4xx_HAL_Driver/Src/stm32l4xx_hal_flash_ex.c **** 
1042:Drivers/STM32L4xx_HAL_Driver/Src/stm32l4xx_hal_flash_ex.c ****         reg_value = ((PCROPEndAddr - FLASH_BASE) >> 4);
1043:Drivers/STM32L4xx_HAL_Driver/Src/stm32l4xx_hal_flash_ex.c ****         MODIFY_REG(FLASH->PCROP1ER, FLASH_PCROP1ER_PCROP1_END, reg_value);
1044:Drivers/STM32L4xx_HAL_Driver/Src/stm32l4xx_hal_flash_ex.c ****       }
1045:Drivers/STM32L4xx_HAL_Driver/Src/stm32l4xx_hal_flash_ex.c ****       else if((PCROPConfig & FLASH_BANK_BOTH) == FLASH_BANK_2)
1046:Drivers/STM32L4xx_HAL_Driver/Src/stm32l4xx_hal_flash_ex.c ****       {
1047:Drivers/STM32L4xx_HAL_Driver/Src/stm32l4xx_hal_flash_ex.c ****         reg_value = ((PCROPStartAddr - FLASH_BASE) >> 4);
1048:Drivers/STM32L4xx_HAL_Driver/Src/stm32l4xx_hal_flash_ex.c ****         MODIFY_REG(FLASH->PCROP2SR, FLASH_PCROP2SR_PCROP2_STRT, reg_value);
1049:Drivers/STM32L4xx_HAL_Driver/Src/stm32l4xx_hal_flash_ex.c **** 
1050:Drivers/STM32L4xx_HAL_Driver/Src/stm32l4xx_hal_flash_ex.c ****         reg_value = ((PCROPEndAddr - FLASH_BASE) >> 4);
ARM GAS  /tmp/ccQmN1qL.s 			page 21


1051:Drivers/STM32L4xx_HAL_Driver/Src/stm32l4xx_hal_flash_ex.c ****         MODIFY_REG(FLASH->PCROP2ER, FLASH_PCROP2ER_PCROP2_END, reg_value);
1052:Drivers/STM32L4xx_HAL_Driver/Src/stm32l4xx_hal_flash_ex.c ****       }
1053:Drivers/STM32L4xx_HAL_Driver/Src/stm32l4xx_hal_flash_ex.c ****       else
1054:Drivers/STM32L4xx_HAL_Driver/Src/stm32l4xx_hal_flash_ex.c ****       {
1055:Drivers/STM32L4xx_HAL_Driver/Src/stm32l4xx_hal_flash_ex.c ****         /* Nothing to do */
1056:Drivers/STM32L4xx_HAL_Driver/Src/stm32l4xx_hal_flash_ex.c ****       }
1057:Drivers/STM32L4xx_HAL_Driver/Src/stm32l4xx_hal_flash_ex.c ****     }
1058:Drivers/STM32L4xx_HAL_Driver/Src/stm32l4xx_hal_flash_ex.c ****     else
1059:Drivers/STM32L4xx_HAL_Driver/Src/stm32l4xx_hal_flash_ex.c **** #endif
1060:Drivers/STM32L4xx_HAL_Driver/Src/stm32l4xx_hal_flash_ex.c ****     {
1061:Drivers/STM32L4xx_HAL_Driver/Src/stm32l4xx_hal_flash_ex.c ****       /* Configure the Proprietary code readout protection */
1062:Drivers/STM32L4xx_HAL_Driver/Src/stm32l4xx_hal_flash_ex.c ****       if((PCROPConfig & FLASH_BANK_BOTH) == FLASH_BANK_1)
1063:Drivers/STM32L4xx_HAL_Driver/Src/stm32l4xx_hal_flash_ex.c ****       {
1064:Drivers/STM32L4xx_HAL_Driver/Src/stm32l4xx_hal_flash_ex.c ****         reg_value = ((PCROPStartAddr - bank1_addr) >> 3);
1065:Drivers/STM32L4xx_HAL_Driver/Src/stm32l4xx_hal_flash_ex.c ****         MODIFY_REG(FLASH->PCROP1SR, FLASH_PCROP1SR_PCROP1_STRT, reg_value);
1066:Drivers/STM32L4xx_HAL_Driver/Src/stm32l4xx_hal_flash_ex.c **** 
1067:Drivers/STM32L4xx_HAL_Driver/Src/stm32l4xx_hal_flash_ex.c ****         reg_value = ((PCROPEndAddr - bank1_addr) >> 3);
1068:Drivers/STM32L4xx_HAL_Driver/Src/stm32l4xx_hal_flash_ex.c ****         MODIFY_REG(FLASH->PCROP1ER, FLASH_PCROP1ER_PCROP1_END, reg_value);
1069:Drivers/STM32L4xx_HAL_Driver/Src/stm32l4xx_hal_flash_ex.c ****       }
1070:Drivers/STM32L4xx_HAL_Driver/Src/stm32l4xx_hal_flash_ex.c **** #if defined (STM32L471xx) || defined (STM32L475xx) || defined (STM32L476xx) || defined (STM32L485xx
1071:Drivers/STM32L4xx_HAL_Driver/Src/stm32l4xx_hal_flash_ex.c ****     defined (STM32L496xx) || defined (STM32L4A6xx) || \
1072:Drivers/STM32L4xx_HAL_Driver/Src/stm32l4xx_hal_flash_ex.c ****     defined (STM32L4P5xx) || defined (STM32L4Q5xx) || \
1073:Drivers/STM32L4xx_HAL_Driver/Src/stm32l4xx_hal_flash_ex.c ****     defined (STM32L4R5xx) || defined (STM32L4R7xx) || defined (STM32L4R9xx) || defined (STM32L4S5xx
1074:Drivers/STM32L4xx_HAL_Driver/Src/stm32l4xx_hal_flash_ex.c ****       else if((PCROPConfig & FLASH_BANK_BOTH) == FLASH_BANK_2)
1075:Drivers/STM32L4xx_HAL_Driver/Src/stm32l4xx_hal_flash_ex.c ****       {
1076:Drivers/STM32L4xx_HAL_Driver/Src/stm32l4xx_hal_flash_ex.c ****         reg_value = ((PCROPStartAddr - bank2_addr) >> 3);
1077:Drivers/STM32L4xx_HAL_Driver/Src/stm32l4xx_hal_flash_ex.c ****         MODIFY_REG(FLASH->PCROP2SR, FLASH_PCROP2SR_PCROP2_STRT, reg_value);
1078:Drivers/STM32L4xx_HAL_Driver/Src/stm32l4xx_hal_flash_ex.c **** 
1079:Drivers/STM32L4xx_HAL_Driver/Src/stm32l4xx_hal_flash_ex.c ****         reg_value = ((PCROPEndAddr - bank2_addr) >> 3);
1080:Drivers/STM32L4xx_HAL_Driver/Src/stm32l4xx_hal_flash_ex.c ****         MODIFY_REG(FLASH->PCROP2ER, FLASH_PCROP2ER_PCROP2_END, reg_value);
1081:Drivers/STM32L4xx_HAL_Driver/Src/stm32l4xx_hal_flash_ex.c ****       }
1082:Drivers/STM32L4xx_HAL_Driver/Src/stm32l4xx_hal_flash_ex.c **** #endif
1083:Drivers/STM32L4xx_HAL_Driver/Src/stm32l4xx_hal_flash_ex.c ****       else
1084:Drivers/STM32L4xx_HAL_Driver/Src/stm32l4xx_hal_flash_ex.c ****       {
1085:Drivers/STM32L4xx_HAL_Driver/Src/stm32l4xx_hal_flash_ex.c ****         /* Nothing to do */
1086:Drivers/STM32L4xx_HAL_Driver/Src/stm32l4xx_hal_flash_ex.c ****       }
1087:Drivers/STM32L4xx_HAL_Driver/Src/stm32l4xx_hal_flash_ex.c ****     }
1088:Drivers/STM32L4xx_HAL_Driver/Src/stm32l4xx_hal_flash_ex.c **** 
1089:Drivers/STM32L4xx_HAL_Driver/Src/stm32l4xx_hal_flash_ex.c ****     MODIFY_REG(FLASH->PCROP1ER, FLASH_PCROP1ER_PCROP_RDP, (PCROPConfig & FLASH_PCROP1ER_PCROP_RDP))
1090:Drivers/STM32L4xx_HAL_Driver/Src/stm32l4xx_hal_flash_ex.c **** 
1091:Drivers/STM32L4xx_HAL_Driver/Src/stm32l4xx_hal_flash_ex.c ****     /* Set OPTSTRT Bit */
1092:Drivers/STM32L4xx_HAL_Driver/Src/stm32l4xx_hal_flash_ex.c ****     SET_BIT(FLASH->CR, FLASH_CR_OPTSTRT);
1093:Drivers/STM32L4xx_HAL_Driver/Src/stm32l4xx_hal_flash_ex.c **** 
1094:Drivers/STM32L4xx_HAL_Driver/Src/stm32l4xx_hal_flash_ex.c ****     /* Wait for last operation to be completed */
1095:Drivers/STM32L4xx_HAL_Driver/Src/stm32l4xx_hal_flash_ex.c ****     status = FLASH_WaitForLastOperation((uint32_t)FLASH_TIMEOUT_VALUE);
1096:Drivers/STM32L4xx_HAL_Driver/Src/stm32l4xx_hal_flash_ex.c **** 
1097:Drivers/STM32L4xx_HAL_Driver/Src/stm32l4xx_hal_flash_ex.c ****     /* If the option byte program operation is completed, disable the OPTSTRT Bit */
1098:Drivers/STM32L4xx_HAL_Driver/Src/stm32l4xx_hal_flash_ex.c ****     CLEAR_BIT(FLASH->CR, FLASH_CR_OPTSTRT);
1099:Drivers/STM32L4xx_HAL_Driver/Src/stm32l4xx_hal_flash_ex.c ****   }
1100:Drivers/STM32L4xx_HAL_Driver/Src/stm32l4xx_hal_flash_ex.c **** 
1101:Drivers/STM32L4xx_HAL_Driver/Src/stm32l4xx_hal_flash_ex.c ****   return status;
1102:Drivers/STM32L4xx_HAL_Driver/Src/stm32l4xx_hal_flash_ex.c **** }
1103:Drivers/STM32L4xx_HAL_Driver/Src/stm32l4xx_hal_flash_ex.c **** 
1104:Drivers/STM32L4xx_HAL_Driver/Src/stm32l4xx_hal_flash_ex.c **** /**
1105:Drivers/STM32L4xx_HAL_Driver/Src/stm32l4xx_hal_flash_ex.c ****   * @brief  Return the FLASH Write Protection Option Bytes value.
1106:Drivers/STM32L4xx_HAL_Driver/Src/stm32l4xx_hal_flash_ex.c ****   *
1107:Drivers/STM32L4xx_HAL_Driver/Src/stm32l4xx_hal_flash_ex.c ****   * @param[in]  WRPArea: specifies the area to be returned.
ARM GAS  /tmp/ccQmN1qL.s 			page 22


1108:Drivers/STM32L4xx_HAL_Driver/Src/stm32l4xx_hal_flash_ex.c ****   *          This parameter can be one of the following values:
1109:Drivers/STM32L4xx_HAL_Driver/Src/stm32l4xx_hal_flash_ex.c ****   *            @arg OB_WRPAREA_BANK1_AREAA: Flash Bank 1 Area A
1110:Drivers/STM32L4xx_HAL_Driver/Src/stm32l4xx_hal_flash_ex.c ****   *            @arg OB_WRPAREA_BANK1_AREAB: Flash Bank 1 Area B
1111:Drivers/STM32L4xx_HAL_Driver/Src/stm32l4xx_hal_flash_ex.c ****   *            @arg OB_WRPAREA_BANK2_AREAA: Flash Bank 2 Area A (don't apply to STM32L43x/STM32L44x
1112:Drivers/STM32L4xx_HAL_Driver/Src/stm32l4xx_hal_flash_ex.c ****   *            @arg OB_WRPAREA_BANK2_AREAB: Flash Bank 2 Area B (don't apply to STM32L43x/STM32L44x
1113:Drivers/STM32L4xx_HAL_Driver/Src/stm32l4xx_hal_flash_ex.c ****   *
1114:Drivers/STM32L4xx_HAL_Driver/Src/stm32l4xx_hal_flash_ex.c ****   * @param[out]  WRPStartOffset: specifies the address where to copied the start page
1115:Drivers/STM32L4xx_HAL_Driver/Src/stm32l4xx_hal_flash_ex.c ****   *                         of the write protected area
1116:Drivers/STM32L4xx_HAL_Driver/Src/stm32l4xx_hal_flash_ex.c ****   *
1117:Drivers/STM32L4xx_HAL_Driver/Src/stm32l4xx_hal_flash_ex.c ****   * @param[out]  WRDPEndOffset: specifies the address where to copied the end page of
1118:Drivers/STM32L4xx_HAL_Driver/Src/stm32l4xx_hal_flash_ex.c ****   *                        the write protected area
1119:Drivers/STM32L4xx_HAL_Driver/Src/stm32l4xx_hal_flash_ex.c ****   *
1120:Drivers/STM32L4xx_HAL_Driver/Src/stm32l4xx_hal_flash_ex.c ****   * @retval None
1121:Drivers/STM32L4xx_HAL_Driver/Src/stm32l4xx_hal_flash_ex.c ****   */
1122:Drivers/STM32L4xx_HAL_Driver/Src/stm32l4xx_hal_flash_ex.c **** static void FLASH_OB_GetWRP(uint32_t WRPArea, uint32_t * WRPStartOffset, uint32_t * WRDPEndOffset)
1123:Drivers/STM32L4xx_HAL_Driver/Src/stm32l4xx_hal_flash_ex.c **** {
  94              		.loc 1 1123 1 is_stmt 1 view -0
  95              		.cfi_startproc
  96              		@ args = 0, pretend = 0, frame = 0
  97              		@ frame_needed = 0, uses_anonymous_args = 0
  98              		@ link register save eliminated.
1124:Drivers/STM32L4xx_HAL_Driver/Src/stm32l4xx_hal_flash_ex.c ****   /* Get the configuration of the write protected area */
1125:Drivers/STM32L4xx_HAL_Driver/Src/stm32l4xx_hal_flash_ex.c ****   if(WRPArea == OB_WRPAREA_BANK1_AREAA)
  99              		.loc 1 1125 3 view .LVU15
 100              		.loc 1 1125 5 is_stmt 0 view .LVU16
 101 0000 40B9     		cbnz	r0, .L8
1126:Drivers/STM32L4xx_HAL_Driver/Src/stm32l4xx_hal_flash_ex.c ****   {
1127:Drivers/STM32L4xx_HAL_Driver/Src/stm32l4xx_hal_flash_ex.c ****     *WRPStartOffset = READ_BIT(FLASH->WRP1AR, FLASH_WRP1AR_WRP1A_STRT);
 102              		.loc 1 1127 5 is_stmt 1 view .LVU17
 103              		.loc 1 1127 23 is_stmt 0 view .LVU18
 104 0002 1548     		ldr	r0, .L15
 105              	.LVL2:
 106              		.loc 1 1127 23 view .LVU19
 107 0004 C36A     		ldr	r3, [r0, #44]
 108 0006 DBB2     		uxtb	r3, r3
 109              		.loc 1 1127 21 view .LVU20
 110 0008 0B60     		str	r3, [r1]
1128:Drivers/STM32L4xx_HAL_Driver/Src/stm32l4xx_hal_flash_ex.c ****     *WRDPEndOffset = (READ_BIT(FLASH->WRP1AR, FLASH_WRP1AR_WRP1A_END) >> 16);
 111              		.loc 1 1128 5 is_stmt 1 view .LVU21
 112              		.loc 1 1128 23 is_stmt 0 view .LVU22
 113 000a C36A     		ldr	r3, [r0, #44]
 114              		.loc 1 1128 71 view .LVU23
 115 000c C3F30743 		ubfx	r3, r3, #16, #8
 116              		.loc 1 1128 20 view .LVU24
 117 0010 1360     		str	r3, [r2]
 118 0012 7047     		bx	lr
 119              	.LVL3:
 120              	.L8:
1129:Drivers/STM32L4xx_HAL_Driver/Src/stm32l4xx_hal_flash_ex.c ****   }
1130:Drivers/STM32L4xx_HAL_Driver/Src/stm32l4xx_hal_flash_ex.c ****   else if(WRPArea == OB_WRPAREA_BANK1_AREAB)
 121              		.loc 1 1130 8 is_stmt 1 view .LVU25
 122              		.loc 1 1130 10 is_stmt 0 view .LVU26
 123 0014 0128     		cmp	r0, #1
 124 0016 04D0     		beq	.L12
1131:Drivers/STM32L4xx_HAL_Driver/Src/stm32l4xx_hal_flash_ex.c ****   {
1132:Drivers/STM32L4xx_HAL_Driver/Src/stm32l4xx_hal_flash_ex.c ****     *WRPStartOffset = READ_BIT(FLASH->WRP1BR, FLASH_WRP1BR_WRP1B_STRT);
1133:Drivers/STM32L4xx_HAL_Driver/Src/stm32l4xx_hal_flash_ex.c ****     *WRDPEndOffset = (READ_BIT(FLASH->WRP1BR, FLASH_WRP1BR_WRP1B_END) >> 16);
ARM GAS  /tmp/ccQmN1qL.s 			page 23


1134:Drivers/STM32L4xx_HAL_Driver/Src/stm32l4xx_hal_flash_ex.c ****   }
1135:Drivers/STM32L4xx_HAL_Driver/Src/stm32l4xx_hal_flash_ex.c **** #if defined (STM32L471xx) || defined (STM32L475xx) || defined (STM32L476xx) || defined (STM32L485xx
1136:Drivers/STM32L4xx_HAL_Driver/Src/stm32l4xx_hal_flash_ex.c ****     defined (STM32L496xx) || defined (STM32L4A6xx) || \
1137:Drivers/STM32L4xx_HAL_Driver/Src/stm32l4xx_hal_flash_ex.c ****     defined (STM32L4P5xx) || defined (STM32L4Q5xx) || \
1138:Drivers/STM32L4xx_HAL_Driver/Src/stm32l4xx_hal_flash_ex.c ****     defined (STM32L4R5xx) || defined (STM32L4R7xx) || defined (STM32L4R9xx) || defined (STM32L4S5xx
1139:Drivers/STM32L4xx_HAL_Driver/Src/stm32l4xx_hal_flash_ex.c ****   else if(WRPArea == OB_WRPAREA_BANK2_AREAA)
 125              		.loc 1 1139 8 is_stmt 1 view .LVU27
 126              		.loc 1 1139 10 is_stmt 0 view .LVU28
 127 0018 0228     		cmp	r0, #2
 128 001a 0BD0     		beq	.L13
1140:Drivers/STM32L4xx_HAL_Driver/Src/stm32l4xx_hal_flash_ex.c ****   {
1141:Drivers/STM32L4xx_HAL_Driver/Src/stm32l4xx_hal_flash_ex.c ****     *WRPStartOffset = READ_BIT(FLASH->WRP2AR, FLASH_WRP2AR_WRP2A_STRT);
1142:Drivers/STM32L4xx_HAL_Driver/Src/stm32l4xx_hal_flash_ex.c ****     *WRDPEndOffset = (READ_BIT(FLASH->WRP2AR, FLASH_WRP2AR_WRP2A_END) >> 16);
1143:Drivers/STM32L4xx_HAL_Driver/Src/stm32l4xx_hal_flash_ex.c ****   }
1144:Drivers/STM32L4xx_HAL_Driver/Src/stm32l4xx_hal_flash_ex.c ****   else if(WRPArea == OB_WRPAREA_BANK2_AREAB)
 129              		.loc 1 1144 8 is_stmt 1 view .LVU29
 130              		.loc 1 1144 10 is_stmt 0 view .LVU30
 131 001c 0428     		cmp	r0, #4
 132 001e 12D0     		beq	.L14
 133              	.LVL4:
 134              	.L7:
1145:Drivers/STM32L4xx_HAL_Driver/Src/stm32l4xx_hal_flash_ex.c ****   {
1146:Drivers/STM32L4xx_HAL_Driver/Src/stm32l4xx_hal_flash_ex.c ****     *WRPStartOffset = READ_BIT(FLASH->WRP2BR, FLASH_WRP2BR_WRP2B_STRT);
1147:Drivers/STM32L4xx_HAL_Driver/Src/stm32l4xx_hal_flash_ex.c ****     *WRDPEndOffset = (READ_BIT(FLASH->WRP2BR, FLASH_WRP2BR_WRP2B_END) >> 16);
1148:Drivers/STM32L4xx_HAL_Driver/Src/stm32l4xx_hal_flash_ex.c ****   }
1149:Drivers/STM32L4xx_HAL_Driver/Src/stm32l4xx_hal_flash_ex.c **** #endif
1150:Drivers/STM32L4xx_HAL_Driver/Src/stm32l4xx_hal_flash_ex.c ****   else
1151:Drivers/STM32L4xx_HAL_Driver/Src/stm32l4xx_hal_flash_ex.c ****   {
1152:Drivers/STM32L4xx_HAL_Driver/Src/stm32l4xx_hal_flash_ex.c ****     /* Nothing to do */
1153:Drivers/STM32L4xx_HAL_Driver/Src/stm32l4xx_hal_flash_ex.c ****   }
1154:Drivers/STM32L4xx_HAL_Driver/Src/stm32l4xx_hal_flash_ex.c **** }
 135              		.loc 1 1154 1 view .LVU31
 136 0020 7047     		bx	lr
 137              	.LVL5:
 138              	.L12:
1132:Drivers/STM32L4xx_HAL_Driver/Src/stm32l4xx_hal_flash_ex.c ****     *WRDPEndOffset = (READ_BIT(FLASH->WRP1BR, FLASH_WRP1BR_WRP1B_END) >> 16);
 139              		.loc 1 1132 5 is_stmt 1 view .LVU32
1132:Drivers/STM32L4xx_HAL_Driver/Src/stm32l4xx_hal_flash_ex.c ****     *WRDPEndOffset = (READ_BIT(FLASH->WRP1BR, FLASH_WRP1BR_WRP1B_END) >> 16);
 140              		.loc 1 1132 23 is_stmt 0 view .LVU33
 141 0022 0D48     		ldr	r0, .L15
 142              	.LVL6:
1132:Drivers/STM32L4xx_HAL_Driver/Src/stm32l4xx_hal_flash_ex.c ****     *WRDPEndOffset = (READ_BIT(FLASH->WRP1BR, FLASH_WRP1BR_WRP1B_END) >> 16);
 143              		.loc 1 1132 23 view .LVU34
 144 0024 036B     		ldr	r3, [r0, #48]
 145 0026 DBB2     		uxtb	r3, r3
1132:Drivers/STM32L4xx_HAL_Driver/Src/stm32l4xx_hal_flash_ex.c ****     *WRDPEndOffset = (READ_BIT(FLASH->WRP1BR, FLASH_WRP1BR_WRP1B_END) >> 16);
 146              		.loc 1 1132 21 view .LVU35
 147 0028 0B60     		str	r3, [r1]
1133:Drivers/STM32L4xx_HAL_Driver/Src/stm32l4xx_hal_flash_ex.c ****   }
 148              		.loc 1 1133 5 is_stmt 1 view .LVU36
1133:Drivers/STM32L4xx_HAL_Driver/Src/stm32l4xx_hal_flash_ex.c ****   }
 149              		.loc 1 1133 23 is_stmt 0 view .LVU37
 150 002a 036B     		ldr	r3, [r0, #48]
1133:Drivers/STM32L4xx_HAL_Driver/Src/stm32l4xx_hal_flash_ex.c ****   }
 151              		.loc 1 1133 71 view .LVU38
 152 002c C3F30743 		ubfx	r3, r3, #16, #8
1133:Drivers/STM32L4xx_HAL_Driver/Src/stm32l4xx_hal_flash_ex.c ****   }
ARM GAS  /tmp/ccQmN1qL.s 			page 24


 153              		.loc 1 1133 20 view .LVU39
 154 0030 1360     		str	r3, [r2]
 155 0032 7047     		bx	lr
 156              	.LVL7:
 157              	.L13:
1141:Drivers/STM32L4xx_HAL_Driver/Src/stm32l4xx_hal_flash_ex.c ****     *WRDPEndOffset = (READ_BIT(FLASH->WRP2AR, FLASH_WRP2AR_WRP2A_END) >> 16);
 158              		.loc 1 1141 5 is_stmt 1 view .LVU40
1141:Drivers/STM32L4xx_HAL_Driver/Src/stm32l4xx_hal_flash_ex.c ****     *WRDPEndOffset = (READ_BIT(FLASH->WRP2AR, FLASH_WRP2AR_WRP2A_END) >> 16);
 159              		.loc 1 1141 23 is_stmt 0 view .LVU41
 160 0034 0848     		ldr	r0, .L15
 161              	.LVL8:
1141:Drivers/STM32L4xx_HAL_Driver/Src/stm32l4xx_hal_flash_ex.c ****     *WRDPEndOffset = (READ_BIT(FLASH->WRP2AR, FLASH_WRP2AR_WRP2A_END) >> 16);
 162              		.loc 1 1141 23 view .LVU42
 163 0036 C36C     		ldr	r3, [r0, #76]
 164 0038 DBB2     		uxtb	r3, r3
1141:Drivers/STM32L4xx_HAL_Driver/Src/stm32l4xx_hal_flash_ex.c ****     *WRDPEndOffset = (READ_BIT(FLASH->WRP2AR, FLASH_WRP2AR_WRP2A_END) >> 16);
 165              		.loc 1 1141 21 view .LVU43
 166 003a 0B60     		str	r3, [r1]
1142:Drivers/STM32L4xx_HAL_Driver/Src/stm32l4xx_hal_flash_ex.c ****   }
 167              		.loc 1 1142 5 is_stmt 1 view .LVU44
1142:Drivers/STM32L4xx_HAL_Driver/Src/stm32l4xx_hal_flash_ex.c ****   }
 168              		.loc 1 1142 23 is_stmt 0 view .LVU45
 169 003c C36C     		ldr	r3, [r0, #76]
1142:Drivers/STM32L4xx_HAL_Driver/Src/stm32l4xx_hal_flash_ex.c ****   }
 170              		.loc 1 1142 71 view .LVU46
 171 003e C3F30743 		ubfx	r3, r3, #16, #8
1142:Drivers/STM32L4xx_HAL_Driver/Src/stm32l4xx_hal_flash_ex.c ****   }
 172              		.loc 1 1142 20 view .LVU47
 173 0042 1360     		str	r3, [r2]
 174 0044 7047     		bx	lr
 175              	.LVL9:
 176              	.L14:
1146:Drivers/STM32L4xx_HAL_Driver/Src/stm32l4xx_hal_flash_ex.c ****     *WRDPEndOffset = (READ_BIT(FLASH->WRP2BR, FLASH_WRP2BR_WRP2B_END) >> 16);
 177              		.loc 1 1146 5 is_stmt 1 view .LVU48
1146:Drivers/STM32L4xx_HAL_Driver/Src/stm32l4xx_hal_flash_ex.c ****     *WRDPEndOffset = (READ_BIT(FLASH->WRP2BR, FLASH_WRP2BR_WRP2B_END) >> 16);
 178              		.loc 1 1146 23 is_stmt 0 view .LVU49
 179 0046 0448     		ldr	r0, .L15
 180              	.LVL10:
1146:Drivers/STM32L4xx_HAL_Driver/Src/stm32l4xx_hal_flash_ex.c ****     *WRDPEndOffset = (READ_BIT(FLASH->WRP2BR, FLASH_WRP2BR_WRP2B_END) >> 16);
 181              		.loc 1 1146 23 view .LVU50
 182 0048 036D     		ldr	r3, [r0, #80]
 183 004a DBB2     		uxtb	r3, r3
1146:Drivers/STM32L4xx_HAL_Driver/Src/stm32l4xx_hal_flash_ex.c ****     *WRDPEndOffset = (READ_BIT(FLASH->WRP2BR, FLASH_WRP2BR_WRP2B_END) >> 16);
 184              		.loc 1 1146 21 view .LVU51
 185 004c 0B60     		str	r3, [r1]
1147:Drivers/STM32L4xx_HAL_Driver/Src/stm32l4xx_hal_flash_ex.c ****   }
 186              		.loc 1 1147 5 is_stmt 1 view .LVU52
1147:Drivers/STM32L4xx_HAL_Driver/Src/stm32l4xx_hal_flash_ex.c ****   }
 187              		.loc 1 1147 23 is_stmt 0 view .LVU53
 188 004e 036D     		ldr	r3, [r0, #80]
1147:Drivers/STM32L4xx_HAL_Driver/Src/stm32l4xx_hal_flash_ex.c ****   }
 189              		.loc 1 1147 71 view .LVU54
 190 0050 C3F30743 		ubfx	r3, r3, #16, #8
1147:Drivers/STM32L4xx_HAL_Driver/Src/stm32l4xx_hal_flash_ex.c ****   }
 191              		.loc 1 1147 20 view .LVU55
 192 0054 1360     		str	r3, [r2]
1153:Drivers/STM32L4xx_HAL_Driver/Src/stm32l4xx_hal_flash_ex.c **** }
ARM GAS  /tmp/ccQmN1qL.s 			page 25


 193              		.loc 1 1153 3 is_stmt 1 view .LVU56
 194              		.loc 1 1154 1 is_stmt 0 view .LVU57
 195 0056 E3E7     		b	.L7
 196              	.L16:
 197              		.align	2
 198              	.L15:
 199 0058 00200240 		.word	1073881088
 200              		.cfi_endproc
 201              	.LFE146:
 203              		.section	.text.FLASH_OB_GetRDP,"ax",%progbits
 204              		.align	1
 205              		.syntax unified
 206              		.thumb
 207              		.thumb_func
 208              		.fpu fpv4-sp-d16
 210              	FLASH_OB_GetRDP:
 211              	.LFB147:
1155:Drivers/STM32L4xx_HAL_Driver/Src/stm32l4xx_hal_flash_ex.c **** 
1156:Drivers/STM32L4xx_HAL_Driver/Src/stm32l4xx_hal_flash_ex.c **** /**
1157:Drivers/STM32L4xx_HAL_Driver/Src/stm32l4xx_hal_flash_ex.c ****   * @brief  Return the FLASH Read Protection level.
1158:Drivers/STM32L4xx_HAL_Driver/Src/stm32l4xx_hal_flash_ex.c ****   * @retval FLASH ReadOut Protection Status:
1159:Drivers/STM32L4xx_HAL_Driver/Src/stm32l4xx_hal_flash_ex.c ****   *         This return value can be one of the following values:
1160:Drivers/STM32L4xx_HAL_Driver/Src/stm32l4xx_hal_flash_ex.c ****   *            @arg OB_RDP_LEVEL_0: No protection
1161:Drivers/STM32L4xx_HAL_Driver/Src/stm32l4xx_hal_flash_ex.c ****   *            @arg OB_RDP_LEVEL_1: Read protection of the memory
1162:Drivers/STM32L4xx_HAL_Driver/Src/stm32l4xx_hal_flash_ex.c ****   *            @arg OB_RDP_LEVEL_2: Full chip protection
1163:Drivers/STM32L4xx_HAL_Driver/Src/stm32l4xx_hal_flash_ex.c ****   */
1164:Drivers/STM32L4xx_HAL_Driver/Src/stm32l4xx_hal_flash_ex.c **** static uint32_t FLASH_OB_GetRDP(void)
1165:Drivers/STM32L4xx_HAL_Driver/Src/stm32l4xx_hal_flash_ex.c **** {
 212              		.loc 1 1165 1 is_stmt 1 view -0
 213              		.cfi_startproc
 214              		@ args = 0, pretend = 0, frame = 0
 215              		@ frame_needed = 0, uses_anonymous_args = 0
 216              		@ link register save eliminated.
1166:Drivers/STM32L4xx_HAL_Driver/Src/stm32l4xx_hal_flash_ex.c ****   uint32_t rdp_level = READ_BIT(FLASH->OPTR, FLASH_OPTR_RDP);
 217              		.loc 1 1166 3 view .LVU59
 218              		.loc 1 1166 24 is_stmt 0 view .LVU60
 219 0000 064B     		ldr	r3, .L21
 220 0002 1B6A     		ldr	r3, [r3, #32]
 221              		.loc 1 1166 12 view .LVU61
 222 0004 DBB2     		uxtb	r3, r3
 223              	.LVL11:
1167:Drivers/STM32L4xx_HAL_Driver/Src/stm32l4xx_hal_flash_ex.c **** 
1168:Drivers/STM32L4xx_HAL_Driver/Src/stm32l4xx_hal_flash_ex.c ****   if ((rdp_level != OB_RDP_LEVEL_0) && (rdp_level != OB_RDP_LEVEL_2))
 224              		.loc 1 1168 3 is_stmt 1 view .LVU62
 225              		.loc 1 1168 6 is_stmt 0 view .LVU63
 226 0006 AA2B     		cmp	r3, #170
 227 0008 03D0     		beq	.L18
 228              		.loc 1 1168 37 discriminator 1 view .LVU64
 229 000a CC2B     		cmp	r3, #204
 230 000c 01D0     		beq	.L18
1169:Drivers/STM32L4xx_HAL_Driver/Src/stm32l4xx_hal_flash_ex.c ****   {
1170:Drivers/STM32L4xx_HAL_Driver/Src/stm32l4xx_hal_flash_ex.c ****     return (OB_RDP_LEVEL_1);
 231              		.loc 1 1170 12 view .LVU65
 232 000e BB20     		movs	r0, #187
1171:Drivers/STM32L4xx_HAL_Driver/Src/stm32l4xx_hal_flash_ex.c ****   }
1172:Drivers/STM32L4xx_HAL_Driver/Src/stm32l4xx_hal_flash_ex.c ****   else
1173:Drivers/STM32L4xx_HAL_Driver/Src/stm32l4xx_hal_flash_ex.c ****   {
ARM GAS  /tmp/ccQmN1qL.s 			page 26


1174:Drivers/STM32L4xx_HAL_Driver/Src/stm32l4xx_hal_flash_ex.c ****     return (READ_BIT(FLASH->OPTR, FLASH_OPTR_RDP));
1175:Drivers/STM32L4xx_HAL_Driver/Src/stm32l4xx_hal_flash_ex.c ****   }
1176:Drivers/STM32L4xx_HAL_Driver/Src/stm32l4xx_hal_flash_ex.c **** }
 233              		.loc 1 1176 1 view .LVU66
 234 0010 7047     		bx	lr
 235              	.L18:
1174:Drivers/STM32L4xx_HAL_Driver/Src/stm32l4xx_hal_flash_ex.c ****   }
 236              		.loc 1 1174 5 is_stmt 1 view .LVU67
1174:Drivers/STM32L4xx_HAL_Driver/Src/stm32l4xx_hal_flash_ex.c ****   }
 237              		.loc 1 1174 13 is_stmt 0 view .LVU68
 238 0012 024B     		ldr	r3, .L21
 239              	.LVL12:
1174:Drivers/STM32L4xx_HAL_Driver/Src/stm32l4xx_hal_flash_ex.c ****   }
 240              		.loc 1 1174 13 view .LVU69
 241 0014 186A     		ldr	r0, [r3, #32]
 242 0016 C0B2     		uxtb	r0, r0
 243 0018 7047     		bx	lr
 244              	.L22:
 245 001a 00BF     		.align	2
 246              	.L21:
 247 001c 00200240 		.word	1073881088
 248              		.cfi_endproc
 249              	.LFE147:
 251              		.section	.text.FLASH_OB_GetUser,"ax",%progbits
 252              		.align	1
 253              		.syntax unified
 254              		.thumb
 255              		.thumb_func
 256              		.fpu fpv4-sp-d16
 258              	FLASH_OB_GetUser:
 259              	.LFB148:
1177:Drivers/STM32L4xx_HAL_Driver/Src/stm32l4xx_hal_flash_ex.c **** 
1178:Drivers/STM32L4xx_HAL_Driver/Src/stm32l4xx_hal_flash_ex.c **** /**
1179:Drivers/STM32L4xx_HAL_Driver/Src/stm32l4xx_hal_flash_ex.c ****   * @brief  Return the FLASH User Option Byte value.
1180:Drivers/STM32L4xx_HAL_Driver/Src/stm32l4xx_hal_flash_ex.c ****   * @retval The FLASH User Option Bytes values:
1181:Drivers/STM32L4xx_HAL_Driver/Src/stm32l4xx_hal_flash_ex.c ****   *      For STM32L47x/STM32L48x devices :
1182:Drivers/STM32L4xx_HAL_Driver/Src/stm32l4xx_hal_flash_ex.c ****   *         BOR_LEV(Bit8-10), nRST_STOP(Bit12), nRST_STDBY(Bit13), nRST_SHDW(Bit14),
1183:Drivers/STM32L4xx_HAL_Driver/Src/stm32l4xx_hal_flash_ex.c ****   *         IWDG_SW(Bit16), IWDG_STOP(Bit17), IWDG_STDBY(Bit18), WWDG_SW(Bit19),
1184:Drivers/STM32L4xx_HAL_Driver/Src/stm32l4xx_hal_flash_ex.c ****   *         BFB2(Bit20), DUALBANK(Bit21), nBOOT1(Bit23), SRAM2_PE(Bit24) and SRAM2_RST(Bit25).
1185:Drivers/STM32L4xx_HAL_Driver/Src/stm32l4xx_hal_flash_ex.c ****   *      For STM32L43x/STM32L44x devices :
1186:Drivers/STM32L4xx_HAL_Driver/Src/stm32l4xx_hal_flash_ex.c ****   *         BOR_LEV(Bit8-10), nRST_STOP(Bit12), nRST_STDBY(Bit13), nRST_SHDW(Bit14),
1187:Drivers/STM32L4xx_HAL_Driver/Src/stm32l4xx_hal_flash_ex.c ****   *         IWDG_SW(Bit16), IWDG_STOP(Bit17), IWDG_STDBY(Bit18), WWDG_SW(Bit19),
1188:Drivers/STM32L4xx_HAL_Driver/Src/stm32l4xx_hal_flash_ex.c ****   *         nBOOT1(Bit23), SRAM2_PE(Bit24), SRAM2_RST(Bit25), nSWBOOT0(Bit26) and nBOOT0(Bit27).
1189:Drivers/STM32L4xx_HAL_Driver/Src/stm32l4xx_hal_flash_ex.c ****   */
1190:Drivers/STM32L4xx_HAL_Driver/Src/stm32l4xx_hal_flash_ex.c **** static uint32_t FLASH_OB_GetUser(void)
1191:Drivers/STM32L4xx_HAL_Driver/Src/stm32l4xx_hal_flash_ex.c **** {
 260              		.loc 1 1191 1 is_stmt 1 view -0
 261              		.cfi_startproc
 262              		@ args = 0, pretend = 0, frame = 0
 263              		@ frame_needed = 0, uses_anonymous_args = 0
 264              		@ link register save eliminated.
1192:Drivers/STM32L4xx_HAL_Driver/Src/stm32l4xx_hal_flash_ex.c ****   uint32_t user_config = READ_REG(FLASH->OPTR);
 265              		.loc 1 1192 3 view .LVU71
 266              		.loc 1 1192 12 is_stmt 0 view .LVU72
 267 0000 024B     		ldr	r3, .L24
 268 0002 186A     		ldr	r0, [r3, #32]
 269              	.LVL13:
ARM GAS  /tmp/ccQmN1qL.s 			page 27


1193:Drivers/STM32L4xx_HAL_Driver/Src/stm32l4xx_hal_flash_ex.c ****   CLEAR_BIT(user_config, FLASH_OPTR_RDP);
 270              		.loc 1 1193 3 is_stmt 1 view .LVU73
1194:Drivers/STM32L4xx_HAL_Driver/Src/stm32l4xx_hal_flash_ex.c **** 
1195:Drivers/STM32L4xx_HAL_Driver/Src/stm32l4xx_hal_flash_ex.c ****   return user_config;
 271              		.loc 1 1195 3 view .LVU74
1196:Drivers/STM32L4xx_HAL_Driver/Src/stm32l4xx_hal_flash_ex.c **** }
 272              		.loc 1 1196 1 is_stmt 0 view .LVU75
 273 0004 20F0FF00 		bic	r0, r0, #255
 274              	.LVL14:
 275              		.loc 1 1196 1 view .LVU76
 276 0008 7047     		bx	lr
 277              	.L25:
 278 000a 00BF     		.align	2
 279              	.L24:
 280 000c 00200240 		.word	1073881088
 281              		.cfi_endproc
 282              	.LFE148:
 284              		.section	.text.FLASH_OB_GetPCROP,"ax",%progbits
 285              		.align	1
 286              		.syntax unified
 287              		.thumb
 288              		.thumb_func
 289              		.fpu fpv4-sp-d16
 291              	FLASH_OB_GetPCROP:
 292              	.LVL15:
 293              	.LFB149:
1197:Drivers/STM32L4xx_HAL_Driver/Src/stm32l4xx_hal_flash_ex.c **** 
1198:Drivers/STM32L4xx_HAL_Driver/Src/stm32l4xx_hal_flash_ex.c **** /**
1199:Drivers/STM32L4xx_HAL_Driver/Src/stm32l4xx_hal_flash_ex.c ****   * @brief  Return the FLASH Write Protection Option Bytes value.
1200:Drivers/STM32L4xx_HAL_Driver/Src/stm32l4xx_hal_flash_ex.c ****   *
1201:Drivers/STM32L4xx_HAL_Driver/Src/stm32l4xx_hal_flash_ex.c ****   * @param PCROPConfig [inout]: specifies the configuration (Bank to be configured and PCROP_RDP op
1202:Drivers/STM32L4xx_HAL_Driver/Src/stm32l4xx_hal_flash_ex.c ****   *          This parameter must be a combination of FLASH_BANK_1 or FLASH_BANK_2
1203:Drivers/STM32L4xx_HAL_Driver/Src/stm32l4xx_hal_flash_ex.c ****   *          with OB_PCROP_RDP_NOT_ERASE or OB_PCROP_RDP_ERASE
1204:Drivers/STM32L4xx_HAL_Driver/Src/stm32l4xx_hal_flash_ex.c ****   *
1205:Drivers/STM32L4xx_HAL_Driver/Src/stm32l4xx_hal_flash_ex.c ****   * @param PCROPStartAddr [out]: specifies the address where to copied the start address
1206:Drivers/STM32L4xx_HAL_Driver/Src/stm32l4xx_hal_flash_ex.c ****   *                         of the Proprietary code readout protection
1207:Drivers/STM32L4xx_HAL_Driver/Src/stm32l4xx_hal_flash_ex.c ****   *
1208:Drivers/STM32L4xx_HAL_Driver/Src/stm32l4xx_hal_flash_ex.c ****   * @param PCROPEndAddr [out]: specifies the address where to copied the end address of
1209:Drivers/STM32L4xx_HAL_Driver/Src/stm32l4xx_hal_flash_ex.c ****   *                       the Proprietary code readout protection
1210:Drivers/STM32L4xx_HAL_Driver/Src/stm32l4xx_hal_flash_ex.c ****   *
1211:Drivers/STM32L4xx_HAL_Driver/Src/stm32l4xx_hal_flash_ex.c ****   * @retval None
1212:Drivers/STM32L4xx_HAL_Driver/Src/stm32l4xx_hal_flash_ex.c ****   */
1213:Drivers/STM32L4xx_HAL_Driver/Src/stm32l4xx_hal_flash_ex.c **** static void FLASH_OB_GetPCROP(uint32_t * PCROPConfig, uint32_t * PCROPStartAddr, uint32_t * PCROPEn
1214:Drivers/STM32L4xx_HAL_Driver/Src/stm32l4xx_hal_flash_ex.c **** {
 294              		.loc 1 1214 1 is_stmt 1 view -0
 295              		.cfi_startproc
 296              		@ args = 0, pretend = 0, frame = 0
 297              		@ frame_needed = 0, uses_anonymous_args = 0
 298              		@ link register save eliminated.
 299              		.loc 1 1214 1 is_stmt 0 view .LVU78
 300 0000 70B4     		push	{r4, r5, r6}
 301              	.LCFI0:
 302              		.cfi_def_cfa_offset 12
 303              		.cfi_offset 4, -12
 304              		.cfi_offset 5, -8
 305              		.cfi_offset 6, -4
1215:Drivers/STM32L4xx_HAL_Driver/Src/stm32l4xx_hal_flash_ex.c ****   uint32_t reg_value;
ARM GAS  /tmp/ccQmN1qL.s 			page 28


 306              		.loc 1 1215 3 is_stmt 1 view .LVU79
1216:Drivers/STM32L4xx_HAL_Driver/Src/stm32l4xx_hal_flash_ex.c ****   uint32_t bank1_addr;
 307              		.loc 1 1216 3 view .LVU80
1217:Drivers/STM32L4xx_HAL_Driver/Src/stm32l4xx_hal_flash_ex.c **** #if defined (STM32L471xx) || defined (STM32L475xx) || defined (STM32L476xx) || defined (STM32L485xx
1218:Drivers/STM32L4xx_HAL_Driver/Src/stm32l4xx_hal_flash_ex.c ****     defined (STM32L496xx) || defined (STM32L4A6xx) || \
1219:Drivers/STM32L4xx_HAL_Driver/Src/stm32l4xx_hal_flash_ex.c ****     defined (STM32L4P5xx) || defined (STM32L4Q5xx) || \
1220:Drivers/STM32L4xx_HAL_Driver/Src/stm32l4xx_hal_flash_ex.c ****     defined (STM32L4R5xx) || defined (STM32L4R7xx) || defined (STM32L4R9xx) || defined (STM32L4S5xx
1221:Drivers/STM32L4xx_HAL_Driver/Src/stm32l4xx_hal_flash_ex.c ****   uint32_t bank2_addr;
 308              		.loc 1 1221 3 view .LVU81
1222:Drivers/STM32L4xx_HAL_Driver/Src/stm32l4xx_hal_flash_ex.c **** #endif
1223:Drivers/STM32L4xx_HAL_Driver/Src/stm32l4xx_hal_flash_ex.c **** 
1224:Drivers/STM32L4xx_HAL_Driver/Src/stm32l4xx_hal_flash_ex.c **** #if defined (STM32L471xx) || defined (STM32L475xx) || defined (STM32L476xx) || defined (STM32L485xx
1225:Drivers/STM32L4xx_HAL_Driver/Src/stm32l4xx_hal_flash_ex.c ****     defined (STM32L496xx) || defined (STM32L4A6xx) || \
1226:Drivers/STM32L4xx_HAL_Driver/Src/stm32l4xx_hal_flash_ex.c ****     defined (STM32L4P5xx) || defined (STM32L4Q5xx) || \
1227:Drivers/STM32L4xx_HAL_Driver/Src/stm32l4xx_hal_flash_ex.c ****     defined (STM32L4R5xx) || defined (STM32L4R7xx) || defined (STM32L4R9xx) || defined (STM32L4S5xx
1228:Drivers/STM32L4xx_HAL_Driver/Src/stm32l4xx_hal_flash_ex.c ****   /* Get the information about the bank swapping */
1229:Drivers/STM32L4xx_HAL_Driver/Src/stm32l4xx_hal_flash_ex.c ****   if (READ_BIT(SYSCFG->MEMRMP, SYSCFG_MEMRMP_FB_MODE) == 0U)
 309              		.loc 1 1229 3 view .LVU82
 310              		.loc 1 1229 7 is_stmt 0 view .LVU83
 311 0002 424B     		ldr	r3, .L39
 312 0004 1B68     		ldr	r3, [r3]
 313              		.loc 1 1229 6 view .LVU84
 314 0006 13F4807F 		tst	r3, #256
 315 000a 22D1     		bne	.L27
1230:Drivers/STM32L4xx_HAL_Driver/Src/stm32l4xx_hal_flash_ex.c ****   {
1231:Drivers/STM32L4xx_HAL_Driver/Src/stm32l4xx_hal_flash_ex.c ****     bank1_addr = FLASH_BASE;
 316              		.loc 1 1231 5 is_stmt 1 view .LVU85
 317              	.LVL16:
1232:Drivers/STM32L4xx_HAL_Driver/Src/stm32l4xx_hal_flash_ex.c ****     bank2_addr = FLASH_BASE + FLASH_BANK_SIZE;
 318              		.loc 1 1232 5 view .LVU86
 319              		.loc 1 1232 31 is_stmt 0 view .LVU87
 320 000c 404B     		ldr	r3, .L39+4
 321 000e 1B68     		ldr	r3, [r3]
 322 0010 9DB2     		uxth	r5, r3
 323              		.loc 1 1232 29 view .LVU88
 324 0012 4FF6FF74 		movw	r4, #65535
 325 0016 A542     		cmp	r5, r4
 326 0018 2AD0     		beq	.L33
 327              		.loc 1 1232 31 discriminator 1 view .LVU89
 328 001a 3E4C     		ldr	r4, .L39+8
 329 001c 04EA4324 		and	r4, r4, r3, lsl #9
 330              		.loc 1 1232 29 discriminator 1 view .LVU90
 331 0020 04F10064 		add	r4, r4, #134217728
1231:Drivers/STM32L4xx_HAL_Driver/Src/stm32l4xx_hal_flash_ex.c ****     bank2_addr = FLASH_BASE + FLASH_BANK_SIZE;
 332              		.loc 1 1231 16 discriminator 1 view .LVU91
 333 0024 4FF00063 		mov	r3, #134217728
 334              	.LVL17:
 335              	.L28:
1233:Drivers/STM32L4xx_HAL_Driver/Src/stm32l4xx_hal_flash_ex.c ****   }
1234:Drivers/STM32L4xx_HAL_Driver/Src/stm32l4xx_hal_flash_ex.c ****   else
1235:Drivers/STM32L4xx_HAL_Driver/Src/stm32l4xx_hal_flash_ex.c ****   {
1236:Drivers/STM32L4xx_HAL_Driver/Src/stm32l4xx_hal_flash_ex.c ****     bank1_addr = FLASH_BASE + FLASH_BANK_SIZE;
1237:Drivers/STM32L4xx_HAL_Driver/Src/stm32l4xx_hal_flash_ex.c ****     bank2_addr = FLASH_BASE;
1238:Drivers/STM32L4xx_HAL_Driver/Src/stm32l4xx_hal_flash_ex.c ****   }
1239:Drivers/STM32L4xx_HAL_Driver/Src/stm32l4xx_hal_flash_ex.c **** #else
1240:Drivers/STM32L4xx_HAL_Driver/Src/stm32l4xx_hal_flash_ex.c ****   bank1_addr = FLASH_BASE;
1241:Drivers/STM32L4xx_HAL_Driver/Src/stm32l4xx_hal_flash_ex.c **** #endif
ARM GAS  /tmp/ccQmN1qL.s 			page 29


1242:Drivers/STM32L4xx_HAL_Driver/Src/stm32l4xx_hal_flash_ex.c **** 
1243:Drivers/STM32L4xx_HAL_Driver/Src/stm32l4xx_hal_flash_ex.c **** #if defined (STM32L4P5xx) || defined (STM32L4Q5xx) || defined (STM32L4R5xx) || defined (STM32L4R7xx
1244:Drivers/STM32L4xx_HAL_Driver/Src/stm32l4xx_hal_flash_ex.c ****   if (READ_BIT(FLASH->OPTR, FLASH_OPTR_DBANK) == 0U)
 336              		.loc 1 1244 3 is_stmt 1 view .LVU92
 337              		.loc 1 1244 7 is_stmt 0 view .LVU93
 338 0028 3B4D     		ldr	r5, .L39+12
 339 002a 2D6A     		ldr	r5, [r5, #32]
 340              		.loc 1 1244 6 view .LVU94
 341 002c 15F4800F 		tst	r5, #4194304
 342 0030 48D1     		bne	.L29
1245:Drivers/STM32L4xx_HAL_Driver/Src/stm32l4xx_hal_flash_ex.c ****   {
1246:Drivers/STM32L4xx_HAL_Driver/Src/stm32l4xx_hal_flash_ex.c ****     if(((*PCROPConfig) & FLASH_BANK_BOTH) == FLASH_BANK_1)
 343              		.loc 1 1246 5 is_stmt 1 view .LVU95
 344              		.loc 1 1246 10 is_stmt 0 view .LVU96
 345 0032 0368     		ldr	r3, [r0]
 346              	.LVL18:
 347              		.loc 1 1246 24 view .LVU97
 348 0034 03F00303 		and	r3, r3, #3
 349              		.loc 1 1246 7 view .LVU98
 350 0038 012B     		cmp	r3, #1
 351 003a 23D0     		beq	.L36
1247:Drivers/STM32L4xx_HAL_Driver/Src/stm32l4xx_hal_flash_ex.c ****     {
1248:Drivers/STM32L4xx_HAL_Driver/Src/stm32l4xx_hal_flash_ex.c ****       reg_value       = (READ_REG(FLASH->PCROP1SR) & FLASH_PCROP1SR_PCROP1_STRT);
1249:Drivers/STM32L4xx_HAL_Driver/Src/stm32l4xx_hal_flash_ex.c ****       *PCROPStartAddr = (reg_value << 4) + FLASH_BASE;
1250:Drivers/STM32L4xx_HAL_Driver/Src/stm32l4xx_hal_flash_ex.c **** 
1251:Drivers/STM32L4xx_HAL_Driver/Src/stm32l4xx_hal_flash_ex.c ****       reg_value     = (READ_REG(FLASH->PCROP1ER) & FLASH_PCROP1ER_PCROP1_END);
1252:Drivers/STM32L4xx_HAL_Driver/Src/stm32l4xx_hal_flash_ex.c ****       *PCROPEndAddr = (reg_value << 4) + FLASH_BASE + 0xFU;
1253:Drivers/STM32L4xx_HAL_Driver/Src/stm32l4xx_hal_flash_ex.c ****     }
1254:Drivers/STM32L4xx_HAL_Driver/Src/stm32l4xx_hal_flash_ex.c ****     else if(((*PCROPConfig) & FLASH_BANK_BOTH) == FLASH_BANK_2)
 352              		.loc 1 1254 10 is_stmt 1 view .LVU99
 353              		.loc 1 1254 12 is_stmt 0 view .LVU100
 354 003c 022B     		cmp	r3, #2
 355 003e 31D0     		beq	.L37
 356              	.LVL19:
 357              	.L31:
1255:Drivers/STM32L4xx_HAL_Driver/Src/stm32l4xx_hal_flash_ex.c ****     {
1256:Drivers/STM32L4xx_HAL_Driver/Src/stm32l4xx_hal_flash_ex.c ****       reg_value       = (READ_REG(FLASH->PCROP2SR) & FLASH_PCROP2SR_PCROP2_STRT);
1257:Drivers/STM32L4xx_HAL_Driver/Src/stm32l4xx_hal_flash_ex.c ****       *PCROPStartAddr = (reg_value << 4) + FLASH_BASE;
1258:Drivers/STM32L4xx_HAL_Driver/Src/stm32l4xx_hal_flash_ex.c **** 
1259:Drivers/STM32L4xx_HAL_Driver/Src/stm32l4xx_hal_flash_ex.c ****       reg_value     = (READ_REG(FLASH->PCROP2ER) & FLASH_PCROP2ER_PCROP2_END);
1260:Drivers/STM32L4xx_HAL_Driver/Src/stm32l4xx_hal_flash_ex.c ****       *PCROPEndAddr = (reg_value << 4) + FLASH_BASE + 0xFU;;
1261:Drivers/STM32L4xx_HAL_Driver/Src/stm32l4xx_hal_flash_ex.c ****     }
1262:Drivers/STM32L4xx_HAL_Driver/Src/stm32l4xx_hal_flash_ex.c ****     else
1263:Drivers/STM32L4xx_HAL_Driver/Src/stm32l4xx_hal_flash_ex.c ****     {
1264:Drivers/STM32L4xx_HAL_Driver/Src/stm32l4xx_hal_flash_ex.c ****       /* Nothing to do */
1265:Drivers/STM32L4xx_HAL_Driver/Src/stm32l4xx_hal_flash_ex.c ****     }
1266:Drivers/STM32L4xx_HAL_Driver/Src/stm32l4xx_hal_flash_ex.c ****   }
1267:Drivers/STM32L4xx_HAL_Driver/Src/stm32l4xx_hal_flash_ex.c ****   else
1268:Drivers/STM32L4xx_HAL_Driver/Src/stm32l4xx_hal_flash_ex.c **** #endif
1269:Drivers/STM32L4xx_HAL_Driver/Src/stm32l4xx_hal_flash_ex.c ****   {
1270:Drivers/STM32L4xx_HAL_Driver/Src/stm32l4xx_hal_flash_ex.c ****     if(((*PCROPConfig) & FLASH_BANK_BOTH) == FLASH_BANK_1)
1271:Drivers/STM32L4xx_HAL_Driver/Src/stm32l4xx_hal_flash_ex.c ****     {
1272:Drivers/STM32L4xx_HAL_Driver/Src/stm32l4xx_hal_flash_ex.c ****       reg_value       = (READ_REG(FLASH->PCROP1SR) & FLASH_PCROP1SR_PCROP1_STRT);
1273:Drivers/STM32L4xx_HAL_Driver/Src/stm32l4xx_hal_flash_ex.c ****       *PCROPStartAddr = (reg_value << 3) + bank1_addr;
1274:Drivers/STM32L4xx_HAL_Driver/Src/stm32l4xx_hal_flash_ex.c **** 
1275:Drivers/STM32L4xx_HAL_Driver/Src/stm32l4xx_hal_flash_ex.c ****       reg_value     = (READ_REG(FLASH->PCROP1ER) & FLASH_PCROP1ER_PCROP1_END);
1276:Drivers/STM32L4xx_HAL_Driver/Src/stm32l4xx_hal_flash_ex.c ****       *PCROPEndAddr = (reg_value << 3) + bank1_addr + 0x7U;
ARM GAS  /tmp/ccQmN1qL.s 			page 30


1277:Drivers/STM32L4xx_HAL_Driver/Src/stm32l4xx_hal_flash_ex.c ****     }
1278:Drivers/STM32L4xx_HAL_Driver/Src/stm32l4xx_hal_flash_ex.c **** #if defined (STM32L471xx) || defined (STM32L475xx) || defined (STM32L476xx) || defined (STM32L485xx
1279:Drivers/STM32L4xx_HAL_Driver/Src/stm32l4xx_hal_flash_ex.c ****     defined (STM32L496xx) || defined (STM32L4A6xx) || \
1280:Drivers/STM32L4xx_HAL_Driver/Src/stm32l4xx_hal_flash_ex.c ****     defined (STM32L4P5xx) || defined (STM32L4Q5xx) || \
1281:Drivers/STM32L4xx_HAL_Driver/Src/stm32l4xx_hal_flash_ex.c ****     defined (STM32L4R5xx) || defined (STM32L4R7xx) || defined (STM32L4R9xx) || defined (STM32L4S5xx
1282:Drivers/STM32L4xx_HAL_Driver/Src/stm32l4xx_hal_flash_ex.c ****     else if(((*PCROPConfig) & FLASH_BANK_BOTH) == FLASH_BANK_2)
1283:Drivers/STM32L4xx_HAL_Driver/Src/stm32l4xx_hal_flash_ex.c ****     {
1284:Drivers/STM32L4xx_HAL_Driver/Src/stm32l4xx_hal_flash_ex.c ****       reg_value       = (READ_REG(FLASH->PCROP2SR) & FLASH_PCROP2SR_PCROP2_STRT);
1285:Drivers/STM32L4xx_HAL_Driver/Src/stm32l4xx_hal_flash_ex.c ****       *PCROPStartAddr = (reg_value << 3) + bank2_addr;
1286:Drivers/STM32L4xx_HAL_Driver/Src/stm32l4xx_hal_flash_ex.c **** 
1287:Drivers/STM32L4xx_HAL_Driver/Src/stm32l4xx_hal_flash_ex.c ****       reg_value     = (READ_REG(FLASH->PCROP2ER) & FLASH_PCROP2ER_PCROP2_END);
1288:Drivers/STM32L4xx_HAL_Driver/Src/stm32l4xx_hal_flash_ex.c ****       *PCROPEndAddr = (reg_value << 3) + bank2_addr + 0x7U;
1289:Drivers/STM32L4xx_HAL_Driver/Src/stm32l4xx_hal_flash_ex.c ****     }
1290:Drivers/STM32L4xx_HAL_Driver/Src/stm32l4xx_hal_flash_ex.c **** #endif
1291:Drivers/STM32L4xx_HAL_Driver/Src/stm32l4xx_hal_flash_ex.c ****     else
1292:Drivers/STM32L4xx_HAL_Driver/Src/stm32l4xx_hal_flash_ex.c ****     {
1293:Drivers/STM32L4xx_HAL_Driver/Src/stm32l4xx_hal_flash_ex.c ****       /* Nothing to do */
1294:Drivers/STM32L4xx_HAL_Driver/Src/stm32l4xx_hal_flash_ex.c ****     }
 358              		.loc 1 1294 5 is_stmt 1 view .LVU101
1295:Drivers/STM32L4xx_HAL_Driver/Src/stm32l4xx_hal_flash_ex.c ****   }
1296:Drivers/STM32L4xx_HAL_Driver/Src/stm32l4xx_hal_flash_ex.c **** 
1297:Drivers/STM32L4xx_HAL_Driver/Src/stm32l4xx_hal_flash_ex.c ****   *PCROPConfig |= (READ_REG(FLASH->PCROP1ER) & FLASH_PCROP1ER_PCROP_RDP);
 359              		.loc 1 1297 3 view .LVU102
 360              		.loc 1 1297 20 is_stmt 0 view .LVU103
 361 0040 354B     		ldr	r3, .L39+12
 362 0042 9A6A     		ldr	r2, [r3, #40]
 363              	.LVL20:
 364              		.loc 1 1297 46 view .LVU104
 365 0044 02F00042 		and	r2, r2, #-2147483648
 366              		.loc 1 1297 16 view .LVU105
 367 0048 0368     		ldr	r3, [r0]
 368 004a 1343     		orrs	r3, r3, r2
 369 004c 0360     		str	r3, [r0]
1298:Drivers/STM32L4xx_HAL_Driver/Src/stm32l4xx_hal_flash_ex.c **** }
 370              		.loc 1 1298 1 view .LVU106
 371 004e 70BC     		pop	{r4, r5, r6}
 372              	.LCFI1:
 373              		.cfi_remember_state
 374              		.cfi_restore 6
 375              		.cfi_restore 5
 376              		.cfi_restore 4
 377              		.cfi_def_cfa_offset 0
 378 0050 7047     		bx	lr
 379              	.LVL21:
 380              	.L27:
 381              	.LCFI2:
 382              		.cfi_restore_state
1236:Drivers/STM32L4xx_HAL_Driver/Src/stm32l4xx_hal_flash_ex.c ****     bank2_addr = FLASH_BASE;
 383              		.loc 1 1236 5 is_stmt 1 view .LVU107
1236:Drivers/STM32L4xx_HAL_Driver/Src/stm32l4xx_hal_flash_ex.c ****     bank2_addr = FLASH_BASE;
 384              		.loc 1 1236 31 is_stmt 0 view .LVU108
 385 0052 2F4B     		ldr	r3, .L39+4
 386 0054 1B68     		ldr	r3, [r3]
 387 0056 9DB2     		uxth	r5, r3
1236:Drivers/STM32L4xx_HAL_Driver/Src/stm32l4xx_hal_flash_ex.c ****     bank2_addr = FLASH_BASE;
 388              		.loc 1 1236 29 view .LVU109
 389 0058 4FF6FF74 		movw	r4, #65535
ARM GAS  /tmp/ccQmN1qL.s 			page 31


 390 005c A542     		cmp	r5, r4
 391 005e 0CD0     		beq	.L34
1236:Drivers/STM32L4xx_HAL_Driver/Src/stm32l4xx_hal_flash_ex.c ****     bank2_addr = FLASH_BASE;
 392              		.loc 1 1236 31 discriminator 1 view .LVU110
 393 0060 2C4C     		ldr	r4, .L39+8
 394 0062 04EA4323 		and	r3, r4, r3, lsl #9
1236:Drivers/STM32L4xx_HAL_Driver/Src/stm32l4xx_hal_flash_ex.c ****     bank2_addr = FLASH_BASE;
 395              		.loc 1 1236 29 discriminator 1 view .LVU111
 396 0066 03F10063 		add	r3, r3, #134217728
1237:Drivers/STM32L4xx_HAL_Driver/Src/stm32l4xx_hal_flash_ex.c ****   }
 397              		.loc 1 1237 16 discriminator 1 view .LVU112
 398 006a 4FF00064 		mov	r4, #134217728
 399 006e DBE7     		b	.L28
 400              	.LVL22:
 401              	.L33:
1232:Drivers/STM32L4xx_HAL_Driver/Src/stm32l4xx_hal_flash_ex.c ****   }
 402              		.loc 1 1232 29 view .LVU113
 403 0070 4FF00164 		mov	r4, #135266304
1231:Drivers/STM32L4xx_HAL_Driver/Src/stm32l4xx_hal_flash_ex.c ****     bank2_addr = FLASH_BASE + FLASH_BANK_SIZE;
 404              		.loc 1 1231 16 view .LVU114
 405 0074 4FF00063 		mov	r3, #134217728
 406 0078 D6E7     		b	.L28
 407              	.LVL23:
 408              	.L34:
1237:Drivers/STM32L4xx_HAL_Driver/Src/stm32l4xx_hal_flash_ex.c ****   }
 409              		.loc 1 1237 16 view .LVU115
 410 007a 4FF00064 		mov	r4, #134217728
1236:Drivers/STM32L4xx_HAL_Driver/Src/stm32l4xx_hal_flash_ex.c ****     bank2_addr = FLASH_BASE;
 411              		.loc 1 1236 29 view .LVU116
 412 007e 4FF00163 		mov	r3, #135266304
 413 0082 D1E7     		b	.L28
 414              	.LVL24:
 415              	.L36:
1248:Drivers/STM32L4xx_HAL_Driver/Src/stm32l4xx_hal_flash_ex.c ****       *PCROPStartAddr = (reg_value << 4) + FLASH_BASE;
 416              		.loc 1 1248 7 is_stmt 1 view .LVU117
1248:Drivers/STM32L4xx_HAL_Driver/Src/stm32l4xx_hal_flash_ex.c ****       *PCROPStartAddr = (reg_value << 4) + FLASH_BASE;
 417              		.loc 1 1248 26 is_stmt 0 view .LVU118
 418 0084 244D     		ldr	r5, .L39+12
 419 0086 6C6A     		ldr	r4, [r5, #36]
 420              	.LVL25:
1249:Drivers/STM32L4xx_HAL_Driver/Src/stm32l4xx_hal_flash_ex.c **** 
 421              		.loc 1 1249 7 is_stmt 1 view .LVU119
1249:Drivers/STM32L4xx_HAL_Driver/Src/stm32l4xx_hal_flash_ex.c **** 
 422              		.loc 1 1249 36 is_stmt 0 view .LVU120
 423 0088 244B     		ldr	r3, .L39+16
 424 008a 03EA0414 		and	r4, r3, r4, lsl #4
 425              	.LVL26:
1249:Drivers/STM32L4xx_HAL_Driver/Src/stm32l4xx_hal_flash_ex.c **** 
 426              		.loc 1 1249 42 view .LVU121
 427 008e 04F10064 		add	r4, r4, #134217728
1249:Drivers/STM32L4xx_HAL_Driver/Src/stm32l4xx_hal_flash_ex.c **** 
 428              		.loc 1 1249 23 view .LVU122
 429 0092 0C60     		str	r4, [r1]
1251:Drivers/STM32L4xx_HAL_Driver/Src/stm32l4xx_hal_flash_ex.c ****       *PCROPEndAddr = (reg_value << 4) + FLASH_BASE + 0xFU;
 430              		.loc 1 1251 7 is_stmt 1 view .LVU123
1251:Drivers/STM32L4xx_HAL_Driver/Src/stm32l4xx_hal_flash_ex.c ****       *PCROPEndAddr = (reg_value << 4) + FLASH_BASE + 0xFU;
 431              		.loc 1 1251 24 is_stmt 0 view .LVU124
ARM GAS  /tmp/ccQmN1qL.s 			page 32


 432 0094 A96A     		ldr	r1, [r5, #40]
 433              	.LVL27:
1252:Drivers/STM32L4xx_HAL_Driver/Src/stm32l4xx_hal_flash_ex.c ****     }
 434              		.loc 1 1252 7 is_stmt 1 view .LVU125
1252:Drivers/STM32L4xx_HAL_Driver/Src/stm32l4xx_hal_flash_ex.c ****     }
 435              		.loc 1 1252 34 is_stmt 0 view .LVU126
 436 0096 03EA0113 		and	r3, r3, r1, lsl #4
1252:Drivers/STM32L4xx_HAL_Driver/Src/stm32l4xx_hal_flash_ex.c ****     }
 437              		.loc 1 1252 53 view .LVU127
 438 009a 03F10063 		add	r3, r3, #134217728
 439 009e 0F33     		adds	r3, r3, #15
1252:Drivers/STM32L4xx_HAL_Driver/Src/stm32l4xx_hal_flash_ex.c ****     }
 440              		.loc 1 1252 21 view .LVU128
 441 00a0 1360     		str	r3, [r2]
 442 00a2 CDE7     		b	.L31
 443              	.LVL28:
 444              	.L37:
1256:Drivers/STM32L4xx_HAL_Driver/Src/stm32l4xx_hal_flash_ex.c ****       *PCROPStartAddr = (reg_value << 4) + FLASH_BASE;
 445              		.loc 1 1256 7 is_stmt 1 view .LVU129
1256:Drivers/STM32L4xx_HAL_Driver/Src/stm32l4xx_hal_flash_ex.c ****       *PCROPStartAddr = (reg_value << 4) + FLASH_BASE;
 446              		.loc 1 1256 26 is_stmt 0 view .LVU130
 447 00a4 1C4D     		ldr	r5, .L39+12
 448 00a6 6C6C     		ldr	r4, [r5, #68]
 449              	.LVL29:
1257:Drivers/STM32L4xx_HAL_Driver/Src/stm32l4xx_hal_flash_ex.c **** 
 450              		.loc 1 1257 7 is_stmt 1 view .LVU131
1257:Drivers/STM32L4xx_HAL_Driver/Src/stm32l4xx_hal_flash_ex.c **** 
 451              		.loc 1 1257 36 is_stmt 0 view .LVU132
 452 00a8 1C4B     		ldr	r3, .L39+16
 453 00aa 03EA0414 		and	r4, r3, r4, lsl #4
 454              	.LVL30:
1257:Drivers/STM32L4xx_HAL_Driver/Src/stm32l4xx_hal_flash_ex.c **** 
 455              		.loc 1 1257 42 view .LVU133
 456 00ae 04F10064 		add	r4, r4, #134217728
1257:Drivers/STM32L4xx_HAL_Driver/Src/stm32l4xx_hal_flash_ex.c **** 
 457              		.loc 1 1257 23 view .LVU134
 458 00b2 0C60     		str	r4, [r1]
1259:Drivers/STM32L4xx_HAL_Driver/Src/stm32l4xx_hal_flash_ex.c ****       *PCROPEndAddr = (reg_value << 4) + FLASH_BASE + 0xFU;;
 459              		.loc 1 1259 7 is_stmt 1 view .LVU135
1259:Drivers/STM32L4xx_HAL_Driver/Src/stm32l4xx_hal_flash_ex.c ****       *PCROPEndAddr = (reg_value << 4) + FLASH_BASE + 0xFU;;
 460              		.loc 1 1259 24 is_stmt 0 view .LVU136
 461 00b4 A96C     		ldr	r1, [r5, #72]
 462              	.LVL31:
1260:Drivers/STM32L4xx_HAL_Driver/Src/stm32l4xx_hal_flash_ex.c ****     }
 463              		.loc 1 1260 7 is_stmt 1 view .LVU137
1260:Drivers/STM32L4xx_HAL_Driver/Src/stm32l4xx_hal_flash_ex.c ****     }
 464              		.loc 1 1260 34 is_stmt 0 view .LVU138
 465 00b6 03EA0113 		and	r3, r3, r1, lsl #4
1260:Drivers/STM32L4xx_HAL_Driver/Src/stm32l4xx_hal_flash_ex.c ****     }
 466              		.loc 1 1260 53 view .LVU139
 467 00ba 03F10063 		add	r3, r3, #134217728
 468 00be 0F33     		adds	r3, r3, #15
1260:Drivers/STM32L4xx_HAL_Driver/Src/stm32l4xx_hal_flash_ex.c ****     }
 469              		.loc 1 1260 21 view .LVU140
 470 00c0 1360     		str	r3, [r2]
1260:Drivers/STM32L4xx_HAL_Driver/Src/stm32l4xx_hal_flash_ex.c ****     }
 471              		.loc 1 1260 60 is_stmt 1 view .LVU141
ARM GAS  /tmp/ccQmN1qL.s 			page 33


 472 00c2 BDE7     		b	.L31
 473              	.LVL32:
 474              	.L29:
1270:Drivers/STM32L4xx_HAL_Driver/Src/stm32l4xx_hal_flash_ex.c ****     {
 475              		.loc 1 1270 5 view .LVU142
1270:Drivers/STM32L4xx_HAL_Driver/Src/stm32l4xx_hal_flash_ex.c ****     {
 476              		.loc 1 1270 10 is_stmt 0 view .LVU143
 477 00c4 0568     		ldr	r5, [r0]
1270:Drivers/STM32L4xx_HAL_Driver/Src/stm32l4xx_hal_flash_ex.c ****     {
 478              		.loc 1 1270 24 view .LVU144
 479 00c6 05F00305 		and	r5, r5, #3
1270:Drivers/STM32L4xx_HAL_Driver/Src/stm32l4xx_hal_flash_ex.c ****     {
 480              		.loc 1 1270 7 view .LVU145
 481 00ca 012D     		cmp	r5, #1
 482 00cc 0FD0     		beq	.L38
1282:Drivers/STM32L4xx_HAL_Driver/Src/stm32l4xx_hal_flash_ex.c ****     {
 483              		.loc 1 1282 10 is_stmt 1 view .LVU146
1282:Drivers/STM32L4xx_HAL_Driver/Src/stm32l4xx_hal_flash_ex.c ****     {
 484              		.loc 1 1282 12 is_stmt 0 view .LVU147
 485 00ce 022D     		cmp	r5, #2
 486 00d0 B6D1     		bne	.L31
1284:Drivers/STM32L4xx_HAL_Driver/Src/stm32l4xx_hal_flash_ex.c ****       *PCROPStartAddr = (reg_value << 3) + bank2_addr;
 487              		.loc 1 1284 7 is_stmt 1 view .LVU148
1284:Drivers/STM32L4xx_HAL_Driver/Src/stm32l4xx_hal_flash_ex.c ****       *PCROPStartAddr = (reg_value << 3) + bank2_addr;
 488              		.loc 1 1284 26 is_stmt 0 view .LVU149
 489 00d2 114E     		ldr	r6, .L39+12
 490 00d4 756C     		ldr	r5, [r6, #68]
 491              	.LVL33:
1285:Drivers/STM32L4xx_HAL_Driver/Src/stm32l4xx_hal_flash_ex.c **** 
 492              		.loc 1 1285 7 is_stmt 1 view .LVU150
1285:Drivers/STM32L4xx_HAL_Driver/Src/stm32l4xx_hal_flash_ex.c **** 
 493              		.loc 1 1285 36 is_stmt 0 view .LVU151
 494 00d6 124B     		ldr	r3, .L39+20
 495              	.LVL34:
1285:Drivers/STM32L4xx_HAL_Driver/Src/stm32l4xx_hal_flash_ex.c **** 
 496              		.loc 1 1285 36 view .LVU152
 497 00d8 03EAC505 		and	r5, r3, r5, lsl #3
 498              	.LVL35:
1285:Drivers/STM32L4xx_HAL_Driver/Src/stm32l4xx_hal_flash_ex.c **** 
 499              		.loc 1 1285 42 view .LVU153
 500 00dc 2544     		add	r5, r5, r4
1285:Drivers/STM32L4xx_HAL_Driver/Src/stm32l4xx_hal_flash_ex.c **** 
 501              		.loc 1 1285 23 view .LVU154
 502 00de 0D60     		str	r5, [r1]
1287:Drivers/STM32L4xx_HAL_Driver/Src/stm32l4xx_hal_flash_ex.c ****       *PCROPEndAddr = (reg_value << 3) + bank2_addr + 0x7U;
 503              		.loc 1 1287 7 is_stmt 1 view .LVU155
1287:Drivers/STM32L4xx_HAL_Driver/Src/stm32l4xx_hal_flash_ex.c ****       *PCROPEndAddr = (reg_value << 3) + bank2_addr + 0x7U;
 504              		.loc 1 1287 24 is_stmt 0 view .LVU156
 505 00e0 B16C     		ldr	r1, [r6, #72]
 506              	.LVL36:
1288:Drivers/STM32L4xx_HAL_Driver/Src/stm32l4xx_hal_flash_ex.c ****     }
 507              		.loc 1 1288 7 is_stmt 1 view .LVU157
1288:Drivers/STM32L4xx_HAL_Driver/Src/stm32l4xx_hal_flash_ex.c ****     }
 508              		.loc 1 1288 34 is_stmt 0 view .LVU158
 509 00e2 03EAC103 		and	r3, r3, r1, lsl #3
1288:Drivers/STM32L4xx_HAL_Driver/Src/stm32l4xx_hal_flash_ex.c ****     }
 510              		.loc 1 1288 40 view .LVU159
ARM GAS  /tmp/ccQmN1qL.s 			page 34


 511 00e6 1C44     		add	r4, r4, r3
 512              	.LVL37:
1288:Drivers/STM32L4xx_HAL_Driver/Src/stm32l4xx_hal_flash_ex.c ****     }
 513              		.loc 1 1288 53 view .LVU160
 514 00e8 0734     		adds	r4, r4, #7
1288:Drivers/STM32L4xx_HAL_Driver/Src/stm32l4xx_hal_flash_ex.c ****     }
 515              		.loc 1 1288 21 view .LVU161
 516 00ea 1460     		str	r4, [r2]
 517 00ec A8E7     		b	.L31
 518              	.LVL38:
 519              	.L38:
1272:Drivers/STM32L4xx_HAL_Driver/Src/stm32l4xx_hal_flash_ex.c ****       *PCROPStartAddr = (reg_value << 3) + bank1_addr;
 520              		.loc 1 1272 7 is_stmt 1 view .LVU162
1272:Drivers/STM32L4xx_HAL_Driver/Src/stm32l4xx_hal_flash_ex.c ****       *PCROPStartAddr = (reg_value << 3) + bank1_addr;
 521              		.loc 1 1272 26 is_stmt 0 view .LVU163
 522 00ee 0A4E     		ldr	r6, .L39+12
 523 00f0 756A     		ldr	r5, [r6, #36]
 524              	.LVL39:
1273:Drivers/STM32L4xx_HAL_Driver/Src/stm32l4xx_hal_flash_ex.c **** 
 525              		.loc 1 1273 7 is_stmt 1 view .LVU164
1273:Drivers/STM32L4xx_HAL_Driver/Src/stm32l4xx_hal_flash_ex.c **** 
 526              		.loc 1 1273 36 is_stmt 0 view .LVU165
 527 00f2 0B4C     		ldr	r4, .L39+20
 528              	.LVL40:
1273:Drivers/STM32L4xx_HAL_Driver/Src/stm32l4xx_hal_flash_ex.c **** 
 529              		.loc 1 1273 36 view .LVU166
 530 00f4 04EAC505 		and	r5, r4, r5, lsl #3
 531              	.LVL41:
1273:Drivers/STM32L4xx_HAL_Driver/Src/stm32l4xx_hal_flash_ex.c **** 
 532              		.loc 1 1273 42 view .LVU167
 533 00f8 1D44     		add	r5, r5, r3
1273:Drivers/STM32L4xx_HAL_Driver/Src/stm32l4xx_hal_flash_ex.c **** 
 534              		.loc 1 1273 23 view .LVU168
 535 00fa 0D60     		str	r5, [r1]
1275:Drivers/STM32L4xx_HAL_Driver/Src/stm32l4xx_hal_flash_ex.c ****       *PCROPEndAddr = (reg_value << 3) + bank1_addr + 0x7U;
 536              		.loc 1 1275 7 is_stmt 1 view .LVU169
1275:Drivers/STM32L4xx_HAL_Driver/Src/stm32l4xx_hal_flash_ex.c ****       *PCROPEndAddr = (reg_value << 3) + bank1_addr + 0x7U;
 537              		.loc 1 1275 24 is_stmt 0 view .LVU170
 538 00fc B16A     		ldr	r1, [r6, #40]
 539              	.LVL42:
1276:Drivers/STM32L4xx_HAL_Driver/Src/stm32l4xx_hal_flash_ex.c ****     }
 540              		.loc 1 1276 7 is_stmt 1 view .LVU171
1276:Drivers/STM32L4xx_HAL_Driver/Src/stm32l4xx_hal_flash_ex.c ****     }
 541              		.loc 1 1276 34 is_stmt 0 view .LVU172
 542 00fe 04EAC104 		and	r4, r4, r1, lsl #3
1276:Drivers/STM32L4xx_HAL_Driver/Src/stm32l4xx_hal_flash_ex.c ****     }
 543              		.loc 1 1276 40 view .LVU173
 544 0102 2344     		add	r3, r3, r4
 545              	.LVL43:
1276:Drivers/STM32L4xx_HAL_Driver/Src/stm32l4xx_hal_flash_ex.c ****     }
 546              		.loc 1 1276 53 view .LVU174
 547 0104 0733     		adds	r3, r3, #7
1276:Drivers/STM32L4xx_HAL_Driver/Src/stm32l4xx_hal_flash_ex.c ****     }
 548              		.loc 1 1276 21 view .LVU175
 549 0106 1360     		str	r3, [r2]
 550 0108 9AE7     		b	.L31
 551              	.L40:
ARM GAS  /tmp/ccQmN1qL.s 			page 35


 552 010a 00BF     		.align	2
 553              	.L39:
 554 010c 00000140 		.word	1073807360
 555 0110 E075FF1F 		.word	536835552
 556 0114 00FEFF01 		.word	33553920
 557 0118 00200240 		.word	1073881088
 558 011c F0FF1F00 		.word	2097136
 559 0120 F8FF0F00 		.word	1048568
 560              		.cfi_endproc
 561              	.LFE149:
 563              		.section	.text.FLASH_OB_WRPConfig,"ax",%progbits
 564              		.align	1
 565              		.syntax unified
 566              		.thumb
 567              		.thumb_func
 568              		.fpu fpv4-sp-d16
 570              	FLASH_OB_WRPConfig:
 571              	.LVL44:
 572              	.LFB142:
 652:Drivers/STM32L4xx_HAL_Driver/Src/stm32l4xx_hal_flash_ex.c ****   HAL_StatusTypeDef status;
 573              		.loc 1 652 1 is_stmt 1 view -0
 574              		.cfi_startproc
 575              		@ args = 0, pretend = 0, frame = 0
 576              		@ frame_needed = 0, uses_anonymous_args = 0
 652:Drivers/STM32L4xx_HAL_Driver/Src/stm32l4xx_hal_flash_ex.c ****   HAL_StatusTypeDef status;
 577              		.loc 1 652 1 is_stmt 0 view .LVU177
 578 0000 70B5     		push	{r4, r5, r6, lr}
 579              	.LCFI3:
 580              		.cfi_def_cfa_offset 16
 581              		.cfi_offset 4, -16
 582              		.cfi_offset 5, -12
 583              		.cfi_offset 6, -8
 584              		.cfi_offset 14, -4
 585 0002 0446     		mov	r4, r0
 586 0004 0E46     		mov	r6, r1
 587 0006 1546     		mov	r5, r2
 653:Drivers/STM32L4xx_HAL_Driver/Src/stm32l4xx_hal_flash_ex.c **** 
 588              		.loc 1 653 3 is_stmt 1 view .LVU178
 656:Drivers/STM32L4xx_HAL_Driver/Src/stm32l4xx_hal_flash_ex.c ****   assert_param(IS_FLASH_PAGE(WRPStartOffset));
 589              		.loc 1 656 3 view .LVU179
 657:Drivers/STM32L4xx_HAL_Driver/Src/stm32l4xx_hal_flash_ex.c ****   assert_param(IS_FLASH_PAGE(WRDPEndOffset));
 590              		.loc 1 657 3 view .LVU180
 658:Drivers/STM32L4xx_HAL_Driver/Src/stm32l4xx_hal_flash_ex.c **** 
 591              		.loc 1 658 3 view .LVU181
 661:Drivers/STM32L4xx_HAL_Driver/Src/stm32l4xx_hal_flash_ex.c **** 
 592              		.loc 1 661 3 view .LVU182
 661:Drivers/STM32L4xx_HAL_Driver/Src/stm32l4xx_hal_flash_ex.c **** 
 593              		.loc 1 661 12 is_stmt 0 view .LVU183
 594 0008 4CF25030 		movw	r0, #50000
 595              	.LVL45:
 661:Drivers/STM32L4xx_HAL_Driver/Src/stm32l4xx_hal_flash_ex.c **** 
 596              		.loc 1 661 12 view .LVU184
 597 000c FFF7FEFF 		bl	FLASH_WaitForLastOperation
 598              	.LVL46:
 663:Drivers/STM32L4xx_HAL_Driver/Src/stm32l4xx_hal_flash_ex.c ****   {
 599              		.loc 1 663 3 is_stmt 1 view .LVU185
 663:Drivers/STM32L4xx_HAL_Driver/Src/stm32l4xx_hal_flash_ex.c ****   {
ARM GAS  /tmp/ccQmN1qL.s 			page 36


 600              		.loc 1 663 5 is_stmt 0 view .LVU186
 601 0010 A8B9     		cbnz	r0, .L42
 666:Drivers/STM32L4xx_HAL_Driver/Src/stm32l4xx_hal_flash_ex.c ****     {
 602              		.loc 1 666 5 is_stmt 1 view .LVU187
 666:Drivers/STM32L4xx_HAL_Driver/Src/stm32l4xx_hal_flash_ex.c ****     {
 603              		.loc 1 666 7 is_stmt 0 view .LVU188
 604 0012 ACB9     		cbnz	r4, .L43
 668:Drivers/STM32L4xx_HAL_Driver/Src/stm32l4xx_hal_flash_ex.c ****                  (WRPStartOffset | (WRDPEndOffset << 16)));
 605              		.loc 1 668 7 is_stmt 1 view .LVU189
 606 0014 1B48     		ldr	r0, .L50
 607 0016 C36A     		ldr	r3, [r0, #44]
 608 0018 03F0FF23 		and	r3, r3, #-16711936
 609 001c 46EA0542 		orr	r2, r6, r5, lsl #16
 610 0020 1A43     		orrs	r2, r2, r3
 611 0022 C262     		str	r2, [r0, #44]
 612              	.LVL47:
 613              	.L44:
 694:Drivers/STM32L4xx_HAL_Driver/Src/stm32l4xx_hal_flash_ex.c **** 
 614              		.loc 1 694 5 view .LVU190
 697:Drivers/STM32L4xx_HAL_Driver/Src/stm32l4xx_hal_flash_ex.c **** 
 615              		.loc 1 697 5 view .LVU191
 616 0024 174C     		ldr	r4, .L50
 617              	.LVL48:
 697:Drivers/STM32L4xx_HAL_Driver/Src/stm32l4xx_hal_flash_ex.c **** 
 618              		.loc 1 697 5 is_stmt 0 view .LVU192
 619 0026 6369     		ldr	r3, [r4, #20]
 620 0028 43F40033 		orr	r3, r3, #131072
 621 002c 6361     		str	r3, [r4, #20]
 700:Drivers/STM32L4xx_HAL_Driver/Src/stm32l4xx_hal_flash_ex.c **** 
 622              		.loc 1 700 5 is_stmt 1 view .LVU193
 700:Drivers/STM32L4xx_HAL_Driver/Src/stm32l4xx_hal_flash_ex.c **** 
 623              		.loc 1 700 14 is_stmt 0 view .LVU194
 624 002e 4CF25030 		movw	r0, #50000
 625 0032 FFF7FEFF 		bl	FLASH_WaitForLastOperation
 626              	.LVL49:
 703:Drivers/STM32L4xx_HAL_Driver/Src/stm32l4xx_hal_flash_ex.c ****   }
 627              		.loc 1 703 5 is_stmt 1 view .LVU195
 628 0036 6369     		ldr	r3, [r4, #20]
 629 0038 23F40033 		bic	r3, r3, #131072
 630 003c 6361     		str	r3, [r4, #20]
 631              	.LVL50:
 632              	.L42:
 706:Drivers/STM32L4xx_HAL_Driver/Src/stm32l4xx_hal_flash_ex.c **** }
 633              		.loc 1 706 3 view .LVU196
 707:Drivers/STM32L4xx_HAL_Driver/Src/stm32l4xx_hal_flash_ex.c **** 
 634              		.loc 1 707 1 is_stmt 0 view .LVU197
 635 003e 70BD     		pop	{r4, r5, r6, pc}
 636              	.LVL51:
 637              	.L43:
 671:Drivers/STM32L4xx_HAL_Driver/Src/stm32l4xx_hal_flash_ex.c ****     {
 638              		.loc 1 671 10 is_stmt 1 view .LVU198
 671:Drivers/STM32L4xx_HAL_Driver/Src/stm32l4xx_hal_flash_ex.c ****     {
 639              		.loc 1 671 12 is_stmt 0 view .LVU199
 640 0040 012C     		cmp	r4, #1
 641 0042 0CD0     		beq	.L48
 680:Drivers/STM32L4xx_HAL_Driver/Src/stm32l4xx_hal_flash_ex.c ****     {
 642              		.loc 1 680 10 is_stmt 1 view .LVU200
ARM GAS  /tmp/ccQmN1qL.s 			page 37


 680:Drivers/STM32L4xx_HAL_Driver/Src/stm32l4xx_hal_flash_ex.c ****     {
 643              		.loc 1 680 12 is_stmt 0 view .LVU201
 644 0044 022C     		cmp	r4, #2
 645 0046 13D0     		beq	.L49
 685:Drivers/STM32L4xx_HAL_Driver/Src/stm32l4xx_hal_flash_ex.c ****     {
 646              		.loc 1 685 10 is_stmt 1 view .LVU202
 685:Drivers/STM32L4xx_HAL_Driver/Src/stm32l4xx_hal_flash_ex.c ****     {
 647              		.loc 1 685 12 is_stmt 0 view .LVU203
 648 0048 042C     		cmp	r4, #4
 649 004a EBD1     		bne	.L44
 687:Drivers/STM32L4xx_HAL_Driver/Src/stm32l4xx_hal_flash_ex.c ****                  (WRPStartOffset | (WRDPEndOffset << 16)));
 650              		.loc 1 687 7 is_stmt 1 view .LVU204
 651 004c 0D4A     		ldr	r2, .L50
 652 004e 136D     		ldr	r3, [r2, #80]
 653 0050 03F0FF23 		and	r3, r3, #-16711936
 654 0054 46EA0545 		orr	r5, r6, r5, lsl #16
 655              	.LVL52:
 687:Drivers/STM32L4xx_HAL_Driver/Src/stm32l4xx_hal_flash_ex.c ****                  (WRPStartOffset | (WRDPEndOffset << 16)));
 656              		.loc 1 687 7 is_stmt 0 view .LVU205
 657 0058 1D43     		orrs	r5, r5, r3
 658 005a 1565     		str	r5, [r2, #80]
 659 005c E2E7     		b	.L44
 660              	.LVL53:
 661              	.L48:
 673:Drivers/STM32L4xx_HAL_Driver/Src/stm32l4xx_hal_flash_ex.c ****                  (WRPStartOffset | (WRDPEndOffset << 16)));
 662              		.loc 1 673 7 is_stmt 1 view .LVU206
 663 005e 0948     		ldr	r0, .L50
 664 0060 036B     		ldr	r3, [r0, #48]
 665 0062 03F0FF23 		and	r3, r3, #-16711936
 666 0066 46EA0542 		orr	r2, r6, r5, lsl #16
 667 006a 1A43     		orrs	r2, r2, r3
 668 006c 0263     		str	r2, [r0, #48]
 669 006e D9E7     		b	.L44
 670              	.L49:
 682:Drivers/STM32L4xx_HAL_Driver/Src/stm32l4xx_hal_flash_ex.c ****                  (WRPStartOffset | (WRDPEndOffset << 16)));
 671              		.loc 1 682 7 view .LVU207
 672 0070 0448     		ldr	r0, .L50
 673 0072 C36C     		ldr	r3, [r0, #76]
 674 0074 03F0FF23 		and	r3, r3, #-16711936
 675 0078 46EA0542 		orr	r2, r6, r5, lsl #16
 676 007c 1A43     		orrs	r2, r2, r3
 677 007e C264     		str	r2, [r0, #76]
 678 0080 D0E7     		b	.L44
 679              	.L51:
 680 0082 00BF     		.align	2
 681              	.L50:
 682 0084 00200240 		.word	1073881088
 683              		.cfi_endproc
 684              	.LFE142:
 686              		.section	.text.FLASH_OB_RDPConfig,"ax",%progbits
 687              		.align	1
 688              		.syntax unified
 689              		.thumb
 690              		.thumb_func
 691              		.fpu fpv4-sp-d16
 693              	FLASH_OB_RDPConfig:
 694              	.LVL54:
ARM GAS  /tmp/ccQmN1qL.s 			page 38


 695              	.LFB143:
 728:Drivers/STM32L4xx_HAL_Driver/Src/stm32l4xx_hal_flash_ex.c ****   HAL_StatusTypeDef status;
 696              		.loc 1 728 1 view -0
 697              		.cfi_startproc
 698              		@ args = 0, pretend = 0, frame = 0
 699              		@ frame_needed = 0, uses_anonymous_args = 0
 728:Drivers/STM32L4xx_HAL_Driver/Src/stm32l4xx_hal_flash_ex.c ****   HAL_StatusTypeDef status;
 700              		.loc 1 728 1 is_stmt 0 view .LVU209
 701 0000 38B5     		push	{r3, r4, r5, lr}
 702              	.LCFI4:
 703              		.cfi_def_cfa_offset 16
 704              		.cfi_offset 3, -16
 705              		.cfi_offset 4, -12
 706              		.cfi_offset 5, -8
 707              		.cfi_offset 14, -4
 708 0002 0446     		mov	r4, r0
 729:Drivers/STM32L4xx_HAL_Driver/Src/stm32l4xx_hal_flash_ex.c **** 
 709              		.loc 1 729 3 is_stmt 1 view .LVU210
 732:Drivers/STM32L4xx_HAL_Driver/Src/stm32l4xx_hal_flash_ex.c **** 
 710              		.loc 1 732 3 view .LVU211
 735:Drivers/STM32L4xx_HAL_Driver/Src/stm32l4xx_hal_flash_ex.c **** 
 711              		.loc 1 735 3 view .LVU212
 735:Drivers/STM32L4xx_HAL_Driver/Src/stm32l4xx_hal_flash_ex.c **** 
 712              		.loc 1 735 12 is_stmt 0 view .LVU213
 713 0004 4CF25030 		movw	r0, #50000
 714              	.LVL55:
 735:Drivers/STM32L4xx_HAL_Driver/Src/stm32l4xx_hal_flash_ex.c **** 
 715              		.loc 1 735 12 view .LVU214
 716 0008 FFF7FEFF 		bl	FLASH_WaitForLastOperation
 717              	.LVL56:
 737:Drivers/STM32L4xx_HAL_Driver/Src/stm32l4xx_hal_flash_ex.c ****   {
 718              		.loc 1 737 3 is_stmt 1 view .LVU215
 737:Drivers/STM32L4xx_HAL_Driver/Src/stm32l4xx_hal_flash_ex.c ****   {
 719              		.loc 1 737 5 is_stmt 0 view .LVU216
 720 000c 00B1     		cbz	r0, .L55
 721              	.L53:
 722              	.LVL57:
 752:Drivers/STM32L4xx_HAL_Driver/Src/stm32l4xx_hal_flash_ex.c **** }
 723              		.loc 1 752 3 is_stmt 1 view .LVU217
 753:Drivers/STM32L4xx_HAL_Driver/Src/stm32l4xx_hal_flash_ex.c **** 
 724              		.loc 1 753 1 is_stmt 0 view .LVU218
 725 000e 38BD     		pop	{r3, r4, r5, pc}
 726              	.LVL58:
 727              	.L55:
 740:Drivers/STM32L4xx_HAL_Driver/Src/stm32l4xx_hal_flash_ex.c **** 
 728              		.loc 1 740 5 is_stmt 1 view .LVU219
 729 0010 094D     		ldr	r5, .L56
 730 0012 286A     		ldr	r0, [r5, #32]
 731 0014 20F0FF00 		bic	r0, r0, #255
 732 0018 2043     		orrs	r0, r0, r4
 733 001a 2862     		str	r0, [r5, #32]
 743:Drivers/STM32L4xx_HAL_Driver/Src/stm32l4xx_hal_flash_ex.c **** 
 734              		.loc 1 743 5 view .LVU220
 735 001c 6B69     		ldr	r3, [r5, #20]
 736 001e 43F40033 		orr	r3, r3, #131072
 737 0022 6B61     		str	r3, [r5, #20]
 746:Drivers/STM32L4xx_HAL_Driver/Src/stm32l4xx_hal_flash_ex.c **** 
ARM GAS  /tmp/ccQmN1qL.s 			page 39


 738              		.loc 1 746 5 view .LVU221
 746:Drivers/STM32L4xx_HAL_Driver/Src/stm32l4xx_hal_flash_ex.c **** 
 739              		.loc 1 746 14 is_stmt 0 view .LVU222
 740 0024 4CF25030 		movw	r0, #50000
 741 0028 FFF7FEFF 		bl	FLASH_WaitForLastOperation
 742              	.LVL59:
 749:Drivers/STM32L4xx_HAL_Driver/Src/stm32l4xx_hal_flash_ex.c ****   }
 743              		.loc 1 749 5 is_stmt 1 view .LVU223
 744 002c 6B69     		ldr	r3, [r5, #20]
 745 002e 23F40033 		bic	r3, r3, #131072
 746 0032 6B61     		str	r3, [r5, #20]
 747 0034 EBE7     		b	.L53
 748              	.L57:
 749 0036 00BF     		.align	2
 750              	.L56:
 751 0038 00200240 		.word	1073881088
 752              		.cfi_endproc
 753              	.LFE143:
 755              		.section	.text.FLASH_OB_UserConfig,"ax",%progbits
 756              		.align	1
 757              		.syntax unified
 758              		.thumb
 759              		.thumb_func
 760              		.fpu fpv4-sp-d16
 762              	FLASH_OB_UserConfig:
 763              	.LVL60:
 764              	.LFB144:
 772:Drivers/STM32L4xx_HAL_Driver/Src/stm32l4xx_hal_flash_ex.c ****   uint32_t optr_reg_val = 0;
 765              		.loc 1 772 1 view -0
 766              		.cfi_startproc
 767              		@ args = 0, pretend = 0, frame = 0
 768              		@ frame_needed = 0, uses_anonymous_args = 0
 772:Drivers/STM32L4xx_HAL_Driver/Src/stm32l4xx_hal_flash_ex.c ****   uint32_t optr_reg_val = 0;
 769              		.loc 1 772 1 is_stmt 0 view .LVU225
 770 0000 38B5     		push	{r3, r4, r5, lr}
 771              	.LCFI5:
 772              		.cfi_def_cfa_offset 16
 773              		.cfi_offset 3, -16
 774              		.cfi_offset 4, -12
 775              		.cfi_offset 5, -8
 776              		.cfi_offset 14, -4
 777 0002 0446     		mov	r4, r0
 778 0004 0D46     		mov	r5, r1
 773:Drivers/STM32L4xx_HAL_Driver/Src/stm32l4xx_hal_flash_ex.c ****   uint32_t optr_reg_mask = 0;
 779              		.loc 1 773 3 is_stmt 1 view .LVU226
 780              	.LVL61:
 774:Drivers/STM32L4xx_HAL_Driver/Src/stm32l4xx_hal_flash_ex.c ****   HAL_StatusTypeDef status;
 781              		.loc 1 774 3 view .LVU227
 775:Drivers/STM32L4xx_HAL_Driver/Src/stm32l4xx_hal_flash_ex.c **** 
 782              		.loc 1 775 3 view .LVU228
 778:Drivers/STM32L4xx_HAL_Driver/Src/stm32l4xx_hal_flash_ex.c **** 
 783              		.loc 1 778 3 view .LVU229
 781:Drivers/STM32L4xx_HAL_Driver/Src/stm32l4xx_hal_flash_ex.c **** 
 784              		.loc 1 781 3 view .LVU230
 781:Drivers/STM32L4xx_HAL_Driver/Src/stm32l4xx_hal_flash_ex.c **** 
 785              		.loc 1 781 12 is_stmt 0 view .LVU231
 786 0006 4CF25030 		movw	r0, #50000
ARM GAS  /tmp/ccQmN1qL.s 			page 40


 787              	.LVL62:
 781:Drivers/STM32L4xx_HAL_Driver/Src/stm32l4xx_hal_flash_ex.c **** 
 788              		.loc 1 781 12 view .LVU232
 789 000a FFF7FEFF 		bl	FLASH_WaitForLastOperation
 790              	.LVL63:
 783:Drivers/STM32L4xx_HAL_Driver/Src/stm32l4xx_hal_flash_ex.c ****   {
 791              		.loc 1 783 3 is_stmt 1 view .LVU233
 783:Drivers/STM32L4xx_HAL_Driver/Src/stm32l4xx_hal_flash_ex.c ****   {
 792              		.loc 1 783 5 is_stmt 0 view .LVU234
 793 000e 0028     		cmp	r0, #0
 794 0010 40F08B80 		bne	.L59
 785:Drivers/STM32L4xx_HAL_Driver/Src/stm32l4xx_hal_flash_ex.c ****     {
 795              		.loc 1 785 5 is_stmt 1 view .LVU235
 785:Drivers/STM32L4xx_HAL_Driver/Src/stm32l4xx_hal_flash_ex.c ****     {
 796              		.loc 1 785 7 is_stmt 0 view .LVU236
 797 0014 14F00103 		ands	r3, r4, #1
 798 0018 04D0     		beq	.L75
 788:Drivers/STM32L4xx_HAL_Driver/Src/stm32l4xx_hal_flash_ex.c **** 
 799              		.loc 1 788 7 is_stmt 1 view .LVU237
 791:Drivers/STM32L4xx_HAL_Driver/Src/stm32l4xx_hal_flash_ex.c ****       optr_reg_mask |= FLASH_OPTR_BOR_LEV;
 800              		.loc 1 791 7 view .LVU238
 791:Drivers/STM32L4xx_HAL_Driver/Src/stm32l4xx_hal_flash_ex.c ****       optr_reg_mask |= FLASH_OPTR_BOR_LEV;
 801              		.loc 1 791 35 is_stmt 0 view .LVU239
 802 001a 05F4E063 		and	r3, r5, #1792
 803              	.LVL64:
 792:Drivers/STM32L4xx_HAL_Driver/Src/stm32l4xx_hal_flash_ex.c ****     }
 804              		.loc 1 792 7 is_stmt 1 view .LVU240
 792:Drivers/STM32L4xx_HAL_Driver/Src/stm32l4xx_hal_flash_ex.c ****     }
 805              		.loc 1 792 21 is_stmt 0 view .LVU241
 806 001e 4FF4E062 		mov	r2, #1792
 807 0022 00E0     		b	.L60
 808              	.LVL65:
 809              	.L75:
 774:Drivers/STM32L4xx_HAL_Driver/Src/stm32l4xx_hal_flash_ex.c ****   HAL_StatusTypeDef status;
 810              		.loc 1 774 12 view .LVU242
 811 0024 1A46     		mov	r2, r3
 812              	.LVL66:
 813              	.L60:
 795:Drivers/STM32L4xx_HAL_Driver/Src/stm32l4xx_hal_flash_ex.c ****     {
 814              		.loc 1 795 5 is_stmt 1 view .LVU243
 795:Drivers/STM32L4xx_HAL_Driver/Src/stm32l4xx_hal_flash_ex.c ****     {
 815              		.loc 1 795 7 is_stmt 0 view .LVU244
 816 0026 14F0020F 		tst	r4, #2
 817 002a 04D0     		beq	.L61
 798:Drivers/STM32L4xx_HAL_Driver/Src/stm32l4xx_hal_flash_ex.c **** 
 818              		.loc 1 798 7 is_stmt 1 view .LVU245
 801:Drivers/STM32L4xx_HAL_Driver/Src/stm32l4xx_hal_flash_ex.c ****       optr_reg_mask |= FLASH_OPTR_nRST_STOP;
 819              		.loc 1 801 7 view .LVU246
 801:Drivers/STM32L4xx_HAL_Driver/Src/stm32l4xx_hal_flash_ex.c ****       optr_reg_mask |= FLASH_OPTR_nRST_STOP;
 820              		.loc 1 801 35 is_stmt 0 view .LVU247
 821 002c 05F48051 		and	r1, r5, #4096
 801:Drivers/STM32L4xx_HAL_Driver/Src/stm32l4xx_hal_flash_ex.c ****       optr_reg_mask |= FLASH_OPTR_nRST_STOP;
 822              		.loc 1 801 20 view .LVU248
 823 0030 0B43     		orrs	r3, r3, r1
 824              	.LVL67:
 802:Drivers/STM32L4xx_HAL_Driver/Src/stm32l4xx_hal_flash_ex.c ****     }
 825              		.loc 1 802 7 is_stmt 1 view .LVU249
ARM GAS  /tmp/ccQmN1qL.s 			page 41


 802:Drivers/STM32L4xx_HAL_Driver/Src/stm32l4xx_hal_flash_ex.c ****     }
 826              		.loc 1 802 21 is_stmt 0 view .LVU250
 827 0032 42F48052 		orr	r2, r2, #4096
 828              	.LVL68:
 829              	.L61:
 805:Drivers/STM32L4xx_HAL_Driver/Src/stm32l4xx_hal_flash_ex.c ****     {
 830              		.loc 1 805 5 is_stmt 1 view .LVU251
 805:Drivers/STM32L4xx_HAL_Driver/Src/stm32l4xx_hal_flash_ex.c ****     {
 831              		.loc 1 805 7 is_stmt 0 view .LVU252
 832 0036 14F0040F 		tst	r4, #4
 833 003a 04D0     		beq	.L62
 808:Drivers/STM32L4xx_HAL_Driver/Src/stm32l4xx_hal_flash_ex.c **** 
 834              		.loc 1 808 7 is_stmt 1 view .LVU253
 811:Drivers/STM32L4xx_HAL_Driver/Src/stm32l4xx_hal_flash_ex.c ****       optr_reg_mask |= FLASH_OPTR_nRST_STDBY;
 835              		.loc 1 811 7 view .LVU254
 811:Drivers/STM32L4xx_HAL_Driver/Src/stm32l4xx_hal_flash_ex.c ****       optr_reg_mask |= FLASH_OPTR_nRST_STDBY;
 836              		.loc 1 811 35 is_stmt 0 view .LVU255
 837 003c 05F40051 		and	r1, r5, #8192
 811:Drivers/STM32L4xx_HAL_Driver/Src/stm32l4xx_hal_flash_ex.c ****       optr_reg_mask |= FLASH_OPTR_nRST_STDBY;
 838              		.loc 1 811 20 view .LVU256
 839 0040 0B43     		orrs	r3, r3, r1
 840              	.LVL69:
 812:Drivers/STM32L4xx_HAL_Driver/Src/stm32l4xx_hal_flash_ex.c ****     }
 841              		.loc 1 812 7 is_stmt 1 view .LVU257
 812:Drivers/STM32L4xx_HAL_Driver/Src/stm32l4xx_hal_flash_ex.c ****     }
 842              		.loc 1 812 21 is_stmt 0 view .LVU258
 843 0042 42F40052 		orr	r2, r2, #8192
 844              	.LVL70:
 845              	.L62:
 815:Drivers/STM32L4xx_HAL_Driver/Src/stm32l4xx_hal_flash_ex.c ****     {
 846              		.loc 1 815 5 is_stmt 1 view .LVU259
 815:Drivers/STM32L4xx_HAL_Driver/Src/stm32l4xx_hal_flash_ex.c ****     {
 847              		.loc 1 815 7 is_stmt 0 view .LVU260
 848 0046 14F4805F 		tst	r4, #4096
 849 004a 04D0     		beq	.L63
 818:Drivers/STM32L4xx_HAL_Driver/Src/stm32l4xx_hal_flash_ex.c **** 
 850              		.loc 1 818 7 is_stmt 1 view .LVU261
 821:Drivers/STM32L4xx_HAL_Driver/Src/stm32l4xx_hal_flash_ex.c ****       optr_reg_mask |= FLASH_OPTR_nRST_SHDW;
 851              		.loc 1 821 7 view .LVU262
 821:Drivers/STM32L4xx_HAL_Driver/Src/stm32l4xx_hal_flash_ex.c ****       optr_reg_mask |= FLASH_OPTR_nRST_SHDW;
 852              		.loc 1 821 35 is_stmt 0 view .LVU263
 853 004c 05F48041 		and	r1, r5, #16384
 821:Drivers/STM32L4xx_HAL_Driver/Src/stm32l4xx_hal_flash_ex.c ****       optr_reg_mask |= FLASH_OPTR_nRST_SHDW;
 854              		.loc 1 821 20 view .LVU264
 855 0050 0B43     		orrs	r3, r3, r1
 856              	.LVL71:
 822:Drivers/STM32L4xx_HAL_Driver/Src/stm32l4xx_hal_flash_ex.c ****     }
 857              		.loc 1 822 7 is_stmt 1 view .LVU265
 822:Drivers/STM32L4xx_HAL_Driver/Src/stm32l4xx_hal_flash_ex.c ****     }
 858              		.loc 1 822 21 is_stmt 0 view .LVU266
 859 0052 42F48042 		orr	r2, r2, #16384
 860              	.LVL72:
 861              	.L63:
 825:Drivers/STM32L4xx_HAL_Driver/Src/stm32l4xx_hal_flash_ex.c ****     {
 862              		.loc 1 825 5 is_stmt 1 view .LVU267
 825:Drivers/STM32L4xx_HAL_Driver/Src/stm32l4xx_hal_flash_ex.c ****     {
 863              		.loc 1 825 7 is_stmt 0 view .LVU268
ARM GAS  /tmp/ccQmN1qL.s 			page 42


 864 0056 14F0080F 		tst	r4, #8
 865 005a 04D0     		beq	.L64
 828:Drivers/STM32L4xx_HAL_Driver/Src/stm32l4xx_hal_flash_ex.c **** 
 866              		.loc 1 828 7 is_stmt 1 view .LVU269
 831:Drivers/STM32L4xx_HAL_Driver/Src/stm32l4xx_hal_flash_ex.c ****       optr_reg_mask |= FLASH_OPTR_IWDG_SW;
 867              		.loc 1 831 7 view .LVU270
 831:Drivers/STM32L4xx_HAL_Driver/Src/stm32l4xx_hal_flash_ex.c ****       optr_reg_mask |= FLASH_OPTR_IWDG_SW;
 868              		.loc 1 831 35 is_stmt 0 view .LVU271
 869 005c 05F48031 		and	r1, r5, #65536
 831:Drivers/STM32L4xx_HAL_Driver/Src/stm32l4xx_hal_flash_ex.c ****       optr_reg_mask |= FLASH_OPTR_IWDG_SW;
 870              		.loc 1 831 20 view .LVU272
 871 0060 0B43     		orrs	r3, r3, r1
 872              	.LVL73:
 832:Drivers/STM32L4xx_HAL_Driver/Src/stm32l4xx_hal_flash_ex.c ****     }
 873              		.loc 1 832 7 is_stmt 1 view .LVU273
 832:Drivers/STM32L4xx_HAL_Driver/Src/stm32l4xx_hal_flash_ex.c ****     }
 874              		.loc 1 832 21 is_stmt 0 view .LVU274
 875 0062 42F48032 		orr	r2, r2, #65536
 876              	.LVL74:
 877              	.L64:
 835:Drivers/STM32L4xx_HAL_Driver/Src/stm32l4xx_hal_flash_ex.c ****     {
 878              		.loc 1 835 5 is_stmt 1 view .LVU275
 835:Drivers/STM32L4xx_HAL_Driver/Src/stm32l4xx_hal_flash_ex.c ****     {
 879              		.loc 1 835 7 is_stmt 0 view .LVU276
 880 0066 14F0100F 		tst	r4, #16
 881 006a 04D0     		beq	.L65
 838:Drivers/STM32L4xx_HAL_Driver/Src/stm32l4xx_hal_flash_ex.c **** 
 882              		.loc 1 838 7 is_stmt 1 view .LVU277
 841:Drivers/STM32L4xx_HAL_Driver/Src/stm32l4xx_hal_flash_ex.c ****       optr_reg_mask |= FLASH_OPTR_IWDG_STOP;
 883              		.loc 1 841 7 view .LVU278
 841:Drivers/STM32L4xx_HAL_Driver/Src/stm32l4xx_hal_flash_ex.c ****       optr_reg_mask |= FLASH_OPTR_IWDG_STOP;
 884              		.loc 1 841 35 is_stmt 0 view .LVU279
 885 006c 05F40031 		and	r1, r5, #131072
 841:Drivers/STM32L4xx_HAL_Driver/Src/stm32l4xx_hal_flash_ex.c ****       optr_reg_mask |= FLASH_OPTR_IWDG_STOP;
 886              		.loc 1 841 20 view .LVU280
 887 0070 0B43     		orrs	r3, r3, r1
 888              	.LVL75:
 842:Drivers/STM32L4xx_HAL_Driver/Src/stm32l4xx_hal_flash_ex.c ****     }
 889              		.loc 1 842 7 is_stmt 1 view .LVU281
 842:Drivers/STM32L4xx_HAL_Driver/Src/stm32l4xx_hal_flash_ex.c ****     }
 890              		.loc 1 842 21 is_stmt 0 view .LVU282
 891 0072 42F40032 		orr	r2, r2, #131072
 892              	.LVL76:
 893              	.L65:
 845:Drivers/STM32L4xx_HAL_Driver/Src/stm32l4xx_hal_flash_ex.c ****     {
 894              		.loc 1 845 5 is_stmt 1 view .LVU283
 845:Drivers/STM32L4xx_HAL_Driver/Src/stm32l4xx_hal_flash_ex.c ****     {
 895              		.loc 1 845 7 is_stmt 0 view .LVU284
 896 0076 14F0200F 		tst	r4, #32
 897 007a 04D0     		beq	.L66
 848:Drivers/STM32L4xx_HAL_Driver/Src/stm32l4xx_hal_flash_ex.c **** 
 898              		.loc 1 848 7 is_stmt 1 view .LVU285
 851:Drivers/STM32L4xx_HAL_Driver/Src/stm32l4xx_hal_flash_ex.c ****       optr_reg_mask |= FLASH_OPTR_IWDG_STDBY;
 899              		.loc 1 851 7 view .LVU286
 851:Drivers/STM32L4xx_HAL_Driver/Src/stm32l4xx_hal_flash_ex.c ****       optr_reg_mask |= FLASH_OPTR_IWDG_STDBY;
 900              		.loc 1 851 35 is_stmt 0 view .LVU287
 901 007c 05F48021 		and	r1, r5, #262144
ARM GAS  /tmp/ccQmN1qL.s 			page 43


 851:Drivers/STM32L4xx_HAL_Driver/Src/stm32l4xx_hal_flash_ex.c ****       optr_reg_mask |= FLASH_OPTR_IWDG_STDBY;
 902              		.loc 1 851 20 view .LVU288
 903 0080 0B43     		orrs	r3, r3, r1
 904              	.LVL77:
 852:Drivers/STM32L4xx_HAL_Driver/Src/stm32l4xx_hal_flash_ex.c ****     }
 905              		.loc 1 852 7 is_stmt 1 view .LVU289
 852:Drivers/STM32L4xx_HAL_Driver/Src/stm32l4xx_hal_flash_ex.c ****     }
 906              		.loc 1 852 21 is_stmt 0 view .LVU290
 907 0082 42F48022 		orr	r2, r2, #262144
 908              	.LVL78:
 909              	.L66:
 855:Drivers/STM32L4xx_HAL_Driver/Src/stm32l4xx_hal_flash_ex.c ****     {
 910              		.loc 1 855 5 is_stmt 1 view .LVU291
 855:Drivers/STM32L4xx_HAL_Driver/Src/stm32l4xx_hal_flash_ex.c ****     {
 911              		.loc 1 855 7 is_stmt 0 view .LVU292
 912 0086 14F0400F 		tst	r4, #64
 913 008a 04D0     		beq	.L67
 858:Drivers/STM32L4xx_HAL_Driver/Src/stm32l4xx_hal_flash_ex.c **** 
 914              		.loc 1 858 7 is_stmt 1 view .LVU293
 861:Drivers/STM32L4xx_HAL_Driver/Src/stm32l4xx_hal_flash_ex.c ****       optr_reg_mask |= FLASH_OPTR_WWDG_SW;
 915              		.loc 1 861 7 view .LVU294
 861:Drivers/STM32L4xx_HAL_Driver/Src/stm32l4xx_hal_flash_ex.c ****       optr_reg_mask |= FLASH_OPTR_WWDG_SW;
 916              		.loc 1 861 35 is_stmt 0 view .LVU295
 917 008c 05F40021 		and	r1, r5, #524288
 861:Drivers/STM32L4xx_HAL_Driver/Src/stm32l4xx_hal_flash_ex.c ****       optr_reg_mask |= FLASH_OPTR_WWDG_SW;
 918              		.loc 1 861 20 view .LVU296
 919 0090 0B43     		orrs	r3, r3, r1
 920              	.LVL79:
 862:Drivers/STM32L4xx_HAL_Driver/Src/stm32l4xx_hal_flash_ex.c ****     }
 921              		.loc 1 862 7 is_stmt 1 view .LVU297
 862:Drivers/STM32L4xx_HAL_Driver/Src/stm32l4xx_hal_flash_ex.c ****     }
 922              		.loc 1 862 21 is_stmt 0 view .LVU298
 923 0092 42F40022 		orr	r2, r2, #524288
 924              	.LVL80:
 925              	.L67:
 869:Drivers/STM32L4xx_HAL_Driver/Src/stm32l4xx_hal_flash_ex.c ****     {
 926              		.loc 1 869 5 is_stmt 1 view .LVU299
 869:Drivers/STM32L4xx_HAL_Driver/Src/stm32l4xx_hal_flash_ex.c ****     {
 927              		.loc 1 869 7 is_stmt 0 view .LVU300
 928 0096 14F0800F 		tst	r4, #128
 929 009a 04D0     		beq	.L68
 872:Drivers/STM32L4xx_HAL_Driver/Src/stm32l4xx_hal_flash_ex.c **** 
 930              		.loc 1 872 7 is_stmt 1 view .LVU301
 875:Drivers/STM32L4xx_HAL_Driver/Src/stm32l4xx_hal_flash_ex.c ****       optr_reg_mask |= FLASH_OPTR_BFB2;
 931              		.loc 1 875 7 view .LVU302
 875:Drivers/STM32L4xx_HAL_Driver/Src/stm32l4xx_hal_flash_ex.c ****       optr_reg_mask |= FLASH_OPTR_BFB2;
 932              		.loc 1 875 35 is_stmt 0 view .LVU303
 933 009c 05F48011 		and	r1, r5, #1048576
 875:Drivers/STM32L4xx_HAL_Driver/Src/stm32l4xx_hal_flash_ex.c ****       optr_reg_mask |= FLASH_OPTR_BFB2;
 934              		.loc 1 875 20 view .LVU304
 935 00a0 0B43     		orrs	r3, r3, r1
 936              	.LVL81:
 876:Drivers/STM32L4xx_HAL_Driver/Src/stm32l4xx_hal_flash_ex.c ****     }
 937              		.loc 1 876 7 is_stmt 1 view .LVU305
 876:Drivers/STM32L4xx_HAL_Driver/Src/stm32l4xx_hal_flash_ex.c ****     }
 938              		.loc 1 876 21 is_stmt 0 view .LVU306
 939 00a2 42F48012 		orr	r2, r2, #1048576
ARM GAS  /tmp/ccQmN1qL.s 			page 44


 940              	.LVL82:
 941              	.L68:
 879:Drivers/STM32L4xx_HAL_Driver/Src/stm32l4xx_hal_flash_ex.c ****     {
 942              		.loc 1 879 5 is_stmt 1 view .LVU307
 879:Drivers/STM32L4xx_HAL_Driver/Src/stm32l4xx_hal_flash_ex.c ****     {
 943              		.loc 1 879 7 is_stmt 0 view .LVU308
 944 00a6 14F4807F 		tst	r4, #256
 945 00aa 04D0     		beq	.L69
 883:Drivers/STM32L4xx_HAL_Driver/Src/stm32l4xx_hal_flash_ex.c **** 
 946              		.loc 1 883 7 is_stmt 1 view .LVU309
 886:Drivers/STM32L4xx_HAL_Driver/Src/stm32l4xx_hal_flash_ex.c ****       optr_reg_mask |= FLASH_OPTR_DB1M;
 947              		.loc 1 886 7 view .LVU310
 886:Drivers/STM32L4xx_HAL_Driver/Src/stm32l4xx_hal_flash_ex.c ****       optr_reg_mask |= FLASH_OPTR_DB1M;
 948              		.loc 1 886 35 is_stmt 0 view .LVU311
 949 00ac 05F40011 		and	r1, r5, #2097152
 886:Drivers/STM32L4xx_HAL_Driver/Src/stm32l4xx_hal_flash_ex.c ****       optr_reg_mask |= FLASH_OPTR_DB1M;
 950              		.loc 1 886 20 view .LVU312
 951 00b0 0B43     		orrs	r3, r3, r1
 952              	.LVL83:
 887:Drivers/STM32L4xx_HAL_Driver/Src/stm32l4xx_hal_flash_ex.c **** #else
 953              		.loc 1 887 7 is_stmt 1 view .LVU313
 887:Drivers/STM32L4xx_HAL_Driver/Src/stm32l4xx_hal_flash_ex.c **** #else
 954              		.loc 1 887 21 is_stmt 0 view .LVU314
 955 00b2 42F40012 		orr	r2, r2, #2097152
 956              	.LVL84:
 957              	.L69:
 899:Drivers/STM32L4xx_HAL_Driver/Src/stm32l4xx_hal_flash_ex.c ****     {
 958              		.loc 1 899 5 is_stmt 1 view .LVU315
 899:Drivers/STM32L4xx_HAL_Driver/Src/stm32l4xx_hal_flash_ex.c ****     {
 959              		.loc 1 899 7 is_stmt 0 view .LVU316
 960 00b6 14F4007F 		tst	r4, #512
 961 00ba 04D0     		beq	.L70
 902:Drivers/STM32L4xx_HAL_Driver/Src/stm32l4xx_hal_flash_ex.c **** 
 962              		.loc 1 902 7 is_stmt 1 view .LVU317
 905:Drivers/STM32L4xx_HAL_Driver/Src/stm32l4xx_hal_flash_ex.c ****       optr_reg_mask |= FLASH_OPTR_nBOOT1;
 963              		.loc 1 905 7 view .LVU318
 905:Drivers/STM32L4xx_HAL_Driver/Src/stm32l4xx_hal_flash_ex.c ****       optr_reg_mask |= FLASH_OPTR_nBOOT1;
 964              		.loc 1 905 35 is_stmt 0 view .LVU319
 965 00bc 05F40001 		and	r1, r5, #8388608
 905:Drivers/STM32L4xx_HAL_Driver/Src/stm32l4xx_hal_flash_ex.c ****       optr_reg_mask |= FLASH_OPTR_nBOOT1;
 966              		.loc 1 905 20 view .LVU320
 967 00c0 0B43     		orrs	r3, r3, r1
 968              	.LVL85:
 906:Drivers/STM32L4xx_HAL_Driver/Src/stm32l4xx_hal_flash_ex.c ****     }
 969              		.loc 1 906 7 is_stmt 1 view .LVU321
 906:Drivers/STM32L4xx_HAL_Driver/Src/stm32l4xx_hal_flash_ex.c ****     }
 970              		.loc 1 906 21 is_stmt 0 view .LVU322
 971 00c2 42F40002 		orr	r2, r2, #8388608
 972              	.LVL86:
 973              	.L70:
 909:Drivers/STM32L4xx_HAL_Driver/Src/stm32l4xx_hal_flash_ex.c ****     {
 974              		.loc 1 909 5 is_stmt 1 view .LVU323
 909:Drivers/STM32L4xx_HAL_Driver/Src/stm32l4xx_hal_flash_ex.c ****     {
 975              		.loc 1 909 7 is_stmt 0 view .LVU324
 976 00c6 14F4806F 		tst	r4, #1024
 977 00ca 04D0     		beq	.L71
 912:Drivers/STM32L4xx_HAL_Driver/Src/stm32l4xx_hal_flash_ex.c **** 
ARM GAS  /tmp/ccQmN1qL.s 			page 45


 978              		.loc 1 912 7 is_stmt 1 view .LVU325
 915:Drivers/STM32L4xx_HAL_Driver/Src/stm32l4xx_hal_flash_ex.c ****       optr_reg_mask |= FLASH_OPTR_SRAM2_PE;
 979              		.loc 1 915 7 view .LVU326
 915:Drivers/STM32L4xx_HAL_Driver/Src/stm32l4xx_hal_flash_ex.c ****       optr_reg_mask |= FLASH_OPTR_SRAM2_PE;
 980              		.loc 1 915 35 is_stmt 0 view .LVU327
 981 00cc 05F08071 		and	r1, r5, #16777216
 915:Drivers/STM32L4xx_HAL_Driver/Src/stm32l4xx_hal_flash_ex.c ****       optr_reg_mask |= FLASH_OPTR_SRAM2_PE;
 982              		.loc 1 915 20 view .LVU328
 983 00d0 0B43     		orrs	r3, r3, r1
 984              	.LVL87:
 916:Drivers/STM32L4xx_HAL_Driver/Src/stm32l4xx_hal_flash_ex.c ****     }
 985              		.loc 1 916 7 is_stmt 1 view .LVU329
 916:Drivers/STM32L4xx_HAL_Driver/Src/stm32l4xx_hal_flash_ex.c ****     }
 986              		.loc 1 916 21 is_stmt 0 view .LVU330
 987 00d2 42F08072 		orr	r2, r2, #16777216
 988              	.LVL88:
 989              	.L71:
 919:Drivers/STM32L4xx_HAL_Driver/Src/stm32l4xx_hal_flash_ex.c ****     {
 990              		.loc 1 919 5 is_stmt 1 view .LVU331
 919:Drivers/STM32L4xx_HAL_Driver/Src/stm32l4xx_hal_flash_ex.c ****     {
 991              		.loc 1 919 7 is_stmt 0 view .LVU332
 992 00d6 14F4006F 		tst	r4, #2048
 993 00da 04D0     		beq	.L72
 922:Drivers/STM32L4xx_HAL_Driver/Src/stm32l4xx_hal_flash_ex.c **** 
 994              		.loc 1 922 7 is_stmt 1 view .LVU333
 925:Drivers/STM32L4xx_HAL_Driver/Src/stm32l4xx_hal_flash_ex.c ****       optr_reg_mask |= FLASH_OPTR_SRAM2_RST;
 995              		.loc 1 925 7 view .LVU334
 925:Drivers/STM32L4xx_HAL_Driver/Src/stm32l4xx_hal_flash_ex.c ****       optr_reg_mask |= FLASH_OPTR_SRAM2_RST;
 996              		.loc 1 925 35 is_stmt 0 view .LVU335
 997 00dc 05F00071 		and	r1, r5, #33554432
 925:Drivers/STM32L4xx_HAL_Driver/Src/stm32l4xx_hal_flash_ex.c ****       optr_reg_mask |= FLASH_OPTR_SRAM2_RST;
 998              		.loc 1 925 20 view .LVU336
 999 00e0 0B43     		orrs	r3, r3, r1
 1000              	.LVL89:
 926:Drivers/STM32L4xx_HAL_Driver/Src/stm32l4xx_hal_flash_ex.c ****     }
 1001              		.loc 1 926 7 is_stmt 1 view .LVU337
 926:Drivers/STM32L4xx_HAL_Driver/Src/stm32l4xx_hal_flash_ex.c ****     }
 1002              		.loc 1 926 21 is_stmt 0 view .LVU338
 1003 00e2 42F00072 		orr	r2, r2, #33554432
 1004              	.LVL90:
 1005              	.L72:
 934:Drivers/STM32L4xx_HAL_Driver/Src/stm32l4xx_hal_flash_ex.c ****     {
 1006              		.loc 1 934 5 is_stmt 1 view .LVU339
 934:Drivers/STM32L4xx_HAL_Driver/Src/stm32l4xx_hal_flash_ex.c ****     {
 1007              		.loc 1 934 7 is_stmt 0 view .LVU340
 1008 00e6 14F4005F 		tst	r4, #8192
 1009 00ea 04D0     		beq	.L73
 937:Drivers/STM32L4xx_HAL_Driver/Src/stm32l4xx_hal_flash_ex.c **** 
 1010              		.loc 1 937 7 is_stmt 1 view .LVU341
 940:Drivers/STM32L4xx_HAL_Driver/Src/stm32l4xx_hal_flash_ex.c ****       optr_reg_mask |= FLASH_OPTR_nSWBOOT0;
 1011              		.loc 1 940 7 view .LVU342
 940:Drivers/STM32L4xx_HAL_Driver/Src/stm32l4xx_hal_flash_ex.c ****       optr_reg_mask |= FLASH_OPTR_nSWBOOT0;
 1012              		.loc 1 940 35 is_stmt 0 view .LVU343
 1013 00ec 05F08061 		and	r1, r5, #67108864
 940:Drivers/STM32L4xx_HAL_Driver/Src/stm32l4xx_hal_flash_ex.c ****       optr_reg_mask |= FLASH_OPTR_nSWBOOT0;
 1014              		.loc 1 940 20 view .LVU344
 1015 00f0 0B43     		orrs	r3, r3, r1
ARM GAS  /tmp/ccQmN1qL.s 			page 46


 1016              	.LVL91:
 941:Drivers/STM32L4xx_HAL_Driver/Src/stm32l4xx_hal_flash_ex.c ****     }
 1017              		.loc 1 941 7 is_stmt 1 view .LVU345
 941:Drivers/STM32L4xx_HAL_Driver/Src/stm32l4xx_hal_flash_ex.c ****     }
 1018              		.loc 1 941 21 is_stmt 0 view .LVU346
 1019 00f2 42F08062 		orr	r2, r2, #67108864
 1020              	.LVL92:
 1021              	.L73:
 944:Drivers/STM32L4xx_HAL_Driver/Src/stm32l4xx_hal_flash_ex.c ****     {
 1022              		.loc 1 944 5 is_stmt 1 view .LVU347
 944:Drivers/STM32L4xx_HAL_Driver/Src/stm32l4xx_hal_flash_ex.c ****     {
 1023              		.loc 1 944 7 is_stmt 0 view .LVU348
 1024 00f6 14F4804F 		tst	r4, #16384
 1025 00fa 04D0     		beq	.L74
 947:Drivers/STM32L4xx_HAL_Driver/Src/stm32l4xx_hal_flash_ex.c **** 
 1026              		.loc 1 947 7 is_stmt 1 view .LVU349
 950:Drivers/STM32L4xx_HAL_Driver/Src/stm32l4xx_hal_flash_ex.c ****       optr_reg_mask |= FLASH_OPTR_nBOOT0;
 1027              		.loc 1 950 7 view .LVU350
 950:Drivers/STM32L4xx_HAL_Driver/Src/stm32l4xx_hal_flash_ex.c ****       optr_reg_mask |= FLASH_OPTR_nBOOT0;
 1028              		.loc 1 950 35 is_stmt 0 view .LVU351
 1029 00fc 05F00065 		and	r5, r5, #134217728
 1030              	.LVL93:
 950:Drivers/STM32L4xx_HAL_Driver/Src/stm32l4xx_hal_flash_ex.c ****       optr_reg_mask |= FLASH_OPTR_nBOOT0;
 1031              		.loc 1 950 20 view .LVU352
 1032 0100 2B43     		orrs	r3, r3, r5
 1033              	.LVL94:
 951:Drivers/STM32L4xx_HAL_Driver/Src/stm32l4xx_hal_flash_ex.c ****     }
 1034              		.loc 1 951 7 is_stmt 1 view .LVU353
 951:Drivers/STM32L4xx_HAL_Driver/Src/stm32l4xx_hal_flash_ex.c ****     }
 1035              		.loc 1 951 21 is_stmt 0 view .LVU354
 1036 0102 42F00062 		orr	r2, r2, #134217728
 1037              	.LVL95:
 1038              	.L74:
 956:Drivers/STM32L4xx_HAL_Driver/Src/stm32l4xx_hal_flash_ex.c **** 
 1039              		.loc 1 956 5 is_stmt 1 view .LVU355
 1040 0106 094C     		ldr	r4, .L77
 1041              	.LVL96:
 956:Drivers/STM32L4xx_HAL_Driver/Src/stm32l4xx_hal_flash_ex.c **** 
 1042              		.loc 1 956 5 is_stmt 0 view .LVU356
 1043 0108 216A     		ldr	r1, [r4, #32]
 1044 010a 21EA0202 		bic	r2, r1, r2
 1045              	.LVL97:
 956:Drivers/STM32L4xx_HAL_Driver/Src/stm32l4xx_hal_flash_ex.c **** 
 1046              		.loc 1 956 5 view .LVU357
 1047 010e 1343     		orrs	r3, r3, r2
 1048              	.LVL98:
 956:Drivers/STM32L4xx_HAL_Driver/Src/stm32l4xx_hal_flash_ex.c **** 
 1049              		.loc 1 956 5 view .LVU358
 1050 0110 2362     		str	r3, [r4, #32]
 959:Drivers/STM32L4xx_HAL_Driver/Src/stm32l4xx_hal_flash_ex.c **** 
 1051              		.loc 1 959 5 is_stmt 1 view .LVU359
 1052 0112 6369     		ldr	r3, [r4, #20]
 1053 0114 43F40033 		orr	r3, r3, #131072
 1054 0118 6361     		str	r3, [r4, #20]
 962:Drivers/STM32L4xx_HAL_Driver/Src/stm32l4xx_hal_flash_ex.c **** 
 1055              		.loc 1 962 5 view .LVU360
 962:Drivers/STM32L4xx_HAL_Driver/Src/stm32l4xx_hal_flash_ex.c **** 
ARM GAS  /tmp/ccQmN1qL.s 			page 47


 1056              		.loc 1 962 14 is_stmt 0 view .LVU361
 1057 011a 4CF25030 		movw	r0, #50000
 1058 011e FFF7FEFF 		bl	FLASH_WaitForLastOperation
 1059              	.LVL99:
 965:Drivers/STM32L4xx_HAL_Driver/Src/stm32l4xx_hal_flash_ex.c ****   }
 1060              		.loc 1 965 5 is_stmt 1 view .LVU362
 1061 0122 6369     		ldr	r3, [r4, #20]
 1062 0124 23F40033 		bic	r3, r3, #131072
 1063 0128 6361     		str	r3, [r4, #20]
 1064              	.LVL100:
 1065              	.L59:
 968:Drivers/STM32L4xx_HAL_Driver/Src/stm32l4xx_hal_flash_ex.c **** }
 1066              		.loc 1 968 3 view .LVU363
 969:Drivers/STM32L4xx_HAL_Driver/Src/stm32l4xx_hal_flash_ex.c **** 
 1067              		.loc 1 969 1 is_stmt 0 view .LVU364
 1068 012a 38BD     		pop	{r3, r4, r5, pc}
 1069              	.L78:
 1070              		.align	2
 1071              	.L77:
 1072 012c 00200240 		.word	1073881088
 1073              		.cfi_endproc
 1074              	.LFE144:
 1076              		.section	.text.FLASH_OB_PCROPConfig,"ax",%progbits
 1077              		.align	1
 1078              		.syntax unified
 1079              		.thumb
 1080              		.thumb_func
 1081              		.fpu fpv4-sp-d16
 1083              	FLASH_OB_PCROPConfig:
 1084              	.LVL101:
 1085              	.LFB145:
 992:Drivers/STM32L4xx_HAL_Driver/Src/stm32l4xx_hal_flash_ex.c ****   HAL_StatusTypeDef status;
 1086              		.loc 1 992 1 is_stmt 1 view -0
 1087              		.cfi_startproc
 1088              		@ args = 0, pretend = 0, frame = 0
 1089              		@ frame_needed = 0, uses_anonymous_args = 0
 992:Drivers/STM32L4xx_HAL_Driver/Src/stm32l4xx_hal_flash_ex.c ****   HAL_StatusTypeDef status;
 1090              		.loc 1 992 1 is_stmt 0 view .LVU366
 1091 0000 70B5     		push	{r4, r5, r6, lr}
 1092              	.LCFI6:
 1093              		.cfi_def_cfa_offset 16
 1094              		.cfi_offset 4, -16
 1095              		.cfi_offset 5, -12
 1096              		.cfi_offset 6, -8
 1097              		.cfi_offset 14, -4
 1098 0002 0446     		mov	r4, r0
 1099 0004 0E46     		mov	r6, r1
 1100 0006 1546     		mov	r5, r2
 993:Drivers/STM32L4xx_HAL_Driver/Src/stm32l4xx_hal_flash_ex.c ****   uint32_t reg_value;
 1101              		.loc 1 993 3 is_stmt 1 view .LVU367
 994:Drivers/STM32L4xx_HAL_Driver/Src/stm32l4xx_hal_flash_ex.c ****   uint32_t bank1_addr;
 1102              		.loc 1 994 3 view .LVU368
 995:Drivers/STM32L4xx_HAL_Driver/Src/stm32l4xx_hal_flash_ex.c **** #if defined (STM32L471xx) || defined (STM32L475xx) || defined (STM32L476xx) || defined (STM32L485xx
 1103              		.loc 1 995 3 view .LVU369
1000:Drivers/STM32L4xx_HAL_Driver/Src/stm32l4xx_hal_flash_ex.c **** #endif
 1104              		.loc 1 1000 3 view .LVU370
1004:Drivers/STM32L4xx_HAL_Driver/Src/stm32l4xx_hal_flash_ex.c ****   assert_param(IS_OB_PCROP_RDP(PCROPConfig & FLASH_PCROP1ER_PCROP_RDP));
ARM GAS  /tmp/ccQmN1qL.s 			page 48


 1105              		.loc 1 1004 3 view .LVU371
1005:Drivers/STM32L4xx_HAL_Driver/Src/stm32l4xx_hal_flash_ex.c ****   assert_param(IS_FLASH_MAIN_MEM_ADDRESS(PCROPStartAddr));
 1106              		.loc 1 1005 3 view .LVU372
1006:Drivers/STM32L4xx_HAL_Driver/Src/stm32l4xx_hal_flash_ex.c ****   assert_param(IS_FLASH_MAIN_MEM_ADDRESS(PCROPEndAddr));
 1107              		.loc 1 1006 3 view .LVU373
1007:Drivers/STM32L4xx_HAL_Driver/Src/stm32l4xx_hal_flash_ex.c **** 
 1108              		.loc 1 1007 3 view .LVU374
1010:Drivers/STM32L4xx_HAL_Driver/Src/stm32l4xx_hal_flash_ex.c **** 
 1109              		.loc 1 1010 3 view .LVU375
1010:Drivers/STM32L4xx_HAL_Driver/Src/stm32l4xx_hal_flash_ex.c **** 
 1110              		.loc 1 1010 12 is_stmt 0 view .LVU376
 1111 0008 4CF25030 		movw	r0, #50000
 1112              	.LVL102:
1010:Drivers/STM32L4xx_HAL_Driver/Src/stm32l4xx_hal_flash_ex.c **** 
 1113              		.loc 1 1010 12 view .LVU377
 1114 000c FFF7FEFF 		bl	FLASH_WaitForLastOperation
 1115              	.LVL103:
1012:Drivers/STM32L4xx_HAL_Driver/Src/stm32l4xx_hal_flash_ex.c ****   {
 1116              		.loc 1 1012 3 is_stmt 1 view .LVU378
1012:Drivers/STM32L4xx_HAL_Driver/Src/stm32l4xx_hal_flash_ex.c ****   {
 1117              		.loc 1 1012 5 is_stmt 0 view .LVU379
 1118 0010 0028     		cmp	r0, #0
 1119 0012 31D1     		bne	.L80
1019:Drivers/STM32L4xx_HAL_Driver/Src/stm32l4xx_hal_flash_ex.c ****     {
 1120              		.loc 1 1019 5 is_stmt 1 view .LVU380
1019:Drivers/STM32L4xx_HAL_Driver/Src/stm32l4xx_hal_flash_ex.c ****     {
 1121              		.loc 1 1019 9 is_stmt 0 view .LVU381
 1122 0014 4A4B     		ldr	r3, .L93
 1123 0016 1B68     		ldr	r3, [r3]
1019:Drivers/STM32L4xx_HAL_Driver/Src/stm32l4xx_hal_flash_ex.c ****     {
 1124              		.loc 1 1019 8 view .LVU382
 1125 0018 13F4807F 		tst	r3, #256
 1126 001c 2DD1     		bne	.L81
1021:Drivers/STM32L4xx_HAL_Driver/Src/stm32l4xx_hal_flash_ex.c ****       bank2_addr = FLASH_BASE + FLASH_BANK_SIZE;
 1127              		.loc 1 1021 7 is_stmt 1 view .LVU383
 1128              	.LVL104:
1022:Drivers/STM32L4xx_HAL_Driver/Src/stm32l4xx_hal_flash_ex.c ****     }
 1129              		.loc 1 1022 7 view .LVU384
1022:Drivers/STM32L4xx_HAL_Driver/Src/stm32l4xx_hal_flash_ex.c ****     }
 1130              		.loc 1 1022 33 is_stmt 0 view .LVU385
 1131 001e 494B     		ldr	r3, .L93+4
 1132 0020 1B68     		ldr	r3, [r3]
 1133 0022 99B2     		uxth	r1, r3
1022:Drivers/STM32L4xx_HAL_Driver/Src/stm32l4xx_hal_flash_ex.c ****     }
 1134              		.loc 1 1022 31 view .LVU386
 1135 0024 4FF6FF72 		movw	r2, #65535
 1136 0028 9142     		cmp	r1, r2
 1137 002a 35D0     		beq	.L87
1022:Drivers/STM32L4xx_HAL_Driver/Src/stm32l4xx_hal_flash_ex.c ****     }
 1138              		.loc 1 1022 33 discriminator 1 view .LVU387
 1139 002c 464A     		ldr	r2, .L93+8
 1140 002e 02EA4322 		and	r2, r2, r3, lsl #9
1022:Drivers/STM32L4xx_HAL_Driver/Src/stm32l4xx_hal_flash_ex.c ****     }
 1141              		.loc 1 1022 31 discriminator 1 view .LVU388
 1142 0032 02F10063 		add	r3, r2, #134217728
1021:Drivers/STM32L4xx_HAL_Driver/Src/stm32l4xx_hal_flash_ex.c ****       bank2_addr = FLASH_BASE + FLASH_BANK_SIZE;
 1143              		.loc 1 1021 18 discriminator 1 view .LVU389
ARM GAS  /tmp/ccQmN1qL.s 			page 49


 1144 0036 4FF00062 		mov	r2, #134217728
 1145              	.LVL105:
 1146              	.L82:
1034:Drivers/STM32L4xx_HAL_Driver/Src/stm32l4xx_hal_flash_ex.c ****     {
 1147              		.loc 1 1034 5 is_stmt 1 view .LVU390
1034:Drivers/STM32L4xx_HAL_Driver/Src/stm32l4xx_hal_flash_ex.c ****     {
 1148              		.loc 1 1034 9 is_stmt 0 view .LVU391
 1149 003a 4449     		ldr	r1, .L93+12
 1150 003c 096A     		ldr	r1, [r1, #32]
1034:Drivers/STM32L4xx_HAL_Driver/Src/stm32l4xx_hal_flash_ex.c ****     {
 1151              		.loc 1 1034 8 view .LVU392
 1152 003e 11F4800F 		tst	r1, #4194304
 1153 0042 57D1     		bne	.L83
1037:Drivers/STM32L4xx_HAL_Driver/Src/stm32l4xx_hal_flash_ex.c ****       {
 1154              		.loc 1 1037 7 is_stmt 1 view .LVU393
1037:Drivers/STM32L4xx_HAL_Driver/Src/stm32l4xx_hal_flash_ex.c ****       {
 1155              		.loc 1 1037 23 is_stmt 0 view .LVU394
 1156 0044 04F00303 		and	r3, r4, #3
 1157              	.LVL106:
1037:Drivers/STM32L4xx_HAL_Driver/Src/stm32l4xx_hal_flash_ex.c ****       {
 1158              		.loc 1 1037 9 view .LVU395
 1159 0048 012B     		cmp	r3, #1
 1160 004a 2FD0     		beq	.L90
1045:Drivers/STM32L4xx_HAL_Driver/Src/stm32l4xx_hal_flash_ex.c ****       {
 1161              		.loc 1 1045 12 is_stmt 1 view .LVU396
1045:Drivers/STM32L4xx_HAL_Driver/Src/stm32l4xx_hal_flash_ex.c ****       {
 1162              		.loc 1 1045 14 is_stmt 0 view .LVU397
 1163 004c 022B     		cmp	r3, #2
 1164 004e 3FD0     		beq	.L91
 1165              	.LVL107:
 1166              	.L85:
1086:Drivers/STM32L4xx_HAL_Driver/Src/stm32l4xx_hal_flash_ex.c ****     }
 1167              		.loc 1 1086 7 is_stmt 1 view .LVU398
1089:Drivers/STM32L4xx_HAL_Driver/Src/stm32l4xx_hal_flash_ex.c **** 
 1168              		.loc 1 1089 5 view .LVU399
 1169 0050 3E4D     		ldr	r5, .L93+12
 1170 0052 AB6A     		ldr	r3, [r5, #40]
 1171 0054 23F00043 		bic	r3, r3, #-2147483648
 1172 0058 04F00044 		and	r4, r4, #-2147483648
 1173              	.LVL108:
1089:Drivers/STM32L4xx_HAL_Driver/Src/stm32l4xx_hal_flash_ex.c **** 
 1174              		.loc 1 1089 5 is_stmt 0 view .LVU400
 1175 005c 1C43     		orrs	r4, r4, r3
 1176 005e AC62     		str	r4, [r5, #40]
1092:Drivers/STM32L4xx_HAL_Driver/Src/stm32l4xx_hal_flash_ex.c **** 
 1177              		.loc 1 1092 5 is_stmt 1 view .LVU401
 1178 0060 6B69     		ldr	r3, [r5, #20]
 1179 0062 43F40033 		orr	r3, r3, #131072
 1180 0066 6B61     		str	r3, [r5, #20]
1095:Drivers/STM32L4xx_HAL_Driver/Src/stm32l4xx_hal_flash_ex.c **** 
 1181              		.loc 1 1095 5 view .LVU402
1095:Drivers/STM32L4xx_HAL_Driver/Src/stm32l4xx_hal_flash_ex.c **** 
 1182              		.loc 1 1095 14 is_stmt 0 view .LVU403
 1183 0068 4CF25030 		movw	r0, #50000
 1184 006c FFF7FEFF 		bl	FLASH_WaitForLastOperation
 1185              	.LVL109:
1098:Drivers/STM32L4xx_HAL_Driver/Src/stm32l4xx_hal_flash_ex.c ****   }
ARM GAS  /tmp/ccQmN1qL.s 			page 50


 1186              		.loc 1 1098 5 is_stmt 1 view .LVU404
 1187 0070 6B69     		ldr	r3, [r5, #20]
 1188 0072 23F40033 		bic	r3, r3, #131072
 1189 0076 6B61     		str	r3, [r5, #20]
 1190              	.LVL110:
 1191              	.L80:
1101:Drivers/STM32L4xx_HAL_Driver/Src/stm32l4xx_hal_flash_ex.c **** }
 1192              		.loc 1 1101 3 view .LVU405
1102:Drivers/STM32L4xx_HAL_Driver/Src/stm32l4xx_hal_flash_ex.c **** 
 1193              		.loc 1 1102 1 is_stmt 0 view .LVU406
 1194 0078 70BD     		pop	{r4, r5, r6, pc}
 1195              	.LVL111:
 1196              	.L81:
1026:Drivers/STM32L4xx_HAL_Driver/Src/stm32l4xx_hal_flash_ex.c ****       bank2_addr = FLASH_BASE;
 1197              		.loc 1 1026 7 is_stmt 1 view .LVU407
1026:Drivers/STM32L4xx_HAL_Driver/Src/stm32l4xx_hal_flash_ex.c ****       bank2_addr = FLASH_BASE;
 1198              		.loc 1 1026 33 is_stmt 0 view .LVU408
 1199 007a 324B     		ldr	r3, .L93+4
 1200 007c 1B68     		ldr	r3, [r3]
 1201 007e 99B2     		uxth	r1, r3
1026:Drivers/STM32L4xx_HAL_Driver/Src/stm32l4xx_hal_flash_ex.c ****       bank2_addr = FLASH_BASE;
 1202              		.loc 1 1026 31 view .LVU409
 1203 0080 4FF6FF72 		movw	r2, #65535
 1204 0084 9142     		cmp	r1, r2
 1205 0086 0CD0     		beq	.L88
1026:Drivers/STM32L4xx_HAL_Driver/Src/stm32l4xx_hal_flash_ex.c ****       bank2_addr = FLASH_BASE;
 1206              		.loc 1 1026 33 discriminator 1 view .LVU410
 1207 0088 2F4A     		ldr	r2, .L93+8
 1208 008a 02EA4322 		and	r2, r2, r3, lsl #9
1026:Drivers/STM32L4xx_HAL_Driver/Src/stm32l4xx_hal_flash_ex.c ****       bank2_addr = FLASH_BASE;
 1209              		.loc 1 1026 31 discriminator 1 view .LVU411
 1210 008e 02F10062 		add	r2, r2, #134217728
1027:Drivers/STM32L4xx_HAL_Driver/Src/stm32l4xx_hal_flash_ex.c ****     }
 1211              		.loc 1 1027 18 discriminator 1 view .LVU412
 1212 0092 4FF00063 		mov	r3, #134217728
 1213 0096 D0E7     		b	.L82
 1214              	.LVL112:
 1215              	.L87:
1022:Drivers/STM32L4xx_HAL_Driver/Src/stm32l4xx_hal_flash_ex.c ****     }
 1216              		.loc 1 1022 31 view .LVU413
 1217 0098 4FF00163 		mov	r3, #135266304
1021:Drivers/STM32L4xx_HAL_Driver/Src/stm32l4xx_hal_flash_ex.c ****       bank2_addr = FLASH_BASE + FLASH_BANK_SIZE;
 1218              		.loc 1 1021 18 view .LVU414
 1219 009c 4FF00062 		mov	r2, #134217728
 1220 00a0 CBE7     		b	.L82
 1221              	.LVL113:
 1222              	.L88:
1027:Drivers/STM32L4xx_HAL_Driver/Src/stm32l4xx_hal_flash_ex.c ****     }
 1223              		.loc 1 1027 18 view .LVU415
 1224 00a2 4FF00063 		mov	r3, #134217728
1026:Drivers/STM32L4xx_HAL_Driver/Src/stm32l4xx_hal_flash_ex.c ****       bank2_addr = FLASH_BASE;
 1225              		.loc 1 1026 31 view .LVU416
 1226 00a6 4FF00162 		mov	r2, #135266304
 1227 00aa C6E7     		b	.L82
 1228              	.LVL114:
 1229              	.L90:
1039:Drivers/STM32L4xx_HAL_Driver/Src/stm32l4xx_hal_flash_ex.c ****         MODIFY_REG(FLASH->PCROP1SR, FLASH_PCROP1SR_PCROP1_STRT, reg_value);
ARM GAS  /tmp/ccQmN1qL.s 			page 51


 1230              		.loc 1 1039 9 is_stmt 1 view .LVU417
1039:Drivers/STM32L4xx_HAL_Driver/Src/stm32l4xx_hal_flash_ex.c ****         MODIFY_REG(FLASH->PCROP1SR, FLASH_PCROP1SR_PCROP1_STRT, reg_value);
 1231              		.loc 1 1039 38 is_stmt 0 view .LVU418
 1232 00ac 06F17841 		add	r1, r6, #-134217728
 1233              	.LVL115:
1040:Drivers/STM32L4xx_HAL_Driver/Src/stm32l4xx_hal_flash_ex.c **** 
 1234              		.loc 1 1040 9 is_stmt 1 view .LVU419
 1235 00b0 2648     		ldr	r0, .L93+12
 1236 00b2 436A     		ldr	r3, [r0, #36]
 1237 00b4 5B0C     		lsrs	r3, r3, #17
 1238 00b6 5B04     		lsls	r3, r3, #17
 1239 00b8 43EA1113 		orr	r3, r3, r1, lsr #4
 1240 00bc 4362     		str	r3, [r0, #36]
1042:Drivers/STM32L4xx_HAL_Driver/Src/stm32l4xx_hal_flash_ex.c ****         MODIFY_REG(FLASH->PCROP1ER, FLASH_PCROP1ER_PCROP1_END, reg_value);
 1241              		.loc 1 1042 9 view .LVU420
1042:Drivers/STM32L4xx_HAL_Driver/Src/stm32l4xx_hal_flash_ex.c ****         MODIFY_REG(FLASH->PCROP1ER, FLASH_PCROP1ER_PCROP1_END, reg_value);
 1242              		.loc 1 1042 36 is_stmt 0 view .LVU421
 1243 00be 05F17842 		add	r2, r5, #-134217728
 1244              	.LVL116:
1043:Drivers/STM32L4xx_HAL_Driver/Src/stm32l4xx_hal_flash_ex.c ****       }
 1245              		.loc 1 1043 9 is_stmt 1 view .LVU422
 1246 00c2 836A     		ldr	r3, [r0, #40]
 1247 00c4 5B0C     		lsrs	r3, r3, #17
 1248 00c6 5B04     		lsls	r3, r3, #17
 1249 00c8 43EA1213 		orr	r3, r3, r2, lsr #4
 1250 00cc 8362     		str	r3, [r0, #40]
 1251 00ce BFE7     		b	.L85
 1252              	.LVL117:
 1253              	.L91:
1047:Drivers/STM32L4xx_HAL_Driver/Src/stm32l4xx_hal_flash_ex.c ****         MODIFY_REG(FLASH->PCROP2SR, FLASH_PCROP2SR_PCROP2_STRT, reg_value);
 1254              		.loc 1 1047 9 view .LVU423
1047:Drivers/STM32L4xx_HAL_Driver/Src/stm32l4xx_hal_flash_ex.c ****         MODIFY_REG(FLASH->PCROP2SR, FLASH_PCROP2SR_PCROP2_STRT, reg_value);
 1255              		.loc 1 1047 38 is_stmt 0 view .LVU424
 1256 00d0 06F17841 		add	r1, r6, #-134217728
 1257              	.LVL118:
1048:Drivers/STM32L4xx_HAL_Driver/Src/stm32l4xx_hal_flash_ex.c **** 
 1258              		.loc 1 1048 9 is_stmt 1 view .LVU425
 1259 00d4 1D48     		ldr	r0, .L93+12
 1260 00d6 436C     		ldr	r3, [r0, #68]
 1261 00d8 5B0C     		lsrs	r3, r3, #17
 1262 00da 5B04     		lsls	r3, r3, #17
 1263 00dc 43EA1113 		orr	r3, r3, r1, lsr #4
 1264 00e0 4364     		str	r3, [r0, #68]
1050:Drivers/STM32L4xx_HAL_Driver/Src/stm32l4xx_hal_flash_ex.c ****         MODIFY_REG(FLASH->PCROP2ER, FLASH_PCROP2ER_PCROP2_END, reg_value);
 1265              		.loc 1 1050 9 view .LVU426
1050:Drivers/STM32L4xx_HAL_Driver/Src/stm32l4xx_hal_flash_ex.c ****         MODIFY_REG(FLASH->PCROP2ER, FLASH_PCROP2ER_PCROP2_END, reg_value);
 1266              		.loc 1 1050 36 is_stmt 0 view .LVU427
 1267 00e2 05F17842 		add	r2, r5, #-134217728
 1268              	.LVL119:
1051:Drivers/STM32L4xx_HAL_Driver/Src/stm32l4xx_hal_flash_ex.c ****       }
 1269              		.loc 1 1051 9 is_stmt 1 view .LVU428
 1270 00e6 836C     		ldr	r3, [r0, #72]
 1271 00e8 5B0C     		lsrs	r3, r3, #17
 1272 00ea 5B04     		lsls	r3, r3, #17
 1273 00ec 43EA1213 		orr	r3, r3, r2, lsr #4
 1274 00f0 8364     		str	r3, [r0, #72]
 1275 00f2 ADE7     		b	.L85
ARM GAS  /tmp/ccQmN1qL.s 			page 52


 1276              	.LVL120:
 1277              	.L83:
1062:Drivers/STM32L4xx_HAL_Driver/Src/stm32l4xx_hal_flash_ex.c ****       {
 1278              		.loc 1 1062 7 view .LVU429
1062:Drivers/STM32L4xx_HAL_Driver/Src/stm32l4xx_hal_flash_ex.c ****       {
 1279              		.loc 1 1062 23 is_stmt 0 view .LVU430
 1280 00f4 04F00301 		and	r1, r4, #3
1062:Drivers/STM32L4xx_HAL_Driver/Src/stm32l4xx_hal_flash_ex.c ****       {
 1281              		.loc 1 1062 9 view .LVU431
 1282 00f8 0129     		cmp	r1, #1
 1283 00fa 11D0     		beq	.L92
1074:Drivers/STM32L4xx_HAL_Driver/Src/stm32l4xx_hal_flash_ex.c ****       {
 1284              		.loc 1 1074 12 is_stmt 1 view .LVU432
1074:Drivers/STM32L4xx_HAL_Driver/Src/stm32l4xx_hal_flash_ex.c ****       {
 1285              		.loc 1 1074 14 is_stmt 0 view .LVU433
 1286 00fc 0229     		cmp	r1, #2
 1287 00fe A7D1     		bne	.L85
1076:Drivers/STM32L4xx_HAL_Driver/Src/stm32l4xx_hal_flash_ex.c ****         MODIFY_REG(FLASH->PCROP2SR, FLASH_PCROP2SR_PCROP2_STRT, reg_value);
 1288              		.loc 1 1076 9 is_stmt 1 view .LVU434
1076:Drivers/STM32L4xx_HAL_Driver/Src/stm32l4xx_hal_flash_ex.c ****         MODIFY_REG(FLASH->PCROP2SR, FLASH_PCROP2SR_PCROP2_STRT, reg_value);
 1289              		.loc 1 1076 38 is_stmt 0 view .LVU435
 1290 0100 F11A     		subs	r1, r6, r3
 1291              	.LVL121:
1077:Drivers/STM32L4xx_HAL_Driver/Src/stm32l4xx_hal_flash_ex.c **** 
 1292              		.loc 1 1077 9 is_stmt 1 view .LVU436
 1293 0102 1248     		ldr	r0, .L93+12
 1294 0104 466C     		ldr	r6, [r0, #68]
 1295              	.LVL122:
1077:Drivers/STM32L4xx_HAL_Driver/Src/stm32l4xx_hal_flash_ex.c **** 
 1296              		.loc 1 1077 9 is_stmt 0 view .LVU437
 1297 0106 760C     		lsrs	r6, r6, #17
 1298 0108 7604     		lsls	r6, r6, #17
 1299 010a 46EAD106 		orr	r6, r6, r1, lsr #3
 1300 010e 4664     		str	r6, [r0, #68]
1079:Drivers/STM32L4xx_HAL_Driver/Src/stm32l4xx_hal_flash_ex.c ****         MODIFY_REG(FLASH->PCROP2ER, FLASH_PCROP2ER_PCROP2_END, reg_value);
 1301              		.loc 1 1079 9 is_stmt 1 view .LVU438
1079:Drivers/STM32L4xx_HAL_Driver/Src/stm32l4xx_hal_flash_ex.c ****         MODIFY_REG(FLASH->PCROP2ER, FLASH_PCROP2ER_PCROP2_END, reg_value);
 1302              		.loc 1 1079 36 is_stmt 0 view .LVU439
 1303 0110 EA1A     		subs	r2, r5, r3
 1304              	.LVL123:
1080:Drivers/STM32L4xx_HAL_Driver/Src/stm32l4xx_hal_flash_ex.c ****       }
 1305              		.loc 1 1080 9 is_stmt 1 view .LVU440
 1306 0112 856C     		ldr	r5, [r0, #72]
 1307              	.LVL124:
1080:Drivers/STM32L4xx_HAL_Driver/Src/stm32l4xx_hal_flash_ex.c ****       }
 1308              		.loc 1 1080 9 is_stmt 0 view .LVU441
 1309 0114 6D0C     		lsrs	r5, r5, #17
 1310 0116 6D04     		lsls	r5, r5, #17
 1311 0118 45EAD205 		orr	r5, r5, r2, lsr #3
 1312 011c 8564     		str	r5, [r0, #72]
 1313 011e 97E7     		b	.L85
 1314              	.LVL125:
 1315              	.L92:
1064:Drivers/STM32L4xx_HAL_Driver/Src/stm32l4xx_hal_flash_ex.c ****         MODIFY_REG(FLASH->PCROP1SR, FLASH_PCROP1SR_PCROP1_STRT, reg_value);
 1316              		.loc 1 1064 9 is_stmt 1 view .LVU442
1064:Drivers/STM32L4xx_HAL_Driver/Src/stm32l4xx_hal_flash_ex.c ****         MODIFY_REG(FLASH->PCROP1SR, FLASH_PCROP1SR_PCROP1_STRT, reg_value);
 1317              		.loc 1 1064 38 is_stmt 0 view .LVU443
ARM GAS  /tmp/ccQmN1qL.s 			page 53


 1318 0120 B11A     		subs	r1, r6, r2
 1319              	.LVL126:
1065:Drivers/STM32L4xx_HAL_Driver/Src/stm32l4xx_hal_flash_ex.c **** 
 1320              		.loc 1 1065 9 is_stmt 1 view .LVU444
 1321 0122 0A48     		ldr	r0, .L93+12
 1322 0124 436A     		ldr	r3, [r0, #36]
 1323              	.LVL127:
1065:Drivers/STM32L4xx_HAL_Driver/Src/stm32l4xx_hal_flash_ex.c **** 
 1324              		.loc 1 1065 9 is_stmt 0 view .LVU445
 1325 0126 5B0C     		lsrs	r3, r3, #17
 1326 0128 5B04     		lsls	r3, r3, #17
 1327 012a 43EAD103 		orr	r3, r3, r1, lsr #3
 1328 012e 4362     		str	r3, [r0, #36]
1067:Drivers/STM32L4xx_HAL_Driver/Src/stm32l4xx_hal_flash_ex.c ****         MODIFY_REG(FLASH->PCROP1ER, FLASH_PCROP1ER_PCROP1_END, reg_value);
 1329              		.loc 1 1067 9 is_stmt 1 view .LVU446
1067:Drivers/STM32L4xx_HAL_Driver/Src/stm32l4xx_hal_flash_ex.c ****         MODIFY_REG(FLASH->PCROP1ER, FLASH_PCROP1ER_PCROP1_END, reg_value);
 1330              		.loc 1 1067 36 is_stmt 0 view .LVU447
 1331 0130 AA1A     		subs	r2, r5, r2
 1332              	.LVL128:
1068:Drivers/STM32L4xx_HAL_Driver/Src/stm32l4xx_hal_flash_ex.c ****       }
 1333              		.loc 1 1068 9 is_stmt 1 view .LVU448
 1334 0132 856A     		ldr	r5, [r0, #40]
 1335              	.LVL129:
1068:Drivers/STM32L4xx_HAL_Driver/Src/stm32l4xx_hal_flash_ex.c ****       }
 1336              		.loc 1 1068 9 is_stmt 0 view .LVU449
 1337 0134 6D0C     		lsrs	r5, r5, #17
 1338 0136 6D04     		lsls	r5, r5, #17
 1339 0138 45EAD202 		orr	r2, r5, r2, lsr #3
 1340              	.LVL130:
1068:Drivers/STM32L4xx_HAL_Driver/Src/stm32l4xx_hal_flash_ex.c ****       }
 1341              		.loc 1 1068 9 view .LVU450
 1342 013c 8262     		str	r2, [r0, #40]
 1343 013e 87E7     		b	.L85
 1344              	.L94:
 1345              		.align	2
 1346              	.L93:
 1347 0140 00000140 		.word	1073807360
 1348 0144 E075FF1F 		.word	536835552
 1349 0148 00FEFF01 		.word	33553920
 1350 014c 00200240 		.word	1073881088
 1351              		.cfi_endproc
 1352              	.LFE145:
 1354              		.section	.text.HAL_FLASHEx_OBProgram,"ax",%progbits
 1355              		.align	1
 1356              		.global	HAL_FLASHEx_OBProgram
 1357              		.syntax unified
 1358              		.thumb
 1359              		.thumb_func
 1360              		.fpu fpv4-sp-d16
 1362              	HAL_FLASHEx_OBProgram:
 1363              	.LVL131:
 1364              	.LFB136:
 298:Drivers/STM32L4xx_HAL_Driver/Src/stm32l4xx_hal_flash_ex.c ****   HAL_StatusTypeDef status = HAL_OK;
 1365              		.loc 1 298 1 is_stmt 1 view -0
 1366              		.cfi_startproc
 1367              		@ args = 0, pretend = 0, frame = 0
 1368              		@ frame_needed = 0, uses_anonymous_args = 0
ARM GAS  /tmp/ccQmN1qL.s 			page 54


 298:Drivers/STM32L4xx_HAL_Driver/Src/stm32l4xx_hal_flash_ex.c ****   HAL_StatusTypeDef status = HAL_OK;
 1369              		.loc 1 298 1 is_stmt 0 view .LVU452
 1370 0000 38B5     		push	{r3, r4, r5, lr}
 1371              	.LCFI7:
 1372              		.cfi_def_cfa_offset 16
 1373              		.cfi_offset 3, -16
 1374              		.cfi_offset 4, -12
 1375              		.cfi_offset 5, -8
 1376              		.cfi_offset 14, -4
 299:Drivers/STM32L4xx_HAL_Driver/Src/stm32l4xx_hal_flash_ex.c **** 
 1377              		.loc 1 299 3 is_stmt 1 view .LVU453
 1378              	.LVL132:
 302:Drivers/STM32L4xx_HAL_Driver/Src/stm32l4xx_hal_flash_ex.c **** 
 1379              		.loc 1 302 3 view .LVU454
 302:Drivers/STM32L4xx_HAL_Driver/Src/stm32l4xx_hal_flash_ex.c **** 
 1380              		.loc 1 302 3 view .LVU455
 1381 0002 234B     		ldr	r3, .L112
 1382 0004 1B78     		ldrb	r3, [r3]	@ zero_extendqisi2
 1383 0006 012B     		cmp	r3, #1
 1384 0008 3FD0     		beq	.L101
 1385 000a 0446     		mov	r4, r0
 302:Drivers/STM32L4xx_HAL_Driver/Src/stm32l4xx_hal_flash_ex.c **** 
 1386              		.loc 1 302 3 discriminator 2 view .LVU456
 1387 000c 204B     		ldr	r3, .L112
 1388 000e 0122     		movs	r2, #1
 1389 0010 1A70     		strb	r2, [r3]
 302:Drivers/STM32L4xx_HAL_Driver/Src/stm32l4xx_hal_flash_ex.c **** 
 1390              		.loc 1 302 3 discriminator 2 view .LVU457
 305:Drivers/STM32L4xx_HAL_Driver/Src/stm32l4xx_hal_flash_ex.c **** 
 1391              		.loc 1 305 3 discriminator 2 view .LVU458
 307:Drivers/STM32L4xx_HAL_Driver/Src/stm32l4xx_hal_flash_ex.c **** 
 1392              		.loc 1 307 3 discriminator 2 view .LVU459
 307:Drivers/STM32L4xx_HAL_Driver/Src/stm32l4xx_hal_flash_ex.c **** 
 1393              		.loc 1 307 20 is_stmt 0 discriminator 2 view .LVU460
 1394 0012 0022     		movs	r2, #0
 1395 0014 5A60     		str	r2, [r3, #4]
 310:Drivers/STM32L4xx_HAL_Driver/Src/stm32l4xx_hal_flash_ex.c ****   {
 1396              		.loc 1 310 3 is_stmt 1 discriminator 2 view .LVU461
 310:Drivers/STM32L4xx_HAL_Driver/Src/stm32l4xx_hal_flash_ex.c ****   {
 1397              		.loc 1 310 14 is_stmt 0 discriminator 2 view .LVU462
 1398 0016 0368     		ldr	r3, [r0]
 310:Drivers/STM32L4xx_HAL_Driver/Src/stm32l4xx_hal_flash_ex.c ****   {
 1399              		.loc 1 310 5 discriminator 2 view .LVU463
 1400 0018 13F0010F 		tst	r3, #1
 1401 001c 15D1     		bne	.L108
 299:Drivers/STM32L4xx_HAL_Driver/Src/stm32l4xx_hal_flash_ex.c **** 
 1402              		.loc 1 299 21 view .LVU464
 1403 001e 0025     		movs	r5, #0
 1404              	.LVL133:
 1405              	.L97:
 321:Drivers/STM32L4xx_HAL_Driver/Src/stm32l4xx_hal_flash_ex.c ****   {
 1406              		.loc 1 321 3 is_stmt 1 view .LVU465
 321:Drivers/STM32L4xx_HAL_Driver/Src/stm32l4xx_hal_flash_ex.c ****   {
 1407              		.loc 1 321 14 is_stmt 0 view .LVU466
 1408 0020 2368     		ldr	r3, [r4]
 321:Drivers/STM32L4xx_HAL_Driver/Src/stm32l4xx_hal_flash_ex.c ****   {
 1409              		.loc 1 321 5 view .LVU467
ARM GAS  /tmp/ccQmN1qL.s 			page 55


 1410 0022 13F0020F 		tst	r3, #2
 1411 0026 1AD1     		bne	.L109
 1412              	.LVL134:
 1413              	.L98:
 331:Drivers/STM32L4xx_HAL_Driver/Src/stm32l4xx_hal_flash_ex.c ****   {
 1414              		.loc 1 331 3 is_stmt 1 view .LVU468
 331:Drivers/STM32L4xx_HAL_Driver/Src/stm32l4xx_hal_flash_ex.c ****   {
 1415              		.loc 1 331 14 is_stmt 0 view .LVU469
 1416 0028 2368     		ldr	r3, [r4]
 331:Drivers/STM32L4xx_HAL_Driver/Src/stm32l4xx_hal_flash_ex.c ****   {
 1417              		.loc 1 331 5 view .LVU470
 1418 002a 13F0040F 		tst	r3, #4
 1419 002e 1DD1     		bne	.L110
 1420              	.LVL135:
 1421              	.L99:
 341:Drivers/STM32L4xx_HAL_Driver/Src/stm32l4xx_hal_flash_ex.c ****   {
 1422              		.loc 1 341 3 is_stmt 1 view .LVU471
 341:Drivers/STM32L4xx_HAL_Driver/Src/stm32l4xx_hal_flash_ex.c ****   {
 1423              		.loc 1 341 14 is_stmt 0 view .LVU472
 1424 0030 2368     		ldr	r3, [r4]
 341:Drivers/STM32L4xx_HAL_Driver/Src/stm32l4xx_hal_flash_ex.c ****   {
 1425              		.loc 1 341 5 view .LVU473
 1426 0032 13F0080F 		tst	r3, #8
 1427 0036 03D0     		beq	.L100
 343:Drivers/STM32L4xx_HAL_Driver/Src/stm32l4xx_hal_flash_ex.c ****     {
 1428              		.loc 1 343 5 is_stmt 1 view .LVU474
 343:Drivers/STM32L4xx_HAL_Driver/Src/stm32l4xx_hal_flash_ex.c ****     {
 1429              		.loc 1 343 16 is_stmt 0 view .LVU475
 1430 0038 216A     		ldr	r1, [r4, #32]
 343:Drivers/STM32L4xx_HAL_Driver/Src/stm32l4xx_hal_flash_ex.c ****     {
 1431              		.loc 1 343 43 view .LVU476
 1432 003a 626A     		ldr	r2, [r4, #36]
 343:Drivers/STM32L4xx_HAL_Driver/Src/stm32l4xx_hal_flash_ex.c ****     {
 1433              		.loc 1 343 8 view .LVU477
 1434 003c 9142     		cmp	r1, r2
 1435 003e 1DD1     		bne	.L111
 1436              	.LVL136:
 1437              	.L100:
 354:Drivers/STM32L4xx_HAL_Driver/Src/stm32l4xx_hal_flash_ex.c **** 
 1438              		.loc 1 354 3 is_stmt 1 view .LVU478
 354:Drivers/STM32L4xx_HAL_Driver/Src/stm32l4xx_hal_flash_ex.c **** 
 1439              		.loc 1 354 3 view .LVU479
 1440 0040 134B     		ldr	r3, .L112
 1441 0042 0022     		movs	r2, #0
 1442 0044 1A70     		strb	r2, [r3]
 354:Drivers/STM32L4xx_HAL_Driver/Src/stm32l4xx_hal_flash_ex.c **** 
 1443              		.loc 1 354 3 view .LVU480
 356:Drivers/STM32L4xx_HAL_Driver/Src/stm32l4xx_hal_flash_ex.c **** }
 1444              		.loc 1 356 3 view .LVU481
 1445              	.LVL137:
 1446              	.L96:
 357:Drivers/STM32L4xx_HAL_Driver/Src/stm32l4xx_hal_flash_ex.c **** 
 1447              		.loc 1 357 1 is_stmt 0 view .LVU482
 1448 0046 2846     		mov	r0, r5
 1449 0048 38BD     		pop	{r3, r4, r5, pc}
 1450              	.LVL138:
 1451              	.L108:
ARM GAS  /tmp/ccQmN1qL.s 			page 56


 313:Drivers/STM32L4xx_HAL_Driver/Src/stm32l4xx_hal_flash_ex.c ****     {
 1452              		.loc 1 313 5 is_stmt 1 view .LVU483
 313:Drivers/STM32L4xx_HAL_Driver/Src/stm32l4xx_hal_flash_ex.c ****     {
 1453              		.loc 1 313 8 is_stmt 0 view .LVU484
 1454 004a C268     		ldr	r2, [r0, #12]
 1455 004c 8168     		ldr	r1, [r0, #8]
 1456 004e 4068     		ldr	r0, [r0, #4]
 1457              	.LVL139:
 313:Drivers/STM32L4xx_HAL_Driver/Src/stm32l4xx_hal_flash_ex.c ****     {
 1458              		.loc 1 313 8 view .LVU485
 1459 0050 FFF7FEFF 		bl	FLASH_OB_WRPConfig
 1460              	.LVL140:
 313:Drivers/STM32L4xx_HAL_Driver/Src/stm32l4xx_hal_flash_ex.c ****     {
 1461              		.loc 1 313 7 view .LVU486
 1462 0054 0546     		mov	r5, r0
 1463 0056 0028     		cmp	r0, #0
 1464 0058 E2D0     		beq	.L97
 315:Drivers/STM32L4xx_HAL_Driver/Src/stm32l4xx_hal_flash_ex.c ****     }
 1465              		.loc 1 315 14 view .LVU487
 1466 005a 0125     		movs	r5, #1
 1467 005c E0E7     		b	.L97
 1468              	.LVL141:
 1469              	.L109:
 324:Drivers/STM32L4xx_HAL_Driver/Src/stm32l4xx_hal_flash_ex.c ****     {
 1470              		.loc 1 324 5 is_stmt 1 view .LVU488
 324:Drivers/STM32L4xx_HAL_Driver/Src/stm32l4xx_hal_flash_ex.c ****     {
 1471              		.loc 1 324 8 is_stmt 0 view .LVU489
 1472 005e 2069     		ldr	r0, [r4, #16]
 1473 0060 FFF7FEFF 		bl	FLASH_OB_RDPConfig
 1474              	.LVL142:
 324:Drivers/STM32L4xx_HAL_Driver/Src/stm32l4xx_hal_flash_ex.c ****     {
 1475              		.loc 1 324 7 view .LVU490
 1476 0064 0028     		cmp	r0, #0
 1477 0066 DFD0     		beq	.L98
 326:Drivers/STM32L4xx_HAL_Driver/Src/stm32l4xx_hal_flash_ex.c ****     }
 1478              		.loc 1 326 14 view .LVU491
 1479 0068 0125     		movs	r5, #1
 1480              	.LVL143:
 326:Drivers/STM32L4xx_HAL_Driver/Src/stm32l4xx_hal_flash_ex.c ****     }
 1481              		.loc 1 326 14 view .LVU492
 1482 006a DDE7     		b	.L98
 1483              	.LVL144:
 1484              	.L110:
 334:Drivers/STM32L4xx_HAL_Driver/Src/stm32l4xx_hal_flash_ex.c ****     {
 1485              		.loc 1 334 5 is_stmt 1 view .LVU493
 334:Drivers/STM32L4xx_HAL_Driver/Src/stm32l4xx_hal_flash_ex.c ****     {
 1486              		.loc 1 334 8 is_stmt 0 view .LVU494
 1487 006c A169     		ldr	r1, [r4, #24]
 1488 006e 6069     		ldr	r0, [r4, #20]
 1489 0070 FFF7FEFF 		bl	FLASH_OB_UserConfig
 1490              	.LVL145:
 334:Drivers/STM32L4xx_HAL_Driver/Src/stm32l4xx_hal_flash_ex.c ****     {
 1491              		.loc 1 334 7 view .LVU495
 1492 0074 0028     		cmp	r0, #0
 1493 0076 DBD0     		beq	.L99
 336:Drivers/STM32L4xx_HAL_Driver/Src/stm32l4xx_hal_flash_ex.c ****     }
 1494              		.loc 1 336 14 view .LVU496
ARM GAS  /tmp/ccQmN1qL.s 			page 57


 1495 0078 0125     		movs	r5, #1
 1496              	.LVL146:
 336:Drivers/STM32L4xx_HAL_Driver/Src/stm32l4xx_hal_flash_ex.c ****     }
 1497              		.loc 1 336 14 view .LVU497
 1498 007a D9E7     		b	.L99
 1499              	.LVL147:
 1500              	.L111:
 346:Drivers/STM32L4xx_HAL_Driver/Src/stm32l4xx_hal_flash_ex.c ****       {
 1501              		.loc 1 346 7 is_stmt 1 view .LVU498
 346:Drivers/STM32L4xx_HAL_Driver/Src/stm32l4xx_hal_flash_ex.c ****       {
 1502              		.loc 1 346 10 is_stmt 0 view .LVU499
 1503 007c E069     		ldr	r0, [r4, #28]
 1504 007e FFF7FEFF 		bl	FLASH_OB_PCROPConfig
 1505              	.LVL148:
 346:Drivers/STM32L4xx_HAL_Driver/Src/stm32l4xx_hal_flash_ex.c ****       {
 1506              		.loc 1 346 9 view .LVU500
 1507 0082 0028     		cmp	r0, #0
 1508 0084 DCD0     		beq	.L100
 348:Drivers/STM32L4xx_HAL_Driver/Src/stm32l4xx_hal_flash_ex.c ****       }
 1509              		.loc 1 348 16 view .LVU501
 1510 0086 0125     		movs	r5, #1
 1511              	.LVL149:
 348:Drivers/STM32L4xx_HAL_Driver/Src/stm32l4xx_hal_flash_ex.c ****       }
 1512              		.loc 1 348 16 view .LVU502
 1513 0088 DAE7     		b	.L100
 1514              	.LVL150:
 1515              	.L101:
 302:Drivers/STM32L4xx_HAL_Driver/Src/stm32l4xx_hal_flash_ex.c **** 
 1516              		.loc 1 302 3 view .LVU503
 1517 008a 0225     		movs	r5, #2
 1518 008c DBE7     		b	.L96
 1519              	.L113:
 1520 008e 00BF     		.align	2
 1521              	.L112:
 1522 0090 00000000 		.word	pFlash
 1523              		.cfi_endproc
 1524              	.LFE136:
 1526              		.section	.text.HAL_FLASHEx_OBGetConfig,"ax",%progbits
 1527              		.align	1
 1528              		.global	HAL_FLASHEx_OBGetConfig
 1529              		.syntax unified
 1530              		.thumb
 1531              		.thumb_func
 1532              		.fpu fpv4-sp-d16
 1534              	HAL_FLASHEx_OBGetConfig:
 1535              	.LVL151:
 1536              	.LFB137:
 369:Drivers/STM32L4xx_HAL_Driver/Src/stm32l4xx_hal_flash_ex.c ****   pOBInit->OptionType = (OPTIONBYTE_RDP | OPTIONBYTE_USER);
 1537              		.loc 1 369 1 is_stmt 1 view -0
 1538              		.cfi_startproc
 1539              		@ args = 0, pretend = 0, frame = 0
 1540              		@ frame_needed = 0, uses_anonymous_args = 0
 369:Drivers/STM32L4xx_HAL_Driver/Src/stm32l4xx_hal_flash_ex.c ****   pOBInit->OptionType = (OPTIONBYTE_RDP | OPTIONBYTE_USER);
 1541              		.loc 1 369 1 is_stmt 0 view .LVU505
 1542 0000 10B5     		push	{r4, lr}
 1543              	.LCFI8:
 1544              		.cfi_def_cfa_offset 8
ARM GAS  /tmp/ccQmN1qL.s 			page 58


 1545              		.cfi_offset 4, -8
 1546              		.cfi_offset 14, -4
 1547 0002 0446     		mov	r4, r0
 370:Drivers/STM32L4xx_HAL_Driver/Src/stm32l4xx_hal_flash_ex.c **** 
 1548              		.loc 1 370 3 is_stmt 1 view .LVU506
 370:Drivers/STM32L4xx_HAL_Driver/Src/stm32l4xx_hal_flash_ex.c **** 
 1549              		.loc 1 370 23 is_stmt 0 view .LVU507
 1550 0004 0623     		movs	r3, #6
 1551 0006 0360     		str	r3, [r0]
 376:Drivers/STM32L4xx_HAL_Driver/Src/stm32l4xx_hal_flash_ex.c ****      (pOBInit->WRPArea == OB_WRPAREA_BANK2_AREAA) || (pOBInit->WRPArea == OB_WRPAREA_BANK2_AREAB))
 1552              		.loc 1 376 3 is_stmt 1 view .LVU508
 376:Drivers/STM32L4xx_HAL_Driver/Src/stm32l4xx_hal_flash_ex.c ****      (pOBInit->WRPArea == OB_WRPAREA_BANK2_AREAA) || (pOBInit->WRPArea == OB_WRPAREA_BANK2_AREAB))
 1553              		.loc 1 376 14 is_stmt 0 view .LVU509
 1554 0008 4068     		ldr	r0, [r0, #4]
 1555              	.LVL152:
 376:Drivers/STM32L4xx_HAL_Driver/Src/stm32l4xx_hal_flash_ex.c ****      (pOBInit->WRPArea == OB_WRPAREA_BANK2_AREAA) || (pOBInit->WRPArea == OB_WRPAREA_BANK2_AREAB))
 1556              		.loc 1 376 5 view .LVU510
 1557 000a 0228     		cmp	r0, #2
 1558 000c 01D9     		bls	.L115
 377:Drivers/STM32L4xx_HAL_Driver/Src/stm32l4xx_hal_flash_ex.c **** #else
 1559              		.loc 1 377 51 view .LVU511
 1560 000e 0428     		cmp	r0, #4
 1561 0010 07D1     		bne	.L116
 1562              	.L115:
 382:Drivers/STM32L4xx_HAL_Driver/Src/stm32l4xx_hal_flash_ex.c ****     /* Get write protection on the selected area */
 1563              		.loc 1 382 5 is_stmt 1 view .LVU512
 382:Drivers/STM32L4xx_HAL_Driver/Src/stm32l4xx_hal_flash_ex.c ****     /* Get write protection on the selected area */
 1564              		.loc 1 382 25 is_stmt 0 view .LVU513
 1565 0012 2246     		mov	r2, r4
 1566 0014 0723     		movs	r3, #7
 1567 0016 42F80C3B 		str	r3, [r2], #12
 384:Drivers/STM32L4xx_HAL_Driver/Src/stm32l4xx_hal_flash_ex.c ****   }
 1568              		.loc 1 384 5 is_stmt 1 view .LVU514
 1569 001a 04F10801 		add	r1, r4, #8
 1570 001e FFF7FEFF 		bl	FLASH_OB_GetWRP
 1571              	.LVL153:
 1572              	.L116:
 388:Drivers/STM32L4xx_HAL_Driver/Src/stm32l4xx_hal_flash_ex.c **** 
 1573              		.loc 1 388 3 view .LVU515
 388:Drivers/STM32L4xx_HAL_Driver/Src/stm32l4xx_hal_flash_ex.c **** 
 1574              		.loc 1 388 23 is_stmt 0 view .LVU516
 1575 0022 FFF7FEFF 		bl	FLASH_OB_GetRDP
 1576              	.LVL154:
 388:Drivers/STM32L4xx_HAL_Driver/Src/stm32l4xx_hal_flash_ex.c **** 
 1577              		.loc 1 388 21 view .LVU517
 1578 0026 2061     		str	r0, [r4, #16]
 391:Drivers/STM32L4xx_HAL_Driver/Src/stm32l4xx_hal_flash_ex.c **** 
 1579              		.loc 1 391 3 is_stmt 1 view .LVU518
 391:Drivers/STM32L4xx_HAL_Driver/Src/stm32l4xx_hal_flash_ex.c **** 
 1580              		.loc 1 391 25 is_stmt 0 view .LVU519
 1581 0028 FFF7FEFF 		bl	FLASH_OB_GetUser
 1582              	.LVL155:
 391:Drivers/STM32L4xx_HAL_Driver/Src/stm32l4xx_hal_flash_ex.c **** 
 1583              		.loc 1 391 23 view .LVU520
 1584 002c A061     		str	r0, [r4, #24]
 397:Drivers/STM32L4xx_HAL_Driver/Src/stm32l4xx_hal_flash_ex.c **** #else
 1585              		.loc 1 397 3 is_stmt 1 view .LVU521
ARM GAS  /tmp/ccQmN1qL.s 			page 59


 397:Drivers/STM32L4xx_HAL_Driver/Src/stm32l4xx_hal_flash_ex.c **** #else
 1586              		.loc 1 397 14 is_stmt 0 view .LVU522
 1587 002e E369     		ldr	r3, [r4, #28]
 397:Drivers/STM32L4xx_HAL_Driver/Src/stm32l4xx_hal_flash_ex.c **** #else
 1588              		.loc 1 397 45 view .LVU523
 1589 0030 013B     		subs	r3, r3, #1
 397:Drivers/STM32L4xx_HAL_Driver/Src/stm32l4xx_hal_flash_ex.c **** #else
 1590              		.loc 1 397 5 view .LVU524
 1591 0032 012B     		cmp	r3, #1
 1592 0034 00D9     		bls	.L119
 1593              	.L114:
 406:Drivers/STM32L4xx_HAL_Driver/Src/stm32l4xx_hal_flash_ex.c **** 
 1594              		.loc 1 406 1 view .LVU525
 1595 0036 10BD     		pop	{r4, pc}
 1596              	.LVL156:
 1597              	.L119:
 402:Drivers/STM32L4xx_HAL_Driver/Src/stm32l4xx_hal_flash_ex.c ****     /* Get the Proprietary code readout protection */
 1598              		.loc 1 402 5 is_stmt 1 view .LVU526
 402:Drivers/STM32L4xx_HAL_Driver/Src/stm32l4xx_hal_flash_ex.c ****     /* Get the Proprietary code readout protection */
 1599              		.loc 1 402 25 is_stmt 0 view .LVU527
 1600 0038 2368     		ldr	r3, [r4]
 1601 003a 43F00803 		orr	r3, r3, #8
 1602 003e 2246     		mov	r2, r4
 1603 0040 42F8243B 		str	r3, [r2], #36
 404:Drivers/STM32L4xx_HAL_Driver/Src/stm32l4xx_hal_flash_ex.c ****   }
 1604              		.loc 1 404 5 is_stmt 1 view .LVU528
 1605 0044 04F12001 		add	r1, r4, #32
 1606 0048 04F11C00 		add	r0, r4, #28
 1607 004c FFF7FEFF 		bl	FLASH_OB_GetPCROP
 1608              	.LVL157:
 406:Drivers/STM32L4xx_HAL_Driver/Src/stm32l4xx_hal_flash_ex.c **** 
 1609              		.loc 1 406 1 is_stmt 0 view .LVU529
 1610 0050 F1E7     		b	.L114
 1611              		.cfi_endproc
 1612              	.LFE137:
 1614              		.section	.text.HAL_FLASHEx_ConfigLVEPin,"ax",%progbits
 1615              		.align	1
 1616              		.global	HAL_FLASHEx_ConfigLVEPin
 1617              		.syntax unified
 1618              		.thumb
 1619              		.thumb_func
 1620              		.fpu fpv4-sp-d16
 1622              	HAL_FLASHEx_ConfigLVEPin:
 1623              	.LVL158:
 1624              	.LFB138:
 442:Drivers/STM32L4xx_HAL_Driver/Src/stm32l4xx_hal_flash_ex.c ****   HAL_StatusTypeDef status;
 1625              		.loc 1 442 1 is_stmt 1 view -0
 1626              		.cfi_startproc
 1627              		@ args = 0, pretend = 0, frame = 0
 1628              		@ frame_needed = 0, uses_anonymous_args = 0
 442:Drivers/STM32L4xx_HAL_Driver/Src/stm32l4xx_hal_flash_ex.c ****   HAL_StatusTypeDef status;
 1629              		.loc 1 442 1 is_stmt 0 view .LVU531
 1630 0000 38B5     		push	{r3, r4, r5, lr}
 1631              	.LCFI9:
 1632              		.cfi_def_cfa_offset 16
 1633              		.cfi_offset 3, -16
 1634              		.cfi_offset 4, -12
ARM GAS  /tmp/ccQmN1qL.s 			page 60


 1635              		.cfi_offset 5, -8
 1636              		.cfi_offset 14, -4
 443:Drivers/STM32L4xx_HAL_Driver/Src/stm32l4xx_hal_flash_ex.c **** 
 1637              		.loc 1 443 3 is_stmt 1 view .LVU532
 446:Drivers/STM32L4xx_HAL_Driver/Src/stm32l4xx_hal_flash_ex.c **** 
 1638              		.loc 1 446 3 view .LVU533
 446:Drivers/STM32L4xx_HAL_Driver/Src/stm32l4xx_hal_flash_ex.c **** 
 1639              		.loc 1 446 3 view .LVU534
 1640 0002 164B     		ldr	r3, .L129
 1641 0004 1B78     		ldrb	r3, [r3]	@ zero_extendqisi2
 1642 0006 012B     		cmp	r3, #1
 1643 0008 25D0     		beq	.L123
 1644 000a 0546     		mov	r5, r0
 446:Drivers/STM32L4xx_HAL_Driver/Src/stm32l4xx_hal_flash_ex.c **** 
 1645              		.loc 1 446 3 discriminator 2 view .LVU535
 1646 000c 134B     		ldr	r3, .L129
 1647 000e 0122     		movs	r2, #1
 1648 0010 1A70     		strb	r2, [r3]
 446:Drivers/STM32L4xx_HAL_Driver/Src/stm32l4xx_hal_flash_ex.c **** 
 1649              		.loc 1 446 3 discriminator 2 view .LVU536
 449:Drivers/STM32L4xx_HAL_Driver/Src/stm32l4xx_hal_flash_ex.c **** 
 1650              		.loc 1 449 3 discriminator 2 view .LVU537
 452:Drivers/STM32L4xx_HAL_Driver/Src/stm32l4xx_hal_flash_ex.c **** 
 1651              		.loc 1 452 3 discriminator 2 view .LVU538
 452:Drivers/STM32L4xx_HAL_Driver/Src/stm32l4xx_hal_flash_ex.c **** 
 1652              		.loc 1 452 12 is_stmt 0 discriminator 2 view .LVU539
 1653 0012 4CF25030 		movw	r0, #50000
 1654              	.LVL159:
 452:Drivers/STM32L4xx_HAL_Driver/Src/stm32l4xx_hal_flash_ex.c **** 
 1655              		.loc 1 452 12 discriminator 2 view .LVU540
 1656 0016 FFF7FEFF 		bl	FLASH_WaitForLastOperation
 1657              	.LVL160:
 454:Drivers/STM32L4xx_HAL_Driver/Src/stm32l4xx_hal_flash_ex.c ****   {
 1658              		.loc 1 454 3 is_stmt 1 discriminator 2 view .LVU541
 454:Drivers/STM32L4xx_HAL_Driver/Src/stm32l4xx_hal_flash_ex.c ****   {
 1659              		.loc 1 454 6 is_stmt 0 discriminator 2 view .LVU542
 1660 001a 0446     		mov	r4, r0
 1661 001c 20B1     		cbz	r0, .L127
 1662              	.LVL161:
 1663              	.L122:
 476:Drivers/STM32L4xx_HAL_Driver/Src/stm32l4xx_hal_flash_ex.c **** 
 1664              		.loc 1 476 3 is_stmt 1 view .LVU543
 476:Drivers/STM32L4xx_HAL_Driver/Src/stm32l4xx_hal_flash_ex.c **** 
 1665              		.loc 1 476 3 view .LVU544
 1666 001e 0F4B     		ldr	r3, .L129
 1667 0020 0022     		movs	r2, #0
 1668 0022 1A70     		strb	r2, [r3]
 476:Drivers/STM32L4xx_HAL_Driver/Src/stm32l4xx_hal_flash_ex.c **** 
 1669              		.loc 1 476 3 view .LVU545
 478:Drivers/STM32L4xx_HAL_Driver/Src/stm32l4xx_hal_flash_ex.c **** }
 1670              		.loc 1 478 3 view .LVU546
 1671              	.LVL162:
 1672              	.L121:
 479:Drivers/STM32L4xx_HAL_Driver/Src/stm32l4xx_hal_flash_ex.c **** 
 1673              		.loc 1 479 1 is_stmt 0 view .LVU547
 1674 0024 2046     		mov	r0, r4
 1675 0026 38BD     		pop	{r3, r4, r5, pc}
ARM GAS  /tmp/ccQmN1qL.s 			page 61


 1676              	.LVL163:
 1677              	.L127:
 457:Drivers/STM32L4xx_HAL_Driver/Src/stm32l4xx_hal_flash_ex.c ****     {
 1678              		.loc 1 457 5 is_stmt 1 view .LVU548
 457:Drivers/STM32L4xx_HAL_Driver/Src/stm32l4xx_hal_flash_ex.c ****     {
 1679              		.loc 1 457 9 is_stmt 0 view .LVU549
 1680 0028 FFF7FEFF 		bl	HAL_PWREx_GetVoltageRange
 1681              	.LVL164:
 457:Drivers/STM32L4xx_HAL_Driver/Src/stm32l4xx_hal_flash_ex.c ****     {
 1682              		.loc 1 457 8 view .LVU550
 1683 002c B0F5806F 		cmp	r0, #1024
 1684 0030 01D0     		beq	.L128
 471:Drivers/STM32L4xx_HAL_Driver/Src/stm32l4xx_hal_flash_ex.c ****     }
 1685              		.loc 1 471 14 view .LVU551
 1686 0032 0124     		movs	r4, #1
 1687 0034 F3E7     		b	.L122
 1688              	.L128:
 460:Drivers/STM32L4xx_HAL_Driver/Src/stm32l4xx_hal_flash_ex.c **** 
 1689              		.loc 1 460 7 is_stmt 1 view .LVU552
 1690 0036 0A4A     		ldr	r2, .L129+4
 1691 0038 D2F83031 		ldr	r3, [r2, #304]
 1692 003c 23F00103 		bic	r3, r3, #1
 1693 0040 2B43     		orrs	r3, r3, r5
 1694 0042 C2F83031 		str	r3, [r2, #304]
 463:Drivers/STM32L4xx_HAL_Driver/Src/stm32l4xx_hal_flash_ex.c ****       {
 1695              		.loc 1 463 7 view .LVU553
 463:Drivers/STM32L4xx_HAL_Driver/Src/stm32l4xx_hal_flash_ex.c ****       {
 1696              		.loc 1 463 11 is_stmt 0 view .LVU554
 1697 0046 D2F83031 		ldr	r3, [r2, #304]
 1698 004a 03F00103 		and	r3, r3, #1
 463:Drivers/STM32L4xx_HAL_Driver/Src/stm32l4xx_hal_flash_ex.c ****       {
 1699              		.loc 1 463 10 view .LVU555
 1700 004e AB42     		cmp	r3, r5
 1701 0050 E5D0     		beq	.L122
 465:Drivers/STM32L4xx_HAL_Driver/Src/stm32l4xx_hal_flash_ex.c ****       }
 1702              		.loc 1 465 16 view .LVU556
 1703 0052 0124     		movs	r4, #1
 1704 0054 E3E7     		b	.L122
 1705              	.LVL165:
 1706              	.L123:
 446:Drivers/STM32L4xx_HAL_Driver/Src/stm32l4xx_hal_flash_ex.c **** 
 1707              		.loc 1 446 3 view .LVU557
 1708 0056 0224     		movs	r4, #2
 1709 0058 E4E7     		b	.L121
 1710              	.L130:
 1711 005a 00BF     		.align	2
 1712              	.L129:
 1713 005c 00000000 		.word	pFlash
 1714 0060 00200240 		.word	1073881088
 1715              		.cfi_endproc
 1716              	.LFE138:
 1718              		.section	.text.FLASH_PageErase,"ax",%progbits
 1719              		.align	1
 1720              		.global	FLASH_PageErase
 1721              		.syntax unified
 1722              		.thumb
 1723              		.thumb_func
ARM GAS  /tmp/ccQmN1qL.s 			page 62


 1724              		.fpu fpv4-sp-d16
 1726              	FLASH_PageErase:
 1727              	.LVL166:
 1728              	.LFB140:
 552:Drivers/STM32L4xx_HAL_Driver/Src/stm32l4xx_hal_flash_ex.c ****   /* Check the parameters */
 1729              		.loc 1 552 1 is_stmt 1 view -0
 1730              		.cfi_startproc
 1731              		@ args = 0, pretend = 0, frame = 0
 1732              		@ frame_needed = 0, uses_anonymous_args = 0
 1733              		@ link register save eliminated.
 554:Drivers/STM32L4xx_HAL_Driver/Src/stm32l4xx_hal_flash_ex.c **** 
 1734              		.loc 1 554 3 view .LVU559
 561:Drivers/STM32L4xx_HAL_Driver/Src/stm32l4xx_hal_flash_ex.c ****   {
 1735              		.loc 1 561 3 view .LVU560
 561:Drivers/STM32L4xx_HAL_Driver/Src/stm32l4xx_hal_flash_ex.c ****   {
 1736              		.loc 1 561 6 is_stmt 0 view .LVU561
 1737 0000 154B     		ldr	r3, .L135
 1738 0002 1B6A     		ldr	r3, [r3, #32]
 561:Drivers/STM32L4xx_HAL_Driver/Src/stm32l4xx_hal_flash_ex.c ****   {
 1739              		.loc 1 561 5 view .LVU562
 1740 0004 13F4800F 		tst	r3, #4194304
 1741 0008 16D1     		bne	.L132
 563:Drivers/STM32L4xx_HAL_Driver/Src/stm32l4xx_hal_flash_ex.c ****   }
 1742              		.loc 1 563 5 is_stmt 1 view .LVU563
 1743 000a 134A     		ldr	r2, .L135
 1744 000c 5369     		ldr	r3, [r2, #20]
 1745 000e 23F40063 		bic	r3, r3, #2048
 1746 0012 5361     		str	r3, [r2, #20]
 1747              	.L133:
 585:Drivers/STM32L4xx_HAL_Driver/Src/stm32l4xx_hal_flash_ex.c ****   SET_BIT(FLASH->CR, FLASH_CR_PER);
 1748              		.loc 1 585 3 view .LVU564
 1749 0014 104B     		ldr	r3, .L135
 1750 0016 5A69     		ldr	r2, [r3, #20]
 1751 0018 22F4FF62 		bic	r2, r2, #2040
 1752 001c C000     		lsls	r0, r0, #3
 1753              	.LVL167:
 585:Drivers/STM32L4xx_HAL_Driver/Src/stm32l4xx_hal_flash_ex.c ****   SET_BIT(FLASH->CR, FLASH_CR_PER);
 1754              		.loc 1 585 3 is_stmt 0 view .LVU565
 1755 001e 00F4FF60 		and	r0, r0, #2040
 1756 0022 1043     		orrs	r0, r0, r2
 1757 0024 5861     		str	r0, [r3, #20]
 586:Drivers/STM32L4xx_HAL_Driver/Src/stm32l4xx_hal_flash_ex.c ****   SET_BIT(FLASH->CR, FLASH_CR_STRT);
 1758              		.loc 1 586 3 is_stmt 1 view .LVU566
 1759 0026 5A69     		ldr	r2, [r3, #20]
 1760 0028 42F00202 		orr	r2, r2, #2
 1761 002c 5A61     		str	r2, [r3, #20]
 587:Drivers/STM32L4xx_HAL_Driver/Src/stm32l4xx_hal_flash_ex.c **** }
 1762              		.loc 1 587 3 view .LVU567
 1763 002e 5A69     		ldr	r2, [r3, #20]
 1764 0030 42F48032 		orr	r2, r2, #65536
 1765 0034 5A61     		str	r2, [r3, #20]
 588:Drivers/STM32L4xx_HAL_Driver/Src/stm32l4xx_hal_flash_ex.c **** 
 1766              		.loc 1 588 1 is_stmt 0 view .LVU568
 1767 0036 7047     		bx	lr
 1768              	.LVL168:
 1769              	.L132:
 568:Drivers/STM32L4xx_HAL_Driver/Src/stm32l4xx_hal_flash_ex.c **** 
ARM GAS  /tmp/ccQmN1qL.s 			page 63


 1770              		.loc 1 568 5 is_stmt 1 view .LVU569
 570:Drivers/STM32L4xx_HAL_Driver/Src/stm32l4xx_hal_flash_ex.c ****     {
 1771              		.loc 1 570 5 view .LVU570
 570:Drivers/STM32L4xx_HAL_Driver/Src/stm32l4xx_hal_flash_ex.c ****     {
 1772              		.loc 1 570 7 is_stmt 0 view .LVU571
 1773 0038 11F0010F 		tst	r1, #1
 1774 003c 05D0     		beq	.L134
 572:Drivers/STM32L4xx_HAL_Driver/Src/stm32l4xx_hal_flash_ex.c ****     }
 1775              		.loc 1 572 7 is_stmt 1 view .LVU572
 1776 003e 064A     		ldr	r2, .L135
 1777 0040 5369     		ldr	r3, [r2, #20]
 1778 0042 23F40063 		bic	r3, r3, #2048
 1779 0046 5361     		str	r3, [r2, #20]
 1780 0048 E4E7     		b	.L133
 1781              	.L134:
 576:Drivers/STM32L4xx_HAL_Driver/Src/stm32l4xx_hal_flash_ex.c ****     }
 1782              		.loc 1 576 7 view .LVU573
 1783 004a 034A     		ldr	r2, .L135
 1784 004c 5369     		ldr	r3, [r2, #20]
 1785 004e 43F40063 		orr	r3, r3, #2048
 1786 0052 5361     		str	r3, [r2, #20]
 1787 0054 DEE7     		b	.L133
 1788              	.L136:
 1789 0056 00BF     		.align	2
 1790              	.L135:
 1791 0058 00200240 		.word	1073881088
 1792              		.cfi_endproc
 1793              	.LFE140:
 1795              		.section	.text.HAL_FLASHEx_Erase_IT,"ax",%progbits
 1796              		.align	1
 1797              		.global	HAL_FLASHEx_Erase_IT
 1798              		.syntax unified
 1799              		.thumb
 1800              		.thumb_func
 1801              		.fpu fpv4-sp-d16
 1803              	HAL_FLASHEx_Erase_IT:
 1804              	.LVL169:
 1805              	.LFB135:
 229:Drivers/STM32L4xx_HAL_Driver/Src/stm32l4xx_hal_flash_ex.c ****   HAL_StatusTypeDef status = HAL_OK;
 1806              		.loc 1 229 1 view -0
 1807              		.cfi_startproc
 1808              		@ args = 0, pretend = 0, frame = 0
 1809              		@ frame_needed = 0, uses_anonymous_args = 0
 230:Drivers/STM32L4xx_HAL_Driver/Src/stm32l4xx_hal_flash_ex.c **** 
 1810              		.loc 1 230 3 view .LVU575
 233:Drivers/STM32L4xx_HAL_Driver/Src/stm32l4xx_hal_flash_ex.c **** 
 1811              		.loc 1 233 3 view .LVU576
 233:Drivers/STM32L4xx_HAL_Driver/Src/stm32l4xx_hal_flash_ex.c **** 
 1812              		.loc 1 233 3 view .LVU577
 1813 0000 294A     		ldr	r2, .L150
 1814 0002 1278     		ldrb	r2, [r2]	@ zero_extendqisi2
 1815 0004 012A     		cmp	r2, #1
 1816 0006 4DD0     		beq	.L144
 229:Drivers/STM32L4xx_HAL_Driver/Src/stm32l4xx_hal_flash_ex.c ****   HAL_StatusTypeDef status = HAL_OK;
 1817              		.loc 1 229 1 is_stmt 0 discriminator 2 view .LVU578
 1818 0008 08B5     		push	{r3, lr}
 1819              	.LCFI10:
ARM GAS  /tmp/ccQmN1qL.s 			page 64


 1820              		.cfi_def_cfa_offset 8
 1821              		.cfi_offset 3, -8
 1822              		.cfi_offset 14, -4
 1823 000a 0346     		mov	r3, r0
 233:Drivers/STM32L4xx_HAL_Driver/Src/stm32l4xx_hal_flash_ex.c **** 
 1824              		.loc 1 233 3 is_stmt 1 discriminator 2 view .LVU579
 1825 000c 264A     		ldr	r2, .L150
 1826 000e 0121     		movs	r1, #1
 1827 0010 1170     		strb	r1, [r2]
 233:Drivers/STM32L4xx_HAL_Driver/Src/stm32l4xx_hal_flash_ex.c **** 
 1828              		.loc 1 233 3 discriminator 2 view .LVU580
 236:Drivers/STM32L4xx_HAL_Driver/Src/stm32l4xx_hal_flash_ex.c **** 
 1829              		.loc 1 236 3 discriminator 2 view .LVU581
 238:Drivers/STM32L4xx_HAL_Driver/Src/stm32l4xx_hal_flash_ex.c **** 
 1830              		.loc 1 238 3 discriminator 2 view .LVU582
 238:Drivers/STM32L4xx_HAL_Driver/Src/stm32l4xx_hal_flash_ex.c **** 
 1831              		.loc 1 238 20 is_stmt 0 discriminator 2 view .LVU583
 1832 0012 0021     		movs	r1, #0
 1833 0014 5160     		str	r1, [r2, #4]
 241:Drivers/STM32L4xx_HAL_Driver/Src/stm32l4xx_hal_flash_ex.c ****   {
 1834              		.loc 1 241 3 is_stmt 1 discriminator 2 view .LVU584
 241:Drivers/STM32L4xx_HAL_Driver/Src/stm32l4xx_hal_flash_ex.c ****   {
 1835              		.loc 1 241 6 is_stmt 0 discriminator 2 view .LVU585
 1836 0016 254A     		ldr	r2, .L150+4
 1837 0018 1268     		ldr	r2, [r2]
 241:Drivers/STM32L4xx_HAL_Driver/Src/stm32l4xx_hal_flash_ex.c ****   {
 1838              		.loc 1 241 5 discriminator 2 view .LVU586
 1839 001a 12F4007F 		tst	r2, #512
 1840 001e 27D0     		beq	.L139
 243:Drivers/STM32L4xx_HAL_Driver/Src/stm32l4xx_hal_flash_ex.c ****     {
 1841              		.loc 1 243 5 is_stmt 1 view .LVU587
 243:Drivers/STM32L4xx_HAL_Driver/Src/stm32l4xx_hal_flash_ex.c ****     {
 1842              		.loc 1 243 8 is_stmt 0 view .LVU588
 1843 0020 224A     		ldr	r2, .L150+4
 1844 0022 1268     		ldr	r2, [r2]
 243:Drivers/STM32L4xx_HAL_Driver/Src/stm32l4xx_hal_flash_ex.c ****     {
 1845              		.loc 1 243 7 view .LVU589
 1846 0024 12F4806F 		tst	r2, #1024
 1847 0028 1ED0     		beq	.L140
 246:Drivers/STM32L4xx_HAL_Driver/Src/stm32l4xx_hal_flash_ex.c ****       pFlash.CacheToReactivate = FLASH_CACHE_ICACHE_DCACHE_ENABLED;
 1848              		.loc 1 246 7 is_stmt 1 view .LVU590
 1849 002a 2049     		ldr	r1, .L150+4
 1850 002c 0A68     		ldr	r2, [r1]
 1851 002e 22F48062 		bic	r2, r2, #1024
 1852 0032 0A60     		str	r2, [r1]
 247:Drivers/STM32L4xx_HAL_Driver/Src/stm32l4xx_hal_flash_ex.c ****     }
 1853              		.loc 1 247 7 view .LVU591
 247:Drivers/STM32L4xx_HAL_Driver/Src/stm32l4xx_hal_flash_ex.c ****     }
 1854              		.loc 1 247 32 is_stmt 0 view .LVU592
 1855 0034 1C4A     		ldr	r2, .L150
 1856 0036 0321     		movs	r1, #3
 1857 0038 1177     		strb	r1, [r2, #28]
 1858              	.L141:
 266:Drivers/STM32L4xx_HAL_Driver/Src/stm32l4xx_hal_flash_ex.c **** 
 1859              		.loc 1 266 3 is_stmt 1 discriminator 4 view .LVU593
 266:Drivers/STM32L4xx_HAL_Driver/Src/stm32l4xx_hal_flash_ex.c **** 
 1860              		.loc 1 266 3 discriminator 4 view .LVU594
ARM GAS  /tmp/ccQmN1qL.s 			page 65


 266:Drivers/STM32L4xx_HAL_Driver/Src/stm32l4xx_hal_flash_ex.c **** 
 1861              		.loc 1 266 3 discriminator 4 view .LVU595
 266:Drivers/STM32L4xx_HAL_Driver/Src/stm32l4xx_hal_flash_ex.c **** 
 1862              		.loc 1 266 3 discriminator 4 view .LVU596
 1863 003a 1C49     		ldr	r1, .L150+4
 1864 003c 4A69     		ldr	r2, [r1, #20]
 1865 003e 42F04072 		orr	r2, r2, #50331648
 1866 0042 4A61     		str	r2, [r1, #20]
 266:Drivers/STM32L4xx_HAL_Driver/Src/stm32l4xx_hal_flash_ex.c **** 
 1867              		.loc 1 266 3 discriminator 4 view .LVU597
 268:Drivers/STM32L4xx_HAL_Driver/Src/stm32l4xx_hal_flash_ex.c **** 
 1868              		.loc 1 268 3 discriminator 4 view .LVU598
 268:Drivers/STM32L4xx_HAL_Driver/Src/stm32l4xx_hal_flash_ex.c **** 
 1869              		.loc 1 268 27 is_stmt 0 discriminator 4 view .LVU599
 1870 0044 5968     		ldr	r1, [r3, #4]
 268:Drivers/STM32L4xx_HAL_Driver/Src/stm32l4xx_hal_flash_ex.c **** 
 1871              		.loc 1 268 15 discriminator 4 view .LVU600
 1872 0046 184A     		ldr	r2, .L150
 1873 0048 1161     		str	r1, [r2, #16]
 270:Drivers/STM32L4xx_HAL_Driver/Src/stm32l4xx_hal_flash_ex.c ****   {
 1874              		.loc 1 270 3 is_stmt 1 discriminator 4 view .LVU601
 270:Drivers/STM32L4xx_HAL_Driver/Src/stm32l4xx_hal_flash_ex.c ****   {
 1875              		.loc 1 270 17 is_stmt 0 discriminator 4 view .LVU602
 1876 004a 1A68     		ldr	r2, [r3]
 270:Drivers/STM32L4xx_HAL_Driver/Src/stm32l4xx_hal_flash_ex.c ****   {
 1877              		.loc 1 270 6 discriminator 4 view .LVU603
 1878 004c 012A     		cmp	r2, #1
 1879 004e 21D0     		beq	.L149
 279:Drivers/STM32L4xx_HAL_Driver/Src/stm32l4xx_hal_flash_ex.c ****     pFlash.NbPagesToErase = pEraseInit->NbPages;
 1880              		.loc 1 279 5 is_stmt 1 view .LVU604
 279:Drivers/STM32L4xx_HAL_Driver/Src/stm32l4xx_hal_flash_ex.c ****     pFlash.NbPagesToErase = pEraseInit->NbPages;
 1881              		.loc 1 279 29 is_stmt 0 view .LVU605
 1882 0050 154A     		ldr	r2, .L150
 1883 0052 0121     		movs	r1, #1
 1884 0054 1172     		strb	r1, [r2, #8]
 280:Drivers/STM32L4xx_HAL_Driver/Src/stm32l4xx_hal_flash_ex.c ****     pFlash.Page = pEraseInit->Page;
 1885              		.loc 1 280 5 is_stmt 1 view .LVU606
 280:Drivers/STM32L4xx_HAL_Driver/Src/stm32l4xx_hal_flash_ex.c ****     pFlash.Page = pEraseInit->Page;
 1886              		.loc 1 280 39 is_stmt 0 view .LVU607
 1887 0056 D968     		ldr	r1, [r3, #12]
 280:Drivers/STM32L4xx_HAL_Driver/Src/stm32l4xx_hal_flash_ex.c ****     pFlash.Page = pEraseInit->Page;
 1888              		.loc 1 280 27 view .LVU608
 1889 0058 9161     		str	r1, [r2, #24]
 281:Drivers/STM32L4xx_HAL_Driver/Src/stm32l4xx_hal_flash_ex.c **** 
 1890              		.loc 1 281 5 is_stmt 1 view .LVU609
 281:Drivers/STM32L4xx_HAL_Driver/Src/stm32l4xx_hal_flash_ex.c **** 
 1891              		.loc 1 281 29 is_stmt 0 view .LVU610
 1892 005a 9868     		ldr	r0, [r3, #8]
 1893              	.LVL170:
 281:Drivers/STM32L4xx_HAL_Driver/Src/stm32l4xx_hal_flash_ex.c **** 
 1894              		.loc 1 281 17 view .LVU611
 1895 005c 5061     		str	r0, [r2, #20]
 284:Drivers/STM32L4xx_HAL_Driver/Src/stm32l4xx_hal_flash_ex.c ****   }
 1896              		.loc 1 284 5 is_stmt 1 view .LVU612
 1897 005e 5968     		ldr	r1, [r3, #4]
 1898 0060 FFF7FEFF 		bl	FLASH_PageErase
 1899              	.LVL171:
ARM GAS  /tmp/ccQmN1qL.s 			page 66


 287:Drivers/STM32L4xx_HAL_Driver/Src/stm32l4xx_hal_flash_ex.c **** }
 1900              		.loc 1 287 10 is_stmt 0 view .LVU613
 1901 0064 0020     		movs	r0, #0
 1902              	.L138:
 288:Drivers/STM32L4xx_HAL_Driver/Src/stm32l4xx_hal_flash_ex.c **** 
 1903              		.loc 1 288 1 view .LVU614
 1904 0066 08BD     		pop	{r3, pc}
 1905              	.LVL172:
 1906              	.L140:
 251:Drivers/STM32L4xx_HAL_Driver/Src/stm32l4xx_hal_flash_ex.c ****     }
 1907              		.loc 1 251 7 is_stmt 1 view .LVU615
 251:Drivers/STM32L4xx_HAL_Driver/Src/stm32l4xx_hal_flash_ex.c ****     }
 1908              		.loc 1 251 32 is_stmt 0 view .LVU616
 1909 0068 0F4A     		ldr	r2, .L150
 1910 006a 0121     		movs	r1, #1
 1911 006c 1177     		strb	r1, [r2, #28]
 1912 006e E4E7     		b	.L141
 1913              	.L139:
 254:Drivers/STM32L4xx_HAL_Driver/Src/stm32l4xx_hal_flash_ex.c ****   {
 1914              		.loc 1 254 8 is_stmt 1 view .LVU617
 254:Drivers/STM32L4xx_HAL_Driver/Src/stm32l4xx_hal_flash_ex.c ****   {
 1915              		.loc 1 254 11 is_stmt 0 view .LVU618
 1916 0070 0E4A     		ldr	r2, .L150+4
 1917 0072 1268     		ldr	r2, [r2]
 254:Drivers/STM32L4xx_HAL_Driver/Src/stm32l4xx_hal_flash_ex.c ****   {
 1918              		.loc 1 254 10 view .LVU619
 1919 0074 12F4806F 		tst	r2, #1024
 1920 0078 08D0     		beq	.L142
 257:Drivers/STM32L4xx_HAL_Driver/Src/stm32l4xx_hal_flash_ex.c ****     pFlash.CacheToReactivate = FLASH_CACHE_DCACHE_ENABLED;
 1921              		.loc 1 257 5 is_stmt 1 view .LVU620
 1922 007a 0C49     		ldr	r1, .L150+4
 1923 007c 0A68     		ldr	r2, [r1]
 1924 007e 22F48062 		bic	r2, r2, #1024
 1925 0082 0A60     		str	r2, [r1]
 258:Drivers/STM32L4xx_HAL_Driver/Src/stm32l4xx_hal_flash_ex.c ****   }
 1926              		.loc 1 258 5 view .LVU621
 258:Drivers/STM32L4xx_HAL_Driver/Src/stm32l4xx_hal_flash_ex.c ****   }
 1927              		.loc 1 258 30 is_stmt 0 view .LVU622
 1928 0084 084A     		ldr	r2, .L150
 1929 0086 0221     		movs	r1, #2
 1930 0088 1177     		strb	r1, [r2, #28]
 1931 008a D6E7     		b	.L141
 1932              	.L142:
 262:Drivers/STM32L4xx_HAL_Driver/Src/stm32l4xx_hal_flash_ex.c ****   }
 1933              		.loc 1 262 5 is_stmt 1 view .LVU623
 262:Drivers/STM32L4xx_HAL_Driver/Src/stm32l4xx_hal_flash_ex.c ****   }
 1934              		.loc 1 262 30 is_stmt 0 view .LVU624
 1935 008c 064A     		ldr	r2, .L150
 1936 008e 0021     		movs	r1, #0
 1937 0090 1177     		strb	r1, [r2, #28]
 1938 0092 D2E7     		b	.L141
 1939              	.L149:
 273:Drivers/STM32L4xx_HAL_Driver/Src/stm32l4xx_hal_flash_ex.c ****     FLASH_MassErase(pEraseInit->Banks);
 1940              		.loc 1 273 5 is_stmt 1 view .LVU625
 273:Drivers/STM32L4xx_HAL_Driver/Src/stm32l4xx_hal_flash_ex.c ****     FLASH_MassErase(pEraseInit->Banks);
 1941              		.loc 1 273 29 is_stmt 0 view .LVU626
 1942 0094 044A     		ldr	r2, .L150
ARM GAS  /tmp/ccQmN1qL.s 			page 67


 1943 0096 0221     		movs	r1, #2
 1944 0098 1172     		strb	r1, [r2, #8]
 274:Drivers/STM32L4xx_HAL_Driver/Src/stm32l4xx_hal_flash_ex.c ****   }
 1945              		.loc 1 274 5 is_stmt 1 view .LVU627
 1946 009a 5868     		ldr	r0, [r3, #4]
 1947              	.LVL173:
 274:Drivers/STM32L4xx_HAL_Driver/Src/stm32l4xx_hal_flash_ex.c ****   }
 1948              		.loc 1 274 5 is_stmt 0 view .LVU628
 1949 009c FFF7FEFF 		bl	FLASH_MassErase
 1950              	.LVL174:
 287:Drivers/STM32L4xx_HAL_Driver/Src/stm32l4xx_hal_flash_ex.c **** }
 1951              		.loc 1 287 10 view .LVU629
 1952 00a0 0020     		movs	r0, #0
 1953 00a2 E0E7     		b	.L138
 1954              	.LVL175:
 1955              	.L144:
 1956              	.LCFI11:
 1957              		.cfi_def_cfa_offset 0
 1958              		.cfi_restore 3
 1959              		.cfi_restore 14
 233:Drivers/STM32L4xx_HAL_Driver/Src/stm32l4xx_hal_flash_ex.c **** 
 1960              		.loc 1 233 3 view .LVU630
 1961 00a4 0220     		movs	r0, #2
 1962              	.LVL176:
 288:Drivers/STM32L4xx_HAL_Driver/Src/stm32l4xx_hal_flash_ex.c **** 
 1963              		.loc 1 288 1 view .LVU631
 1964 00a6 7047     		bx	lr
 1965              	.L151:
 1966              		.align	2
 1967              	.L150:
 1968 00a8 00000000 		.word	pFlash
 1969 00ac 00200240 		.word	1073881088
 1970              		.cfi_endproc
 1971              	.LFE135:
 1973              		.section	.text.FLASH_FlushCaches,"ax",%progbits
 1974              		.align	1
 1975              		.global	FLASH_FlushCaches
 1976              		.syntax unified
 1977              		.thumb
 1978              		.thumb_func
 1979              		.fpu fpv4-sp-d16
 1981              	FLASH_FlushCaches:
 1982              	.LFB141:
 595:Drivers/STM32L4xx_HAL_Driver/Src/stm32l4xx_hal_flash_ex.c ****   FLASH_CacheTypeDef cache = pFlash.CacheToReactivate;
 1983              		.loc 1 595 1 is_stmt 1 view -0
 1984              		.cfi_startproc
 1985              		@ args = 0, pretend = 0, frame = 0
 1986              		@ frame_needed = 0, uses_anonymous_args = 0
 1987              		@ link register save eliminated.
 596:Drivers/STM32L4xx_HAL_Driver/Src/stm32l4xx_hal_flash_ex.c **** 
 1988              		.loc 1 596 3 view .LVU633
 596:Drivers/STM32L4xx_HAL_Driver/Src/stm32l4xx_hal_flash_ex.c **** 
 1989              		.loc 1 596 22 is_stmt 0 view .LVU634
 1990 0000 164B     		ldr	r3, .L157
 1991 0002 1B7F     		ldrb	r3, [r3, #28]	@ zero_extendqisi2
 1992 0004 DBB2     		uxtb	r3, r3
 1993              	.LVL177:
ARM GAS  /tmp/ccQmN1qL.s 			page 68


 599:Drivers/STM32L4xx_HAL_Driver/Src/stm32l4xx_hal_flash_ex.c ****      (cache == FLASH_CACHE_ICACHE_DCACHE_ENABLED))
 1994              		.loc 1 599 3 is_stmt 1 view .LVU635
 599:Drivers/STM32L4xx_HAL_Driver/Src/stm32l4xx_hal_flash_ex.c ****      (cache == FLASH_CACHE_ICACHE_DCACHE_ENABLED))
 1995              		.loc 1 599 5 is_stmt 0 view .LVU636
 1996 0006 012B     		cmp	r3, #1
 1997 0008 01D0     		beq	.L153
 599:Drivers/STM32L4xx_HAL_Driver/Src/stm32l4xx_hal_flash_ex.c ****      (cache == FLASH_CACHE_ICACHE_DCACHE_ENABLED))
 1998              		.loc 1 599 44 discriminator 1 view .LVU637
 1999 000a 032B     		cmp	r3, #3
 2000 000c 10D1     		bne	.L154
 2001              	.L153:
 603:Drivers/STM32L4xx_HAL_Driver/Src/stm32l4xx_hal_flash_ex.c ****     /* Reset instruction cache */
 2002              		.loc 1 603 5 is_stmt 1 view .LVU638
 2003 000e 144A     		ldr	r2, .L157+4
 2004 0010 1168     		ldr	r1, [r2]
 2005 0012 21F40071 		bic	r1, r1, #512
 2006 0016 1160     		str	r1, [r2]
 605:Drivers/STM32L4xx_HAL_Driver/Src/stm32l4xx_hal_flash_ex.c ****     /* Enable instruction cache */
 2007              		.loc 1 605 5 view .LVU639
 605:Drivers/STM32L4xx_HAL_Driver/Src/stm32l4xx_hal_flash_ex.c ****     /* Enable instruction cache */
 2008              		.loc 1 605 5 view .LVU640
 2009 0018 1168     		ldr	r1, [r2]
 2010 001a 41F40061 		orr	r1, r1, #2048
 2011 001e 1160     		str	r1, [r2]
 605:Drivers/STM32L4xx_HAL_Driver/Src/stm32l4xx_hal_flash_ex.c ****     /* Enable instruction cache */
 2012              		.loc 1 605 5 view .LVU641
 2013 0020 1168     		ldr	r1, [r2]
 2014 0022 21F40061 		bic	r1, r1, #2048
 2015 0026 1160     		str	r1, [r2]
 605:Drivers/STM32L4xx_HAL_Driver/Src/stm32l4xx_hal_flash_ex.c ****     /* Enable instruction cache */
 2016              		.loc 1 605 5 view .LVU642
 607:Drivers/STM32L4xx_HAL_Driver/Src/stm32l4xx_hal_flash_ex.c ****   }
 2017              		.loc 1 607 5 view .LVU643
 2018 0028 1168     		ldr	r1, [r2]
 2019 002a 41F40071 		orr	r1, r1, #512
 2020 002e 1160     		str	r1, [r2]
 2021              	.L154:
 611:Drivers/STM32L4xx_HAL_Driver/Src/stm32l4xx_hal_flash_ex.c ****      (cache == FLASH_CACHE_ICACHE_DCACHE_ENABLED))
 2022              		.loc 1 611 3 view .LVU644
 611:Drivers/STM32L4xx_HAL_Driver/Src/stm32l4xx_hal_flash_ex.c ****      (cache == FLASH_CACHE_ICACHE_DCACHE_ENABLED))
 2023              		.loc 1 611 44 is_stmt 0 view .LVU645
 2024 0030 023B     		subs	r3, r3, #2
 2025              	.LVL178:
 611:Drivers/STM32L4xx_HAL_Driver/Src/stm32l4xx_hal_flash_ex.c ****      (cache == FLASH_CACHE_ICACHE_DCACHE_ENABLED))
 2026              		.loc 1 611 44 view .LVU646
 2027 0032 DBB2     		uxtb	r3, r3
 2028              	.LVL179:
 611:Drivers/STM32L4xx_HAL_Driver/Src/stm32l4xx_hal_flash_ex.c ****      (cache == FLASH_CACHE_ICACHE_DCACHE_ENABLED))
 2029              		.loc 1 611 5 view .LVU647
 2030 0034 012B     		cmp	r3, #1
 2031 0036 03D9     		bls	.L156
 2032              	.L155:
 621:Drivers/STM32L4xx_HAL_Driver/Src/stm32l4xx_hal_flash_ex.c **** }
 2033              		.loc 1 621 3 is_stmt 1 view .LVU648
 621:Drivers/STM32L4xx_HAL_Driver/Src/stm32l4xx_hal_flash_ex.c **** }
 2034              		.loc 1 621 28 is_stmt 0 view .LVU649
 2035 0038 084B     		ldr	r3, .L157
ARM GAS  /tmp/ccQmN1qL.s 			page 69


 2036 003a 0022     		movs	r2, #0
 2037 003c 1A77     		strb	r2, [r3, #28]
 622:Drivers/STM32L4xx_HAL_Driver/Src/stm32l4xx_hal_flash_ex.c **** 
 2038              		.loc 1 622 1 view .LVU650
 2039 003e 7047     		bx	lr
 2040              	.L156:
 615:Drivers/STM32L4xx_HAL_Driver/Src/stm32l4xx_hal_flash_ex.c ****     /* Enable data cache */
 2041              		.loc 1 615 5 is_stmt 1 view .LVU651
 615:Drivers/STM32L4xx_HAL_Driver/Src/stm32l4xx_hal_flash_ex.c ****     /* Enable data cache */
 2042              		.loc 1 615 5 view .LVU652
 2043 0040 074B     		ldr	r3, .L157+4
 2044 0042 1A68     		ldr	r2, [r3]
 2045 0044 42F48052 		orr	r2, r2, #4096
 2046 0048 1A60     		str	r2, [r3]
 615:Drivers/STM32L4xx_HAL_Driver/Src/stm32l4xx_hal_flash_ex.c ****     /* Enable data cache */
 2047              		.loc 1 615 5 view .LVU653
 2048 004a 1A68     		ldr	r2, [r3]
 2049 004c 22F48052 		bic	r2, r2, #4096
 2050 0050 1A60     		str	r2, [r3]
 615:Drivers/STM32L4xx_HAL_Driver/Src/stm32l4xx_hal_flash_ex.c ****     /* Enable data cache */
 2051              		.loc 1 615 5 view .LVU654
 617:Drivers/STM32L4xx_HAL_Driver/Src/stm32l4xx_hal_flash_ex.c ****   }
 2052              		.loc 1 617 5 view .LVU655
 2053 0052 1A68     		ldr	r2, [r3]
 2054 0054 42F48062 		orr	r2, r2, #1024
 2055 0058 1A60     		str	r2, [r3]
 2056 005a EDE7     		b	.L155
 2057              	.L158:
 2058              		.align	2
 2059              	.L157:
 2060 005c 00000000 		.word	pFlash
 2061 0060 00200240 		.word	1073881088
 2062              		.cfi_endproc
 2063              	.LFE141:
 2065              		.section	.text.HAL_FLASHEx_Erase,"ax",%progbits
 2066              		.align	1
 2067              		.global	HAL_FLASHEx_Erase
 2068              		.syntax unified
 2069              		.thumb
 2070              		.thumb_func
 2071              		.fpu fpv4-sp-d16
 2073              	HAL_FLASHEx_Erase:
 2074              	.LVL180:
 2075              	.LFB134:
 126:Drivers/STM32L4xx_HAL_Driver/Src/stm32l4xx_hal_flash_ex.c ****   HAL_StatusTypeDef status;
 2076              		.loc 1 126 1 view -0
 2077              		.cfi_startproc
 2078              		@ args = 0, pretend = 0, frame = 0
 2079              		@ frame_needed = 0, uses_anonymous_args = 0
 126:Drivers/STM32L4xx_HAL_Driver/Src/stm32l4xx_hal_flash_ex.c ****   HAL_StatusTypeDef status;
 2080              		.loc 1 126 1 is_stmt 0 view .LVU657
 2081 0000 F8B5     		push	{r3, r4, r5, r6, r7, lr}
 2082              	.LCFI12:
 2083              		.cfi_def_cfa_offset 24
 2084              		.cfi_offset 3, -24
 2085              		.cfi_offset 4, -20
 2086              		.cfi_offset 5, -16
ARM GAS  /tmp/ccQmN1qL.s 			page 70


 2087              		.cfi_offset 6, -12
 2088              		.cfi_offset 7, -8
 2089              		.cfi_offset 14, -4
 127:Drivers/STM32L4xx_HAL_Driver/Src/stm32l4xx_hal_flash_ex.c ****   uint32_t page_index;
 2090              		.loc 1 127 3 is_stmt 1 view .LVU658
 128:Drivers/STM32L4xx_HAL_Driver/Src/stm32l4xx_hal_flash_ex.c **** 
 2091              		.loc 1 128 3 view .LVU659
 131:Drivers/STM32L4xx_HAL_Driver/Src/stm32l4xx_hal_flash_ex.c **** 
 2092              		.loc 1 131 3 view .LVU660
 131:Drivers/STM32L4xx_HAL_Driver/Src/stm32l4xx_hal_flash_ex.c **** 
 2093              		.loc 1 131 3 view .LVU661
 2094 0002 3A4B     		ldr	r3, .L175
 2095 0004 1B78     		ldrb	r3, [r3]	@ zero_extendqisi2
 2096 0006 012B     		cmp	r3, #1
 2097 0008 6DD0     		beq	.L171
 2098 000a 0446     		mov	r4, r0
 2099 000c 0E46     		mov	r6, r1
 131:Drivers/STM32L4xx_HAL_Driver/Src/stm32l4xx_hal_flash_ex.c **** 
 2100              		.loc 1 131 3 discriminator 2 view .LVU662
 2101 000e 374B     		ldr	r3, .L175
 2102 0010 0122     		movs	r2, #1
 2103 0012 1A70     		strb	r2, [r3]
 131:Drivers/STM32L4xx_HAL_Driver/Src/stm32l4xx_hal_flash_ex.c **** 
 2104              		.loc 1 131 3 discriminator 2 view .LVU663
 134:Drivers/STM32L4xx_HAL_Driver/Src/stm32l4xx_hal_flash_ex.c **** 
 2105              		.loc 1 134 3 discriminator 2 view .LVU664
 137:Drivers/STM32L4xx_HAL_Driver/Src/stm32l4xx_hal_flash_ex.c **** 
 2106              		.loc 1 137 3 discriminator 2 view .LVU665
 137:Drivers/STM32L4xx_HAL_Driver/Src/stm32l4xx_hal_flash_ex.c **** 
 2107              		.loc 1 137 12 is_stmt 0 discriminator 2 view .LVU666
 2108 0014 4CF25030 		movw	r0, #50000
 2109              	.LVL181:
 137:Drivers/STM32L4xx_HAL_Driver/Src/stm32l4xx_hal_flash_ex.c **** 
 2110              		.loc 1 137 12 discriminator 2 view .LVU667
 2111 0018 FFF7FEFF 		bl	FLASH_WaitForLastOperation
 2112              	.LVL182:
 139:Drivers/STM32L4xx_HAL_Driver/Src/stm32l4xx_hal_flash_ex.c ****   {
 2113              		.loc 1 139 3 is_stmt 1 discriminator 2 view .LVU668
 139:Drivers/STM32L4xx_HAL_Driver/Src/stm32l4xx_hal_flash_ex.c ****   {
 2114              		.loc 1 139 6 is_stmt 0 discriminator 2 view .LVU669
 2115 001c 0746     		mov	r7, r0
 2116 001e 0028     		cmp	r0, #0
 2117 0020 5CD1     		bne	.L161
 141:Drivers/STM32L4xx_HAL_Driver/Src/stm32l4xx_hal_flash_ex.c **** 
 2118              		.loc 1 141 5 is_stmt 1 view .LVU670
 141:Drivers/STM32L4xx_HAL_Driver/Src/stm32l4xx_hal_flash_ex.c **** 
 2119              		.loc 1 141 22 is_stmt 0 view .LVU671
 2120 0022 324B     		ldr	r3, .L175
 2121 0024 0022     		movs	r2, #0
 2122 0026 5A60     		str	r2, [r3, #4]
 144:Drivers/STM32L4xx_HAL_Driver/Src/stm32l4xx_hal_flash_ex.c ****     {
 2123              		.loc 1 144 5 is_stmt 1 view .LVU672
 144:Drivers/STM32L4xx_HAL_Driver/Src/stm32l4xx_hal_flash_ex.c ****     {
 2124              		.loc 1 144 8 is_stmt 0 view .LVU673
 2125 0028 314B     		ldr	r3, .L175+4
 2126 002a 1B68     		ldr	r3, [r3]
 144:Drivers/STM32L4xx_HAL_Driver/Src/stm32l4xx_hal_flash_ex.c ****     {
ARM GAS  /tmp/ccQmN1qL.s 			page 71


 2127              		.loc 1 144 7 view .LVU674
 2128 002c 13F4007F 		tst	r3, #512
 2129 0030 2FD0     		beq	.L162
 146:Drivers/STM32L4xx_HAL_Driver/Src/stm32l4xx_hal_flash_ex.c ****       {
 2130              		.loc 1 146 7 is_stmt 1 view .LVU675
 146:Drivers/STM32L4xx_HAL_Driver/Src/stm32l4xx_hal_flash_ex.c ****       {
 2131              		.loc 1 146 10 is_stmt 0 view .LVU676
 2132 0032 2F4B     		ldr	r3, .L175+4
 2133 0034 1B68     		ldr	r3, [r3]
 146:Drivers/STM32L4xx_HAL_Driver/Src/stm32l4xx_hal_flash_ex.c ****       {
 2134              		.loc 1 146 9 view .LVU677
 2135 0036 13F4806F 		tst	r3, #1024
 2136 003a 26D0     		beq	.L163
 149:Drivers/STM32L4xx_HAL_Driver/Src/stm32l4xx_hal_flash_ex.c ****         pFlash.CacheToReactivate = FLASH_CACHE_ICACHE_DCACHE_ENABLED;
 2137              		.loc 1 149 9 is_stmt 1 view .LVU678
 2138 003c 2C4A     		ldr	r2, .L175+4
 2139 003e 1368     		ldr	r3, [r2]
 2140 0040 23F48063 		bic	r3, r3, #1024
 2141 0044 1360     		str	r3, [r2]
 150:Drivers/STM32L4xx_HAL_Driver/Src/stm32l4xx_hal_flash_ex.c ****       }
 2142              		.loc 1 150 9 view .LVU679
 150:Drivers/STM32L4xx_HAL_Driver/Src/stm32l4xx_hal_flash_ex.c ****       }
 2143              		.loc 1 150 34 is_stmt 0 view .LVU680
 2144 0046 294B     		ldr	r3, .L175
 2145 0048 0322     		movs	r2, #3
 2146 004a 1A77     		strb	r2, [r3, #28]
 2147              	.L164:
 168:Drivers/STM32L4xx_HAL_Driver/Src/stm32l4xx_hal_flash_ex.c ****     {
 2148              		.loc 1 168 5 is_stmt 1 view .LVU681
 168:Drivers/STM32L4xx_HAL_Driver/Src/stm32l4xx_hal_flash_ex.c ****     {
 2149              		.loc 1 168 19 is_stmt 0 view .LVU682
 2150 004c 2368     		ldr	r3, [r4]
 168:Drivers/STM32L4xx_HAL_Driver/Src/stm32l4xx_hal_flash_ex.c ****     {
 2151              		.loc 1 168 8 view .LVU683
 2152 004e 012B     		cmp	r3, #1
 2153 0050 31D0     		beq	.L173
 190:Drivers/STM32L4xx_HAL_Driver/Src/stm32l4xx_hal_flash_ex.c **** 
 2154              		.loc 1 190 7 is_stmt 1 view .LVU684
 190:Drivers/STM32L4xx_HAL_Driver/Src/stm32l4xx_hal_flash_ex.c **** 
 2155              		.loc 1 190 18 is_stmt 0 view .LVU685
 2156 0052 4FF0FF33 		mov	r3, #-1
 2157 0056 3360     		str	r3, [r6]
 192:Drivers/STM32L4xx_HAL_Driver/Src/stm32l4xx_hal_flash_ex.c ****       {
 2158              		.loc 1 192 7 is_stmt 1 view .LVU686
 192:Drivers/STM32L4xx_HAL_Driver/Src/stm32l4xx_hal_flash_ex.c ****       {
 2159              		.loc 1 192 22 is_stmt 0 view .LVU687
 2160 0058 A568     		ldr	r5, [r4, #8]
 2161              	.LVL183:
 2162              	.L168:
 192:Drivers/STM32L4xx_HAL_Driver/Src/stm32l4xx_hal_flash_ex.c ****       {
 2163              		.loc 1 192 42 is_stmt 1 discriminator 1 view .LVU688
 192:Drivers/STM32L4xx_HAL_Driver/Src/stm32l4xx_hal_flash_ex.c ****       {
 2164              		.loc 1 192 66 is_stmt 0 discriminator 1 view .LVU689
 2165 005a A368     		ldr	r3, [r4, #8]
 192:Drivers/STM32L4xx_HAL_Driver/Src/stm32l4xx_hal_flash_ex.c ****       {
 2166              		.loc 1 192 85 discriminator 1 view .LVU690
 2167 005c E268     		ldr	r2, [r4, #12]
ARM GAS  /tmp/ccQmN1qL.s 			page 72


 192:Drivers/STM32L4xx_HAL_Driver/Src/stm32l4xx_hal_flash_ex.c ****       {
 2168              		.loc 1 192 73 discriminator 1 view .LVU691
 2169 005e 1344     		add	r3, r3, r2
 192:Drivers/STM32L4xx_HAL_Driver/Src/stm32l4xx_hal_flash_ex.c ****       {
 2170              		.loc 1 192 7 discriminator 1 view .LVU692
 2171 0060 AB42     		cmp	r3, r5
 2172 0062 39D9     		bls	.L167
 194:Drivers/STM32L4xx_HAL_Driver/Src/stm32l4xx_hal_flash_ex.c **** 
 2173              		.loc 1 194 9 is_stmt 1 view .LVU693
 2174 0064 6168     		ldr	r1, [r4, #4]
 2175 0066 2846     		mov	r0, r5
 2176 0068 FFF7FEFF 		bl	FLASH_PageErase
 2177              	.LVL184:
 197:Drivers/STM32L4xx_HAL_Driver/Src/stm32l4xx_hal_flash_ex.c **** 
 2178              		.loc 1 197 9 view .LVU694
 197:Drivers/STM32L4xx_HAL_Driver/Src/stm32l4xx_hal_flash_ex.c **** 
 2179              		.loc 1 197 18 is_stmt 0 view .LVU695
 2180 006c 4CF25030 		movw	r0, #50000
 2181 0070 FFF7FEFF 		bl	FLASH_WaitForLastOperation
 2182              	.LVL185:
 200:Drivers/STM32L4xx_HAL_Driver/Src/stm32l4xx_hal_flash_ex.c **** 
 2183              		.loc 1 200 9 is_stmt 1 view .LVU696
 2184 0074 1E4A     		ldr	r2, .L175+4
 2185 0076 5369     		ldr	r3, [r2, #20]
 2186 0078 23F4FF63 		bic	r3, r3, #2040
 2187 007c 23F00203 		bic	r3, r3, #2
 2188 0080 5361     		str	r3, [r2, #20]
 202:Drivers/STM32L4xx_HAL_Driver/Src/stm32l4xx_hal_flash_ex.c ****         {
 2189              		.loc 1 202 9 view .LVU697
 202:Drivers/STM32L4xx_HAL_Driver/Src/stm32l4xx_hal_flash_ex.c ****         {
 2190              		.loc 1 202 12 is_stmt 0 view .LVU698
 2191 0082 0746     		mov	r7, r0
 2192 0084 38BB     		cbnz	r0, .L174
 192:Drivers/STM32L4xx_HAL_Driver/Src/stm32l4xx_hal_flash_ex.c ****       {
 2193              		.loc 1 192 97 is_stmt 1 discriminator 2 view .LVU699
 192:Drivers/STM32L4xx_HAL_Driver/Src/stm32l4xx_hal_flash_ex.c ****       {
 2194              		.loc 1 192 107 is_stmt 0 discriminator 2 view .LVU700
 2195 0086 0135     		adds	r5, r5, #1
 2196              	.LVL186:
 192:Drivers/STM32L4xx_HAL_Driver/Src/stm32l4xx_hal_flash_ex.c ****       {
 2197              		.loc 1 192 107 discriminator 2 view .LVU701
 2198 0088 E7E7     		b	.L168
 2199              	.LVL187:
 2200              	.L163:
 154:Drivers/STM32L4xx_HAL_Driver/Src/stm32l4xx_hal_flash_ex.c ****       }
 2201              		.loc 1 154 9 is_stmt 1 view .LVU702
 154:Drivers/STM32L4xx_HAL_Driver/Src/stm32l4xx_hal_flash_ex.c ****       }
 2202              		.loc 1 154 34 is_stmt 0 view .LVU703
 2203 008a 184B     		ldr	r3, .L175
 2204 008c 0122     		movs	r2, #1
 2205 008e 1A77     		strb	r2, [r3, #28]
 2206 0090 DCE7     		b	.L164
 2207              	.L162:
 157:Drivers/STM32L4xx_HAL_Driver/Src/stm32l4xx_hal_flash_ex.c ****     {
 2208              		.loc 1 157 10 is_stmt 1 view .LVU704
 157:Drivers/STM32L4xx_HAL_Driver/Src/stm32l4xx_hal_flash_ex.c ****     {
 2209              		.loc 1 157 13 is_stmt 0 view .LVU705
ARM GAS  /tmp/ccQmN1qL.s 			page 73


 2210 0092 174B     		ldr	r3, .L175+4
 2211 0094 1B68     		ldr	r3, [r3]
 157:Drivers/STM32L4xx_HAL_Driver/Src/stm32l4xx_hal_flash_ex.c ****     {
 2212              		.loc 1 157 12 view .LVU706
 2213 0096 13F4806F 		tst	r3, #1024
 2214 009a 08D0     		beq	.L165
 160:Drivers/STM32L4xx_HAL_Driver/Src/stm32l4xx_hal_flash_ex.c ****       pFlash.CacheToReactivate = FLASH_CACHE_DCACHE_ENABLED;
 2215              		.loc 1 160 7 is_stmt 1 view .LVU707
 2216 009c 144A     		ldr	r2, .L175+4
 2217 009e 1368     		ldr	r3, [r2]
 2218 00a0 23F48063 		bic	r3, r3, #1024
 2219 00a4 1360     		str	r3, [r2]
 161:Drivers/STM32L4xx_HAL_Driver/Src/stm32l4xx_hal_flash_ex.c ****     }
 2220              		.loc 1 161 7 view .LVU708
 161:Drivers/STM32L4xx_HAL_Driver/Src/stm32l4xx_hal_flash_ex.c ****     }
 2221              		.loc 1 161 32 is_stmt 0 view .LVU709
 2222 00a6 114B     		ldr	r3, .L175
 2223 00a8 0222     		movs	r2, #2
 2224 00aa 1A77     		strb	r2, [r3, #28]
 2225 00ac CEE7     		b	.L164
 2226              	.L165:
 165:Drivers/STM32L4xx_HAL_Driver/Src/stm32l4xx_hal_flash_ex.c ****     }
 2227              		.loc 1 165 7 is_stmt 1 view .LVU710
 165:Drivers/STM32L4xx_HAL_Driver/Src/stm32l4xx_hal_flash_ex.c ****     }
 2228              		.loc 1 165 32 is_stmt 0 view .LVU711
 2229 00ae 0F4B     		ldr	r3, .L175
 2230 00b0 0022     		movs	r2, #0
 2231 00b2 1A77     		strb	r2, [r3, #28]
 2232 00b4 CAE7     		b	.L164
 2233              	.L173:
 171:Drivers/STM32L4xx_HAL_Driver/Src/stm32l4xx_hal_flash_ex.c **** 
 2234              		.loc 1 171 7 is_stmt 1 view .LVU712
 2235 00b6 6068     		ldr	r0, [r4, #4]
 2236              	.LVL188:
 171:Drivers/STM32L4xx_HAL_Driver/Src/stm32l4xx_hal_flash_ex.c **** 
 2237              		.loc 1 171 7 is_stmt 0 view .LVU713
 2238 00b8 FFF7FEFF 		bl	FLASH_MassErase
 2239              	.LVL189:
 174:Drivers/STM32L4xx_HAL_Driver/Src/stm32l4xx_hal_flash_ex.c **** 
 2240              		.loc 1 174 7 is_stmt 1 view .LVU714
 174:Drivers/STM32L4xx_HAL_Driver/Src/stm32l4xx_hal_flash_ex.c **** 
 2241              		.loc 1 174 16 is_stmt 0 view .LVU715
 2242 00bc 4CF25030 		movw	r0, #50000
 2243 00c0 FFF7FEFF 		bl	FLASH_WaitForLastOperation
 2244              	.LVL190:
 2245 00c4 0746     		mov	r7, r0
 2246              	.LVL191:
 181:Drivers/STM32L4xx_HAL_Driver/Src/stm32l4xx_hal_flash_ex.c **** #else
 2247              		.loc 1 181 7 is_stmt 1 view .LVU716
 2248 00c6 0A4A     		ldr	r2, .L175+4
 2249 00c8 5369     		ldr	r3, [r2, #20]
 2250 00ca 23F40043 		bic	r3, r3, #32768
 2251 00ce 23F00403 		bic	r3, r3, #4
 2252 00d2 5361     		str	r3, [r2, #20]
 2253 00d4 00E0     		b	.L167
 2254              	.LVL192:
 2255              	.L174:
ARM GAS  /tmp/ccQmN1qL.s 			page 74


 205:Drivers/STM32L4xx_HAL_Driver/Src/stm32l4xx_hal_flash_ex.c ****           break;
 2256              		.loc 1 205 11 view .LVU717
 205:Drivers/STM32L4xx_HAL_Driver/Src/stm32l4xx_hal_flash_ex.c ****           break;
 2257              		.loc 1 205 22 is_stmt 0 view .LVU718
 2258 00d6 3560     		str	r5, [r6]
 206:Drivers/STM32L4xx_HAL_Driver/Src/stm32l4xx_hal_flash_ex.c ****         }
 2259              		.loc 1 206 11 is_stmt 1 view .LVU719
 2260              	.LVL193:
 2261              	.L167:
 212:Drivers/STM32L4xx_HAL_Driver/Src/stm32l4xx_hal_flash_ex.c ****   }
 2262              		.loc 1 212 5 view .LVU720
 2263 00d8 FFF7FEFF 		bl	FLASH_FlushCaches
 2264              	.LVL194:
 2265              	.L161:
 216:Drivers/STM32L4xx_HAL_Driver/Src/stm32l4xx_hal_flash_ex.c **** 
 2266              		.loc 1 216 3 view .LVU721
 216:Drivers/STM32L4xx_HAL_Driver/Src/stm32l4xx_hal_flash_ex.c **** 
 2267              		.loc 1 216 3 view .LVU722
 2268 00dc 034B     		ldr	r3, .L175
 2269 00de 0022     		movs	r2, #0
 2270 00e0 1A70     		strb	r2, [r3]
 216:Drivers/STM32L4xx_HAL_Driver/Src/stm32l4xx_hal_flash_ex.c **** 
 2271              		.loc 1 216 3 view .LVU723
 218:Drivers/STM32L4xx_HAL_Driver/Src/stm32l4xx_hal_flash_ex.c **** }
 2272              		.loc 1 218 3 view .LVU724
 2273              	.LVL195:
 2274              	.L160:
 219:Drivers/STM32L4xx_HAL_Driver/Src/stm32l4xx_hal_flash_ex.c **** 
 2275              		.loc 1 219 1 is_stmt 0 view .LVU725
 2276 00e2 3846     		mov	r0, r7
 2277 00e4 F8BD     		pop	{r3, r4, r5, r6, r7, pc}
 2278              	.LVL196:
 2279              	.L171:
 131:Drivers/STM32L4xx_HAL_Driver/Src/stm32l4xx_hal_flash_ex.c **** 
 2280              		.loc 1 131 3 view .LVU726
 2281 00e6 0227     		movs	r7, #2
 2282 00e8 FBE7     		b	.L160
 2283              	.L176:
 2284 00ea 00BF     		.align	2
 2285              	.L175:
 2286 00ec 00000000 		.word	pFlash
 2287 00f0 00200240 		.word	1073881088
 2288              		.cfi_endproc
 2289              	.LFE134:
 2291              		.text
 2292              	.Letext0:
 2293              		.file 2 "/usr/lib/gcc/arm-none-eabi/9.2.1/include/stdint.h"
 2294              		.file 3 "Middlewares/tensorflow/third_party/cmsis/CMSIS/Core/Include/core_cm4.h"
 2295              		.file 4 "Drivers/CMSIS/Device/ST/STM32L4xx/Include/system_stm32l4xx.h"
 2296              		.file 5 "Drivers/CMSIS/Device/ST/STM32L4xx/Include/stm32l4r5xx.h"
 2297              		.file 6 "Drivers/STM32L4xx_HAL_Driver/Inc/stm32l4xx_hal_def.h"
 2298              		.file 7 "Drivers/STM32L4xx_HAL_Driver/Inc/stm32l4xx_hal_flash.h"
 2299              		.file 8 "Drivers/STM32L4xx_HAL_Driver/Inc/stm32l4xx_hal_uart.h"
 2300              		.file 9 "Drivers/STM32L4xx_HAL_Driver/Inc/stm32l4xx_hal.h"
 2301              		.file 10 "Drivers/STM32L4xx_HAL_Driver/Inc/stm32l4xx_hal_pwr_ex.h"
ARM GAS  /tmp/ccQmN1qL.s 			page 75


DEFINED SYMBOLS
                            *ABS*:0000000000000000 stm32l4xx_hal_flash_ex.c
     /tmp/ccQmN1qL.s:18     .text.FLASH_MassErase:0000000000000000 $t
     /tmp/ccQmN1qL.s:25     .text.FLASH_MassErase:0000000000000000 FLASH_MassErase
     /tmp/ccQmN1qL.s:80     .text.FLASH_MassErase:0000000000000048 $d
     /tmp/ccQmN1qL.s:85     .text.FLASH_OB_GetWRP:0000000000000000 $t
     /tmp/ccQmN1qL.s:91     .text.FLASH_OB_GetWRP:0000000000000000 FLASH_OB_GetWRP
     /tmp/ccQmN1qL.s:199    .text.FLASH_OB_GetWRP:0000000000000058 $d
     /tmp/ccQmN1qL.s:204    .text.FLASH_OB_GetRDP:0000000000000000 $t
     /tmp/ccQmN1qL.s:210    .text.FLASH_OB_GetRDP:0000000000000000 FLASH_OB_GetRDP
     /tmp/ccQmN1qL.s:247    .text.FLASH_OB_GetRDP:000000000000001c $d
     /tmp/ccQmN1qL.s:252    .text.FLASH_OB_GetUser:0000000000000000 $t
     /tmp/ccQmN1qL.s:258    .text.FLASH_OB_GetUser:0000000000000000 FLASH_OB_GetUser
     /tmp/ccQmN1qL.s:280    .text.FLASH_OB_GetUser:000000000000000c $d
     /tmp/ccQmN1qL.s:285    .text.FLASH_OB_GetPCROP:0000000000000000 $t
     /tmp/ccQmN1qL.s:291    .text.FLASH_OB_GetPCROP:0000000000000000 FLASH_OB_GetPCROP
     /tmp/ccQmN1qL.s:554    .text.FLASH_OB_GetPCROP:000000000000010c $d
     /tmp/ccQmN1qL.s:564    .text.FLASH_OB_WRPConfig:0000000000000000 $t
     /tmp/ccQmN1qL.s:570    .text.FLASH_OB_WRPConfig:0000000000000000 FLASH_OB_WRPConfig
     /tmp/ccQmN1qL.s:682    .text.FLASH_OB_WRPConfig:0000000000000084 $d
     /tmp/ccQmN1qL.s:687    .text.FLASH_OB_RDPConfig:0000000000000000 $t
     /tmp/ccQmN1qL.s:693    .text.FLASH_OB_RDPConfig:0000000000000000 FLASH_OB_RDPConfig
     /tmp/ccQmN1qL.s:751    .text.FLASH_OB_RDPConfig:0000000000000038 $d
     /tmp/ccQmN1qL.s:756    .text.FLASH_OB_UserConfig:0000000000000000 $t
     /tmp/ccQmN1qL.s:762    .text.FLASH_OB_UserConfig:0000000000000000 FLASH_OB_UserConfig
     /tmp/ccQmN1qL.s:1072   .text.FLASH_OB_UserConfig:000000000000012c $d
     /tmp/ccQmN1qL.s:1077   .text.FLASH_OB_PCROPConfig:0000000000000000 $t
     /tmp/ccQmN1qL.s:1083   .text.FLASH_OB_PCROPConfig:0000000000000000 FLASH_OB_PCROPConfig
     /tmp/ccQmN1qL.s:1347   .text.FLASH_OB_PCROPConfig:0000000000000140 $d
     /tmp/ccQmN1qL.s:1355   .text.HAL_FLASHEx_OBProgram:0000000000000000 $t
     /tmp/ccQmN1qL.s:1362   .text.HAL_FLASHEx_OBProgram:0000000000000000 HAL_FLASHEx_OBProgram
     /tmp/ccQmN1qL.s:1522   .text.HAL_FLASHEx_OBProgram:0000000000000090 $d
     /tmp/ccQmN1qL.s:1527   .text.HAL_FLASHEx_OBGetConfig:0000000000000000 $t
     /tmp/ccQmN1qL.s:1534   .text.HAL_FLASHEx_OBGetConfig:0000000000000000 HAL_FLASHEx_OBGetConfig
     /tmp/ccQmN1qL.s:1615   .text.HAL_FLASHEx_ConfigLVEPin:0000000000000000 $t
     /tmp/ccQmN1qL.s:1622   .text.HAL_FLASHEx_ConfigLVEPin:0000000000000000 HAL_FLASHEx_ConfigLVEPin
     /tmp/ccQmN1qL.s:1713   .text.HAL_FLASHEx_ConfigLVEPin:000000000000005c $d
     /tmp/ccQmN1qL.s:1719   .text.FLASH_PageErase:0000000000000000 $t
     /tmp/ccQmN1qL.s:1726   .text.FLASH_PageErase:0000000000000000 FLASH_PageErase
     /tmp/ccQmN1qL.s:1791   .text.FLASH_PageErase:0000000000000058 $d
     /tmp/ccQmN1qL.s:1796   .text.HAL_FLASHEx_Erase_IT:0000000000000000 $t
     /tmp/ccQmN1qL.s:1803   .text.HAL_FLASHEx_Erase_IT:0000000000000000 HAL_FLASHEx_Erase_IT
     /tmp/ccQmN1qL.s:1968   .text.HAL_FLASHEx_Erase_IT:00000000000000a8 $d
     /tmp/ccQmN1qL.s:1974   .text.FLASH_FlushCaches:0000000000000000 $t
     /tmp/ccQmN1qL.s:1981   .text.FLASH_FlushCaches:0000000000000000 FLASH_FlushCaches
     /tmp/ccQmN1qL.s:2060   .text.FLASH_FlushCaches:000000000000005c $d
     /tmp/ccQmN1qL.s:2066   .text.HAL_FLASHEx_Erase:0000000000000000 $t
     /tmp/ccQmN1qL.s:2073   .text.HAL_FLASHEx_Erase:0000000000000000 HAL_FLASHEx_Erase
     /tmp/ccQmN1qL.s:2286   .text.HAL_FLASHEx_Erase:00000000000000ec $d

UNDEFINED SYMBOLS
FLASH_WaitForLastOperation
pFlash
HAL_PWREx_GetVoltageRange
