ARM GAS  /tmp/ccS8Yg0I.s 			page 1


   1              		.cpu cortex-m4
   2              		.eabi_attribute 27, 1
   3              		.eabi_attribute 28, 1
   4              		.eabi_attribute 20, 1
   5              		.eabi_attribute 21, 1
   6              		.eabi_attribute 23, 3
   7              		.eabi_attribute 24, 1
   8              		.eabi_attribute 25, 1
   9              		.eabi_attribute 26, 1
  10              		.eabi_attribute 30, 1
  11              		.eabi_attribute 34, 1
  12              		.eabi_attribute 18, 4
  13              		.file	"stm32l4xx_ll_usb.c"
  14              		.text
  15              	.Ltext0:
  16              		.cfi_sections	.debug_frame
  17              		.section	.text.USB_CoreReset,"ax",%progbits
  18              		.align	1
  19              		.arch armv7e-m
  20              		.syntax unified
  21              		.thumb
  22              		.thumb_func
  23              		.fpu fpv4-sp-d16
  25              	USB_CoreReset:
  26              	.LVL0:
  27              	.LFB168:
  28              		.file 1 "Drivers/STM32L4xx_HAL_Driver/Src/stm32l4xx_ll_usb.c"
   1:Drivers/STM32L4xx_HAL_Driver/Src/stm32l4xx_ll_usb.c **** /**
   2:Drivers/STM32L4xx_HAL_Driver/Src/stm32l4xx_ll_usb.c ****   ******************************************************************************
   3:Drivers/STM32L4xx_HAL_Driver/Src/stm32l4xx_ll_usb.c ****   * @file    stm32l4xx_ll_usb.c
   4:Drivers/STM32L4xx_HAL_Driver/Src/stm32l4xx_ll_usb.c ****   * @author  MCD Application Team
   5:Drivers/STM32L4xx_HAL_Driver/Src/stm32l4xx_ll_usb.c ****   * @brief   USB Low Layer HAL module driver.
   6:Drivers/STM32L4xx_HAL_Driver/Src/stm32l4xx_ll_usb.c ****   *
   7:Drivers/STM32L4xx_HAL_Driver/Src/stm32l4xx_ll_usb.c ****   *          This file provides firmware functions to manage the following
   8:Drivers/STM32L4xx_HAL_Driver/Src/stm32l4xx_ll_usb.c ****   *          functionalities of the USB Peripheral Controller:
   9:Drivers/STM32L4xx_HAL_Driver/Src/stm32l4xx_ll_usb.c ****   *           + Initialization/de-initialization functions
  10:Drivers/STM32L4xx_HAL_Driver/Src/stm32l4xx_ll_usb.c ****   *           + I/O operation functions
  11:Drivers/STM32L4xx_HAL_Driver/Src/stm32l4xx_ll_usb.c ****   *           + Peripheral Control functions
  12:Drivers/STM32L4xx_HAL_Driver/Src/stm32l4xx_ll_usb.c ****   *           + Peripheral State functions
  13:Drivers/STM32L4xx_HAL_Driver/Src/stm32l4xx_ll_usb.c ****   *
  14:Drivers/STM32L4xx_HAL_Driver/Src/stm32l4xx_ll_usb.c ****   ******************************************************************************
  15:Drivers/STM32L4xx_HAL_Driver/Src/stm32l4xx_ll_usb.c ****   * @attention
  16:Drivers/STM32L4xx_HAL_Driver/Src/stm32l4xx_ll_usb.c ****   *
  17:Drivers/STM32L4xx_HAL_Driver/Src/stm32l4xx_ll_usb.c ****   * Copyright (c) 2017 STMicroelectronics.
  18:Drivers/STM32L4xx_HAL_Driver/Src/stm32l4xx_ll_usb.c ****   * All rights reserved.
  19:Drivers/STM32L4xx_HAL_Driver/Src/stm32l4xx_ll_usb.c ****   *
  20:Drivers/STM32L4xx_HAL_Driver/Src/stm32l4xx_ll_usb.c ****   * This software is licensed under terms that can be found in the LICENSE file
  21:Drivers/STM32L4xx_HAL_Driver/Src/stm32l4xx_ll_usb.c ****   * in the root directory of this software component.
  22:Drivers/STM32L4xx_HAL_Driver/Src/stm32l4xx_ll_usb.c ****   * If no LICENSE file comes with this software, it is provided AS-IS.
  23:Drivers/STM32L4xx_HAL_Driver/Src/stm32l4xx_ll_usb.c ****   *
  24:Drivers/STM32L4xx_HAL_Driver/Src/stm32l4xx_ll_usb.c ****   ******************************************************************************
  25:Drivers/STM32L4xx_HAL_Driver/Src/stm32l4xx_ll_usb.c ****   @verbatim
  26:Drivers/STM32L4xx_HAL_Driver/Src/stm32l4xx_ll_usb.c ****   ==============================================================================
  27:Drivers/STM32L4xx_HAL_Driver/Src/stm32l4xx_ll_usb.c ****                     ##### How to use this driver #####
  28:Drivers/STM32L4xx_HAL_Driver/Src/stm32l4xx_ll_usb.c ****   ==============================================================================
  29:Drivers/STM32L4xx_HAL_Driver/Src/stm32l4xx_ll_usb.c ****     [..]
  30:Drivers/STM32L4xx_HAL_Driver/Src/stm32l4xx_ll_usb.c ****       (#) Fill parameters of Init structure in USB_OTG_CfgTypeDef structure.
ARM GAS  /tmp/ccS8Yg0I.s 			page 2


  31:Drivers/STM32L4xx_HAL_Driver/Src/stm32l4xx_ll_usb.c **** 
  32:Drivers/STM32L4xx_HAL_Driver/Src/stm32l4xx_ll_usb.c ****       (#) Call USB_CoreInit() API to initialize the USB Core peripheral.
  33:Drivers/STM32L4xx_HAL_Driver/Src/stm32l4xx_ll_usb.c **** 
  34:Drivers/STM32L4xx_HAL_Driver/Src/stm32l4xx_ll_usb.c ****       (#) The upper HAL HCD/PCD driver will call the right routines for its internal processes.
  35:Drivers/STM32L4xx_HAL_Driver/Src/stm32l4xx_ll_usb.c **** 
  36:Drivers/STM32L4xx_HAL_Driver/Src/stm32l4xx_ll_usb.c ****   @endverbatim
  37:Drivers/STM32L4xx_HAL_Driver/Src/stm32l4xx_ll_usb.c **** 
  38:Drivers/STM32L4xx_HAL_Driver/Src/stm32l4xx_ll_usb.c ****   ******************************************************************************
  39:Drivers/STM32L4xx_HAL_Driver/Src/stm32l4xx_ll_usb.c ****   */
  40:Drivers/STM32L4xx_HAL_Driver/Src/stm32l4xx_ll_usb.c **** 
  41:Drivers/STM32L4xx_HAL_Driver/Src/stm32l4xx_ll_usb.c **** /* Includes ------------------------------------------------------------------*/
  42:Drivers/STM32L4xx_HAL_Driver/Src/stm32l4xx_ll_usb.c **** #include "stm32l4xx_hal.h"
  43:Drivers/STM32L4xx_HAL_Driver/Src/stm32l4xx_ll_usb.c **** 
  44:Drivers/STM32L4xx_HAL_Driver/Src/stm32l4xx_ll_usb.c **** /** @addtogroup STM32L4xx_LL_USB_DRIVER
  45:Drivers/STM32L4xx_HAL_Driver/Src/stm32l4xx_ll_usb.c ****   * @{
  46:Drivers/STM32L4xx_HAL_Driver/Src/stm32l4xx_ll_usb.c ****   */
  47:Drivers/STM32L4xx_HAL_Driver/Src/stm32l4xx_ll_usb.c **** 
  48:Drivers/STM32L4xx_HAL_Driver/Src/stm32l4xx_ll_usb.c **** #if defined (HAL_PCD_MODULE_ENABLED) || defined (HAL_HCD_MODULE_ENABLED)
  49:Drivers/STM32L4xx_HAL_Driver/Src/stm32l4xx_ll_usb.c **** #if defined (USB) || defined (USB_OTG_FS)
  50:Drivers/STM32L4xx_HAL_Driver/Src/stm32l4xx_ll_usb.c **** /* Private typedef -----------------------------------------------------------*/
  51:Drivers/STM32L4xx_HAL_Driver/Src/stm32l4xx_ll_usb.c **** /* Private define ------------------------------------------------------------*/
  52:Drivers/STM32L4xx_HAL_Driver/Src/stm32l4xx_ll_usb.c **** /* Private macro -------------------------------------------------------------*/
  53:Drivers/STM32L4xx_HAL_Driver/Src/stm32l4xx_ll_usb.c **** /* Private variables ---------------------------------------------------------*/
  54:Drivers/STM32L4xx_HAL_Driver/Src/stm32l4xx_ll_usb.c **** /* Private function prototypes -----------------------------------------------*/
  55:Drivers/STM32L4xx_HAL_Driver/Src/stm32l4xx_ll_usb.c **** /* Private functions ---------------------------------------------------------*/
  56:Drivers/STM32L4xx_HAL_Driver/Src/stm32l4xx_ll_usb.c **** #if defined (USB_OTG_FS)
  57:Drivers/STM32L4xx_HAL_Driver/Src/stm32l4xx_ll_usb.c **** static HAL_StatusTypeDef USB_CoreReset(USB_OTG_GlobalTypeDef *USBx);
  58:Drivers/STM32L4xx_HAL_Driver/Src/stm32l4xx_ll_usb.c **** 
  59:Drivers/STM32L4xx_HAL_Driver/Src/stm32l4xx_ll_usb.c **** /* Exported functions --------------------------------------------------------*/
  60:Drivers/STM32L4xx_HAL_Driver/Src/stm32l4xx_ll_usb.c **** /** @defgroup USB_LL_Exported_Functions USB Low Layer Exported Functions
  61:Drivers/STM32L4xx_HAL_Driver/Src/stm32l4xx_ll_usb.c ****   * @{
  62:Drivers/STM32L4xx_HAL_Driver/Src/stm32l4xx_ll_usb.c ****   */
  63:Drivers/STM32L4xx_HAL_Driver/Src/stm32l4xx_ll_usb.c **** 
  64:Drivers/STM32L4xx_HAL_Driver/Src/stm32l4xx_ll_usb.c **** /** @defgroup USB_LL_Exported_Functions_Group1 Initialization/de-initialization functions
  65:Drivers/STM32L4xx_HAL_Driver/Src/stm32l4xx_ll_usb.c ****   *  @brief    Initialization and Configuration functions
  66:Drivers/STM32L4xx_HAL_Driver/Src/stm32l4xx_ll_usb.c ****   *
  67:Drivers/STM32L4xx_HAL_Driver/Src/stm32l4xx_ll_usb.c **** @verbatim
  68:Drivers/STM32L4xx_HAL_Driver/Src/stm32l4xx_ll_usb.c ****  ===============================================================================
  69:Drivers/STM32L4xx_HAL_Driver/Src/stm32l4xx_ll_usb.c ****                       ##### Initialization/de-initialization functions #####
  70:Drivers/STM32L4xx_HAL_Driver/Src/stm32l4xx_ll_usb.c ****  ===============================================================================
  71:Drivers/STM32L4xx_HAL_Driver/Src/stm32l4xx_ll_usb.c **** 
  72:Drivers/STM32L4xx_HAL_Driver/Src/stm32l4xx_ll_usb.c **** @endverbatim
  73:Drivers/STM32L4xx_HAL_Driver/Src/stm32l4xx_ll_usb.c ****   * @{
  74:Drivers/STM32L4xx_HAL_Driver/Src/stm32l4xx_ll_usb.c ****   */
  75:Drivers/STM32L4xx_HAL_Driver/Src/stm32l4xx_ll_usb.c **** 
  76:Drivers/STM32L4xx_HAL_Driver/Src/stm32l4xx_ll_usb.c **** /**
  77:Drivers/STM32L4xx_HAL_Driver/Src/stm32l4xx_ll_usb.c ****   * @brief  Initializes the USB Core
  78:Drivers/STM32L4xx_HAL_Driver/Src/stm32l4xx_ll_usb.c ****   * @param  USBx USB Instance
  79:Drivers/STM32L4xx_HAL_Driver/Src/stm32l4xx_ll_usb.c ****   * @param  cfg pointer to a USB_OTG_CfgTypeDef structure that contains
  80:Drivers/STM32L4xx_HAL_Driver/Src/stm32l4xx_ll_usb.c ****   *         the configuration information for the specified USBx peripheral.
  81:Drivers/STM32L4xx_HAL_Driver/Src/stm32l4xx_ll_usb.c ****   * @retval HAL status
  82:Drivers/STM32L4xx_HAL_Driver/Src/stm32l4xx_ll_usb.c ****   */
  83:Drivers/STM32L4xx_HAL_Driver/Src/stm32l4xx_ll_usb.c **** HAL_StatusTypeDef USB_CoreInit(USB_OTG_GlobalTypeDef *USBx, USB_OTG_CfgTypeDef cfg)
  84:Drivers/STM32L4xx_HAL_Driver/Src/stm32l4xx_ll_usb.c **** {
  85:Drivers/STM32L4xx_HAL_Driver/Src/stm32l4xx_ll_usb.c ****   HAL_StatusTypeDef ret;
  86:Drivers/STM32L4xx_HAL_Driver/Src/stm32l4xx_ll_usb.c **** 
  87:Drivers/STM32L4xx_HAL_Driver/Src/stm32l4xx_ll_usb.c ****   /* Select FS Embedded PHY */
ARM GAS  /tmp/ccS8Yg0I.s 			page 3


  88:Drivers/STM32L4xx_HAL_Driver/Src/stm32l4xx_ll_usb.c ****   USBx->GUSBCFG |= USB_OTG_GUSBCFG_PHYSEL;
  89:Drivers/STM32L4xx_HAL_Driver/Src/stm32l4xx_ll_usb.c **** 
  90:Drivers/STM32L4xx_HAL_Driver/Src/stm32l4xx_ll_usb.c ****   /* Reset after a PHY select */
  91:Drivers/STM32L4xx_HAL_Driver/Src/stm32l4xx_ll_usb.c ****   ret = USB_CoreReset(USBx);
  92:Drivers/STM32L4xx_HAL_Driver/Src/stm32l4xx_ll_usb.c **** 
  93:Drivers/STM32L4xx_HAL_Driver/Src/stm32l4xx_ll_usb.c ****   if (cfg.battery_charging_enable == 0U)
  94:Drivers/STM32L4xx_HAL_Driver/Src/stm32l4xx_ll_usb.c ****   {
  95:Drivers/STM32L4xx_HAL_Driver/Src/stm32l4xx_ll_usb.c ****     /* Activate the USB Transceiver */
  96:Drivers/STM32L4xx_HAL_Driver/Src/stm32l4xx_ll_usb.c ****     USBx->GCCFG |= USB_OTG_GCCFG_PWRDWN;
  97:Drivers/STM32L4xx_HAL_Driver/Src/stm32l4xx_ll_usb.c ****   }
  98:Drivers/STM32L4xx_HAL_Driver/Src/stm32l4xx_ll_usb.c ****   else
  99:Drivers/STM32L4xx_HAL_Driver/Src/stm32l4xx_ll_usb.c ****   {
 100:Drivers/STM32L4xx_HAL_Driver/Src/stm32l4xx_ll_usb.c ****     /* Deactivate the USB Transceiver */
 101:Drivers/STM32L4xx_HAL_Driver/Src/stm32l4xx_ll_usb.c ****     USBx->GCCFG &= ~(USB_OTG_GCCFG_PWRDWN);
 102:Drivers/STM32L4xx_HAL_Driver/Src/stm32l4xx_ll_usb.c ****   }
 103:Drivers/STM32L4xx_HAL_Driver/Src/stm32l4xx_ll_usb.c **** 
 104:Drivers/STM32L4xx_HAL_Driver/Src/stm32l4xx_ll_usb.c ****   return ret;
 105:Drivers/STM32L4xx_HAL_Driver/Src/stm32l4xx_ll_usb.c **** }
 106:Drivers/STM32L4xx_HAL_Driver/Src/stm32l4xx_ll_usb.c **** 
 107:Drivers/STM32L4xx_HAL_Driver/Src/stm32l4xx_ll_usb.c **** 
 108:Drivers/STM32L4xx_HAL_Driver/Src/stm32l4xx_ll_usb.c **** /**
 109:Drivers/STM32L4xx_HAL_Driver/Src/stm32l4xx_ll_usb.c ****   * @brief  Set the USB turnaround time
 110:Drivers/STM32L4xx_HAL_Driver/Src/stm32l4xx_ll_usb.c ****   * @param  USBx USB Instance
 111:Drivers/STM32L4xx_HAL_Driver/Src/stm32l4xx_ll_usb.c ****   * @param  hclk: AHB clock frequency
 112:Drivers/STM32L4xx_HAL_Driver/Src/stm32l4xx_ll_usb.c ****   * @retval USB turnaround time In PHY Clocks number
 113:Drivers/STM32L4xx_HAL_Driver/Src/stm32l4xx_ll_usb.c ****   */
 114:Drivers/STM32L4xx_HAL_Driver/Src/stm32l4xx_ll_usb.c **** HAL_StatusTypeDef USB_SetTurnaroundTime(USB_OTG_GlobalTypeDef *USBx,
 115:Drivers/STM32L4xx_HAL_Driver/Src/stm32l4xx_ll_usb.c ****                                         uint32_t hclk, uint8_t speed)
 116:Drivers/STM32L4xx_HAL_Driver/Src/stm32l4xx_ll_usb.c **** {
 117:Drivers/STM32L4xx_HAL_Driver/Src/stm32l4xx_ll_usb.c ****   uint32_t UsbTrd;
 118:Drivers/STM32L4xx_HAL_Driver/Src/stm32l4xx_ll_usb.c **** 
 119:Drivers/STM32L4xx_HAL_Driver/Src/stm32l4xx_ll_usb.c ****   /* The USBTRD is configured according to the tables below, depending on AHB frequency
 120:Drivers/STM32L4xx_HAL_Driver/Src/stm32l4xx_ll_usb.c ****   used by application. In the low AHB frequency range it is used to stretch enough the USB response
 121:Drivers/STM32L4xx_HAL_Driver/Src/stm32l4xx_ll_usb.c ****   time to IN tokens, the USB turnaround time, so to compensate for the longer AHB read access
 122:Drivers/STM32L4xx_HAL_Driver/Src/stm32l4xx_ll_usb.c ****   latency to the Data FIFO */
 123:Drivers/STM32L4xx_HAL_Driver/Src/stm32l4xx_ll_usb.c ****   if (speed == USBD_FS_SPEED)
 124:Drivers/STM32L4xx_HAL_Driver/Src/stm32l4xx_ll_usb.c ****   {
 125:Drivers/STM32L4xx_HAL_Driver/Src/stm32l4xx_ll_usb.c ****     if ((hclk >= 14200000U) && (hclk < 15000000U))
 126:Drivers/STM32L4xx_HAL_Driver/Src/stm32l4xx_ll_usb.c ****     {
 127:Drivers/STM32L4xx_HAL_Driver/Src/stm32l4xx_ll_usb.c ****       /* hclk Clock Range between 14.2-15 MHz */
 128:Drivers/STM32L4xx_HAL_Driver/Src/stm32l4xx_ll_usb.c ****       UsbTrd = 0xFU;
 129:Drivers/STM32L4xx_HAL_Driver/Src/stm32l4xx_ll_usb.c ****     }
 130:Drivers/STM32L4xx_HAL_Driver/Src/stm32l4xx_ll_usb.c ****     else if ((hclk >= 15000000U) && (hclk < 16000000U))
 131:Drivers/STM32L4xx_HAL_Driver/Src/stm32l4xx_ll_usb.c ****     {
 132:Drivers/STM32L4xx_HAL_Driver/Src/stm32l4xx_ll_usb.c ****       /* hclk Clock Range between 15-16 MHz */
 133:Drivers/STM32L4xx_HAL_Driver/Src/stm32l4xx_ll_usb.c ****       UsbTrd = 0xEU;
 134:Drivers/STM32L4xx_HAL_Driver/Src/stm32l4xx_ll_usb.c ****     }
 135:Drivers/STM32L4xx_HAL_Driver/Src/stm32l4xx_ll_usb.c ****     else if ((hclk >= 16000000U) && (hclk < 17200000U))
 136:Drivers/STM32L4xx_HAL_Driver/Src/stm32l4xx_ll_usb.c ****     {
 137:Drivers/STM32L4xx_HAL_Driver/Src/stm32l4xx_ll_usb.c ****       /* hclk Clock Range between 16-17.2 MHz */
 138:Drivers/STM32L4xx_HAL_Driver/Src/stm32l4xx_ll_usb.c ****       UsbTrd = 0xDU;
 139:Drivers/STM32L4xx_HAL_Driver/Src/stm32l4xx_ll_usb.c ****     }
 140:Drivers/STM32L4xx_HAL_Driver/Src/stm32l4xx_ll_usb.c ****     else if ((hclk >= 17200000U) && (hclk < 18500000U))
 141:Drivers/STM32L4xx_HAL_Driver/Src/stm32l4xx_ll_usb.c ****     {
 142:Drivers/STM32L4xx_HAL_Driver/Src/stm32l4xx_ll_usb.c ****       /* hclk Clock Range between 17.2-18.5 MHz */
 143:Drivers/STM32L4xx_HAL_Driver/Src/stm32l4xx_ll_usb.c ****       UsbTrd = 0xCU;
 144:Drivers/STM32L4xx_HAL_Driver/Src/stm32l4xx_ll_usb.c ****     }
ARM GAS  /tmp/ccS8Yg0I.s 			page 4


 145:Drivers/STM32L4xx_HAL_Driver/Src/stm32l4xx_ll_usb.c ****     else if ((hclk >= 18500000U) && (hclk < 20000000U))
 146:Drivers/STM32L4xx_HAL_Driver/Src/stm32l4xx_ll_usb.c ****     {
 147:Drivers/STM32L4xx_HAL_Driver/Src/stm32l4xx_ll_usb.c ****       /* hclk Clock Range between 18.5-20 MHz */
 148:Drivers/STM32L4xx_HAL_Driver/Src/stm32l4xx_ll_usb.c ****       UsbTrd = 0xBU;
 149:Drivers/STM32L4xx_HAL_Driver/Src/stm32l4xx_ll_usb.c ****     }
 150:Drivers/STM32L4xx_HAL_Driver/Src/stm32l4xx_ll_usb.c ****     else if ((hclk >= 20000000U) && (hclk < 21800000U))
 151:Drivers/STM32L4xx_HAL_Driver/Src/stm32l4xx_ll_usb.c ****     {
 152:Drivers/STM32L4xx_HAL_Driver/Src/stm32l4xx_ll_usb.c ****       /* hclk Clock Range between 20-21.8 MHz */
 153:Drivers/STM32L4xx_HAL_Driver/Src/stm32l4xx_ll_usb.c ****       UsbTrd = 0xAU;
 154:Drivers/STM32L4xx_HAL_Driver/Src/stm32l4xx_ll_usb.c ****     }
 155:Drivers/STM32L4xx_HAL_Driver/Src/stm32l4xx_ll_usb.c ****     else if ((hclk >= 21800000U) && (hclk < 24000000U))
 156:Drivers/STM32L4xx_HAL_Driver/Src/stm32l4xx_ll_usb.c ****     {
 157:Drivers/STM32L4xx_HAL_Driver/Src/stm32l4xx_ll_usb.c ****       /* hclk Clock Range between 21.8-24 MHz */
 158:Drivers/STM32L4xx_HAL_Driver/Src/stm32l4xx_ll_usb.c ****       UsbTrd = 0x9U;
 159:Drivers/STM32L4xx_HAL_Driver/Src/stm32l4xx_ll_usb.c ****     }
 160:Drivers/STM32L4xx_HAL_Driver/Src/stm32l4xx_ll_usb.c ****     else if ((hclk >= 24000000U) && (hclk < 27700000U))
 161:Drivers/STM32L4xx_HAL_Driver/Src/stm32l4xx_ll_usb.c ****     {
 162:Drivers/STM32L4xx_HAL_Driver/Src/stm32l4xx_ll_usb.c ****       /* hclk Clock Range between 24-27.7 MHz */
 163:Drivers/STM32L4xx_HAL_Driver/Src/stm32l4xx_ll_usb.c ****       UsbTrd = 0x8U;
 164:Drivers/STM32L4xx_HAL_Driver/Src/stm32l4xx_ll_usb.c ****     }
 165:Drivers/STM32L4xx_HAL_Driver/Src/stm32l4xx_ll_usb.c ****     else if ((hclk >= 27700000U) && (hclk < 32000000U))
 166:Drivers/STM32L4xx_HAL_Driver/Src/stm32l4xx_ll_usb.c ****     {
 167:Drivers/STM32L4xx_HAL_Driver/Src/stm32l4xx_ll_usb.c ****       /* hclk Clock Range between 27.7-32 MHz */
 168:Drivers/STM32L4xx_HAL_Driver/Src/stm32l4xx_ll_usb.c ****       UsbTrd = 0x7U;
 169:Drivers/STM32L4xx_HAL_Driver/Src/stm32l4xx_ll_usb.c ****     }
 170:Drivers/STM32L4xx_HAL_Driver/Src/stm32l4xx_ll_usb.c ****     else /* if(hclk >= 32000000) */
 171:Drivers/STM32L4xx_HAL_Driver/Src/stm32l4xx_ll_usb.c ****     {
 172:Drivers/STM32L4xx_HAL_Driver/Src/stm32l4xx_ll_usb.c ****       /* hclk Clock Range between 32-200 MHz */
 173:Drivers/STM32L4xx_HAL_Driver/Src/stm32l4xx_ll_usb.c ****       UsbTrd = 0x6U;
 174:Drivers/STM32L4xx_HAL_Driver/Src/stm32l4xx_ll_usb.c ****     }
 175:Drivers/STM32L4xx_HAL_Driver/Src/stm32l4xx_ll_usb.c ****   }
 176:Drivers/STM32L4xx_HAL_Driver/Src/stm32l4xx_ll_usb.c ****   else
 177:Drivers/STM32L4xx_HAL_Driver/Src/stm32l4xx_ll_usb.c ****   {
 178:Drivers/STM32L4xx_HAL_Driver/Src/stm32l4xx_ll_usb.c ****     UsbTrd = USBD_DEFAULT_TRDT_VALUE;
 179:Drivers/STM32L4xx_HAL_Driver/Src/stm32l4xx_ll_usb.c ****   }
 180:Drivers/STM32L4xx_HAL_Driver/Src/stm32l4xx_ll_usb.c **** 
 181:Drivers/STM32L4xx_HAL_Driver/Src/stm32l4xx_ll_usb.c ****   USBx->GUSBCFG &= ~USB_OTG_GUSBCFG_TRDT;
 182:Drivers/STM32L4xx_HAL_Driver/Src/stm32l4xx_ll_usb.c ****   USBx->GUSBCFG |= (uint32_t)((UsbTrd << 10) & USB_OTG_GUSBCFG_TRDT);
 183:Drivers/STM32L4xx_HAL_Driver/Src/stm32l4xx_ll_usb.c **** 
 184:Drivers/STM32L4xx_HAL_Driver/Src/stm32l4xx_ll_usb.c ****   return HAL_OK;
 185:Drivers/STM32L4xx_HAL_Driver/Src/stm32l4xx_ll_usb.c **** }
 186:Drivers/STM32L4xx_HAL_Driver/Src/stm32l4xx_ll_usb.c **** 
 187:Drivers/STM32L4xx_HAL_Driver/Src/stm32l4xx_ll_usb.c **** /**
 188:Drivers/STM32L4xx_HAL_Driver/Src/stm32l4xx_ll_usb.c ****   * @brief  USB_EnableGlobalInt
 189:Drivers/STM32L4xx_HAL_Driver/Src/stm32l4xx_ll_usb.c ****   *         Enables the controller's Global Int in the AHB Config reg
 190:Drivers/STM32L4xx_HAL_Driver/Src/stm32l4xx_ll_usb.c ****   * @param  USBx  Selected device
 191:Drivers/STM32L4xx_HAL_Driver/Src/stm32l4xx_ll_usb.c ****   * @retval HAL status
 192:Drivers/STM32L4xx_HAL_Driver/Src/stm32l4xx_ll_usb.c ****   */
 193:Drivers/STM32L4xx_HAL_Driver/Src/stm32l4xx_ll_usb.c **** HAL_StatusTypeDef USB_EnableGlobalInt(USB_OTG_GlobalTypeDef *USBx)
 194:Drivers/STM32L4xx_HAL_Driver/Src/stm32l4xx_ll_usb.c **** {
 195:Drivers/STM32L4xx_HAL_Driver/Src/stm32l4xx_ll_usb.c ****   USBx->GAHBCFG |= USB_OTG_GAHBCFG_GINT;
 196:Drivers/STM32L4xx_HAL_Driver/Src/stm32l4xx_ll_usb.c ****   return HAL_OK;
 197:Drivers/STM32L4xx_HAL_Driver/Src/stm32l4xx_ll_usb.c **** }
 198:Drivers/STM32L4xx_HAL_Driver/Src/stm32l4xx_ll_usb.c **** 
 199:Drivers/STM32L4xx_HAL_Driver/Src/stm32l4xx_ll_usb.c **** /**
 200:Drivers/STM32L4xx_HAL_Driver/Src/stm32l4xx_ll_usb.c ****   * @brief  USB_DisableGlobalInt
 201:Drivers/STM32L4xx_HAL_Driver/Src/stm32l4xx_ll_usb.c ****   *         Disable the controller's Global Int in the AHB Config reg
ARM GAS  /tmp/ccS8Yg0I.s 			page 5


 202:Drivers/STM32L4xx_HAL_Driver/Src/stm32l4xx_ll_usb.c ****   * @param  USBx  Selected device
 203:Drivers/STM32L4xx_HAL_Driver/Src/stm32l4xx_ll_usb.c ****   * @retval HAL status
 204:Drivers/STM32L4xx_HAL_Driver/Src/stm32l4xx_ll_usb.c ****   */
 205:Drivers/STM32L4xx_HAL_Driver/Src/stm32l4xx_ll_usb.c **** HAL_StatusTypeDef USB_DisableGlobalInt(USB_OTG_GlobalTypeDef *USBx)
 206:Drivers/STM32L4xx_HAL_Driver/Src/stm32l4xx_ll_usb.c **** {
 207:Drivers/STM32L4xx_HAL_Driver/Src/stm32l4xx_ll_usb.c ****   USBx->GAHBCFG &= ~USB_OTG_GAHBCFG_GINT;
 208:Drivers/STM32L4xx_HAL_Driver/Src/stm32l4xx_ll_usb.c ****   return HAL_OK;
 209:Drivers/STM32L4xx_HAL_Driver/Src/stm32l4xx_ll_usb.c **** }
 210:Drivers/STM32L4xx_HAL_Driver/Src/stm32l4xx_ll_usb.c **** 
 211:Drivers/STM32L4xx_HAL_Driver/Src/stm32l4xx_ll_usb.c **** /**
 212:Drivers/STM32L4xx_HAL_Driver/Src/stm32l4xx_ll_usb.c ****   * @brief  USB_SetCurrentMode Set functional mode
 213:Drivers/STM32L4xx_HAL_Driver/Src/stm32l4xx_ll_usb.c ****   * @param  USBx  Selected device
 214:Drivers/STM32L4xx_HAL_Driver/Src/stm32l4xx_ll_usb.c ****   * @param  mode  current core mode
 215:Drivers/STM32L4xx_HAL_Driver/Src/stm32l4xx_ll_usb.c ****   *          This parameter can be one of these values:
 216:Drivers/STM32L4xx_HAL_Driver/Src/stm32l4xx_ll_usb.c ****   *            @arg USB_DEVICE_MODE Peripheral mode
 217:Drivers/STM32L4xx_HAL_Driver/Src/stm32l4xx_ll_usb.c ****   *            @arg USB_HOST_MODE Host mode
 218:Drivers/STM32L4xx_HAL_Driver/Src/stm32l4xx_ll_usb.c ****   * @retval HAL status
 219:Drivers/STM32L4xx_HAL_Driver/Src/stm32l4xx_ll_usb.c ****   */
 220:Drivers/STM32L4xx_HAL_Driver/Src/stm32l4xx_ll_usb.c **** HAL_StatusTypeDef USB_SetCurrentMode(USB_OTG_GlobalTypeDef *USBx, USB_ModeTypeDef mode)
 221:Drivers/STM32L4xx_HAL_Driver/Src/stm32l4xx_ll_usb.c **** {
 222:Drivers/STM32L4xx_HAL_Driver/Src/stm32l4xx_ll_usb.c ****   uint32_t ms = 0U;
 223:Drivers/STM32L4xx_HAL_Driver/Src/stm32l4xx_ll_usb.c **** 
 224:Drivers/STM32L4xx_HAL_Driver/Src/stm32l4xx_ll_usb.c ****   USBx->GUSBCFG &= ~(USB_OTG_GUSBCFG_FHMOD | USB_OTG_GUSBCFG_FDMOD);
 225:Drivers/STM32L4xx_HAL_Driver/Src/stm32l4xx_ll_usb.c **** 
 226:Drivers/STM32L4xx_HAL_Driver/Src/stm32l4xx_ll_usb.c ****   if (mode == USB_HOST_MODE)
 227:Drivers/STM32L4xx_HAL_Driver/Src/stm32l4xx_ll_usb.c ****   {
 228:Drivers/STM32L4xx_HAL_Driver/Src/stm32l4xx_ll_usb.c ****     USBx->GUSBCFG |= USB_OTG_GUSBCFG_FHMOD;
 229:Drivers/STM32L4xx_HAL_Driver/Src/stm32l4xx_ll_usb.c **** 
 230:Drivers/STM32L4xx_HAL_Driver/Src/stm32l4xx_ll_usb.c ****     do
 231:Drivers/STM32L4xx_HAL_Driver/Src/stm32l4xx_ll_usb.c ****     {
 232:Drivers/STM32L4xx_HAL_Driver/Src/stm32l4xx_ll_usb.c ****       HAL_Delay(1U);
 233:Drivers/STM32L4xx_HAL_Driver/Src/stm32l4xx_ll_usb.c ****       ms++;
 234:Drivers/STM32L4xx_HAL_Driver/Src/stm32l4xx_ll_usb.c ****     } while ((USB_GetMode(USBx) != (uint32_t)USB_HOST_MODE) && (ms < 50U));
 235:Drivers/STM32L4xx_HAL_Driver/Src/stm32l4xx_ll_usb.c ****   }
 236:Drivers/STM32L4xx_HAL_Driver/Src/stm32l4xx_ll_usb.c ****   else if (mode == USB_DEVICE_MODE)
 237:Drivers/STM32L4xx_HAL_Driver/Src/stm32l4xx_ll_usb.c ****   {
 238:Drivers/STM32L4xx_HAL_Driver/Src/stm32l4xx_ll_usb.c ****     USBx->GUSBCFG |= USB_OTG_GUSBCFG_FDMOD;
 239:Drivers/STM32L4xx_HAL_Driver/Src/stm32l4xx_ll_usb.c **** 
 240:Drivers/STM32L4xx_HAL_Driver/Src/stm32l4xx_ll_usb.c ****     do
 241:Drivers/STM32L4xx_HAL_Driver/Src/stm32l4xx_ll_usb.c ****     {
 242:Drivers/STM32L4xx_HAL_Driver/Src/stm32l4xx_ll_usb.c ****       HAL_Delay(1U);
 243:Drivers/STM32L4xx_HAL_Driver/Src/stm32l4xx_ll_usb.c ****       ms++;
 244:Drivers/STM32L4xx_HAL_Driver/Src/stm32l4xx_ll_usb.c ****     } while ((USB_GetMode(USBx) != (uint32_t)USB_DEVICE_MODE) && (ms < 50U));
 245:Drivers/STM32L4xx_HAL_Driver/Src/stm32l4xx_ll_usb.c ****   }
 246:Drivers/STM32L4xx_HAL_Driver/Src/stm32l4xx_ll_usb.c ****   else
 247:Drivers/STM32L4xx_HAL_Driver/Src/stm32l4xx_ll_usb.c ****   {
 248:Drivers/STM32L4xx_HAL_Driver/Src/stm32l4xx_ll_usb.c ****     return HAL_ERROR;
 249:Drivers/STM32L4xx_HAL_Driver/Src/stm32l4xx_ll_usb.c ****   }
 250:Drivers/STM32L4xx_HAL_Driver/Src/stm32l4xx_ll_usb.c **** 
 251:Drivers/STM32L4xx_HAL_Driver/Src/stm32l4xx_ll_usb.c ****   if (ms == 50U)
 252:Drivers/STM32L4xx_HAL_Driver/Src/stm32l4xx_ll_usb.c ****   {
 253:Drivers/STM32L4xx_HAL_Driver/Src/stm32l4xx_ll_usb.c ****     return HAL_ERROR;
 254:Drivers/STM32L4xx_HAL_Driver/Src/stm32l4xx_ll_usb.c ****   }
 255:Drivers/STM32L4xx_HAL_Driver/Src/stm32l4xx_ll_usb.c **** 
 256:Drivers/STM32L4xx_HAL_Driver/Src/stm32l4xx_ll_usb.c ****   return HAL_OK;
 257:Drivers/STM32L4xx_HAL_Driver/Src/stm32l4xx_ll_usb.c **** }
 258:Drivers/STM32L4xx_HAL_Driver/Src/stm32l4xx_ll_usb.c **** 
ARM GAS  /tmp/ccS8Yg0I.s 			page 6


 259:Drivers/STM32L4xx_HAL_Driver/Src/stm32l4xx_ll_usb.c **** /**
 260:Drivers/STM32L4xx_HAL_Driver/Src/stm32l4xx_ll_usb.c ****   * @brief  USB_DevInit Initializes the USB_OTG controller registers
 261:Drivers/STM32L4xx_HAL_Driver/Src/stm32l4xx_ll_usb.c ****   *         for device mode
 262:Drivers/STM32L4xx_HAL_Driver/Src/stm32l4xx_ll_usb.c ****   * @param  USBx  Selected device
 263:Drivers/STM32L4xx_HAL_Driver/Src/stm32l4xx_ll_usb.c ****   * @param  cfg   pointer to a USB_OTG_CfgTypeDef structure that contains
 264:Drivers/STM32L4xx_HAL_Driver/Src/stm32l4xx_ll_usb.c ****   *         the configuration information for the specified USBx peripheral.
 265:Drivers/STM32L4xx_HAL_Driver/Src/stm32l4xx_ll_usb.c ****   * @retval HAL status
 266:Drivers/STM32L4xx_HAL_Driver/Src/stm32l4xx_ll_usb.c ****   */
 267:Drivers/STM32L4xx_HAL_Driver/Src/stm32l4xx_ll_usb.c **** HAL_StatusTypeDef USB_DevInit(USB_OTG_GlobalTypeDef *USBx, USB_OTG_CfgTypeDef cfg)
 268:Drivers/STM32L4xx_HAL_Driver/Src/stm32l4xx_ll_usb.c **** {
 269:Drivers/STM32L4xx_HAL_Driver/Src/stm32l4xx_ll_usb.c ****   HAL_StatusTypeDef ret = HAL_OK;
 270:Drivers/STM32L4xx_HAL_Driver/Src/stm32l4xx_ll_usb.c ****   uint32_t USBx_BASE = (uint32_t)USBx;
 271:Drivers/STM32L4xx_HAL_Driver/Src/stm32l4xx_ll_usb.c ****   uint32_t i;
 272:Drivers/STM32L4xx_HAL_Driver/Src/stm32l4xx_ll_usb.c **** 
 273:Drivers/STM32L4xx_HAL_Driver/Src/stm32l4xx_ll_usb.c ****   for (i = 0U; i < 15U; i++)
 274:Drivers/STM32L4xx_HAL_Driver/Src/stm32l4xx_ll_usb.c ****   {
 275:Drivers/STM32L4xx_HAL_Driver/Src/stm32l4xx_ll_usb.c ****     USBx->DIEPTXF[i] = 0U;
 276:Drivers/STM32L4xx_HAL_Driver/Src/stm32l4xx_ll_usb.c ****   }
 277:Drivers/STM32L4xx_HAL_Driver/Src/stm32l4xx_ll_usb.c **** 
 278:Drivers/STM32L4xx_HAL_Driver/Src/stm32l4xx_ll_usb.c ****   /* VBUS Sensing setup */
 279:Drivers/STM32L4xx_HAL_Driver/Src/stm32l4xx_ll_usb.c ****   if (cfg.vbus_sensing_enable == 0U)
 280:Drivers/STM32L4xx_HAL_Driver/Src/stm32l4xx_ll_usb.c ****   {
 281:Drivers/STM32L4xx_HAL_Driver/Src/stm32l4xx_ll_usb.c ****     USBx_DEVICE->DCTL |= USB_OTG_DCTL_SDIS;
 282:Drivers/STM32L4xx_HAL_Driver/Src/stm32l4xx_ll_usb.c **** 
 283:Drivers/STM32L4xx_HAL_Driver/Src/stm32l4xx_ll_usb.c ****     /* Deactivate VBUS Sensing B */
 284:Drivers/STM32L4xx_HAL_Driver/Src/stm32l4xx_ll_usb.c ****     USBx->GCCFG &= ~USB_OTG_GCCFG_VBDEN;
 285:Drivers/STM32L4xx_HAL_Driver/Src/stm32l4xx_ll_usb.c **** 
 286:Drivers/STM32L4xx_HAL_Driver/Src/stm32l4xx_ll_usb.c ****     /* B-peripheral session valid override enable */
 287:Drivers/STM32L4xx_HAL_Driver/Src/stm32l4xx_ll_usb.c ****     USBx->GOTGCTL |= USB_OTG_GOTGCTL_BVALOEN;
 288:Drivers/STM32L4xx_HAL_Driver/Src/stm32l4xx_ll_usb.c ****     USBx->GOTGCTL |= USB_OTG_GOTGCTL_BVALOVAL;
 289:Drivers/STM32L4xx_HAL_Driver/Src/stm32l4xx_ll_usb.c ****   }
 290:Drivers/STM32L4xx_HAL_Driver/Src/stm32l4xx_ll_usb.c ****   else
 291:Drivers/STM32L4xx_HAL_Driver/Src/stm32l4xx_ll_usb.c ****   {
 292:Drivers/STM32L4xx_HAL_Driver/Src/stm32l4xx_ll_usb.c ****     /* Enable HW VBUS sensing */
 293:Drivers/STM32L4xx_HAL_Driver/Src/stm32l4xx_ll_usb.c ****     USBx->GCCFG |= USB_OTG_GCCFG_VBDEN;
 294:Drivers/STM32L4xx_HAL_Driver/Src/stm32l4xx_ll_usb.c ****   }
 295:Drivers/STM32L4xx_HAL_Driver/Src/stm32l4xx_ll_usb.c **** 
 296:Drivers/STM32L4xx_HAL_Driver/Src/stm32l4xx_ll_usb.c ****   /* Restart the Phy Clock */
 297:Drivers/STM32L4xx_HAL_Driver/Src/stm32l4xx_ll_usb.c ****   USBx_PCGCCTL = 0U;
 298:Drivers/STM32L4xx_HAL_Driver/Src/stm32l4xx_ll_usb.c **** 
 299:Drivers/STM32L4xx_HAL_Driver/Src/stm32l4xx_ll_usb.c ****   /* Device mode configuration */
 300:Drivers/STM32L4xx_HAL_Driver/Src/stm32l4xx_ll_usb.c ****   USBx_DEVICE->DCFG |= DCFG_FRAME_INTERVAL_80;
 301:Drivers/STM32L4xx_HAL_Driver/Src/stm32l4xx_ll_usb.c **** 
 302:Drivers/STM32L4xx_HAL_Driver/Src/stm32l4xx_ll_usb.c ****   /* Set Core speed to Full speed mode */
 303:Drivers/STM32L4xx_HAL_Driver/Src/stm32l4xx_ll_usb.c ****   (void)USB_SetDevSpeed(USBx, USB_OTG_SPEED_FULL);
 304:Drivers/STM32L4xx_HAL_Driver/Src/stm32l4xx_ll_usb.c **** 
 305:Drivers/STM32L4xx_HAL_Driver/Src/stm32l4xx_ll_usb.c ****   /* Flush the FIFOs */
 306:Drivers/STM32L4xx_HAL_Driver/Src/stm32l4xx_ll_usb.c ****   if (USB_FlushTxFifo(USBx, 0x10U) != HAL_OK) /* all Tx FIFOs */
 307:Drivers/STM32L4xx_HAL_Driver/Src/stm32l4xx_ll_usb.c ****   {
 308:Drivers/STM32L4xx_HAL_Driver/Src/stm32l4xx_ll_usb.c ****     ret = HAL_ERROR;
 309:Drivers/STM32L4xx_HAL_Driver/Src/stm32l4xx_ll_usb.c ****   }
 310:Drivers/STM32L4xx_HAL_Driver/Src/stm32l4xx_ll_usb.c **** 
 311:Drivers/STM32L4xx_HAL_Driver/Src/stm32l4xx_ll_usb.c ****   if (USB_FlushRxFifo(USBx) != HAL_OK)
 312:Drivers/STM32L4xx_HAL_Driver/Src/stm32l4xx_ll_usb.c ****   {
 313:Drivers/STM32L4xx_HAL_Driver/Src/stm32l4xx_ll_usb.c ****     ret = HAL_ERROR;
 314:Drivers/STM32L4xx_HAL_Driver/Src/stm32l4xx_ll_usb.c ****   }
 315:Drivers/STM32L4xx_HAL_Driver/Src/stm32l4xx_ll_usb.c **** 
ARM GAS  /tmp/ccS8Yg0I.s 			page 7


 316:Drivers/STM32L4xx_HAL_Driver/Src/stm32l4xx_ll_usb.c ****   /* Clear all pending Device Interrupts */
 317:Drivers/STM32L4xx_HAL_Driver/Src/stm32l4xx_ll_usb.c ****   USBx_DEVICE->DIEPMSK = 0U;
 318:Drivers/STM32L4xx_HAL_Driver/Src/stm32l4xx_ll_usb.c ****   USBx_DEVICE->DOEPMSK = 0U;
 319:Drivers/STM32L4xx_HAL_Driver/Src/stm32l4xx_ll_usb.c ****   USBx_DEVICE->DAINTMSK = 0U;
 320:Drivers/STM32L4xx_HAL_Driver/Src/stm32l4xx_ll_usb.c **** 
 321:Drivers/STM32L4xx_HAL_Driver/Src/stm32l4xx_ll_usb.c ****   for (i = 0U; i < cfg.dev_endpoints; i++)
 322:Drivers/STM32L4xx_HAL_Driver/Src/stm32l4xx_ll_usb.c ****   {
 323:Drivers/STM32L4xx_HAL_Driver/Src/stm32l4xx_ll_usb.c ****     if ((USBx_INEP(i)->DIEPCTL & USB_OTG_DIEPCTL_EPENA) == USB_OTG_DIEPCTL_EPENA)
 324:Drivers/STM32L4xx_HAL_Driver/Src/stm32l4xx_ll_usb.c ****     {
 325:Drivers/STM32L4xx_HAL_Driver/Src/stm32l4xx_ll_usb.c ****       if (i == 0U)
 326:Drivers/STM32L4xx_HAL_Driver/Src/stm32l4xx_ll_usb.c ****       {
 327:Drivers/STM32L4xx_HAL_Driver/Src/stm32l4xx_ll_usb.c ****         USBx_INEP(i)->DIEPCTL = USB_OTG_DIEPCTL_SNAK;
 328:Drivers/STM32L4xx_HAL_Driver/Src/stm32l4xx_ll_usb.c ****       }
 329:Drivers/STM32L4xx_HAL_Driver/Src/stm32l4xx_ll_usb.c ****       else
 330:Drivers/STM32L4xx_HAL_Driver/Src/stm32l4xx_ll_usb.c ****       {
 331:Drivers/STM32L4xx_HAL_Driver/Src/stm32l4xx_ll_usb.c ****         USBx_INEP(i)->DIEPCTL = USB_OTG_DIEPCTL_EPDIS | USB_OTG_DIEPCTL_SNAK;
 332:Drivers/STM32L4xx_HAL_Driver/Src/stm32l4xx_ll_usb.c ****       }
 333:Drivers/STM32L4xx_HAL_Driver/Src/stm32l4xx_ll_usb.c ****     }
 334:Drivers/STM32L4xx_HAL_Driver/Src/stm32l4xx_ll_usb.c ****     else
 335:Drivers/STM32L4xx_HAL_Driver/Src/stm32l4xx_ll_usb.c ****     {
 336:Drivers/STM32L4xx_HAL_Driver/Src/stm32l4xx_ll_usb.c ****       USBx_INEP(i)->DIEPCTL = 0U;
 337:Drivers/STM32L4xx_HAL_Driver/Src/stm32l4xx_ll_usb.c ****     }
 338:Drivers/STM32L4xx_HAL_Driver/Src/stm32l4xx_ll_usb.c **** 
 339:Drivers/STM32L4xx_HAL_Driver/Src/stm32l4xx_ll_usb.c ****     USBx_INEP(i)->DIEPTSIZ = 0U;
 340:Drivers/STM32L4xx_HAL_Driver/Src/stm32l4xx_ll_usb.c ****     USBx_INEP(i)->DIEPINT  = 0xFB7FU;
 341:Drivers/STM32L4xx_HAL_Driver/Src/stm32l4xx_ll_usb.c ****   }
 342:Drivers/STM32L4xx_HAL_Driver/Src/stm32l4xx_ll_usb.c **** 
 343:Drivers/STM32L4xx_HAL_Driver/Src/stm32l4xx_ll_usb.c ****   for (i = 0U; i < cfg.dev_endpoints; i++)
 344:Drivers/STM32L4xx_HAL_Driver/Src/stm32l4xx_ll_usb.c ****   {
 345:Drivers/STM32L4xx_HAL_Driver/Src/stm32l4xx_ll_usb.c ****     if ((USBx_OUTEP(i)->DOEPCTL & USB_OTG_DOEPCTL_EPENA) == USB_OTG_DOEPCTL_EPENA)
 346:Drivers/STM32L4xx_HAL_Driver/Src/stm32l4xx_ll_usb.c ****     {
 347:Drivers/STM32L4xx_HAL_Driver/Src/stm32l4xx_ll_usb.c ****       if (i == 0U)
 348:Drivers/STM32L4xx_HAL_Driver/Src/stm32l4xx_ll_usb.c ****       {
 349:Drivers/STM32L4xx_HAL_Driver/Src/stm32l4xx_ll_usb.c ****         USBx_OUTEP(i)->DOEPCTL = USB_OTG_DOEPCTL_SNAK;
 350:Drivers/STM32L4xx_HAL_Driver/Src/stm32l4xx_ll_usb.c ****       }
 351:Drivers/STM32L4xx_HAL_Driver/Src/stm32l4xx_ll_usb.c ****       else
 352:Drivers/STM32L4xx_HAL_Driver/Src/stm32l4xx_ll_usb.c ****       {
 353:Drivers/STM32L4xx_HAL_Driver/Src/stm32l4xx_ll_usb.c ****         USBx_OUTEP(i)->DOEPCTL = USB_OTG_DOEPCTL_EPDIS | USB_OTG_DOEPCTL_SNAK;
 354:Drivers/STM32L4xx_HAL_Driver/Src/stm32l4xx_ll_usb.c ****       }
 355:Drivers/STM32L4xx_HAL_Driver/Src/stm32l4xx_ll_usb.c ****     }
 356:Drivers/STM32L4xx_HAL_Driver/Src/stm32l4xx_ll_usb.c ****     else
 357:Drivers/STM32L4xx_HAL_Driver/Src/stm32l4xx_ll_usb.c ****     {
 358:Drivers/STM32L4xx_HAL_Driver/Src/stm32l4xx_ll_usb.c ****       USBx_OUTEP(i)->DOEPCTL = 0U;
 359:Drivers/STM32L4xx_HAL_Driver/Src/stm32l4xx_ll_usb.c ****     }
 360:Drivers/STM32L4xx_HAL_Driver/Src/stm32l4xx_ll_usb.c **** 
 361:Drivers/STM32L4xx_HAL_Driver/Src/stm32l4xx_ll_usb.c ****     USBx_OUTEP(i)->DOEPTSIZ = 0U;
 362:Drivers/STM32L4xx_HAL_Driver/Src/stm32l4xx_ll_usb.c ****     USBx_OUTEP(i)->DOEPINT  = 0xFB7FU;
 363:Drivers/STM32L4xx_HAL_Driver/Src/stm32l4xx_ll_usb.c ****   }
 364:Drivers/STM32L4xx_HAL_Driver/Src/stm32l4xx_ll_usb.c **** 
 365:Drivers/STM32L4xx_HAL_Driver/Src/stm32l4xx_ll_usb.c ****   USBx_DEVICE->DIEPMSK &= ~(USB_OTG_DIEPMSK_TXFURM);
 366:Drivers/STM32L4xx_HAL_Driver/Src/stm32l4xx_ll_usb.c **** 
 367:Drivers/STM32L4xx_HAL_Driver/Src/stm32l4xx_ll_usb.c ****   /* Disable all interrupts. */
 368:Drivers/STM32L4xx_HAL_Driver/Src/stm32l4xx_ll_usb.c ****   USBx->GINTMSK = 0U;
 369:Drivers/STM32L4xx_HAL_Driver/Src/stm32l4xx_ll_usb.c **** 
 370:Drivers/STM32L4xx_HAL_Driver/Src/stm32l4xx_ll_usb.c ****   /* Clear any pending interrupts */
 371:Drivers/STM32L4xx_HAL_Driver/Src/stm32l4xx_ll_usb.c ****   USBx->GINTSTS = 0xBFFFFFFFU;
 372:Drivers/STM32L4xx_HAL_Driver/Src/stm32l4xx_ll_usb.c **** 
ARM GAS  /tmp/ccS8Yg0I.s 			page 8


 373:Drivers/STM32L4xx_HAL_Driver/Src/stm32l4xx_ll_usb.c ****   /* Enable the common interrupts */
 374:Drivers/STM32L4xx_HAL_Driver/Src/stm32l4xx_ll_usb.c ****   USBx->GINTMSK |= USB_OTG_GINTMSK_RXFLVLM;
 375:Drivers/STM32L4xx_HAL_Driver/Src/stm32l4xx_ll_usb.c **** 
 376:Drivers/STM32L4xx_HAL_Driver/Src/stm32l4xx_ll_usb.c ****   /* Enable interrupts matching to the Device mode ONLY */
 377:Drivers/STM32L4xx_HAL_Driver/Src/stm32l4xx_ll_usb.c ****   USBx->GINTMSK |= USB_OTG_GINTMSK_USBSUSPM | USB_OTG_GINTMSK_USBRST |
 378:Drivers/STM32L4xx_HAL_Driver/Src/stm32l4xx_ll_usb.c ****                    USB_OTG_GINTMSK_ENUMDNEM | USB_OTG_GINTMSK_IEPINT |
 379:Drivers/STM32L4xx_HAL_Driver/Src/stm32l4xx_ll_usb.c ****                    USB_OTG_GINTMSK_OEPINT   | USB_OTG_GINTMSK_IISOIXFRM |
 380:Drivers/STM32L4xx_HAL_Driver/Src/stm32l4xx_ll_usb.c ****                    USB_OTG_GINTMSK_PXFRM_IISOOXFRM | USB_OTG_GINTMSK_WUIM;
 381:Drivers/STM32L4xx_HAL_Driver/Src/stm32l4xx_ll_usb.c **** 
 382:Drivers/STM32L4xx_HAL_Driver/Src/stm32l4xx_ll_usb.c ****   if (cfg.Sof_enable != 0U)
 383:Drivers/STM32L4xx_HAL_Driver/Src/stm32l4xx_ll_usb.c ****   {
 384:Drivers/STM32L4xx_HAL_Driver/Src/stm32l4xx_ll_usb.c ****     USBx->GINTMSK |= USB_OTG_GINTMSK_SOFM;
 385:Drivers/STM32L4xx_HAL_Driver/Src/stm32l4xx_ll_usb.c ****   }
 386:Drivers/STM32L4xx_HAL_Driver/Src/stm32l4xx_ll_usb.c **** 
 387:Drivers/STM32L4xx_HAL_Driver/Src/stm32l4xx_ll_usb.c ****   if (cfg.vbus_sensing_enable == 1U)
 388:Drivers/STM32L4xx_HAL_Driver/Src/stm32l4xx_ll_usb.c ****   {
 389:Drivers/STM32L4xx_HAL_Driver/Src/stm32l4xx_ll_usb.c ****     USBx->GINTMSK |= (USB_OTG_GINTMSK_SRQIM | USB_OTG_GINTMSK_OTGINT);
 390:Drivers/STM32L4xx_HAL_Driver/Src/stm32l4xx_ll_usb.c ****   }
 391:Drivers/STM32L4xx_HAL_Driver/Src/stm32l4xx_ll_usb.c **** 
 392:Drivers/STM32L4xx_HAL_Driver/Src/stm32l4xx_ll_usb.c ****   return ret;
 393:Drivers/STM32L4xx_HAL_Driver/Src/stm32l4xx_ll_usb.c **** }
 394:Drivers/STM32L4xx_HAL_Driver/Src/stm32l4xx_ll_usb.c **** 
 395:Drivers/STM32L4xx_HAL_Driver/Src/stm32l4xx_ll_usb.c **** /**
 396:Drivers/STM32L4xx_HAL_Driver/Src/stm32l4xx_ll_usb.c ****   * @brief  USB_FlushTxFifo Flush a Tx FIFO
 397:Drivers/STM32L4xx_HAL_Driver/Src/stm32l4xx_ll_usb.c ****   * @param  USBx  Selected device
 398:Drivers/STM32L4xx_HAL_Driver/Src/stm32l4xx_ll_usb.c ****   * @param  num  FIFO number
 399:Drivers/STM32L4xx_HAL_Driver/Src/stm32l4xx_ll_usb.c ****   *         This parameter can be a value from 1 to 15
 400:Drivers/STM32L4xx_HAL_Driver/Src/stm32l4xx_ll_usb.c ****             15 means Flush all Tx FIFOs
 401:Drivers/STM32L4xx_HAL_Driver/Src/stm32l4xx_ll_usb.c ****   * @retval HAL status
 402:Drivers/STM32L4xx_HAL_Driver/Src/stm32l4xx_ll_usb.c ****   */
 403:Drivers/STM32L4xx_HAL_Driver/Src/stm32l4xx_ll_usb.c **** HAL_StatusTypeDef USB_FlushTxFifo(USB_OTG_GlobalTypeDef *USBx, uint32_t num)
 404:Drivers/STM32L4xx_HAL_Driver/Src/stm32l4xx_ll_usb.c **** {
 405:Drivers/STM32L4xx_HAL_Driver/Src/stm32l4xx_ll_usb.c ****   __IO uint32_t count = 0U;
 406:Drivers/STM32L4xx_HAL_Driver/Src/stm32l4xx_ll_usb.c **** 
 407:Drivers/STM32L4xx_HAL_Driver/Src/stm32l4xx_ll_usb.c ****   /* Wait for AHB master IDLE state. */
 408:Drivers/STM32L4xx_HAL_Driver/Src/stm32l4xx_ll_usb.c ****   do
 409:Drivers/STM32L4xx_HAL_Driver/Src/stm32l4xx_ll_usb.c ****   {
 410:Drivers/STM32L4xx_HAL_Driver/Src/stm32l4xx_ll_usb.c ****     count++;
 411:Drivers/STM32L4xx_HAL_Driver/Src/stm32l4xx_ll_usb.c **** 
 412:Drivers/STM32L4xx_HAL_Driver/Src/stm32l4xx_ll_usb.c ****     if (count > 200000U)
 413:Drivers/STM32L4xx_HAL_Driver/Src/stm32l4xx_ll_usb.c ****     {
 414:Drivers/STM32L4xx_HAL_Driver/Src/stm32l4xx_ll_usb.c ****       return HAL_TIMEOUT;
 415:Drivers/STM32L4xx_HAL_Driver/Src/stm32l4xx_ll_usb.c ****     }
 416:Drivers/STM32L4xx_HAL_Driver/Src/stm32l4xx_ll_usb.c ****   } while ((USBx->GRSTCTL & USB_OTG_GRSTCTL_AHBIDL) == 0U);
 417:Drivers/STM32L4xx_HAL_Driver/Src/stm32l4xx_ll_usb.c **** 
 418:Drivers/STM32L4xx_HAL_Driver/Src/stm32l4xx_ll_usb.c ****   /* Flush TX Fifo */
 419:Drivers/STM32L4xx_HAL_Driver/Src/stm32l4xx_ll_usb.c ****   count = 0U;
 420:Drivers/STM32L4xx_HAL_Driver/Src/stm32l4xx_ll_usb.c ****   USBx->GRSTCTL = (USB_OTG_GRSTCTL_TXFFLSH | (num << 6));
 421:Drivers/STM32L4xx_HAL_Driver/Src/stm32l4xx_ll_usb.c **** 
 422:Drivers/STM32L4xx_HAL_Driver/Src/stm32l4xx_ll_usb.c ****   do
 423:Drivers/STM32L4xx_HAL_Driver/Src/stm32l4xx_ll_usb.c ****   {
 424:Drivers/STM32L4xx_HAL_Driver/Src/stm32l4xx_ll_usb.c ****     count++;
 425:Drivers/STM32L4xx_HAL_Driver/Src/stm32l4xx_ll_usb.c **** 
 426:Drivers/STM32L4xx_HAL_Driver/Src/stm32l4xx_ll_usb.c ****     if (count > 200000U)
 427:Drivers/STM32L4xx_HAL_Driver/Src/stm32l4xx_ll_usb.c ****     {
 428:Drivers/STM32L4xx_HAL_Driver/Src/stm32l4xx_ll_usb.c ****       return HAL_TIMEOUT;
 429:Drivers/STM32L4xx_HAL_Driver/Src/stm32l4xx_ll_usb.c ****     }
ARM GAS  /tmp/ccS8Yg0I.s 			page 9


 430:Drivers/STM32L4xx_HAL_Driver/Src/stm32l4xx_ll_usb.c ****   } while ((USBx->GRSTCTL & USB_OTG_GRSTCTL_TXFFLSH) == USB_OTG_GRSTCTL_TXFFLSH);
 431:Drivers/STM32L4xx_HAL_Driver/Src/stm32l4xx_ll_usb.c **** 
 432:Drivers/STM32L4xx_HAL_Driver/Src/stm32l4xx_ll_usb.c ****   return HAL_OK;
 433:Drivers/STM32L4xx_HAL_Driver/Src/stm32l4xx_ll_usb.c **** }
 434:Drivers/STM32L4xx_HAL_Driver/Src/stm32l4xx_ll_usb.c **** 
 435:Drivers/STM32L4xx_HAL_Driver/Src/stm32l4xx_ll_usb.c **** /**
 436:Drivers/STM32L4xx_HAL_Driver/Src/stm32l4xx_ll_usb.c ****   * @brief  USB_FlushRxFifo  Flush Rx FIFO
 437:Drivers/STM32L4xx_HAL_Driver/Src/stm32l4xx_ll_usb.c ****   * @param  USBx  Selected device
 438:Drivers/STM32L4xx_HAL_Driver/Src/stm32l4xx_ll_usb.c ****   * @retval HAL status
 439:Drivers/STM32L4xx_HAL_Driver/Src/stm32l4xx_ll_usb.c ****   */
 440:Drivers/STM32L4xx_HAL_Driver/Src/stm32l4xx_ll_usb.c **** HAL_StatusTypeDef USB_FlushRxFifo(USB_OTG_GlobalTypeDef *USBx)
 441:Drivers/STM32L4xx_HAL_Driver/Src/stm32l4xx_ll_usb.c **** {
 442:Drivers/STM32L4xx_HAL_Driver/Src/stm32l4xx_ll_usb.c ****   __IO uint32_t count = 0U;
 443:Drivers/STM32L4xx_HAL_Driver/Src/stm32l4xx_ll_usb.c **** 
 444:Drivers/STM32L4xx_HAL_Driver/Src/stm32l4xx_ll_usb.c ****   /* Wait for AHB master IDLE state. */
 445:Drivers/STM32L4xx_HAL_Driver/Src/stm32l4xx_ll_usb.c ****   do
 446:Drivers/STM32L4xx_HAL_Driver/Src/stm32l4xx_ll_usb.c ****   {
 447:Drivers/STM32L4xx_HAL_Driver/Src/stm32l4xx_ll_usb.c ****     count++;
 448:Drivers/STM32L4xx_HAL_Driver/Src/stm32l4xx_ll_usb.c **** 
 449:Drivers/STM32L4xx_HAL_Driver/Src/stm32l4xx_ll_usb.c ****     if (count > 200000U)
 450:Drivers/STM32L4xx_HAL_Driver/Src/stm32l4xx_ll_usb.c ****     {
 451:Drivers/STM32L4xx_HAL_Driver/Src/stm32l4xx_ll_usb.c ****       return HAL_TIMEOUT;
 452:Drivers/STM32L4xx_HAL_Driver/Src/stm32l4xx_ll_usb.c ****     }
 453:Drivers/STM32L4xx_HAL_Driver/Src/stm32l4xx_ll_usb.c ****   } while ((USBx->GRSTCTL & USB_OTG_GRSTCTL_AHBIDL) == 0U);
 454:Drivers/STM32L4xx_HAL_Driver/Src/stm32l4xx_ll_usb.c **** 
 455:Drivers/STM32L4xx_HAL_Driver/Src/stm32l4xx_ll_usb.c ****   /* Flush RX Fifo */
 456:Drivers/STM32L4xx_HAL_Driver/Src/stm32l4xx_ll_usb.c ****   count = 0U;
 457:Drivers/STM32L4xx_HAL_Driver/Src/stm32l4xx_ll_usb.c ****   USBx->GRSTCTL = USB_OTG_GRSTCTL_RXFFLSH;
 458:Drivers/STM32L4xx_HAL_Driver/Src/stm32l4xx_ll_usb.c **** 
 459:Drivers/STM32L4xx_HAL_Driver/Src/stm32l4xx_ll_usb.c ****   do
 460:Drivers/STM32L4xx_HAL_Driver/Src/stm32l4xx_ll_usb.c ****   {
 461:Drivers/STM32L4xx_HAL_Driver/Src/stm32l4xx_ll_usb.c ****     count++;
 462:Drivers/STM32L4xx_HAL_Driver/Src/stm32l4xx_ll_usb.c **** 
 463:Drivers/STM32L4xx_HAL_Driver/Src/stm32l4xx_ll_usb.c ****     if (count > 200000U)
 464:Drivers/STM32L4xx_HAL_Driver/Src/stm32l4xx_ll_usb.c ****     {
 465:Drivers/STM32L4xx_HAL_Driver/Src/stm32l4xx_ll_usb.c ****       return HAL_TIMEOUT;
 466:Drivers/STM32L4xx_HAL_Driver/Src/stm32l4xx_ll_usb.c ****     }
 467:Drivers/STM32L4xx_HAL_Driver/Src/stm32l4xx_ll_usb.c ****   } while ((USBx->GRSTCTL & USB_OTG_GRSTCTL_RXFFLSH) == USB_OTG_GRSTCTL_RXFFLSH);
 468:Drivers/STM32L4xx_HAL_Driver/Src/stm32l4xx_ll_usb.c **** 
 469:Drivers/STM32L4xx_HAL_Driver/Src/stm32l4xx_ll_usb.c ****   return HAL_OK;
 470:Drivers/STM32L4xx_HAL_Driver/Src/stm32l4xx_ll_usb.c **** }
 471:Drivers/STM32L4xx_HAL_Driver/Src/stm32l4xx_ll_usb.c **** 
 472:Drivers/STM32L4xx_HAL_Driver/Src/stm32l4xx_ll_usb.c **** /**
 473:Drivers/STM32L4xx_HAL_Driver/Src/stm32l4xx_ll_usb.c ****   * @brief  USB_SetDevSpeed  Initializes the DevSpd field of DCFG register
 474:Drivers/STM32L4xx_HAL_Driver/Src/stm32l4xx_ll_usb.c ****   *         depending the PHY type and the enumeration speed of the device.
 475:Drivers/STM32L4xx_HAL_Driver/Src/stm32l4xx_ll_usb.c ****   * @param  USBx  Selected device
 476:Drivers/STM32L4xx_HAL_Driver/Src/stm32l4xx_ll_usb.c ****   * @param  speed  device speed
 477:Drivers/STM32L4xx_HAL_Driver/Src/stm32l4xx_ll_usb.c ****   *          This parameter can be one of these values:
 478:Drivers/STM32L4xx_HAL_Driver/Src/stm32l4xx_ll_usb.c ****   *            @arg USB_OTG_SPEED_FULL: Full speed mode
 479:Drivers/STM32L4xx_HAL_Driver/Src/stm32l4xx_ll_usb.c ****   * @retval  Hal status
 480:Drivers/STM32L4xx_HAL_Driver/Src/stm32l4xx_ll_usb.c ****   */
 481:Drivers/STM32L4xx_HAL_Driver/Src/stm32l4xx_ll_usb.c **** HAL_StatusTypeDef USB_SetDevSpeed(USB_OTG_GlobalTypeDef *USBx, uint8_t speed)
 482:Drivers/STM32L4xx_HAL_Driver/Src/stm32l4xx_ll_usb.c **** {
 483:Drivers/STM32L4xx_HAL_Driver/Src/stm32l4xx_ll_usb.c ****   uint32_t USBx_BASE = (uint32_t)USBx;
 484:Drivers/STM32L4xx_HAL_Driver/Src/stm32l4xx_ll_usb.c **** 
 485:Drivers/STM32L4xx_HAL_Driver/Src/stm32l4xx_ll_usb.c ****   USBx_DEVICE->DCFG |= speed;
 486:Drivers/STM32L4xx_HAL_Driver/Src/stm32l4xx_ll_usb.c ****   return HAL_OK;
ARM GAS  /tmp/ccS8Yg0I.s 			page 10


 487:Drivers/STM32L4xx_HAL_Driver/Src/stm32l4xx_ll_usb.c **** }
 488:Drivers/STM32L4xx_HAL_Driver/Src/stm32l4xx_ll_usb.c **** 
 489:Drivers/STM32L4xx_HAL_Driver/Src/stm32l4xx_ll_usb.c **** /**
 490:Drivers/STM32L4xx_HAL_Driver/Src/stm32l4xx_ll_usb.c ****   * @brief  USB_GetDevSpeed  Return the Dev Speed
 491:Drivers/STM32L4xx_HAL_Driver/Src/stm32l4xx_ll_usb.c ****   * @param  USBx  Selected device
 492:Drivers/STM32L4xx_HAL_Driver/Src/stm32l4xx_ll_usb.c ****   * @retval speed  device speed
 493:Drivers/STM32L4xx_HAL_Driver/Src/stm32l4xx_ll_usb.c ****   *          This parameter can be one of these values:
 494:Drivers/STM32L4xx_HAL_Driver/Src/stm32l4xx_ll_usb.c ****   *            @arg USBD_FS_SPEED: Full speed mode
 495:Drivers/STM32L4xx_HAL_Driver/Src/stm32l4xx_ll_usb.c ****   */
 496:Drivers/STM32L4xx_HAL_Driver/Src/stm32l4xx_ll_usb.c **** uint8_t USB_GetDevSpeed(USB_OTG_GlobalTypeDef *USBx)
 497:Drivers/STM32L4xx_HAL_Driver/Src/stm32l4xx_ll_usb.c **** {
 498:Drivers/STM32L4xx_HAL_Driver/Src/stm32l4xx_ll_usb.c ****   uint32_t USBx_BASE = (uint32_t)USBx;
 499:Drivers/STM32L4xx_HAL_Driver/Src/stm32l4xx_ll_usb.c ****   uint8_t speed;
 500:Drivers/STM32L4xx_HAL_Driver/Src/stm32l4xx_ll_usb.c ****   uint32_t DevEnumSpeed = USBx_DEVICE->DSTS & USB_OTG_DSTS_ENUMSPD;
 501:Drivers/STM32L4xx_HAL_Driver/Src/stm32l4xx_ll_usb.c **** 
 502:Drivers/STM32L4xx_HAL_Driver/Src/stm32l4xx_ll_usb.c ****   if ((DevEnumSpeed == DSTS_ENUMSPD_FS_PHY_30MHZ_OR_60MHZ) ||
 503:Drivers/STM32L4xx_HAL_Driver/Src/stm32l4xx_ll_usb.c ****       (DevEnumSpeed == DSTS_ENUMSPD_FS_PHY_48MHZ))
 504:Drivers/STM32L4xx_HAL_Driver/Src/stm32l4xx_ll_usb.c ****   {
 505:Drivers/STM32L4xx_HAL_Driver/Src/stm32l4xx_ll_usb.c ****     speed = USBD_FS_SPEED;
 506:Drivers/STM32L4xx_HAL_Driver/Src/stm32l4xx_ll_usb.c ****   }
 507:Drivers/STM32L4xx_HAL_Driver/Src/stm32l4xx_ll_usb.c ****   else
 508:Drivers/STM32L4xx_HAL_Driver/Src/stm32l4xx_ll_usb.c ****   {
 509:Drivers/STM32L4xx_HAL_Driver/Src/stm32l4xx_ll_usb.c ****     speed = 0xFU;
 510:Drivers/STM32L4xx_HAL_Driver/Src/stm32l4xx_ll_usb.c ****   }
 511:Drivers/STM32L4xx_HAL_Driver/Src/stm32l4xx_ll_usb.c **** 
 512:Drivers/STM32L4xx_HAL_Driver/Src/stm32l4xx_ll_usb.c ****   return speed;
 513:Drivers/STM32L4xx_HAL_Driver/Src/stm32l4xx_ll_usb.c **** }
 514:Drivers/STM32L4xx_HAL_Driver/Src/stm32l4xx_ll_usb.c **** 
 515:Drivers/STM32L4xx_HAL_Driver/Src/stm32l4xx_ll_usb.c **** /**
 516:Drivers/STM32L4xx_HAL_Driver/Src/stm32l4xx_ll_usb.c ****   * @brief  Activate and configure an endpoint
 517:Drivers/STM32L4xx_HAL_Driver/Src/stm32l4xx_ll_usb.c ****   * @param  USBx  Selected device
 518:Drivers/STM32L4xx_HAL_Driver/Src/stm32l4xx_ll_usb.c ****   * @param  ep pointer to endpoint structure
 519:Drivers/STM32L4xx_HAL_Driver/Src/stm32l4xx_ll_usb.c ****   * @retval HAL status
 520:Drivers/STM32L4xx_HAL_Driver/Src/stm32l4xx_ll_usb.c ****   */
 521:Drivers/STM32L4xx_HAL_Driver/Src/stm32l4xx_ll_usb.c **** HAL_StatusTypeDef USB_ActivateEndpoint(USB_OTG_GlobalTypeDef *USBx, USB_OTG_EPTypeDef *ep)
 522:Drivers/STM32L4xx_HAL_Driver/Src/stm32l4xx_ll_usb.c **** {
 523:Drivers/STM32L4xx_HAL_Driver/Src/stm32l4xx_ll_usb.c ****   uint32_t USBx_BASE = (uint32_t)USBx;
 524:Drivers/STM32L4xx_HAL_Driver/Src/stm32l4xx_ll_usb.c ****   uint32_t epnum = (uint32_t)ep->num;
 525:Drivers/STM32L4xx_HAL_Driver/Src/stm32l4xx_ll_usb.c **** 
 526:Drivers/STM32L4xx_HAL_Driver/Src/stm32l4xx_ll_usb.c ****   if (ep->is_in == 1U)
 527:Drivers/STM32L4xx_HAL_Driver/Src/stm32l4xx_ll_usb.c ****   {
 528:Drivers/STM32L4xx_HAL_Driver/Src/stm32l4xx_ll_usb.c ****     USBx_DEVICE->DAINTMSK |= USB_OTG_DAINTMSK_IEPM & (uint32_t)(1UL << (ep->num & EP_ADDR_MSK));
 529:Drivers/STM32L4xx_HAL_Driver/Src/stm32l4xx_ll_usb.c **** 
 530:Drivers/STM32L4xx_HAL_Driver/Src/stm32l4xx_ll_usb.c ****     if ((USBx_INEP(epnum)->DIEPCTL & USB_OTG_DIEPCTL_USBAEP) == 0U)
 531:Drivers/STM32L4xx_HAL_Driver/Src/stm32l4xx_ll_usb.c ****     {
 532:Drivers/STM32L4xx_HAL_Driver/Src/stm32l4xx_ll_usb.c ****       USBx_INEP(epnum)->DIEPCTL |= (ep->maxpacket & USB_OTG_DIEPCTL_MPSIZ) |
 533:Drivers/STM32L4xx_HAL_Driver/Src/stm32l4xx_ll_usb.c ****                                    ((uint32_t)ep->type << 18) | (epnum << 22) |
 534:Drivers/STM32L4xx_HAL_Driver/Src/stm32l4xx_ll_usb.c ****                                    USB_OTG_DIEPCTL_SD0PID_SEVNFRM |
 535:Drivers/STM32L4xx_HAL_Driver/Src/stm32l4xx_ll_usb.c ****                                    USB_OTG_DIEPCTL_USBAEP;
 536:Drivers/STM32L4xx_HAL_Driver/Src/stm32l4xx_ll_usb.c ****     }
 537:Drivers/STM32L4xx_HAL_Driver/Src/stm32l4xx_ll_usb.c ****   }
 538:Drivers/STM32L4xx_HAL_Driver/Src/stm32l4xx_ll_usb.c ****   else
 539:Drivers/STM32L4xx_HAL_Driver/Src/stm32l4xx_ll_usb.c ****   {
 540:Drivers/STM32L4xx_HAL_Driver/Src/stm32l4xx_ll_usb.c ****     USBx_DEVICE->DAINTMSK |= USB_OTG_DAINTMSK_OEPM & ((uint32_t)(1UL << (ep->num & EP_ADDR_MSK)) <<
 541:Drivers/STM32L4xx_HAL_Driver/Src/stm32l4xx_ll_usb.c **** 
 542:Drivers/STM32L4xx_HAL_Driver/Src/stm32l4xx_ll_usb.c ****     if (((USBx_OUTEP(epnum)->DOEPCTL) & USB_OTG_DOEPCTL_USBAEP) == 0U)
 543:Drivers/STM32L4xx_HAL_Driver/Src/stm32l4xx_ll_usb.c ****     {
ARM GAS  /tmp/ccS8Yg0I.s 			page 11


 544:Drivers/STM32L4xx_HAL_Driver/Src/stm32l4xx_ll_usb.c ****       USBx_OUTEP(epnum)->DOEPCTL |= (ep->maxpacket & USB_OTG_DOEPCTL_MPSIZ) |
 545:Drivers/STM32L4xx_HAL_Driver/Src/stm32l4xx_ll_usb.c ****                                     ((uint32_t)ep->type << 18) |
 546:Drivers/STM32L4xx_HAL_Driver/Src/stm32l4xx_ll_usb.c ****                                     USB_OTG_DIEPCTL_SD0PID_SEVNFRM |
 547:Drivers/STM32L4xx_HAL_Driver/Src/stm32l4xx_ll_usb.c ****                                     USB_OTG_DOEPCTL_USBAEP;
 548:Drivers/STM32L4xx_HAL_Driver/Src/stm32l4xx_ll_usb.c ****     }
 549:Drivers/STM32L4xx_HAL_Driver/Src/stm32l4xx_ll_usb.c ****   }
 550:Drivers/STM32L4xx_HAL_Driver/Src/stm32l4xx_ll_usb.c ****   return HAL_OK;
 551:Drivers/STM32L4xx_HAL_Driver/Src/stm32l4xx_ll_usb.c **** }
 552:Drivers/STM32L4xx_HAL_Driver/Src/stm32l4xx_ll_usb.c **** 
 553:Drivers/STM32L4xx_HAL_Driver/Src/stm32l4xx_ll_usb.c **** /**
 554:Drivers/STM32L4xx_HAL_Driver/Src/stm32l4xx_ll_usb.c ****   * @brief  Activate and configure a dedicated endpoint
 555:Drivers/STM32L4xx_HAL_Driver/Src/stm32l4xx_ll_usb.c ****   * @param  USBx  Selected device
 556:Drivers/STM32L4xx_HAL_Driver/Src/stm32l4xx_ll_usb.c ****   * @param  ep pointer to endpoint structure
 557:Drivers/STM32L4xx_HAL_Driver/Src/stm32l4xx_ll_usb.c ****   * @retval HAL status
 558:Drivers/STM32L4xx_HAL_Driver/Src/stm32l4xx_ll_usb.c ****   */
 559:Drivers/STM32L4xx_HAL_Driver/Src/stm32l4xx_ll_usb.c **** HAL_StatusTypeDef USB_ActivateDedicatedEndpoint(USB_OTG_GlobalTypeDef *USBx, USB_OTG_EPTypeDef *ep)
 560:Drivers/STM32L4xx_HAL_Driver/Src/stm32l4xx_ll_usb.c **** {
 561:Drivers/STM32L4xx_HAL_Driver/Src/stm32l4xx_ll_usb.c ****   uint32_t USBx_BASE = (uint32_t)USBx;
 562:Drivers/STM32L4xx_HAL_Driver/Src/stm32l4xx_ll_usb.c ****   uint32_t epnum = (uint32_t)ep->num;
 563:Drivers/STM32L4xx_HAL_Driver/Src/stm32l4xx_ll_usb.c **** 
 564:Drivers/STM32L4xx_HAL_Driver/Src/stm32l4xx_ll_usb.c ****   /* Read DEPCTLn register */
 565:Drivers/STM32L4xx_HAL_Driver/Src/stm32l4xx_ll_usb.c ****   if (ep->is_in == 1U)
 566:Drivers/STM32L4xx_HAL_Driver/Src/stm32l4xx_ll_usb.c ****   {
 567:Drivers/STM32L4xx_HAL_Driver/Src/stm32l4xx_ll_usb.c ****     if (((USBx_INEP(epnum)->DIEPCTL) & USB_OTG_DIEPCTL_USBAEP) == 0U)
 568:Drivers/STM32L4xx_HAL_Driver/Src/stm32l4xx_ll_usb.c ****     {
 569:Drivers/STM32L4xx_HAL_Driver/Src/stm32l4xx_ll_usb.c ****       USBx_INEP(epnum)->DIEPCTL |= (ep->maxpacket & USB_OTG_DIEPCTL_MPSIZ) |
 570:Drivers/STM32L4xx_HAL_Driver/Src/stm32l4xx_ll_usb.c ****                                    ((uint32_t)ep->type << 18) | (epnum << 22) |
 571:Drivers/STM32L4xx_HAL_Driver/Src/stm32l4xx_ll_usb.c ****                                    USB_OTG_DIEPCTL_SD0PID_SEVNFRM |
 572:Drivers/STM32L4xx_HAL_Driver/Src/stm32l4xx_ll_usb.c ****                                    USB_OTG_DIEPCTL_USBAEP;
 573:Drivers/STM32L4xx_HAL_Driver/Src/stm32l4xx_ll_usb.c ****     }
 574:Drivers/STM32L4xx_HAL_Driver/Src/stm32l4xx_ll_usb.c **** 
 575:Drivers/STM32L4xx_HAL_Driver/Src/stm32l4xx_ll_usb.c ****     USBx_DEVICE->DEACHMSK |= USB_OTG_DAINTMSK_IEPM & (uint32_t)(1UL << (ep->num & EP_ADDR_MSK));
 576:Drivers/STM32L4xx_HAL_Driver/Src/stm32l4xx_ll_usb.c ****   }
 577:Drivers/STM32L4xx_HAL_Driver/Src/stm32l4xx_ll_usb.c ****   else
 578:Drivers/STM32L4xx_HAL_Driver/Src/stm32l4xx_ll_usb.c ****   {
 579:Drivers/STM32L4xx_HAL_Driver/Src/stm32l4xx_ll_usb.c ****     if (((USBx_OUTEP(epnum)->DOEPCTL) & USB_OTG_DOEPCTL_USBAEP) == 0U)
 580:Drivers/STM32L4xx_HAL_Driver/Src/stm32l4xx_ll_usb.c ****     {
 581:Drivers/STM32L4xx_HAL_Driver/Src/stm32l4xx_ll_usb.c ****       USBx_OUTEP(epnum)->DOEPCTL |= (ep->maxpacket & USB_OTG_DOEPCTL_MPSIZ) |
 582:Drivers/STM32L4xx_HAL_Driver/Src/stm32l4xx_ll_usb.c ****                                     ((uint32_t)ep->type << 18) | (epnum << 22) |
 583:Drivers/STM32L4xx_HAL_Driver/Src/stm32l4xx_ll_usb.c ****                                     USB_OTG_DOEPCTL_USBAEP;
 584:Drivers/STM32L4xx_HAL_Driver/Src/stm32l4xx_ll_usb.c ****     }
 585:Drivers/STM32L4xx_HAL_Driver/Src/stm32l4xx_ll_usb.c **** 
 586:Drivers/STM32L4xx_HAL_Driver/Src/stm32l4xx_ll_usb.c ****     USBx_DEVICE->DEACHMSK |= USB_OTG_DAINTMSK_OEPM & ((uint32_t)(1UL << (ep->num & EP_ADDR_MSK)) <<
 587:Drivers/STM32L4xx_HAL_Driver/Src/stm32l4xx_ll_usb.c ****   }
 588:Drivers/STM32L4xx_HAL_Driver/Src/stm32l4xx_ll_usb.c **** 
 589:Drivers/STM32L4xx_HAL_Driver/Src/stm32l4xx_ll_usb.c ****   return HAL_OK;
 590:Drivers/STM32L4xx_HAL_Driver/Src/stm32l4xx_ll_usb.c **** }
 591:Drivers/STM32L4xx_HAL_Driver/Src/stm32l4xx_ll_usb.c **** 
 592:Drivers/STM32L4xx_HAL_Driver/Src/stm32l4xx_ll_usb.c **** /**
 593:Drivers/STM32L4xx_HAL_Driver/Src/stm32l4xx_ll_usb.c ****   * @brief  De-activate and de-initialize an endpoint
 594:Drivers/STM32L4xx_HAL_Driver/Src/stm32l4xx_ll_usb.c ****   * @param  USBx  Selected device
 595:Drivers/STM32L4xx_HAL_Driver/Src/stm32l4xx_ll_usb.c ****   * @param  ep pointer to endpoint structure
 596:Drivers/STM32L4xx_HAL_Driver/Src/stm32l4xx_ll_usb.c ****   * @retval HAL status
 597:Drivers/STM32L4xx_HAL_Driver/Src/stm32l4xx_ll_usb.c ****   */
 598:Drivers/STM32L4xx_HAL_Driver/Src/stm32l4xx_ll_usb.c **** HAL_StatusTypeDef USB_DeactivateEndpoint(USB_OTG_GlobalTypeDef *USBx, USB_OTG_EPTypeDef *ep)
 599:Drivers/STM32L4xx_HAL_Driver/Src/stm32l4xx_ll_usb.c **** {
 600:Drivers/STM32L4xx_HAL_Driver/Src/stm32l4xx_ll_usb.c ****   uint32_t USBx_BASE = (uint32_t)USBx;
ARM GAS  /tmp/ccS8Yg0I.s 			page 12


 601:Drivers/STM32L4xx_HAL_Driver/Src/stm32l4xx_ll_usb.c ****   uint32_t epnum = (uint32_t)ep->num;
 602:Drivers/STM32L4xx_HAL_Driver/Src/stm32l4xx_ll_usb.c **** 
 603:Drivers/STM32L4xx_HAL_Driver/Src/stm32l4xx_ll_usb.c ****   /* Read DEPCTLn register */
 604:Drivers/STM32L4xx_HAL_Driver/Src/stm32l4xx_ll_usb.c ****   if (ep->is_in == 1U)
 605:Drivers/STM32L4xx_HAL_Driver/Src/stm32l4xx_ll_usb.c ****   {
 606:Drivers/STM32L4xx_HAL_Driver/Src/stm32l4xx_ll_usb.c ****     if ((USBx_INEP(epnum)->DIEPCTL & USB_OTG_DIEPCTL_EPENA) == USB_OTG_DIEPCTL_EPENA)
 607:Drivers/STM32L4xx_HAL_Driver/Src/stm32l4xx_ll_usb.c ****     {
 608:Drivers/STM32L4xx_HAL_Driver/Src/stm32l4xx_ll_usb.c ****       USBx_INEP(epnum)->DIEPCTL |= USB_OTG_DIEPCTL_SNAK;
 609:Drivers/STM32L4xx_HAL_Driver/Src/stm32l4xx_ll_usb.c ****       USBx_INEP(epnum)->DIEPCTL |= USB_OTG_DIEPCTL_EPDIS;
 610:Drivers/STM32L4xx_HAL_Driver/Src/stm32l4xx_ll_usb.c ****     }
 611:Drivers/STM32L4xx_HAL_Driver/Src/stm32l4xx_ll_usb.c **** 
 612:Drivers/STM32L4xx_HAL_Driver/Src/stm32l4xx_ll_usb.c ****     USBx_DEVICE->DEACHMSK &= ~(USB_OTG_DAINTMSK_IEPM & (uint32_t)(1UL << (ep->num & EP_ADDR_MSK)));
 613:Drivers/STM32L4xx_HAL_Driver/Src/stm32l4xx_ll_usb.c ****     USBx_DEVICE->DAINTMSK &= ~(USB_OTG_DAINTMSK_IEPM & (uint32_t)(1UL << (ep->num & EP_ADDR_MSK)));
 614:Drivers/STM32L4xx_HAL_Driver/Src/stm32l4xx_ll_usb.c ****     USBx_INEP(epnum)->DIEPCTL &= ~(USB_OTG_DIEPCTL_USBAEP |
 615:Drivers/STM32L4xx_HAL_Driver/Src/stm32l4xx_ll_usb.c ****                                    USB_OTG_DIEPCTL_MPSIZ |
 616:Drivers/STM32L4xx_HAL_Driver/Src/stm32l4xx_ll_usb.c ****                                    USB_OTG_DIEPCTL_TXFNUM |
 617:Drivers/STM32L4xx_HAL_Driver/Src/stm32l4xx_ll_usb.c ****                                    USB_OTG_DIEPCTL_SD0PID_SEVNFRM |
 618:Drivers/STM32L4xx_HAL_Driver/Src/stm32l4xx_ll_usb.c ****                                    USB_OTG_DIEPCTL_EPTYP);
 619:Drivers/STM32L4xx_HAL_Driver/Src/stm32l4xx_ll_usb.c ****   }
 620:Drivers/STM32L4xx_HAL_Driver/Src/stm32l4xx_ll_usb.c ****   else
 621:Drivers/STM32L4xx_HAL_Driver/Src/stm32l4xx_ll_usb.c ****   {
 622:Drivers/STM32L4xx_HAL_Driver/Src/stm32l4xx_ll_usb.c ****     if ((USBx_OUTEP(epnum)->DOEPCTL & USB_OTG_DOEPCTL_EPENA) == USB_OTG_DOEPCTL_EPENA)
 623:Drivers/STM32L4xx_HAL_Driver/Src/stm32l4xx_ll_usb.c ****     {
 624:Drivers/STM32L4xx_HAL_Driver/Src/stm32l4xx_ll_usb.c ****       USBx_OUTEP(epnum)->DOEPCTL |= USB_OTG_DOEPCTL_SNAK;
 625:Drivers/STM32L4xx_HAL_Driver/Src/stm32l4xx_ll_usb.c ****       USBx_OUTEP(epnum)->DOEPCTL |= USB_OTG_DOEPCTL_EPDIS;
 626:Drivers/STM32L4xx_HAL_Driver/Src/stm32l4xx_ll_usb.c ****     }
 627:Drivers/STM32L4xx_HAL_Driver/Src/stm32l4xx_ll_usb.c **** 
 628:Drivers/STM32L4xx_HAL_Driver/Src/stm32l4xx_ll_usb.c ****     USBx_DEVICE->DEACHMSK &= ~(USB_OTG_DAINTMSK_OEPM & ((uint32_t)(1UL << (ep->num & EP_ADDR_MSK)) 
 629:Drivers/STM32L4xx_HAL_Driver/Src/stm32l4xx_ll_usb.c ****     USBx_DEVICE->DAINTMSK &= ~(USB_OTG_DAINTMSK_OEPM & ((uint32_t)(1UL << (ep->num & EP_ADDR_MSK)) 
 630:Drivers/STM32L4xx_HAL_Driver/Src/stm32l4xx_ll_usb.c ****     USBx_OUTEP(epnum)->DOEPCTL &= ~(USB_OTG_DOEPCTL_USBAEP |
 631:Drivers/STM32L4xx_HAL_Driver/Src/stm32l4xx_ll_usb.c ****                                     USB_OTG_DOEPCTL_MPSIZ |
 632:Drivers/STM32L4xx_HAL_Driver/Src/stm32l4xx_ll_usb.c ****                                     USB_OTG_DOEPCTL_SD0PID_SEVNFRM |
 633:Drivers/STM32L4xx_HAL_Driver/Src/stm32l4xx_ll_usb.c ****                                     USB_OTG_DOEPCTL_EPTYP);
 634:Drivers/STM32L4xx_HAL_Driver/Src/stm32l4xx_ll_usb.c ****   }
 635:Drivers/STM32L4xx_HAL_Driver/Src/stm32l4xx_ll_usb.c **** 
 636:Drivers/STM32L4xx_HAL_Driver/Src/stm32l4xx_ll_usb.c ****   return HAL_OK;
 637:Drivers/STM32L4xx_HAL_Driver/Src/stm32l4xx_ll_usb.c **** }
 638:Drivers/STM32L4xx_HAL_Driver/Src/stm32l4xx_ll_usb.c **** 
 639:Drivers/STM32L4xx_HAL_Driver/Src/stm32l4xx_ll_usb.c **** /**
 640:Drivers/STM32L4xx_HAL_Driver/Src/stm32l4xx_ll_usb.c ****   * @brief  De-activate and de-initialize a dedicated endpoint
 641:Drivers/STM32L4xx_HAL_Driver/Src/stm32l4xx_ll_usb.c ****   * @param  USBx  Selected device
 642:Drivers/STM32L4xx_HAL_Driver/Src/stm32l4xx_ll_usb.c ****   * @param  ep pointer to endpoint structure
 643:Drivers/STM32L4xx_HAL_Driver/Src/stm32l4xx_ll_usb.c ****   * @retval HAL status
 644:Drivers/STM32L4xx_HAL_Driver/Src/stm32l4xx_ll_usb.c ****   */
 645:Drivers/STM32L4xx_HAL_Driver/Src/stm32l4xx_ll_usb.c **** HAL_StatusTypeDef USB_DeactivateDedicatedEndpoint(USB_OTG_GlobalTypeDef *USBx, USB_OTG_EPTypeDef *e
 646:Drivers/STM32L4xx_HAL_Driver/Src/stm32l4xx_ll_usb.c **** {
 647:Drivers/STM32L4xx_HAL_Driver/Src/stm32l4xx_ll_usb.c ****   uint32_t USBx_BASE = (uint32_t)USBx;
 648:Drivers/STM32L4xx_HAL_Driver/Src/stm32l4xx_ll_usb.c ****   uint32_t epnum = (uint32_t)ep->num;
 649:Drivers/STM32L4xx_HAL_Driver/Src/stm32l4xx_ll_usb.c **** 
 650:Drivers/STM32L4xx_HAL_Driver/Src/stm32l4xx_ll_usb.c ****   /* Read DEPCTLn register */
 651:Drivers/STM32L4xx_HAL_Driver/Src/stm32l4xx_ll_usb.c ****   if (ep->is_in == 1U)
 652:Drivers/STM32L4xx_HAL_Driver/Src/stm32l4xx_ll_usb.c ****   {
 653:Drivers/STM32L4xx_HAL_Driver/Src/stm32l4xx_ll_usb.c ****     if ((USBx_INEP(epnum)->DIEPCTL & USB_OTG_DIEPCTL_EPENA) == USB_OTG_DIEPCTL_EPENA)
 654:Drivers/STM32L4xx_HAL_Driver/Src/stm32l4xx_ll_usb.c ****     {
 655:Drivers/STM32L4xx_HAL_Driver/Src/stm32l4xx_ll_usb.c ****       USBx_INEP(epnum)->DIEPCTL  |= USB_OTG_DIEPCTL_SNAK;
 656:Drivers/STM32L4xx_HAL_Driver/Src/stm32l4xx_ll_usb.c ****       USBx_INEP(epnum)->DIEPCTL  |= USB_OTG_DIEPCTL_EPDIS;
 657:Drivers/STM32L4xx_HAL_Driver/Src/stm32l4xx_ll_usb.c ****     }
ARM GAS  /tmp/ccS8Yg0I.s 			page 13


 658:Drivers/STM32L4xx_HAL_Driver/Src/stm32l4xx_ll_usb.c **** 
 659:Drivers/STM32L4xx_HAL_Driver/Src/stm32l4xx_ll_usb.c ****     USBx_INEP(epnum)->DIEPCTL &= ~ USB_OTG_DIEPCTL_USBAEP;
 660:Drivers/STM32L4xx_HAL_Driver/Src/stm32l4xx_ll_usb.c ****     USBx_DEVICE->DAINTMSK &= ~(USB_OTG_DAINTMSK_IEPM & (uint32_t)(1UL << (ep->num & EP_ADDR_MSK)));
 661:Drivers/STM32L4xx_HAL_Driver/Src/stm32l4xx_ll_usb.c ****   }
 662:Drivers/STM32L4xx_HAL_Driver/Src/stm32l4xx_ll_usb.c ****   else
 663:Drivers/STM32L4xx_HAL_Driver/Src/stm32l4xx_ll_usb.c ****   {
 664:Drivers/STM32L4xx_HAL_Driver/Src/stm32l4xx_ll_usb.c ****     if ((USBx_OUTEP(epnum)->DOEPCTL & USB_OTG_DOEPCTL_EPENA) == USB_OTG_DOEPCTL_EPENA)
 665:Drivers/STM32L4xx_HAL_Driver/Src/stm32l4xx_ll_usb.c ****     {
 666:Drivers/STM32L4xx_HAL_Driver/Src/stm32l4xx_ll_usb.c ****       USBx_OUTEP(epnum)->DOEPCTL  |= USB_OTG_DOEPCTL_SNAK;
 667:Drivers/STM32L4xx_HAL_Driver/Src/stm32l4xx_ll_usb.c ****       USBx_OUTEP(epnum)->DOEPCTL  |= USB_OTG_DOEPCTL_EPDIS;
 668:Drivers/STM32L4xx_HAL_Driver/Src/stm32l4xx_ll_usb.c ****     }
 669:Drivers/STM32L4xx_HAL_Driver/Src/stm32l4xx_ll_usb.c **** 
 670:Drivers/STM32L4xx_HAL_Driver/Src/stm32l4xx_ll_usb.c ****     USBx_OUTEP(epnum)->DOEPCTL &= ~USB_OTG_DOEPCTL_USBAEP;
 671:Drivers/STM32L4xx_HAL_Driver/Src/stm32l4xx_ll_usb.c ****     USBx_DEVICE->DAINTMSK &= ~(USB_OTG_DAINTMSK_OEPM & ((uint32_t)(1UL << (ep->num & EP_ADDR_MSK)) 
 672:Drivers/STM32L4xx_HAL_Driver/Src/stm32l4xx_ll_usb.c ****   }
 673:Drivers/STM32L4xx_HAL_Driver/Src/stm32l4xx_ll_usb.c **** 
 674:Drivers/STM32L4xx_HAL_Driver/Src/stm32l4xx_ll_usb.c ****   return HAL_OK;
 675:Drivers/STM32L4xx_HAL_Driver/Src/stm32l4xx_ll_usb.c **** }
 676:Drivers/STM32L4xx_HAL_Driver/Src/stm32l4xx_ll_usb.c **** 
 677:Drivers/STM32L4xx_HAL_Driver/Src/stm32l4xx_ll_usb.c **** /**
 678:Drivers/STM32L4xx_HAL_Driver/Src/stm32l4xx_ll_usb.c ****   * @brief  USB_EPStartXfer : setup and starts a transfer over an EP
 679:Drivers/STM32L4xx_HAL_Driver/Src/stm32l4xx_ll_usb.c ****   * @param  USBx  Selected device
 680:Drivers/STM32L4xx_HAL_Driver/Src/stm32l4xx_ll_usb.c ****   * @param  ep pointer to endpoint structure
 681:Drivers/STM32L4xx_HAL_Driver/Src/stm32l4xx_ll_usb.c ****   * @retval HAL status
 682:Drivers/STM32L4xx_HAL_Driver/Src/stm32l4xx_ll_usb.c ****   */
 683:Drivers/STM32L4xx_HAL_Driver/Src/stm32l4xx_ll_usb.c **** HAL_StatusTypeDef USB_EPStartXfer(USB_OTG_GlobalTypeDef *USBx, USB_OTG_EPTypeDef *ep)
 684:Drivers/STM32L4xx_HAL_Driver/Src/stm32l4xx_ll_usb.c **** {
 685:Drivers/STM32L4xx_HAL_Driver/Src/stm32l4xx_ll_usb.c ****   uint32_t USBx_BASE = (uint32_t)USBx;
 686:Drivers/STM32L4xx_HAL_Driver/Src/stm32l4xx_ll_usb.c ****   uint32_t epnum = (uint32_t)ep->num;
 687:Drivers/STM32L4xx_HAL_Driver/Src/stm32l4xx_ll_usb.c ****   uint16_t pktcnt;
 688:Drivers/STM32L4xx_HAL_Driver/Src/stm32l4xx_ll_usb.c **** 
 689:Drivers/STM32L4xx_HAL_Driver/Src/stm32l4xx_ll_usb.c ****   /* IN endpoint */
 690:Drivers/STM32L4xx_HAL_Driver/Src/stm32l4xx_ll_usb.c ****   if (ep->is_in == 1U)
 691:Drivers/STM32L4xx_HAL_Driver/Src/stm32l4xx_ll_usb.c ****   {
 692:Drivers/STM32L4xx_HAL_Driver/Src/stm32l4xx_ll_usb.c ****     /* Zero Length Packet? */
 693:Drivers/STM32L4xx_HAL_Driver/Src/stm32l4xx_ll_usb.c ****     if (ep->xfer_len == 0U)
 694:Drivers/STM32L4xx_HAL_Driver/Src/stm32l4xx_ll_usb.c ****     {
 695:Drivers/STM32L4xx_HAL_Driver/Src/stm32l4xx_ll_usb.c ****       USBx_INEP(epnum)->DIEPTSIZ &= ~(USB_OTG_DIEPTSIZ_PKTCNT);
 696:Drivers/STM32L4xx_HAL_Driver/Src/stm32l4xx_ll_usb.c ****       USBx_INEP(epnum)->DIEPTSIZ |= (USB_OTG_DIEPTSIZ_PKTCNT & (1U << 19));
 697:Drivers/STM32L4xx_HAL_Driver/Src/stm32l4xx_ll_usb.c ****       USBx_INEP(epnum)->DIEPTSIZ &= ~(USB_OTG_DIEPTSIZ_XFRSIZ);
 698:Drivers/STM32L4xx_HAL_Driver/Src/stm32l4xx_ll_usb.c ****     }
 699:Drivers/STM32L4xx_HAL_Driver/Src/stm32l4xx_ll_usb.c ****     else
 700:Drivers/STM32L4xx_HAL_Driver/Src/stm32l4xx_ll_usb.c ****     {
 701:Drivers/STM32L4xx_HAL_Driver/Src/stm32l4xx_ll_usb.c ****       /* Program the transfer size and packet count
 702:Drivers/STM32L4xx_HAL_Driver/Src/stm32l4xx_ll_usb.c ****       * as follows: xfersize = N * maxpacket +
 703:Drivers/STM32L4xx_HAL_Driver/Src/stm32l4xx_ll_usb.c ****       * short_packet pktcnt = N + (short_packet
 704:Drivers/STM32L4xx_HAL_Driver/Src/stm32l4xx_ll_usb.c ****       * exist ? 1 : 0)
 705:Drivers/STM32L4xx_HAL_Driver/Src/stm32l4xx_ll_usb.c ****       */
 706:Drivers/STM32L4xx_HAL_Driver/Src/stm32l4xx_ll_usb.c ****       USBx_INEP(epnum)->DIEPTSIZ &= ~(USB_OTG_DIEPTSIZ_XFRSIZ);
 707:Drivers/STM32L4xx_HAL_Driver/Src/stm32l4xx_ll_usb.c ****       USBx_INEP(epnum)->DIEPTSIZ &= ~(USB_OTG_DIEPTSIZ_PKTCNT);
 708:Drivers/STM32L4xx_HAL_Driver/Src/stm32l4xx_ll_usb.c ****       USBx_INEP(epnum)->DIEPTSIZ |= (USB_OTG_DIEPTSIZ_PKTCNT &
 709:Drivers/STM32L4xx_HAL_Driver/Src/stm32l4xx_ll_usb.c ****                                      (((ep->xfer_len + ep->maxpacket - 1U) / ep->maxpacket) << 19))
 710:Drivers/STM32L4xx_HAL_Driver/Src/stm32l4xx_ll_usb.c **** 
 711:Drivers/STM32L4xx_HAL_Driver/Src/stm32l4xx_ll_usb.c ****       USBx_INEP(epnum)->DIEPTSIZ |= (USB_OTG_DIEPTSIZ_XFRSIZ & ep->xfer_len);
 712:Drivers/STM32L4xx_HAL_Driver/Src/stm32l4xx_ll_usb.c **** 
 713:Drivers/STM32L4xx_HAL_Driver/Src/stm32l4xx_ll_usb.c ****       if (ep->type == EP_TYPE_ISOC)
 714:Drivers/STM32L4xx_HAL_Driver/Src/stm32l4xx_ll_usb.c ****       {
ARM GAS  /tmp/ccS8Yg0I.s 			page 14


 715:Drivers/STM32L4xx_HAL_Driver/Src/stm32l4xx_ll_usb.c ****         USBx_INEP(epnum)->DIEPTSIZ &= ~(USB_OTG_DIEPTSIZ_MULCNT);
 716:Drivers/STM32L4xx_HAL_Driver/Src/stm32l4xx_ll_usb.c ****         USBx_INEP(epnum)->DIEPTSIZ |= (USB_OTG_DIEPTSIZ_MULCNT & (1U << 29));
 717:Drivers/STM32L4xx_HAL_Driver/Src/stm32l4xx_ll_usb.c ****       }
 718:Drivers/STM32L4xx_HAL_Driver/Src/stm32l4xx_ll_usb.c ****     }
 719:Drivers/STM32L4xx_HAL_Driver/Src/stm32l4xx_ll_usb.c ****     /* EP enable, IN data in FIFO */
 720:Drivers/STM32L4xx_HAL_Driver/Src/stm32l4xx_ll_usb.c ****     USBx_INEP(epnum)->DIEPCTL |= (USB_OTG_DIEPCTL_CNAK | USB_OTG_DIEPCTL_EPENA);
 721:Drivers/STM32L4xx_HAL_Driver/Src/stm32l4xx_ll_usb.c **** 
 722:Drivers/STM32L4xx_HAL_Driver/Src/stm32l4xx_ll_usb.c ****     if (ep->type != EP_TYPE_ISOC)
 723:Drivers/STM32L4xx_HAL_Driver/Src/stm32l4xx_ll_usb.c ****     {
 724:Drivers/STM32L4xx_HAL_Driver/Src/stm32l4xx_ll_usb.c ****       /* Enable the Tx FIFO Empty Interrupt for this EP */
 725:Drivers/STM32L4xx_HAL_Driver/Src/stm32l4xx_ll_usb.c ****       if (ep->xfer_len > 0U)
 726:Drivers/STM32L4xx_HAL_Driver/Src/stm32l4xx_ll_usb.c ****       {
 727:Drivers/STM32L4xx_HAL_Driver/Src/stm32l4xx_ll_usb.c ****         USBx_DEVICE->DIEPEMPMSK |= 1UL << (ep->num & EP_ADDR_MSK);
 728:Drivers/STM32L4xx_HAL_Driver/Src/stm32l4xx_ll_usb.c ****       }
 729:Drivers/STM32L4xx_HAL_Driver/Src/stm32l4xx_ll_usb.c ****     }
 730:Drivers/STM32L4xx_HAL_Driver/Src/stm32l4xx_ll_usb.c ****     else
 731:Drivers/STM32L4xx_HAL_Driver/Src/stm32l4xx_ll_usb.c ****     {
 732:Drivers/STM32L4xx_HAL_Driver/Src/stm32l4xx_ll_usb.c ****       if ((USBx_DEVICE->DSTS & (1U << 8)) == 0U)
 733:Drivers/STM32L4xx_HAL_Driver/Src/stm32l4xx_ll_usb.c ****       {
 734:Drivers/STM32L4xx_HAL_Driver/Src/stm32l4xx_ll_usb.c ****         USBx_INEP(epnum)->DIEPCTL |= USB_OTG_DIEPCTL_SODDFRM;
 735:Drivers/STM32L4xx_HAL_Driver/Src/stm32l4xx_ll_usb.c ****       }
 736:Drivers/STM32L4xx_HAL_Driver/Src/stm32l4xx_ll_usb.c ****       else
 737:Drivers/STM32L4xx_HAL_Driver/Src/stm32l4xx_ll_usb.c ****       {
 738:Drivers/STM32L4xx_HAL_Driver/Src/stm32l4xx_ll_usb.c ****         USBx_INEP(epnum)->DIEPCTL |= USB_OTG_DIEPCTL_SD0PID_SEVNFRM;
 739:Drivers/STM32L4xx_HAL_Driver/Src/stm32l4xx_ll_usb.c ****       }
 740:Drivers/STM32L4xx_HAL_Driver/Src/stm32l4xx_ll_usb.c **** 
 741:Drivers/STM32L4xx_HAL_Driver/Src/stm32l4xx_ll_usb.c ****       (void)USB_WritePacket(USBx, ep->xfer_buff, ep->num, (uint16_t)ep->xfer_len);
 742:Drivers/STM32L4xx_HAL_Driver/Src/stm32l4xx_ll_usb.c ****     }
 743:Drivers/STM32L4xx_HAL_Driver/Src/stm32l4xx_ll_usb.c ****   }
 744:Drivers/STM32L4xx_HAL_Driver/Src/stm32l4xx_ll_usb.c ****   else /* OUT endpoint */
 745:Drivers/STM32L4xx_HAL_Driver/Src/stm32l4xx_ll_usb.c ****   {
 746:Drivers/STM32L4xx_HAL_Driver/Src/stm32l4xx_ll_usb.c ****     /* Program the transfer size and packet count as follows:
 747:Drivers/STM32L4xx_HAL_Driver/Src/stm32l4xx_ll_usb.c ****     * pktcnt = N
 748:Drivers/STM32L4xx_HAL_Driver/Src/stm32l4xx_ll_usb.c ****     * xfersize = N * maxpacket
 749:Drivers/STM32L4xx_HAL_Driver/Src/stm32l4xx_ll_usb.c ****     */
 750:Drivers/STM32L4xx_HAL_Driver/Src/stm32l4xx_ll_usb.c ****     USBx_OUTEP(epnum)->DOEPTSIZ &= ~(USB_OTG_DOEPTSIZ_XFRSIZ);
 751:Drivers/STM32L4xx_HAL_Driver/Src/stm32l4xx_ll_usb.c ****     USBx_OUTEP(epnum)->DOEPTSIZ &= ~(USB_OTG_DOEPTSIZ_PKTCNT);
 752:Drivers/STM32L4xx_HAL_Driver/Src/stm32l4xx_ll_usb.c **** 
 753:Drivers/STM32L4xx_HAL_Driver/Src/stm32l4xx_ll_usb.c ****     if (ep->xfer_len == 0U)
 754:Drivers/STM32L4xx_HAL_Driver/Src/stm32l4xx_ll_usb.c ****     {
 755:Drivers/STM32L4xx_HAL_Driver/Src/stm32l4xx_ll_usb.c ****       USBx_OUTEP(epnum)->DOEPTSIZ |= (USB_OTG_DOEPTSIZ_XFRSIZ & ep->maxpacket);
 756:Drivers/STM32L4xx_HAL_Driver/Src/stm32l4xx_ll_usb.c ****       USBx_OUTEP(epnum)->DOEPTSIZ |= (USB_OTG_DOEPTSIZ_PKTCNT & (1U << 19));
 757:Drivers/STM32L4xx_HAL_Driver/Src/stm32l4xx_ll_usb.c ****     }
 758:Drivers/STM32L4xx_HAL_Driver/Src/stm32l4xx_ll_usb.c ****     else
 759:Drivers/STM32L4xx_HAL_Driver/Src/stm32l4xx_ll_usb.c ****     {
 760:Drivers/STM32L4xx_HAL_Driver/Src/stm32l4xx_ll_usb.c ****       pktcnt = (uint16_t)((ep->xfer_len + ep->maxpacket - 1U) / ep->maxpacket);
 761:Drivers/STM32L4xx_HAL_Driver/Src/stm32l4xx_ll_usb.c ****       ep->xfer_size = ep->maxpacket * pktcnt;
 762:Drivers/STM32L4xx_HAL_Driver/Src/stm32l4xx_ll_usb.c **** 
 763:Drivers/STM32L4xx_HAL_Driver/Src/stm32l4xx_ll_usb.c ****       USBx_OUTEP(epnum)->DOEPTSIZ |= USB_OTG_DOEPTSIZ_PKTCNT & ((uint32_t)pktcnt << 19);
 764:Drivers/STM32L4xx_HAL_Driver/Src/stm32l4xx_ll_usb.c ****       USBx_OUTEP(epnum)->DOEPTSIZ |= USB_OTG_DOEPTSIZ_XFRSIZ & ep->xfer_size;
 765:Drivers/STM32L4xx_HAL_Driver/Src/stm32l4xx_ll_usb.c ****     }
 766:Drivers/STM32L4xx_HAL_Driver/Src/stm32l4xx_ll_usb.c **** 
 767:Drivers/STM32L4xx_HAL_Driver/Src/stm32l4xx_ll_usb.c ****     if (ep->type == EP_TYPE_ISOC)
 768:Drivers/STM32L4xx_HAL_Driver/Src/stm32l4xx_ll_usb.c ****     {
 769:Drivers/STM32L4xx_HAL_Driver/Src/stm32l4xx_ll_usb.c ****       if ((USBx_DEVICE->DSTS & (1U << 8)) == 0U)
 770:Drivers/STM32L4xx_HAL_Driver/Src/stm32l4xx_ll_usb.c ****       {
 771:Drivers/STM32L4xx_HAL_Driver/Src/stm32l4xx_ll_usb.c ****         USBx_OUTEP(epnum)->DOEPCTL |= USB_OTG_DOEPCTL_SODDFRM;
ARM GAS  /tmp/ccS8Yg0I.s 			page 15


 772:Drivers/STM32L4xx_HAL_Driver/Src/stm32l4xx_ll_usb.c ****       }
 773:Drivers/STM32L4xx_HAL_Driver/Src/stm32l4xx_ll_usb.c ****       else
 774:Drivers/STM32L4xx_HAL_Driver/Src/stm32l4xx_ll_usb.c ****       {
 775:Drivers/STM32L4xx_HAL_Driver/Src/stm32l4xx_ll_usb.c ****         USBx_OUTEP(epnum)->DOEPCTL |= USB_OTG_DOEPCTL_SD0PID_SEVNFRM;
 776:Drivers/STM32L4xx_HAL_Driver/Src/stm32l4xx_ll_usb.c ****       }
 777:Drivers/STM32L4xx_HAL_Driver/Src/stm32l4xx_ll_usb.c ****     }
 778:Drivers/STM32L4xx_HAL_Driver/Src/stm32l4xx_ll_usb.c ****     /* EP enable */
 779:Drivers/STM32L4xx_HAL_Driver/Src/stm32l4xx_ll_usb.c ****     USBx_OUTEP(epnum)->DOEPCTL |= (USB_OTG_DOEPCTL_CNAK | USB_OTG_DOEPCTL_EPENA);
 780:Drivers/STM32L4xx_HAL_Driver/Src/stm32l4xx_ll_usb.c ****   }
 781:Drivers/STM32L4xx_HAL_Driver/Src/stm32l4xx_ll_usb.c **** 
 782:Drivers/STM32L4xx_HAL_Driver/Src/stm32l4xx_ll_usb.c ****   return HAL_OK;
 783:Drivers/STM32L4xx_HAL_Driver/Src/stm32l4xx_ll_usb.c **** }
 784:Drivers/STM32L4xx_HAL_Driver/Src/stm32l4xx_ll_usb.c **** 
 785:Drivers/STM32L4xx_HAL_Driver/Src/stm32l4xx_ll_usb.c **** /**
 786:Drivers/STM32L4xx_HAL_Driver/Src/stm32l4xx_ll_usb.c ****   * @brief  USB_EP0StartXfer : setup and starts a transfer over the EP  0
 787:Drivers/STM32L4xx_HAL_Driver/Src/stm32l4xx_ll_usb.c ****   * @param  USBx  Selected device
 788:Drivers/STM32L4xx_HAL_Driver/Src/stm32l4xx_ll_usb.c ****   * @param  ep pointer to endpoint structure
 789:Drivers/STM32L4xx_HAL_Driver/Src/stm32l4xx_ll_usb.c ****   * @retval HAL status
 790:Drivers/STM32L4xx_HAL_Driver/Src/stm32l4xx_ll_usb.c ****   */
 791:Drivers/STM32L4xx_HAL_Driver/Src/stm32l4xx_ll_usb.c **** HAL_StatusTypeDef USB_EP0StartXfer(USB_OTG_GlobalTypeDef *USBx, USB_OTG_EPTypeDef *ep)
 792:Drivers/STM32L4xx_HAL_Driver/Src/stm32l4xx_ll_usb.c **** {
 793:Drivers/STM32L4xx_HAL_Driver/Src/stm32l4xx_ll_usb.c ****   uint32_t USBx_BASE = (uint32_t)USBx;
 794:Drivers/STM32L4xx_HAL_Driver/Src/stm32l4xx_ll_usb.c ****   uint32_t epnum = (uint32_t)ep->num;
 795:Drivers/STM32L4xx_HAL_Driver/Src/stm32l4xx_ll_usb.c **** 
 796:Drivers/STM32L4xx_HAL_Driver/Src/stm32l4xx_ll_usb.c ****   /* IN endpoint */
 797:Drivers/STM32L4xx_HAL_Driver/Src/stm32l4xx_ll_usb.c ****   if (ep->is_in == 1U)
 798:Drivers/STM32L4xx_HAL_Driver/Src/stm32l4xx_ll_usb.c ****   {
 799:Drivers/STM32L4xx_HAL_Driver/Src/stm32l4xx_ll_usb.c ****     /* Zero Length Packet? */
 800:Drivers/STM32L4xx_HAL_Driver/Src/stm32l4xx_ll_usb.c ****     if (ep->xfer_len == 0U)
 801:Drivers/STM32L4xx_HAL_Driver/Src/stm32l4xx_ll_usb.c ****     {
 802:Drivers/STM32L4xx_HAL_Driver/Src/stm32l4xx_ll_usb.c ****       USBx_INEP(epnum)->DIEPTSIZ &= ~(USB_OTG_DIEPTSIZ_PKTCNT);
 803:Drivers/STM32L4xx_HAL_Driver/Src/stm32l4xx_ll_usb.c ****       USBx_INEP(epnum)->DIEPTSIZ |= (USB_OTG_DIEPTSIZ_PKTCNT & (1U << 19));
 804:Drivers/STM32L4xx_HAL_Driver/Src/stm32l4xx_ll_usb.c ****       USBx_INEP(epnum)->DIEPTSIZ &= ~(USB_OTG_DIEPTSIZ_XFRSIZ);
 805:Drivers/STM32L4xx_HAL_Driver/Src/stm32l4xx_ll_usb.c ****     }
 806:Drivers/STM32L4xx_HAL_Driver/Src/stm32l4xx_ll_usb.c ****     else
 807:Drivers/STM32L4xx_HAL_Driver/Src/stm32l4xx_ll_usb.c ****     {
 808:Drivers/STM32L4xx_HAL_Driver/Src/stm32l4xx_ll_usb.c ****       /* Program the transfer size and packet count
 809:Drivers/STM32L4xx_HAL_Driver/Src/stm32l4xx_ll_usb.c ****       * as follows: xfersize = N * maxpacket +
 810:Drivers/STM32L4xx_HAL_Driver/Src/stm32l4xx_ll_usb.c ****       * short_packet pktcnt = N + (short_packet
 811:Drivers/STM32L4xx_HAL_Driver/Src/stm32l4xx_ll_usb.c ****       * exist ? 1 : 0)
 812:Drivers/STM32L4xx_HAL_Driver/Src/stm32l4xx_ll_usb.c ****       */
 813:Drivers/STM32L4xx_HAL_Driver/Src/stm32l4xx_ll_usb.c ****       USBx_INEP(epnum)->DIEPTSIZ &= ~(USB_OTG_DIEPTSIZ_XFRSIZ);
 814:Drivers/STM32L4xx_HAL_Driver/Src/stm32l4xx_ll_usb.c ****       USBx_INEP(epnum)->DIEPTSIZ &= ~(USB_OTG_DIEPTSIZ_PKTCNT);
 815:Drivers/STM32L4xx_HAL_Driver/Src/stm32l4xx_ll_usb.c **** 
 816:Drivers/STM32L4xx_HAL_Driver/Src/stm32l4xx_ll_usb.c ****       if (ep->xfer_len > ep->maxpacket)
 817:Drivers/STM32L4xx_HAL_Driver/Src/stm32l4xx_ll_usb.c ****       {
 818:Drivers/STM32L4xx_HAL_Driver/Src/stm32l4xx_ll_usb.c ****         ep->xfer_len = ep->maxpacket;
 819:Drivers/STM32L4xx_HAL_Driver/Src/stm32l4xx_ll_usb.c ****       }
 820:Drivers/STM32L4xx_HAL_Driver/Src/stm32l4xx_ll_usb.c ****       USBx_INEP(epnum)->DIEPTSIZ |= (USB_OTG_DIEPTSIZ_PKTCNT & (1U << 19));
 821:Drivers/STM32L4xx_HAL_Driver/Src/stm32l4xx_ll_usb.c ****       USBx_INEP(epnum)->DIEPTSIZ |= (USB_OTG_DIEPTSIZ_XFRSIZ & ep->xfer_len);
 822:Drivers/STM32L4xx_HAL_Driver/Src/stm32l4xx_ll_usb.c ****     }
 823:Drivers/STM32L4xx_HAL_Driver/Src/stm32l4xx_ll_usb.c **** 
 824:Drivers/STM32L4xx_HAL_Driver/Src/stm32l4xx_ll_usb.c ****     /* EP enable, IN data in FIFO */
 825:Drivers/STM32L4xx_HAL_Driver/Src/stm32l4xx_ll_usb.c ****     USBx_INEP(epnum)->DIEPCTL |= (USB_OTG_DIEPCTL_CNAK | USB_OTG_DIEPCTL_EPENA);
 826:Drivers/STM32L4xx_HAL_Driver/Src/stm32l4xx_ll_usb.c **** 
 827:Drivers/STM32L4xx_HAL_Driver/Src/stm32l4xx_ll_usb.c ****     /* Enable the Tx FIFO Empty Interrupt for this EP */
 828:Drivers/STM32L4xx_HAL_Driver/Src/stm32l4xx_ll_usb.c ****     if (ep->xfer_len > 0U)
ARM GAS  /tmp/ccS8Yg0I.s 			page 16


 829:Drivers/STM32L4xx_HAL_Driver/Src/stm32l4xx_ll_usb.c ****     {
 830:Drivers/STM32L4xx_HAL_Driver/Src/stm32l4xx_ll_usb.c ****       USBx_DEVICE->DIEPEMPMSK |= 1UL << (ep->num & EP_ADDR_MSK);
 831:Drivers/STM32L4xx_HAL_Driver/Src/stm32l4xx_ll_usb.c ****     }
 832:Drivers/STM32L4xx_HAL_Driver/Src/stm32l4xx_ll_usb.c ****   }
 833:Drivers/STM32L4xx_HAL_Driver/Src/stm32l4xx_ll_usb.c ****   else /* OUT endpoint */
 834:Drivers/STM32L4xx_HAL_Driver/Src/stm32l4xx_ll_usb.c ****   {
 835:Drivers/STM32L4xx_HAL_Driver/Src/stm32l4xx_ll_usb.c ****     /* Program the transfer size and packet count as follows:
 836:Drivers/STM32L4xx_HAL_Driver/Src/stm32l4xx_ll_usb.c ****     * pktcnt = N
 837:Drivers/STM32L4xx_HAL_Driver/Src/stm32l4xx_ll_usb.c ****     * xfersize = N * maxpacket
 838:Drivers/STM32L4xx_HAL_Driver/Src/stm32l4xx_ll_usb.c ****     */
 839:Drivers/STM32L4xx_HAL_Driver/Src/stm32l4xx_ll_usb.c ****     USBx_OUTEP(epnum)->DOEPTSIZ &= ~(USB_OTG_DOEPTSIZ_XFRSIZ);
 840:Drivers/STM32L4xx_HAL_Driver/Src/stm32l4xx_ll_usb.c ****     USBx_OUTEP(epnum)->DOEPTSIZ &= ~(USB_OTG_DOEPTSIZ_PKTCNT);
 841:Drivers/STM32L4xx_HAL_Driver/Src/stm32l4xx_ll_usb.c **** 
 842:Drivers/STM32L4xx_HAL_Driver/Src/stm32l4xx_ll_usb.c ****     if (ep->xfer_len > 0U)
 843:Drivers/STM32L4xx_HAL_Driver/Src/stm32l4xx_ll_usb.c ****     {
 844:Drivers/STM32L4xx_HAL_Driver/Src/stm32l4xx_ll_usb.c ****       ep->xfer_len = ep->maxpacket;
 845:Drivers/STM32L4xx_HAL_Driver/Src/stm32l4xx_ll_usb.c ****     }
 846:Drivers/STM32L4xx_HAL_Driver/Src/stm32l4xx_ll_usb.c **** 
 847:Drivers/STM32L4xx_HAL_Driver/Src/stm32l4xx_ll_usb.c ****     /* Store transfer size, for EP0 this is equal to endpoint max packet size */
 848:Drivers/STM32L4xx_HAL_Driver/Src/stm32l4xx_ll_usb.c ****     ep->xfer_size = ep->maxpacket;
 849:Drivers/STM32L4xx_HAL_Driver/Src/stm32l4xx_ll_usb.c **** 
 850:Drivers/STM32L4xx_HAL_Driver/Src/stm32l4xx_ll_usb.c ****     USBx_OUTEP(epnum)->DOEPTSIZ |= (USB_OTG_DOEPTSIZ_PKTCNT & (1U << 19));
 851:Drivers/STM32L4xx_HAL_Driver/Src/stm32l4xx_ll_usb.c ****     USBx_OUTEP(epnum)->DOEPTSIZ |= (USB_OTG_DOEPTSIZ_XFRSIZ & ep->xfer_size);
 852:Drivers/STM32L4xx_HAL_Driver/Src/stm32l4xx_ll_usb.c **** 
 853:Drivers/STM32L4xx_HAL_Driver/Src/stm32l4xx_ll_usb.c ****     /* EP enable */
 854:Drivers/STM32L4xx_HAL_Driver/Src/stm32l4xx_ll_usb.c ****     USBx_OUTEP(epnum)->DOEPCTL |= (USB_OTG_DOEPCTL_CNAK | USB_OTG_DOEPCTL_EPENA);
 855:Drivers/STM32L4xx_HAL_Driver/Src/stm32l4xx_ll_usb.c ****   }
 856:Drivers/STM32L4xx_HAL_Driver/Src/stm32l4xx_ll_usb.c **** 
 857:Drivers/STM32L4xx_HAL_Driver/Src/stm32l4xx_ll_usb.c ****   return HAL_OK;
 858:Drivers/STM32L4xx_HAL_Driver/Src/stm32l4xx_ll_usb.c **** }
 859:Drivers/STM32L4xx_HAL_Driver/Src/stm32l4xx_ll_usb.c **** 
 860:Drivers/STM32L4xx_HAL_Driver/Src/stm32l4xx_ll_usb.c **** 
 861:Drivers/STM32L4xx_HAL_Driver/Src/stm32l4xx_ll_usb.c **** /**
 862:Drivers/STM32L4xx_HAL_Driver/Src/stm32l4xx_ll_usb.c ****    * @brief  USB_EPStoptXfer  Stop transfer on an EP
 863:Drivers/STM32L4xx_HAL_Driver/Src/stm32l4xx_ll_usb.c ****    * @param  USBx  usb device instance
 864:Drivers/STM32L4xx_HAL_Driver/Src/stm32l4xx_ll_usb.c ****    * @param  ep pointer to endpoint structure
 865:Drivers/STM32L4xx_HAL_Driver/Src/stm32l4xx_ll_usb.c ****    * @retval HAL status
 866:Drivers/STM32L4xx_HAL_Driver/Src/stm32l4xx_ll_usb.c ****    */
 867:Drivers/STM32L4xx_HAL_Driver/Src/stm32l4xx_ll_usb.c **** HAL_StatusTypeDef USB_EPStopXfer(USB_OTG_GlobalTypeDef *USBx, USB_OTG_EPTypeDef *ep)
 868:Drivers/STM32L4xx_HAL_Driver/Src/stm32l4xx_ll_usb.c **** {
 869:Drivers/STM32L4xx_HAL_Driver/Src/stm32l4xx_ll_usb.c ****   __IO uint32_t count = 0U;
 870:Drivers/STM32L4xx_HAL_Driver/Src/stm32l4xx_ll_usb.c ****   HAL_StatusTypeDef ret = HAL_OK;
 871:Drivers/STM32L4xx_HAL_Driver/Src/stm32l4xx_ll_usb.c ****   uint32_t USBx_BASE = (uint32_t)USBx;
 872:Drivers/STM32L4xx_HAL_Driver/Src/stm32l4xx_ll_usb.c **** 
 873:Drivers/STM32L4xx_HAL_Driver/Src/stm32l4xx_ll_usb.c ****   /* IN endpoint */
 874:Drivers/STM32L4xx_HAL_Driver/Src/stm32l4xx_ll_usb.c ****   if (ep->is_in == 1U)
 875:Drivers/STM32L4xx_HAL_Driver/Src/stm32l4xx_ll_usb.c ****   {
 876:Drivers/STM32L4xx_HAL_Driver/Src/stm32l4xx_ll_usb.c ****     /* EP enable, IN data in FIFO */
 877:Drivers/STM32L4xx_HAL_Driver/Src/stm32l4xx_ll_usb.c ****     if (((USBx_INEP(ep->num)->DIEPCTL) & USB_OTG_DIEPCTL_EPENA) == USB_OTG_DIEPCTL_EPENA)
 878:Drivers/STM32L4xx_HAL_Driver/Src/stm32l4xx_ll_usb.c ****     {
 879:Drivers/STM32L4xx_HAL_Driver/Src/stm32l4xx_ll_usb.c ****       USBx_INEP(ep->num)->DIEPCTL |= (USB_OTG_DIEPCTL_SNAK);
 880:Drivers/STM32L4xx_HAL_Driver/Src/stm32l4xx_ll_usb.c ****       USBx_INEP(ep->num)->DIEPCTL |= (USB_OTG_DIEPCTL_EPDIS);
 881:Drivers/STM32L4xx_HAL_Driver/Src/stm32l4xx_ll_usb.c **** 
 882:Drivers/STM32L4xx_HAL_Driver/Src/stm32l4xx_ll_usb.c ****       do
 883:Drivers/STM32L4xx_HAL_Driver/Src/stm32l4xx_ll_usb.c ****       {
 884:Drivers/STM32L4xx_HAL_Driver/Src/stm32l4xx_ll_usb.c ****         count++;
 885:Drivers/STM32L4xx_HAL_Driver/Src/stm32l4xx_ll_usb.c **** 
ARM GAS  /tmp/ccS8Yg0I.s 			page 17


 886:Drivers/STM32L4xx_HAL_Driver/Src/stm32l4xx_ll_usb.c ****         if (count > 10000U)
 887:Drivers/STM32L4xx_HAL_Driver/Src/stm32l4xx_ll_usb.c ****         {
 888:Drivers/STM32L4xx_HAL_Driver/Src/stm32l4xx_ll_usb.c ****           ret = HAL_ERROR;
 889:Drivers/STM32L4xx_HAL_Driver/Src/stm32l4xx_ll_usb.c ****           break;
 890:Drivers/STM32L4xx_HAL_Driver/Src/stm32l4xx_ll_usb.c ****         }
 891:Drivers/STM32L4xx_HAL_Driver/Src/stm32l4xx_ll_usb.c ****       } while (((USBx_INEP(ep->num)->DIEPCTL) & USB_OTG_DIEPCTL_EPENA) ==  USB_OTG_DIEPCTL_EPENA);
 892:Drivers/STM32L4xx_HAL_Driver/Src/stm32l4xx_ll_usb.c ****     }
 893:Drivers/STM32L4xx_HAL_Driver/Src/stm32l4xx_ll_usb.c ****   }
 894:Drivers/STM32L4xx_HAL_Driver/Src/stm32l4xx_ll_usb.c ****   else /* OUT endpoint */
 895:Drivers/STM32L4xx_HAL_Driver/Src/stm32l4xx_ll_usb.c ****   {
 896:Drivers/STM32L4xx_HAL_Driver/Src/stm32l4xx_ll_usb.c ****     if (((USBx_OUTEP(ep->num)->DOEPCTL) & USB_OTG_DOEPCTL_EPENA) == USB_OTG_DOEPCTL_EPENA)
 897:Drivers/STM32L4xx_HAL_Driver/Src/stm32l4xx_ll_usb.c ****     {
 898:Drivers/STM32L4xx_HAL_Driver/Src/stm32l4xx_ll_usb.c ****       USBx_OUTEP(ep->num)->DOEPCTL |= (USB_OTG_DOEPCTL_SNAK);
 899:Drivers/STM32L4xx_HAL_Driver/Src/stm32l4xx_ll_usb.c ****       USBx_OUTEP(ep->num)->DOEPCTL |= (USB_OTG_DOEPCTL_EPDIS);
 900:Drivers/STM32L4xx_HAL_Driver/Src/stm32l4xx_ll_usb.c **** 
 901:Drivers/STM32L4xx_HAL_Driver/Src/stm32l4xx_ll_usb.c ****       do
 902:Drivers/STM32L4xx_HAL_Driver/Src/stm32l4xx_ll_usb.c ****       {
 903:Drivers/STM32L4xx_HAL_Driver/Src/stm32l4xx_ll_usb.c ****         count++;
 904:Drivers/STM32L4xx_HAL_Driver/Src/stm32l4xx_ll_usb.c **** 
 905:Drivers/STM32L4xx_HAL_Driver/Src/stm32l4xx_ll_usb.c ****         if (count > 10000U)
 906:Drivers/STM32L4xx_HAL_Driver/Src/stm32l4xx_ll_usb.c ****         {
 907:Drivers/STM32L4xx_HAL_Driver/Src/stm32l4xx_ll_usb.c ****           ret = HAL_ERROR;
 908:Drivers/STM32L4xx_HAL_Driver/Src/stm32l4xx_ll_usb.c ****           break;
 909:Drivers/STM32L4xx_HAL_Driver/Src/stm32l4xx_ll_usb.c ****         }
 910:Drivers/STM32L4xx_HAL_Driver/Src/stm32l4xx_ll_usb.c ****       } while (((USBx_OUTEP(ep->num)->DOEPCTL) & USB_OTG_DOEPCTL_EPENA) ==  USB_OTG_DOEPCTL_EPENA);
 911:Drivers/STM32L4xx_HAL_Driver/Src/stm32l4xx_ll_usb.c ****     }
 912:Drivers/STM32L4xx_HAL_Driver/Src/stm32l4xx_ll_usb.c ****   }
 913:Drivers/STM32L4xx_HAL_Driver/Src/stm32l4xx_ll_usb.c **** 
 914:Drivers/STM32L4xx_HAL_Driver/Src/stm32l4xx_ll_usb.c ****   return ret;
 915:Drivers/STM32L4xx_HAL_Driver/Src/stm32l4xx_ll_usb.c **** }
 916:Drivers/STM32L4xx_HAL_Driver/Src/stm32l4xx_ll_usb.c **** 
 917:Drivers/STM32L4xx_HAL_Driver/Src/stm32l4xx_ll_usb.c **** 
 918:Drivers/STM32L4xx_HAL_Driver/Src/stm32l4xx_ll_usb.c **** /**
 919:Drivers/STM32L4xx_HAL_Driver/Src/stm32l4xx_ll_usb.c ****   * @brief  USB_WritePacket : Writes a packet into the Tx FIFO associated
 920:Drivers/STM32L4xx_HAL_Driver/Src/stm32l4xx_ll_usb.c ****   *         with the EP/channel
 921:Drivers/STM32L4xx_HAL_Driver/Src/stm32l4xx_ll_usb.c ****   * @param  USBx  Selected device
 922:Drivers/STM32L4xx_HAL_Driver/Src/stm32l4xx_ll_usb.c ****   * @param  src   pointer to source buffer
 923:Drivers/STM32L4xx_HAL_Driver/Src/stm32l4xx_ll_usb.c ****   * @param  ch_ep_num  endpoint or host channel number
 924:Drivers/STM32L4xx_HAL_Driver/Src/stm32l4xx_ll_usb.c ****   * @param  len  Number of bytes to write
 925:Drivers/STM32L4xx_HAL_Driver/Src/stm32l4xx_ll_usb.c ****   * @retval HAL status
 926:Drivers/STM32L4xx_HAL_Driver/Src/stm32l4xx_ll_usb.c ****   */
 927:Drivers/STM32L4xx_HAL_Driver/Src/stm32l4xx_ll_usb.c **** HAL_StatusTypeDef USB_WritePacket(USB_OTG_GlobalTypeDef *USBx, uint8_t *src,
 928:Drivers/STM32L4xx_HAL_Driver/Src/stm32l4xx_ll_usb.c ****                                   uint8_t ch_ep_num, uint16_t len)
 929:Drivers/STM32L4xx_HAL_Driver/Src/stm32l4xx_ll_usb.c **** {
 930:Drivers/STM32L4xx_HAL_Driver/Src/stm32l4xx_ll_usb.c ****   uint32_t USBx_BASE = (uint32_t)USBx;
 931:Drivers/STM32L4xx_HAL_Driver/Src/stm32l4xx_ll_usb.c ****   uint8_t *pSrc = src;
 932:Drivers/STM32L4xx_HAL_Driver/Src/stm32l4xx_ll_usb.c ****   uint32_t count32b;
 933:Drivers/STM32L4xx_HAL_Driver/Src/stm32l4xx_ll_usb.c ****   uint32_t i;
 934:Drivers/STM32L4xx_HAL_Driver/Src/stm32l4xx_ll_usb.c **** 
 935:Drivers/STM32L4xx_HAL_Driver/Src/stm32l4xx_ll_usb.c ****   count32b = ((uint32_t)len + 3U) / 4U;
 936:Drivers/STM32L4xx_HAL_Driver/Src/stm32l4xx_ll_usb.c ****   for (i = 0U; i < count32b; i++)
 937:Drivers/STM32L4xx_HAL_Driver/Src/stm32l4xx_ll_usb.c ****   {
 938:Drivers/STM32L4xx_HAL_Driver/Src/stm32l4xx_ll_usb.c ****     USBx_DFIFO((uint32_t)ch_ep_num) = __UNALIGNED_UINT32_READ(pSrc);
 939:Drivers/STM32L4xx_HAL_Driver/Src/stm32l4xx_ll_usb.c ****     pSrc++;
 940:Drivers/STM32L4xx_HAL_Driver/Src/stm32l4xx_ll_usb.c ****     pSrc++;
 941:Drivers/STM32L4xx_HAL_Driver/Src/stm32l4xx_ll_usb.c ****     pSrc++;
 942:Drivers/STM32L4xx_HAL_Driver/Src/stm32l4xx_ll_usb.c ****     pSrc++;
ARM GAS  /tmp/ccS8Yg0I.s 			page 18


 943:Drivers/STM32L4xx_HAL_Driver/Src/stm32l4xx_ll_usb.c ****   }
 944:Drivers/STM32L4xx_HAL_Driver/Src/stm32l4xx_ll_usb.c **** 
 945:Drivers/STM32L4xx_HAL_Driver/Src/stm32l4xx_ll_usb.c ****   return HAL_OK;
 946:Drivers/STM32L4xx_HAL_Driver/Src/stm32l4xx_ll_usb.c **** }
 947:Drivers/STM32L4xx_HAL_Driver/Src/stm32l4xx_ll_usb.c **** 
 948:Drivers/STM32L4xx_HAL_Driver/Src/stm32l4xx_ll_usb.c **** /**
 949:Drivers/STM32L4xx_HAL_Driver/Src/stm32l4xx_ll_usb.c ****   * @brief  USB_ReadPacket : read a packet from the RX FIFO
 950:Drivers/STM32L4xx_HAL_Driver/Src/stm32l4xx_ll_usb.c ****   * @param  USBx  Selected device
 951:Drivers/STM32L4xx_HAL_Driver/Src/stm32l4xx_ll_usb.c ****   * @param  dest  source pointer
 952:Drivers/STM32L4xx_HAL_Driver/Src/stm32l4xx_ll_usb.c ****   * @param  len  Number of bytes to read
 953:Drivers/STM32L4xx_HAL_Driver/Src/stm32l4xx_ll_usb.c ****   * @retval pointer to destination buffer
 954:Drivers/STM32L4xx_HAL_Driver/Src/stm32l4xx_ll_usb.c ****   */
 955:Drivers/STM32L4xx_HAL_Driver/Src/stm32l4xx_ll_usb.c **** void *USB_ReadPacket(USB_OTG_GlobalTypeDef *USBx, uint8_t *dest, uint16_t len)
 956:Drivers/STM32L4xx_HAL_Driver/Src/stm32l4xx_ll_usb.c **** {
 957:Drivers/STM32L4xx_HAL_Driver/Src/stm32l4xx_ll_usb.c ****   uint32_t USBx_BASE = (uint32_t)USBx;
 958:Drivers/STM32L4xx_HAL_Driver/Src/stm32l4xx_ll_usb.c ****   uint8_t *pDest = dest;
 959:Drivers/STM32L4xx_HAL_Driver/Src/stm32l4xx_ll_usb.c ****   uint32_t pData;
 960:Drivers/STM32L4xx_HAL_Driver/Src/stm32l4xx_ll_usb.c ****   uint32_t i;
 961:Drivers/STM32L4xx_HAL_Driver/Src/stm32l4xx_ll_usb.c ****   uint32_t count32b = (uint32_t)len >> 2U;
 962:Drivers/STM32L4xx_HAL_Driver/Src/stm32l4xx_ll_usb.c ****   uint16_t remaining_bytes = len % 4U;
 963:Drivers/STM32L4xx_HAL_Driver/Src/stm32l4xx_ll_usb.c **** 
 964:Drivers/STM32L4xx_HAL_Driver/Src/stm32l4xx_ll_usb.c ****   for (i = 0U; i < count32b; i++)
 965:Drivers/STM32L4xx_HAL_Driver/Src/stm32l4xx_ll_usb.c ****   {
 966:Drivers/STM32L4xx_HAL_Driver/Src/stm32l4xx_ll_usb.c ****     __UNALIGNED_UINT32_WRITE(pDest, USBx_DFIFO(0U));
 967:Drivers/STM32L4xx_HAL_Driver/Src/stm32l4xx_ll_usb.c ****     pDest++;
 968:Drivers/STM32L4xx_HAL_Driver/Src/stm32l4xx_ll_usb.c ****     pDest++;
 969:Drivers/STM32L4xx_HAL_Driver/Src/stm32l4xx_ll_usb.c ****     pDest++;
 970:Drivers/STM32L4xx_HAL_Driver/Src/stm32l4xx_ll_usb.c ****     pDest++;
 971:Drivers/STM32L4xx_HAL_Driver/Src/stm32l4xx_ll_usb.c ****   }
 972:Drivers/STM32L4xx_HAL_Driver/Src/stm32l4xx_ll_usb.c **** 
 973:Drivers/STM32L4xx_HAL_Driver/Src/stm32l4xx_ll_usb.c ****   /* When Number of data is not word aligned, read the remaining byte */
 974:Drivers/STM32L4xx_HAL_Driver/Src/stm32l4xx_ll_usb.c ****   if (remaining_bytes != 0U)
 975:Drivers/STM32L4xx_HAL_Driver/Src/stm32l4xx_ll_usb.c ****   {
 976:Drivers/STM32L4xx_HAL_Driver/Src/stm32l4xx_ll_usb.c ****     i = 0U;
 977:Drivers/STM32L4xx_HAL_Driver/Src/stm32l4xx_ll_usb.c ****     __UNALIGNED_UINT32_WRITE(&pData, USBx_DFIFO(0U));
 978:Drivers/STM32L4xx_HAL_Driver/Src/stm32l4xx_ll_usb.c **** 
 979:Drivers/STM32L4xx_HAL_Driver/Src/stm32l4xx_ll_usb.c ****     do
 980:Drivers/STM32L4xx_HAL_Driver/Src/stm32l4xx_ll_usb.c ****     {
 981:Drivers/STM32L4xx_HAL_Driver/Src/stm32l4xx_ll_usb.c ****       *(uint8_t *)pDest = (uint8_t)(pData >> (8U * (uint8_t)(i)));
 982:Drivers/STM32L4xx_HAL_Driver/Src/stm32l4xx_ll_usb.c ****       i++;
 983:Drivers/STM32L4xx_HAL_Driver/Src/stm32l4xx_ll_usb.c ****       pDest++;
 984:Drivers/STM32L4xx_HAL_Driver/Src/stm32l4xx_ll_usb.c ****       remaining_bytes--;
 985:Drivers/STM32L4xx_HAL_Driver/Src/stm32l4xx_ll_usb.c ****     } while (remaining_bytes != 0U);
 986:Drivers/STM32L4xx_HAL_Driver/Src/stm32l4xx_ll_usb.c ****   }
 987:Drivers/STM32L4xx_HAL_Driver/Src/stm32l4xx_ll_usb.c **** 
 988:Drivers/STM32L4xx_HAL_Driver/Src/stm32l4xx_ll_usb.c ****   return ((void *)pDest);
 989:Drivers/STM32L4xx_HAL_Driver/Src/stm32l4xx_ll_usb.c **** }
 990:Drivers/STM32L4xx_HAL_Driver/Src/stm32l4xx_ll_usb.c **** 
 991:Drivers/STM32L4xx_HAL_Driver/Src/stm32l4xx_ll_usb.c **** /**
 992:Drivers/STM32L4xx_HAL_Driver/Src/stm32l4xx_ll_usb.c ****   * @brief  USB_EPSetStall : set a stall condition over an EP
 993:Drivers/STM32L4xx_HAL_Driver/Src/stm32l4xx_ll_usb.c ****   * @param  USBx  Selected device
 994:Drivers/STM32L4xx_HAL_Driver/Src/stm32l4xx_ll_usb.c ****   * @param  ep pointer to endpoint structure
 995:Drivers/STM32L4xx_HAL_Driver/Src/stm32l4xx_ll_usb.c ****   * @retval HAL status
 996:Drivers/STM32L4xx_HAL_Driver/Src/stm32l4xx_ll_usb.c ****   */
 997:Drivers/STM32L4xx_HAL_Driver/Src/stm32l4xx_ll_usb.c **** HAL_StatusTypeDef USB_EPSetStall(USB_OTG_GlobalTypeDef *USBx, USB_OTG_EPTypeDef *ep)
 998:Drivers/STM32L4xx_HAL_Driver/Src/stm32l4xx_ll_usb.c **** {
 999:Drivers/STM32L4xx_HAL_Driver/Src/stm32l4xx_ll_usb.c ****   uint32_t USBx_BASE = (uint32_t)USBx;
ARM GAS  /tmp/ccS8Yg0I.s 			page 19


1000:Drivers/STM32L4xx_HAL_Driver/Src/stm32l4xx_ll_usb.c ****   uint32_t epnum = (uint32_t)ep->num;
1001:Drivers/STM32L4xx_HAL_Driver/Src/stm32l4xx_ll_usb.c **** 
1002:Drivers/STM32L4xx_HAL_Driver/Src/stm32l4xx_ll_usb.c ****   if (ep->is_in == 1U)
1003:Drivers/STM32L4xx_HAL_Driver/Src/stm32l4xx_ll_usb.c ****   {
1004:Drivers/STM32L4xx_HAL_Driver/Src/stm32l4xx_ll_usb.c ****     if (((USBx_INEP(epnum)->DIEPCTL & USB_OTG_DIEPCTL_EPENA) == 0U) && (epnum != 0U))
1005:Drivers/STM32L4xx_HAL_Driver/Src/stm32l4xx_ll_usb.c ****     {
1006:Drivers/STM32L4xx_HAL_Driver/Src/stm32l4xx_ll_usb.c ****       USBx_INEP(epnum)->DIEPCTL &= ~(USB_OTG_DIEPCTL_EPDIS);
1007:Drivers/STM32L4xx_HAL_Driver/Src/stm32l4xx_ll_usb.c ****     }
1008:Drivers/STM32L4xx_HAL_Driver/Src/stm32l4xx_ll_usb.c ****     USBx_INEP(epnum)->DIEPCTL |= USB_OTG_DIEPCTL_STALL;
1009:Drivers/STM32L4xx_HAL_Driver/Src/stm32l4xx_ll_usb.c ****   }
1010:Drivers/STM32L4xx_HAL_Driver/Src/stm32l4xx_ll_usb.c ****   else
1011:Drivers/STM32L4xx_HAL_Driver/Src/stm32l4xx_ll_usb.c ****   {
1012:Drivers/STM32L4xx_HAL_Driver/Src/stm32l4xx_ll_usb.c ****     if (((USBx_OUTEP(epnum)->DOEPCTL & USB_OTG_DOEPCTL_EPENA) == 0U) && (epnum != 0U))
1013:Drivers/STM32L4xx_HAL_Driver/Src/stm32l4xx_ll_usb.c ****     {
1014:Drivers/STM32L4xx_HAL_Driver/Src/stm32l4xx_ll_usb.c ****       USBx_OUTEP(epnum)->DOEPCTL &= ~(USB_OTG_DOEPCTL_EPDIS);
1015:Drivers/STM32L4xx_HAL_Driver/Src/stm32l4xx_ll_usb.c ****     }
1016:Drivers/STM32L4xx_HAL_Driver/Src/stm32l4xx_ll_usb.c ****     USBx_OUTEP(epnum)->DOEPCTL |= USB_OTG_DOEPCTL_STALL;
1017:Drivers/STM32L4xx_HAL_Driver/Src/stm32l4xx_ll_usb.c ****   }
1018:Drivers/STM32L4xx_HAL_Driver/Src/stm32l4xx_ll_usb.c **** 
1019:Drivers/STM32L4xx_HAL_Driver/Src/stm32l4xx_ll_usb.c ****   return HAL_OK;
1020:Drivers/STM32L4xx_HAL_Driver/Src/stm32l4xx_ll_usb.c **** }
1021:Drivers/STM32L4xx_HAL_Driver/Src/stm32l4xx_ll_usb.c **** 
1022:Drivers/STM32L4xx_HAL_Driver/Src/stm32l4xx_ll_usb.c **** /**
1023:Drivers/STM32L4xx_HAL_Driver/Src/stm32l4xx_ll_usb.c ****   * @brief  USB_EPClearStall : Clear a stall condition over an EP
1024:Drivers/STM32L4xx_HAL_Driver/Src/stm32l4xx_ll_usb.c ****   * @param  USBx  Selected device
1025:Drivers/STM32L4xx_HAL_Driver/Src/stm32l4xx_ll_usb.c ****   * @param  ep pointer to endpoint structure
1026:Drivers/STM32L4xx_HAL_Driver/Src/stm32l4xx_ll_usb.c ****   * @retval HAL status
1027:Drivers/STM32L4xx_HAL_Driver/Src/stm32l4xx_ll_usb.c ****   */
1028:Drivers/STM32L4xx_HAL_Driver/Src/stm32l4xx_ll_usb.c **** HAL_StatusTypeDef USB_EPClearStall(USB_OTG_GlobalTypeDef *USBx, USB_OTG_EPTypeDef *ep)
1029:Drivers/STM32L4xx_HAL_Driver/Src/stm32l4xx_ll_usb.c **** {
1030:Drivers/STM32L4xx_HAL_Driver/Src/stm32l4xx_ll_usb.c ****   uint32_t USBx_BASE = (uint32_t)USBx;
1031:Drivers/STM32L4xx_HAL_Driver/Src/stm32l4xx_ll_usb.c ****   uint32_t epnum = (uint32_t)ep->num;
1032:Drivers/STM32L4xx_HAL_Driver/Src/stm32l4xx_ll_usb.c **** 
1033:Drivers/STM32L4xx_HAL_Driver/Src/stm32l4xx_ll_usb.c ****   if (ep->is_in == 1U)
1034:Drivers/STM32L4xx_HAL_Driver/Src/stm32l4xx_ll_usb.c ****   {
1035:Drivers/STM32L4xx_HAL_Driver/Src/stm32l4xx_ll_usb.c ****     USBx_INEP(epnum)->DIEPCTL &= ~USB_OTG_DIEPCTL_STALL;
1036:Drivers/STM32L4xx_HAL_Driver/Src/stm32l4xx_ll_usb.c ****     if ((ep->type == EP_TYPE_INTR) || (ep->type == EP_TYPE_BULK))
1037:Drivers/STM32L4xx_HAL_Driver/Src/stm32l4xx_ll_usb.c ****     {
1038:Drivers/STM32L4xx_HAL_Driver/Src/stm32l4xx_ll_usb.c ****       USBx_INEP(epnum)->DIEPCTL |= USB_OTG_DIEPCTL_SD0PID_SEVNFRM; /* DATA0 */
1039:Drivers/STM32L4xx_HAL_Driver/Src/stm32l4xx_ll_usb.c ****     }
1040:Drivers/STM32L4xx_HAL_Driver/Src/stm32l4xx_ll_usb.c ****   }
1041:Drivers/STM32L4xx_HAL_Driver/Src/stm32l4xx_ll_usb.c ****   else
1042:Drivers/STM32L4xx_HAL_Driver/Src/stm32l4xx_ll_usb.c ****   {
1043:Drivers/STM32L4xx_HAL_Driver/Src/stm32l4xx_ll_usb.c ****     USBx_OUTEP(epnum)->DOEPCTL &= ~USB_OTG_DOEPCTL_STALL;
1044:Drivers/STM32L4xx_HAL_Driver/Src/stm32l4xx_ll_usb.c ****     if ((ep->type == EP_TYPE_INTR) || (ep->type == EP_TYPE_BULK))
1045:Drivers/STM32L4xx_HAL_Driver/Src/stm32l4xx_ll_usb.c ****     {
1046:Drivers/STM32L4xx_HAL_Driver/Src/stm32l4xx_ll_usb.c ****       USBx_OUTEP(epnum)->DOEPCTL |= USB_OTG_DOEPCTL_SD0PID_SEVNFRM; /* DATA0 */
1047:Drivers/STM32L4xx_HAL_Driver/Src/stm32l4xx_ll_usb.c ****     }
1048:Drivers/STM32L4xx_HAL_Driver/Src/stm32l4xx_ll_usb.c ****   }
1049:Drivers/STM32L4xx_HAL_Driver/Src/stm32l4xx_ll_usb.c ****   return HAL_OK;
1050:Drivers/STM32L4xx_HAL_Driver/Src/stm32l4xx_ll_usb.c **** }
1051:Drivers/STM32L4xx_HAL_Driver/Src/stm32l4xx_ll_usb.c **** 
1052:Drivers/STM32L4xx_HAL_Driver/Src/stm32l4xx_ll_usb.c **** /**
1053:Drivers/STM32L4xx_HAL_Driver/Src/stm32l4xx_ll_usb.c ****   * @brief  USB_StopDevice : Stop the usb device mode
1054:Drivers/STM32L4xx_HAL_Driver/Src/stm32l4xx_ll_usb.c ****   * @param  USBx  Selected device
1055:Drivers/STM32L4xx_HAL_Driver/Src/stm32l4xx_ll_usb.c ****   * @retval HAL status
1056:Drivers/STM32L4xx_HAL_Driver/Src/stm32l4xx_ll_usb.c ****   */
ARM GAS  /tmp/ccS8Yg0I.s 			page 20


1057:Drivers/STM32L4xx_HAL_Driver/Src/stm32l4xx_ll_usb.c **** HAL_StatusTypeDef USB_StopDevice(USB_OTG_GlobalTypeDef *USBx)
1058:Drivers/STM32L4xx_HAL_Driver/Src/stm32l4xx_ll_usb.c **** {
1059:Drivers/STM32L4xx_HAL_Driver/Src/stm32l4xx_ll_usb.c ****   HAL_StatusTypeDef ret;
1060:Drivers/STM32L4xx_HAL_Driver/Src/stm32l4xx_ll_usb.c ****   uint32_t USBx_BASE = (uint32_t)USBx;
1061:Drivers/STM32L4xx_HAL_Driver/Src/stm32l4xx_ll_usb.c ****   uint32_t i;
1062:Drivers/STM32L4xx_HAL_Driver/Src/stm32l4xx_ll_usb.c **** 
1063:Drivers/STM32L4xx_HAL_Driver/Src/stm32l4xx_ll_usb.c ****   /* Clear Pending interrupt */
1064:Drivers/STM32L4xx_HAL_Driver/Src/stm32l4xx_ll_usb.c ****   for (i = 0U; i < 15U; i++)
1065:Drivers/STM32L4xx_HAL_Driver/Src/stm32l4xx_ll_usb.c ****   {
1066:Drivers/STM32L4xx_HAL_Driver/Src/stm32l4xx_ll_usb.c ****     USBx_INEP(i)->DIEPINT = 0xFB7FU;
1067:Drivers/STM32L4xx_HAL_Driver/Src/stm32l4xx_ll_usb.c ****     USBx_OUTEP(i)->DOEPINT = 0xFB7FU;
1068:Drivers/STM32L4xx_HAL_Driver/Src/stm32l4xx_ll_usb.c ****   }
1069:Drivers/STM32L4xx_HAL_Driver/Src/stm32l4xx_ll_usb.c **** 
1070:Drivers/STM32L4xx_HAL_Driver/Src/stm32l4xx_ll_usb.c ****   /* Clear interrupt masks */
1071:Drivers/STM32L4xx_HAL_Driver/Src/stm32l4xx_ll_usb.c ****   USBx_DEVICE->DIEPMSK  = 0U;
1072:Drivers/STM32L4xx_HAL_Driver/Src/stm32l4xx_ll_usb.c ****   USBx_DEVICE->DOEPMSK  = 0U;
1073:Drivers/STM32L4xx_HAL_Driver/Src/stm32l4xx_ll_usb.c ****   USBx_DEVICE->DAINTMSK = 0U;
1074:Drivers/STM32L4xx_HAL_Driver/Src/stm32l4xx_ll_usb.c **** 
1075:Drivers/STM32L4xx_HAL_Driver/Src/stm32l4xx_ll_usb.c ****   /* Flush the FIFO */
1076:Drivers/STM32L4xx_HAL_Driver/Src/stm32l4xx_ll_usb.c ****   ret = USB_FlushRxFifo(USBx);
1077:Drivers/STM32L4xx_HAL_Driver/Src/stm32l4xx_ll_usb.c ****   if (ret != HAL_OK)
1078:Drivers/STM32L4xx_HAL_Driver/Src/stm32l4xx_ll_usb.c ****   {
1079:Drivers/STM32L4xx_HAL_Driver/Src/stm32l4xx_ll_usb.c ****     return ret;
1080:Drivers/STM32L4xx_HAL_Driver/Src/stm32l4xx_ll_usb.c ****   }
1081:Drivers/STM32L4xx_HAL_Driver/Src/stm32l4xx_ll_usb.c **** 
1082:Drivers/STM32L4xx_HAL_Driver/Src/stm32l4xx_ll_usb.c ****   ret = USB_FlushTxFifo(USBx,  0x10U);
1083:Drivers/STM32L4xx_HAL_Driver/Src/stm32l4xx_ll_usb.c ****   if (ret != HAL_OK)
1084:Drivers/STM32L4xx_HAL_Driver/Src/stm32l4xx_ll_usb.c ****   {
1085:Drivers/STM32L4xx_HAL_Driver/Src/stm32l4xx_ll_usb.c ****     return ret;
1086:Drivers/STM32L4xx_HAL_Driver/Src/stm32l4xx_ll_usb.c ****   }
1087:Drivers/STM32L4xx_HAL_Driver/Src/stm32l4xx_ll_usb.c **** 
1088:Drivers/STM32L4xx_HAL_Driver/Src/stm32l4xx_ll_usb.c ****   return ret;
1089:Drivers/STM32L4xx_HAL_Driver/Src/stm32l4xx_ll_usb.c **** }
1090:Drivers/STM32L4xx_HAL_Driver/Src/stm32l4xx_ll_usb.c **** 
1091:Drivers/STM32L4xx_HAL_Driver/Src/stm32l4xx_ll_usb.c **** /**
1092:Drivers/STM32L4xx_HAL_Driver/Src/stm32l4xx_ll_usb.c ****   * @brief  USB_SetDevAddress : Stop the usb device mode
1093:Drivers/STM32L4xx_HAL_Driver/Src/stm32l4xx_ll_usb.c ****   * @param  USBx  Selected device
1094:Drivers/STM32L4xx_HAL_Driver/Src/stm32l4xx_ll_usb.c ****   * @param  address  new device address to be assigned
1095:Drivers/STM32L4xx_HAL_Driver/Src/stm32l4xx_ll_usb.c ****   *          This parameter can be a value from 0 to 255
1096:Drivers/STM32L4xx_HAL_Driver/Src/stm32l4xx_ll_usb.c ****   * @retval HAL status
1097:Drivers/STM32L4xx_HAL_Driver/Src/stm32l4xx_ll_usb.c ****   */
1098:Drivers/STM32L4xx_HAL_Driver/Src/stm32l4xx_ll_usb.c **** HAL_StatusTypeDef  USB_SetDevAddress(USB_OTG_GlobalTypeDef *USBx, uint8_t address)
1099:Drivers/STM32L4xx_HAL_Driver/Src/stm32l4xx_ll_usb.c **** {
1100:Drivers/STM32L4xx_HAL_Driver/Src/stm32l4xx_ll_usb.c ****   uint32_t USBx_BASE = (uint32_t)USBx;
1101:Drivers/STM32L4xx_HAL_Driver/Src/stm32l4xx_ll_usb.c **** 
1102:Drivers/STM32L4xx_HAL_Driver/Src/stm32l4xx_ll_usb.c ****   USBx_DEVICE->DCFG &= ~(USB_OTG_DCFG_DAD);
1103:Drivers/STM32L4xx_HAL_Driver/Src/stm32l4xx_ll_usb.c ****   USBx_DEVICE->DCFG |= ((uint32_t)address << 4) & USB_OTG_DCFG_DAD;
1104:Drivers/STM32L4xx_HAL_Driver/Src/stm32l4xx_ll_usb.c **** 
1105:Drivers/STM32L4xx_HAL_Driver/Src/stm32l4xx_ll_usb.c ****   return HAL_OK;
1106:Drivers/STM32L4xx_HAL_Driver/Src/stm32l4xx_ll_usb.c **** }
1107:Drivers/STM32L4xx_HAL_Driver/Src/stm32l4xx_ll_usb.c **** 
1108:Drivers/STM32L4xx_HAL_Driver/Src/stm32l4xx_ll_usb.c **** /**
1109:Drivers/STM32L4xx_HAL_Driver/Src/stm32l4xx_ll_usb.c ****   * @brief  USB_DevConnect : Connect the USB device by enabling Rpu
1110:Drivers/STM32L4xx_HAL_Driver/Src/stm32l4xx_ll_usb.c ****   * @param  USBx  Selected device
1111:Drivers/STM32L4xx_HAL_Driver/Src/stm32l4xx_ll_usb.c ****   * @retval HAL status
1112:Drivers/STM32L4xx_HAL_Driver/Src/stm32l4xx_ll_usb.c ****   */
1113:Drivers/STM32L4xx_HAL_Driver/Src/stm32l4xx_ll_usb.c **** HAL_StatusTypeDef  USB_DevConnect(USB_OTG_GlobalTypeDef *USBx)
ARM GAS  /tmp/ccS8Yg0I.s 			page 21


1114:Drivers/STM32L4xx_HAL_Driver/Src/stm32l4xx_ll_usb.c **** {
1115:Drivers/STM32L4xx_HAL_Driver/Src/stm32l4xx_ll_usb.c ****   uint32_t USBx_BASE = (uint32_t)USBx;
1116:Drivers/STM32L4xx_HAL_Driver/Src/stm32l4xx_ll_usb.c **** 
1117:Drivers/STM32L4xx_HAL_Driver/Src/stm32l4xx_ll_usb.c ****   /* In case phy is stopped, ensure to ungate and restore the phy CLK */
1118:Drivers/STM32L4xx_HAL_Driver/Src/stm32l4xx_ll_usb.c ****   USBx_PCGCCTL &= ~(USB_OTG_PCGCCTL_STOPCLK | USB_OTG_PCGCCTL_GATECLK);
1119:Drivers/STM32L4xx_HAL_Driver/Src/stm32l4xx_ll_usb.c **** 
1120:Drivers/STM32L4xx_HAL_Driver/Src/stm32l4xx_ll_usb.c ****   USBx_DEVICE->DCTL &= ~USB_OTG_DCTL_SDIS;
1121:Drivers/STM32L4xx_HAL_Driver/Src/stm32l4xx_ll_usb.c **** 
1122:Drivers/STM32L4xx_HAL_Driver/Src/stm32l4xx_ll_usb.c ****   return HAL_OK;
1123:Drivers/STM32L4xx_HAL_Driver/Src/stm32l4xx_ll_usb.c **** }
1124:Drivers/STM32L4xx_HAL_Driver/Src/stm32l4xx_ll_usb.c **** 
1125:Drivers/STM32L4xx_HAL_Driver/Src/stm32l4xx_ll_usb.c **** /**
1126:Drivers/STM32L4xx_HAL_Driver/Src/stm32l4xx_ll_usb.c ****   * @brief  USB_DevDisconnect : Disconnect the USB device by disabling Rpu
1127:Drivers/STM32L4xx_HAL_Driver/Src/stm32l4xx_ll_usb.c ****   * @param  USBx  Selected device
1128:Drivers/STM32L4xx_HAL_Driver/Src/stm32l4xx_ll_usb.c ****   * @retval HAL status
1129:Drivers/STM32L4xx_HAL_Driver/Src/stm32l4xx_ll_usb.c ****   */
1130:Drivers/STM32L4xx_HAL_Driver/Src/stm32l4xx_ll_usb.c **** HAL_StatusTypeDef  USB_DevDisconnect(USB_OTG_GlobalTypeDef *USBx)
1131:Drivers/STM32L4xx_HAL_Driver/Src/stm32l4xx_ll_usb.c **** {
1132:Drivers/STM32L4xx_HAL_Driver/Src/stm32l4xx_ll_usb.c ****   uint32_t USBx_BASE = (uint32_t)USBx;
1133:Drivers/STM32L4xx_HAL_Driver/Src/stm32l4xx_ll_usb.c **** 
1134:Drivers/STM32L4xx_HAL_Driver/Src/stm32l4xx_ll_usb.c ****   /* In case phy is stopped, ensure to ungate and restore the phy CLK */
1135:Drivers/STM32L4xx_HAL_Driver/Src/stm32l4xx_ll_usb.c ****   USBx_PCGCCTL &= ~(USB_OTG_PCGCCTL_STOPCLK | USB_OTG_PCGCCTL_GATECLK);
1136:Drivers/STM32L4xx_HAL_Driver/Src/stm32l4xx_ll_usb.c **** 
1137:Drivers/STM32L4xx_HAL_Driver/Src/stm32l4xx_ll_usb.c ****   USBx_DEVICE->DCTL |= USB_OTG_DCTL_SDIS;
1138:Drivers/STM32L4xx_HAL_Driver/Src/stm32l4xx_ll_usb.c **** 
1139:Drivers/STM32L4xx_HAL_Driver/Src/stm32l4xx_ll_usb.c ****   return HAL_OK;
1140:Drivers/STM32L4xx_HAL_Driver/Src/stm32l4xx_ll_usb.c **** }
1141:Drivers/STM32L4xx_HAL_Driver/Src/stm32l4xx_ll_usb.c **** 
1142:Drivers/STM32L4xx_HAL_Driver/Src/stm32l4xx_ll_usb.c **** /**
1143:Drivers/STM32L4xx_HAL_Driver/Src/stm32l4xx_ll_usb.c ****   * @brief  USB_ReadInterrupts: return the global USB interrupt status
1144:Drivers/STM32L4xx_HAL_Driver/Src/stm32l4xx_ll_usb.c ****   * @param  USBx  Selected device
1145:Drivers/STM32L4xx_HAL_Driver/Src/stm32l4xx_ll_usb.c ****   * @retval HAL status
1146:Drivers/STM32L4xx_HAL_Driver/Src/stm32l4xx_ll_usb.c ****   */
1147:Drivers/STM32L4xx_HAL_Driver/Src/stm32l4xx_ll_usb.c **** uint32_t  USB_ReadInterrupts(USB_OTG_GlobalTypeDef *USBx)
1148:Drivers/STM32L4xx_HAL_Driver/Src/stm32l4xx_ll_usb.c **** {
1149:Drivers/STM32L4xx_HAL_Driver/Src/stm32l4xx_ll_usb.c ****   uint32_t tmpreg;
1150:Drivers/STM32L4xx_HAL_Driver/Src/stm32l4xx_ll_usb.c **** 
1151:Drivers/STM32L4xx_HAL_Driver/Src/stm32l4xx_ll_usb.c ****   tmpreg = USBx->GINTSTS;
1152:Drivers/STM32L4xx_HAL_Driver/Src/stm32l4xx_ll_usb.c ****   tmpreg &= USBx->GINTMSK;
1153:Drivers/STM32L4xx_HAL_Driver/Src/stm32l4xx_ll_usb.c **** 
1154:Drivers/STM32L4xx_HAL_Driver/Src/stm32l4xx_ll_usb.c ****   return tmpreg;
1155:Drivers/STM32L4xx_HAL_Driver/Src/stm32l4xx_ll_usb.c **** }
1156:Drivers/STM32L4xx_HAL_Driver/Src/stm32l4xx_ll_usb.c **** 
1157:Drivers/STM32L4xx_HAL_Driver/Src/stm32l4xx_ll_usb.c **** /**
1158:Drivers/STM32L4xx_HAL_Driver/Src/stm32l4xx_ll_usb.c ****   * @brief  USB_ReadDevAllOutEpInterrupt: return the USB device OUT endpoints interrupt status
1159:Drivers/STM32L4xx_HAL_Driver/Src/stm32l4xx_ll_usb.c ****   * @param  USBx  Selected device
1160:Drivers/STM32L4xx_HAL_Driver/Src/stm32l4xx_ll_usb.c ****   * @retval HAL status
1161:Drivers/STM32L4xx_HAL_Driver/Src/stm32l4xx_ll_usb.c ****   */
1162:Drivers/STM32L4xx_HAL_Driver/Src/stm32l4xx_ll_usb.c **** uint32_t USB_ReadDevAllOutEpInterrupt(USB_OTG_GlobalTypeDef *USBx)
1163:Drivers/STM32L4xx_HAL_Driver/Src/stm32l4xx_ll_usb.c **** {
1164:Drivers/STM32L4xx_HAL_Driver/Src/stm32l4xx_ll_usb.c ****   uint32_t USBx_BASE = (uint32_t)USBx;
1165:Drivers/STM32L4xx_HAL_Driver/Src/stm32l4xx_ll_usb.c ****   uint32_t tmpreg;
1166:Drivers/STM32L4xx_HAL_Driver/Src/stm32l4xx_ll_usb.c **** 
1167:Drivers/STM32L4xx_HAL_Driver/Src/stm32l4xx_ll_usb.c ****   tmpreg  = USBx_DEVICE->DAINT;
1168:Drivers/STM32L4xx_HAL_Driver/Src/stm32l4xx_ll_usb.c ****   tmpreg &= USBx_DEVICE->DAINTMSK;
1169:Drivers/STM32L4xx_HAL_Driver/Src/stm32l4xx_ll_usb.c **** 
1170:Drivers/STM32L4xx_HAL_Driver/Src/stm32l4xx_ll_usb.c ****   return ((tmpreg & 0xffff0000U) >> 16);
ARM GAS  /tmp/ccS8Yg0I.s 			page 22


1171:Drivers/STM32L4xx_HAL_Driver/Src/stm32l4xx_ll_usb.c **** }
1172:Drivers/STM32L4xx_HAL_Driver/Src/stm32l4xx_ll_usb.c **** 
1173:Drivers/STM32L4xx_HAL_Driver/Src/stm32l4xx_ll_usb.c **** /**
1174:Drivers/STM32L4xx_HAL_Driver/Src/stm32l4xx_ll_usb.c ****   * @brief  USB_ReadDevAllInEpInterrupt: return the USB device IN endpoints interrupt status
1175:Drivers/STM32L4xx_HAL_Driver/Src/stm32l4xx_ll_usb.c ****   * @param  USBx  Selected device
1176:Drivers/STM32L4xx_HAL_Driver/Src/stm32l4xx_ll_usb.c ****   * @retval HAL status
1177:Drivers/STM32L4xx_HAL_Driver/Src/stm32l4xx_ll_usb.c ****   */
1178:Drivers/STM32L4xx_HAL_Driver/Src/stm32l4xx_ll_usb.c **** uint32_t USB_ReadDevAllInEpInterrupt(USB_OTG_GlobalTypeDef *USBx)
1179:Drivers/STM32L4xx_HAL_Driver/Src/stm32l4xx_ll_usb.c **** {
1180:Drivers/STM32L4xx_HAL_Driver/Src/stm32l4xx_ll_usb.c ****   uint32_t USBx_BASE = (uint32_t)USBx;
1181:Drivers/STM32L4xx_HAL_Driver/Src/stm32l4xx_ll_usb.c ****   uint32_t tmpreg;
1182:Drivers/STM32L4xx_HAL_Driver/Src/stm32l4xx_ll_usb.c **** 
1183:Drivers/STM32L4xx_HAL_Driver/Src/stm32l4xx_ll_usb.c ****   tmpreg  = USBx_DEVICE->DAINT;
1184:Drivers/STM32L4xx_HAL_Driver/Src/stm32l4xx_ll_usb.c ****   tmpreg &= USBx_DEVICE->DAINTMSK;
1185:Drivers/STM32L4xx_HAL_Driver/Src/stm32l4xx_ll_usb.c **** 
1186:Drivers/STM32L4xx_HAL_Driver/Src/stm32l4xx_ll_usb.c ****   return ((tmpreg & 0xFFFFU));
1187:Drivers/STM32L4xx_HAL_Driver/Src/stm32l4xx_ll_usb.c **** }
1188:Drivers/STM32L4xx_HAL_Driver/Src/stm32l4xx_ll_usb.c **** 
1189:Drivers/STM32L4xx_HAL_Driver/Src/stm32l4xx_ll_usb.c **** /**
1190:Drivers/STM32L4xx_HAL_Driver/Src/stm32l4xx_ll_usb.c ****   * @brief  Returns Device OUT EP Interrupt register
1191:Drivers/STM32L4xx_HAL_Driver/Src/stm32l4xx_ll_usb.c ****   * @param  USBx  Selected device
1192:Drivers/STM32L4xx_HAL_Driver/Src/stm32l4xx_ll_usb.c ****   * @param  epnum  endpoint number
1193:Drivers/STM32L4xx_HAL_Driver/Src/stm32l4xx_ll_usb.c ****   *          This parameter can be a value from 0 to 15
1194:Drivers/STM32L4xx_HAL_Driver/Src/stm32l4xx_ll_usb.c ****   * @retval Device OUT EP Interrupt register
1195:Drivers/STM32L4xx_HAL_Driver/Src/stm32l4xx_ll_usb.c ****   */
1196:Drivers/STM32L4xx_HAL_Driver/Src/stm32l4xx_ll_usb.c **** uint32_t USB_ReadDevOutEPInterrupt(USB_OTG_GlobalTypeDef *USBx, uint8_t epnum)
1197:Drivers/STM32L4xx_HAL_Driver/Src/stm32l4xx_ll_usb.c **** {
1198:Drivers/STM32L4xx_HAL_Driver/Src/stm32l4xx_ll_usb.c ****   uint32_t USBx_BASE = (uint32_t)USBx;
1199:Drivers/STM32L4xx_HAL_Driver/Src/stm32l4xx_ll_usb.c ****   uint32_t tmpreg;
1200:Drivers/STM32L4xx_HAL_Driver/Src/stm32l4xx_ll_usb.c **** 
1201:Drivers/STM32L4xx_HAL_Driver/Src/stm32l4xx_ll_usb.c ****   tmpreg  = USBx_OUTEP((uint32_t)epnum)->DOEPINT;
1202:Drivers/STM32L4xx_HAL_Driver/Src/stm32l4xx_ll_usb.c ****   tmpreg &= USBx_DEVICE->DOEPMSK;
1203:Drivers/STM32L4xx_HAL_Driver/Src/stm32l4xx_ll_usb.c **** 
1204:Drivers/STM32L4xx_HAL_Driver/Src/stm32l4xx_ll_usb.c ****   return tmpreg;
1205:Drivers/STM32L4xx_HAL_Driver/Src/stm32l4xx_ll_usb.c **** }
1206:Drivers/STM32L4xx_HAL_Driver/Src/stm32l4xx_ll_usb.c **** 
1207:Drivers/STM32L4xx_HAL_Driver/Src/stm32l4xx_ll_usb.c **** /**
1208:Drivers/STM32L4xx_HAL_Driver/Src/stm32l4xx_ll_usb.c ****   * @brief  Returns Device IN EP Interrupt register
1209:Drivers/STM32L4xx_HAL_Driver/Src/stm32l4xx_ll_usb.c ****   * @param  USBx  Selected device
1210:Drivers/STM32L4xx_HAL_Driver/Src/stm32l4xx_ll_usb.c ****   * @param  epnum  endpoint number
1211:Drivers/STM32L4xx_HAL_Driver/Src/stm32l4xx_ll_usb.c ****   *          This parameter can be a value from 0 to 15
1212:Drivers/STM32L4xx_HAL_Driver/Src/stm32l4xx_ll_usb.c ****   * @retval Device IN EP Interrupt register
1213:Drivers/STM32L4xx_HAL_Driver/Src/stm32l4xx_ll_usb.c ****   */
1214:Drivers/STM32L4xx_HAL_Driver/Src/stm32l4xx_ll_usb.c **** uint32_t USB_ReadDevInEPInterrupt(USB_OTG_GlobalTypeDef *USBx, uint8_t epnum)
1215:Drivers/STM32L4xx_HAL_Driver/Src/stm32l4xx_ll_usb.c **** {
1216:Drivers/STM32L4xx_HAL_Driver/Src/stm32l4xx_ll_usb.c ****   uint32_t USBx_BASE = (uint32_t)USBx;
1217:Drivers/STM32L4xx_HAL_Driver/Src/stm32l4xx_ll_usb.c ****   uint32_t tmpreg;
1218:Drivers/STM32L4xx_HAL_Driver/Src/stm32l4xx_ll_usb.c ****   uint32_t msk;
1219:Drivers/STM32L4xx_HAL_Driver/Src/stm32l4xx_ll_usb.c ****   uint32_t emp;
1220:Drivers/STM32L4xx_HAL_Driver/Src/stm32l4xx_ll_usb.c **** 
1221:Drivers/STM32L4xx_HAL_Driver/Src/stm32l4xx_ll_usb.c ****   msk = USBx_DEVICE->DIEPMSK;
1222:Drivers/STM32L4xx_HAL_Driver/Src/stm32l4xx_ll_usb.c ****   emp = USBx_DEVICE->DIEPEMPMSK;
1223:Drivers/STM32L4xx_HAL_Driver/Src/stm32l4xx_ll_usb.c ****   msk |= ((emp >> (epnum & EP_ADDR_MSK)) & 0x1U) << 7;
1224:Drivers/STM32L4xx_HAL_Driver/Src/stm32l4xx_ll_usb.c ****   tmpreg = USBx_INEP((uint32_t)epnum)->DIEPINT & msk;
1225:Drivers/STM32L4xx_HAL_Driver/Src/stm32l4xx_ll_usb.c **** 
1226:Drivers/STM32L4xx_HAL_Driver/Src/stm32l4xx_ll_usb.c ****   return tmpreg;
1227:Drivers/STM32L4xx_HAL_Driver/Src/stm32l4xx_ll_usb.c **** }
ARM GAS  /tmp/ccS8Yg0I.s 			page 23


1228:Drivers/STM32L4xx_HAL_Driver/Src/stm32l4xx_ll_usb.c **** 
1229:Drivers/STM32L4xx_HAL_Driver/Src/stm32l4xx_ll_usb.c **** /**
1230:Drivers/STM32L4xx_HAL_Driver/Src/stm32l4xx_ll_usb.c ****   * @brief  USB_ClearInterrupts: clear a USB interrupt
1231:Drivers/STM32L4xx_HAL_Driver/Src/stm32l4xx_ll_usb.c ****   * @param  USBx  Selected device
1232:Drivers/STM32L4xx_HAL_Driver/Src/stm32l4xx_ll_usb.c ****   * @param  interrupt  flag
1233:Drivers/STM32L4xx_HAL_Driver/Src/stm32l4xx_ll_usb.c ****   * @retval None
1234:Drivers/STM32L4xx_HAL_Driver/Src/stm32l4xx_ll_usb.c ****   */
1235:Drivers/STM32L4xx_HAL_Driver/Src/stm32l4xx_ll_usb.c **** void  USB_ClearInterrupts(USB_OTG_GlobalTypeDef *USBx, uint32_t interrupt)
1236:Drivers/STM32L4xx_HAL_Driver/Src/stm32l4xx_ll_usb.c **** {
1237:Drivers/STM32L4xx_HAL_Driver/Src/stm32l4xx_ll_usb.c ****   USBx->GINTSTS |= interrupt;
1238:Drivers/STM32L4xx_HAL_Driver/Src/stm32l4xx_ll_usb.c **** }
1239:Drivers/STM32L4xx_HAL_Driver/Src/stm32l4xx_ll_usb.c **** 
1240:Drivers/STM32L4xx_HAL_Driver/Src/stm32l4xx_ll_usb.c **** /**
1241:Drivers/STM32L4xx_HAL_Driver/Src/stm32l4xx_ll_usb.c ****   * @brief  Returns USB core mode
1242:Drivers/STM32L4xx_HAL_Driver/Src/stm32l4xx_ll_usb.c ****   * @param  USBx  Selected device
1243:Drivers/STM32L4xx_HAL_Driver/Src/stm32l4xx_ll_usb.c ****   * @retval return core mode : Host or Device
1244:Drivers/STM32L4xx_HAL_Driver/Src/stm32l4xx_ll_usb.c ****   *          This parameter can be one of these values:
1245:Drivers/STM32L4xx_HAL_Driver/Src/stm32l4xx_ll_usb.c ****   *           0 : Host
1246:Drivers/STM32L4xx_HAL_Driver/Src/stm32l4xx_ll_usb.c ****   *           1 : Device
1247:Drivers/STM32L4xx_HAL_Driver/Src/stm32l4xx_ll_usb.c ****   */
1248:Drivers/STM32L4xx_HAL_Driver/Src/stm32l4xx_ll_usb.c **** uint32_t USB_GetMode(USB_OTG_GlobalTypeDef *USBx)
1249:Drivers/STM32L4xx_HAL_Driver/Src/stm32l4xx_ll_usb.c **** {
1250:Drivers/STM32L4xx_HAL_Driver/Src/stm32l4xx_ll_usb.c ****   return ((USBx->GINTSTS) & 0x1U);
1251:Drivers/STM32L4xx_HAL_Driver/Src/stm32l4xx_ll_usb.c **** }
1252:Drivers/STM32L4xx_HAL_Driver/Src/stm32l4xx_ll_usb.c **** 
1253:Drivers/STM32L4xx_HAL_Driver/Src/stm32l4xx_ll_usb.c **** /**
1254:Drivers/STM32L4xx_HAL_Driver/Src/stm32l4xx_ll_usb.c ****   * @brief  Activate EP0 for Setup transactions
1255:Drivers/STM32L4xx_HAL_Driver/Src/stm32l4xx_ll_usb.c ****   * @param  USBx  Selected device
1256:Drivers/STM32L4xx_HAL_Driver/Src/stm32l4xx_ll_usb.c ****   * @retval HAL status
1257:Drivers/STM32L4xx_HAL_Driver/Src/stm32l4xx_ll_usb.c ****   */
1258:Drivers/STM32L4xx_HAL_Driver/Src/stm32l4xx_ll_usb.c **** HAL_StatusTypeDef  USB_ActivateSetup(USB_OTG_GlobalTypeDef *USBx)
1259:Drivers/STM32L4xx_HAL_Driver/Src/stm32l4xx_ll_usb.c **** {
1260:Drivers/STM32L4xx_HAL_Driver/Src/stm32l4xx_ll_usb.c ****   uint32_t USBx_BASE = (uint32_t)USBx;
1261:Drivers/STM32L4xx_HAL_Driver/Src/stm32l4xx_ll_usb.c **** 
1262:Drivers/STM32L4xx_HAL_Driver/Src/stm32l4xx_ll_usb.c ****   /* Set the MPS of the IN EP0 to 64 bytes */
1263:Drivers/STM32L4xx_HAL_Driver/Src/stm32l4xx_ll_usb.c ****   USBx_INEP(0U)->DIEPCTL &= ~USB_OTG_DIEPCTL_MPSIZ;
1264:Drivers/STM32L4xx_HAL_Driver/Src/stm32l4xx_ll_usb.c **** 
1265:Drivers/STM32L4xx_HAL_Driver/Src/stm32l4xx_ll_usb.c ****   USBx_DEVICE->DCTL |= USB_OTG_DCTL_CGINAK;
1266:Drivers/STM32L4xx_HAL_Driver/Src/stm32l4xx_ll_usb.c **** 
1267:Drivers/STM32L4xx_HAL_Driver/Src/stm32l4xx_ll_usb.c ****   return HAL_OK;
1268:Drivers/STM32L4xx_HAL_Driver/Src/stm32l4xx_ll_usb.c **** }
1269:Drivers/STM32L4xx_HAL_Driver/Src/stm32l4xx_ll_usb.c **** 
1270:Drivers/STM32L4xx_HAL_Driver/Src/stm32l4xx_ll_usb.c **** /**
1271:Drivers/STM32L4xx_HAL_Driver/Src/stm32l4xx_ll_usb.c ****   * @brief  Prepare the EP0 to start the first control setup
1272:Drivers/STM32L4xx_HAL_Driver/Src/stm32l4xx_ll_usb.c ****   * @param  USBx  Selected device
1273:Drivers/STM32L4xx_HAL_Driver/Src/stm32l4xx_ll_usb.c ****   * @param  psetup  pointer to setup packet
1274:Drivers/STM32L4xx_HAL_Driver/Src/stm32l4xx_ll_usb.c ****   * @retval HAL status
1275:Drivers/STM32L4xx_HAL_Driver/Src/stm32l4xx_ll_usb.c ****   */
1276:Drivers/STM32L4xx_HAL_Driver/Src/stm32l4xx_ll_usb.c **** HAL_StatusTypeDef USB_EP0_OutStart(USB_OTG_GlobalTypeDef *USBx, uint8_t *psetup)
1277:Drivers/STM32L4xx_HAL_Driver/Src/stm32l4xx_ll_usb.c **** {
1278:Drivers/STM32L4xx_HAL_Driver/Src/stm32l4xx_ll_usb.c ****   uint32_t USBx_BASE = (uint32_t)USBx;
1279:Drivers/STM32L4xx_HAL_Driver/Src/stm32l4xx_ll_usb.c ****   uint32_t gSNPSiD = *(__IO uint32_t *)(&USBx->CID + 0x1U);
1280:Drivers/STM32L4xx_HAL_Driver/Src/stm32l4xx_ll_usb.c ****   UNUSED(psetup);
1281:Drivers/STM32L4xx_HAL_Driver/Src/stm32l4xx_ll_usb.c **** 
1282:Drivers/STM32L4xx_HAL_Driver/Src/stm32l4xx_ll_usb.c ****   if (gSNPSiD > USB_OTG_CORE_ID_300A)
1283:Drivers/STM32L4xx_HAL_Driver/Src/stm32l4xx_ll_usb.c ****   {
1284:Drivers/STM32L4xx_HAL_Driver/Src/stm32l4xx_ll_usb.c ****     if ((USBx_OUTEP(0U)->DOEPCTL & USB_OTG_DOEPCTL_EPENA) == USB_OTG_DOEPCTL_EPENA)
ARM GAS  /tmp/ccS8Yg0I.s 			page 24


1285:Drivers/STM32L4xx_HAL_Driver/Src/stm32l4xx_ll_usb.c ****     {
1286:Drivers/STM32L4xx_HAL_Driver/Src/stm32l4xx_ll_usb.c ****       return HAL_OK;
1287:Drivers/STM32L4xx_HAL_Driver/Src/stm32l4xx_ll_usb.c ****     }
1288:Drivers/STM32L4xx_HAL_Driver/Src/stm32l4xx_ll_usb.c ****   }
1289:Drivers/STM32L4xx_HAL_Driver/Src/stm32l4xx_ll_usb.c **** 
1290:Drivers/STM32L4xx_HAL_Driver/Src/stm32l4xx_ll_usb.c ****   USBx_OUTEP(0U)->DOEPTSIZ = 0U;
1291:Drivers/STM32L4xx_HAL_Driver/Src/stm32l4xx_ll_usb.c ****   USBx_OUTEP(0U)->DOEPTSIZ |= (USB_OTG_DOEPTSIZ_PKTCNT & (1U << 19));
1292:Drivers/STM32L4xx_HAL_Driver/Src/stm32l4xx_ll_usb.c ****   USBx_OUTEP(0U)->DOEPTSIZ |= (3U * 8U);
1293:Drivers/STM32L4xx_HAL_Driver/Src/stm32l4xx_ll_usb.c ****   USBx_OUTEP(0U)->DOEPTSIZ |=  USB_OTG_DOEPTSIZ_STUPCNT;
1294:Drivers/STM32L4xx_HAL_Driver/Src/stm32l4xx_ll_usb.c **** 
1295:Drivers/STM32L4xx_HAL_Driver/Src/stm32l4xx_ll_usb.c ****   return HAL_OK;
1296:Drivers/STM32L4xx_HAL_Driver/Src/stm32l4xx_ll_usb.c **** }
1297:Drivers/STM32L4xx_HAL_Driver/Src/stm32l4xx_ll_usb.c **** 
1298:Drivers/STM32L4xx_HAL_Driver/Src/stm32l4xx_ll_usb.c **** /**
1299:Drivers/STM32L4xx_HAL_Driver/Src/stm32l4xx_ll_usb.c ****   * @brief  Reset the USB Core (needed after USB clock settings change)
1300:Drivers/STM32L4xx_HAL_Driver/Src/stm32l4xx_ll_usb.c ****   * @param  USBx  Selected device
1301:Drivers/STM32L4xx_HAL_Driver/Src/stm32l4xx_ll_usb.c ****   * @retval HAL status
1302:Drivers/STM32L4xx_HAL_Driver/Src/stm32l4xx_ll_usb.c ****   */
1303:Drivers/STM32L4xx_HAL_Driver/Src/stm32l4xx_ll_usb.c **** static HAL_StatusTypeDef USB_CoreReset(USB_OTG_GlobalTypeDef *USBx)
1304:Drivers/STM32L4xx_HAL_Driver/Src/stm32l4xx_ll_usb.c **** {
  29              		.loc 1 1304 1 view -0
  30              		.cfi_startproc
  31              		@ args = 0, pretend = 0, frame = 8
  32              		@ frame_needed = 0, uses_anonymous_args = 0
  33              		@ link register save eliminated.
  34              		.loc 1 1304 1 is_stmt 0 view .LVU1
  35 0000 82B0     		sub	sp, sp, #8
  36              	.LCFI0:
  37              		.cfi_def_cfa_offset 8
1305:Drivers/STM32L4xx_HAL_Driver/Src/stm32l4xx_ll_usb.c ****   __IO uint32_t count = 0U;
  38              		.loc 1 1305 3 is_stmt 1 view .LVU2
  39              		.loc 1 1305 17 is_stmt 0 view .LVU3
  40 0002 0023     		movs	r3, #0
  41 0004 0193     		str	r3, [sp, #4]
  42              	.L3:
1306:Drivers/STM32L4xx_HAL_Driver/Src/stm32l4xx_ll_usb.c **** 
1307:Drivers/STM32L4xx_HAL_Driver/Src/stm32l4xx_ll_usb.c ****   /* Wait for AHB master IDLE state. */
1308:Drivers/STM32L4xx_HAL_Driver/Src/stm32l4xx_ll_usb.c ****   do
  43              		.loc 1 1308 3 is_stmt 1 view .LVU4
1309:Drivers/STM32L4xx_HAL_Driver/Src/stm32l4xx_ll_usb.c ****   {
1310:Drivers/STM32L4xx_HAL_Driver/Src/stm32l4xx_ll_usb.c ****     count++;
  44              		.loc 1 1310 5 view .LVU5
  45              		.loc 1 1310 10 is_stmt 0 view .LVU6
  46 0006 019B     		ldr	r3, [sp, #4]
  47 0008 0133     		adds	r3, r3, #1
  48 000a 0193     		str	r3, [sp, #4]
1311:Drivers/STM32L4xx_HAL_Driver/Src/stm32l4xx_ll_usb.c **** 
1312:Drivers/STM32L4xx_HAL_Driver/Src/stm32l4xx_ll_usb.c ****     if (count > 200000U)
  49              		.loc 1 1312 5 is_stmt 1 view .LVU7
  50              		.loc 1 1312 15 is_stmt 0 view .LVU8
  51 000c 019A     		ldr	r2, [sp, #4]
  52              		.loc 1 1312 8 view .LVU9
  53 000e 0F4B     		ldr	r3, .L8
  54 0010 9A42     		cmp	r2, r3
  55 0012 15D8     		bhi	.L5
1313:Drivers/STM32L4xx_HAL_Driver/Src/stm32l4xx_ll_usb.c ****     {
1314:Drivers/STM32L4xx_HAL_Driver/Src/stm32l4xx_ll_usb.c ****       return HAL_TIMEOUT;
ARM GAS  /tmp/ccS8Yg0I.s 			page 25


1315:Drivers/STM32L4xx_HAL_Driver/Src/stm32l4xx_ll_usb.c ****     }
1316:Drivers/STM32L4xx_HAL_Driver/Src/stm32l4xx_ll_usb.c ****   } while ((USBx->GRSTCTL & USB_OTG_GRSTCTL_AHBIDL) == 0U);
  56              		.loc 1 1316 11 is_stmt 1 view .LVU10
  57              		.loc 1 1316 17 is_stmt 0 view .LVU11
  58 0014 0369     		ldr	r3, [r0, #16]
  59              		.loc 1 1316 3 view .LVU12
  60 0016 002B     		cmp	r3, #0
  61 0018 F5DA     		bge	.L3
1317:Drivers/STM32L4xx_HAL_Driver/Src/stm32l4xx_ll_usb.c **** 
1318:Drivers/STM32L4xx_HAL_Driver/Src/stm32l4xx_ll_usb.c ****   /* Core Soft Reset */
1319:Drivers/STM32L4xx_HAL_Driver/Src/stm32l4xx_ll_usb.c ****   count = 0U;
  62              		.loc 1 1319 3 is_stmt 1 view .LVU13
  63              		.loc 1 1319 9 is_stmt 0 view .LVU14
  64 001a 0023     		movs	r3, #0
  65 001c 0193     		str	r3, [sp, #4]
1320:Drivers/STM32L4xx_HAL_Driver/Src/stm32l4xx_ll_usb.c ****   USBx->GRSTCTL |= USB_OTG_GRSTCTL_CSRST;
  66              		.loc 1 1320 3 is_stmt 1 view .LVU15
  67              		.loc 1 1320 17 is_stmt 0 view .LVU16
  68 001e 0369     		ldr	r3, [r0, #16]
  69 0020 43F00103 		orr	r3, r3, #1
  70 0024 0361     		str	r3, [r0, #16]
  71              	.L4:
1321:Drivers/STM32L4xx_HAL_Driver/Src/stm32l4xx_ll_usb.c **** 
1322:Drivers/STM32L4xx_HAL_Driver/Src/stm32l4xx_ll_usb.c ****   do
  72              		.loc 1 1322 3 is_stmt 1 view .LVU17
1323:Drivers/STM32L4xx_HAL_Driver/Src/stm32l4xx_ll_usb.c ****   {
1324:Drivers/STM32L4xx_HAL_Driver/Src/stm32l4xx_ll_usb.c ****     count++;
  73              		.loc 1 1324 5 view .LVU18
  74              		.loc 1 1324 10 is_stmt 0 view .LVU19
  75 0026 019B     		ldr	r3, [sp, #4]
  76 0028 0133     		adds	r3, r3, #1
  77 002a 0193     		str	r3, [sp, #4]
1325:Drivers/STM32L4xx_HAL_Driver/Src/stm32l4xx_ll_usb.c **** 
1326:Drivers/STM32L4xx_HAL_Driver/Src/stm32l4xx_ll_usb.c ****     if (count > 200000U)
  78              		.loc 1 1326 5 is_stmt 1 view .LVU20
  79              		.loc 1 1326 15 is_stmt 0 view .LVU21
  80 002c 019A     		ldr	r2, [sp, #4]
  81              		.loc 1 1326 8 view .LVU22
  82 002e 074B     		ldr	r3, .L8
  83 0030 9A42     		cmp	r2, r3
  84 0032 08D8     		bhi	.L6
1327:Drivers/STM32L4xx_HAL_Driver/Src/stm32l4xx_ll_usb.c ****     {
1328:Drivers/STM32L4xx_HAL_Driver/Src/stm32l4xx_ll_usb.c ****       return HAL_TIMEOUT;
1329:Drivers/STM32L4xx_HAL_Driver/Src/stm32l4xx_ll_usb.c ****     }
1330:Drivers/STM32L4xx_HAL_Driver/Src/stm32l4xx_ll_usb.c ****   } while ((USBx->GRSTCTL & USB_OTG_GRSTCTL_CSRST) == USB_OTG_GRSTCTL_CSRST);
  85              		.loc 1 1330 11 is_stmt 1 view .LVU23
  86              		.loc 1 1330 17 is_stmt 0 view .LVU24
  87 0034 0369     		ldr	r3, [r0, #16]
  88              		.loc 1 1330 3 view .LVU25
  89 0036 13F0010F 		tst	r3, #1
  90 003a F4D1     		bne	.L4
1331:Drivers/STM32L4xx_HAL_Driver/Src/stm32l4xx_ll_usb.c **** 
1332:Drivers/STM32L4xx_HAL_Driver/Src/stm32l4xx_ll_usb.c ****   return HAL_OK;
  91              		.loc 1 1332 10 view .LVU26
  92 003c 0020     		movs	r0, #0
  93              	.LVL1:
  94              		.loc 1 1332 10 view .LVU27
ARM GAS  /tmp/ccS8Yg0I.s 			page 26


  95 003e 00E0     		b	.L2
  96              	.LVL2:
  97              	.L5:
1314:Drivers/STM32L4xx_HAL_Driver/Src/stm32l4xx_ll_usb.c ****     }
  98              		.loc 1 1314 14 view .LVU28
  99 0040 0320     		movs	r0, #3
 100              	.LVL3:
 101              	.L2:
1333:Drivers/STM32L4xx_HAL_Driver/Src/stm32l4xx_ll_usb.c **** }
 102              		.loc 1 1333 1 view .LVU29
 103 0042 02B0     		add	sp, sp, #8
 104              	.LCFI1:
 105              		.cfi_remember_state
 106              		.cfi_def_cfa_offset 0
 107              		@ sp needed
 108 0044 7047     		bx	lr
 109              	.LVL4:
 110              	.L6:
 111              	.LCFI2:
 112              		.cfi_restore_state
1328:Drivers/STM32L4xx_HAL_Driver/Src/stm32l4xx_ll_usb.c ****     }
 113              		.loc 1 1328 14 view .LVU30
 114 0046 0320     		movs	r0, #3
 115              	.LVL5:
1328:Drivers/STM32L4xx_HAL_Driver/Src/stm32l4xx_ll_usb.c ****     }
 116              		.loc 1 1328 14 view .LVU31
 117 0048 FBE7     		b	.L2
 118              	.L9:
 119 004a 00BF     		.align	2
 120              	.L8:
 121 004c 400D0300 		.word	200000
 122              		.cfi_endproc
 123              	.LFE168:
 125              		.section	.text.USB_CoreInit,"ax",%progbits
 126              		.align	1
 127              		.global	USB_CoreInit
 128              		.syntax unified
 129              		.thumb
 130              		.thumb_func
 131              		.fpu fpv4-sp-d16
 133              	USB_CoreInit:
 134              	.LVL6:
 135              	.LFB134:
  84:Drivers/STM32L4xx_HAL_Driver/Src/stm32l4xx_ll_usb.c ****   HAL_StatusTypeDef ret;
 136              		.loc 1 84 1 is_stmt 1 view -0
 137              		.cfi_startproc
 138              		@ args = 56, pretend = 16, frame = 0
 139              		@ frame_needed = 0, uses_anonymous_args = 0
  84:Drivers/STM32L4xx_HAL_Driver/Src/stm32l4xx_ll_usb.c ****   HAL_StatusTypeDef ret;
 140              		.loc 1 84 1 is_stmt 0 view .LVU33
 141 0000 84B0     		sub	sp, sp, #16
 142              	.LCFI3:
 143              		.cfi_def_cfa_offset 16
 144 0002 38B5     		push	{r3, r4, r5, lr}
 145              	.LCFI4:
 146              		.cfi_def_cfa_offset 32
 147              		.cfi_offset 3, -32
ARM GAS  /tmp/ccS8Yg0I.s 			page 27


 148              		.cfi_offset 4, -28
 149              		.cfi_offset 5, -24
 150              		.cfi_offset 14, -20
 151 0004 0446     		mov	r4, r0
 152 0006 05AD     		add	r5, sp, #20
 153 0008 85E80E00 		stm	r5, {r1, r2, r3}
  85:Drivers/STM32L4xx_HAL_Driver/Src/stm32l4xx_ll_usb.c **** 
 154              		.loc 1 85 3 is_stmt 1 view .LVU34
  88:Drivers/STM32L4xx_HAL_Driver/Src/stm32l4xx_ll_usb.c **** 
 155              		.loc 1 88 3 view .LVU35
  88:Drivers/STM32L4xx_HAL_Driver/Src/stm32l4xx_ll_usb.c **** 
 156              		.loc 1 88 17 is_stmt 0 view .LVU36
 157 000c C368     		ldr	r3, [r0, #12]
 158 000e 43F04003 		orr	r3, r3, #64
 159 0012 C360     		str	r3, [r0, #12]
  91:Drivers/STM32L4xx_HAL_Driver/Src/stm32l4xx_ll_usb.c **** 
 160              		.loc 1 91 3 is_stmt 1 view .LVU37
  91:Drivers/STM32L4xx_HAL_Driver/Src/stm32l4xx_ll_usb.c **** 
 161              		.loc 1 91 9 is_stmt 0 view .LVU38
 162 0014 FFF7FEFF 		bl	USB_CoreReset
 163              	.LVL7:
  93:Drivers/STM32L4xx_HAL_Driver/Src/stm32l4xx_ll_usb.c ****   {
 164              		.loc 1 93 3 is_stmt 1 view .LVU39
  93:Drivers/STM32L4xx_HAL_Driver/Src/stm32l4xx_ll_usb.c ****   {
 165              		.loc 1 93 10 is_stmt 0 view .LVU40
 166 0018 0E9B     		ldr	r3, [sp, #56]
  93:Drivers/STM32L4xx_HAL_Driver/Src/stm32l4xx_ll_usb.c ****   {
 167              		.loc 1 93 6 view .LVU41
 168 001a 3BB9     		cbnz	r3, .L11
  96:Drivers/STM32L4xx_HAL_Driver/Src/stm32l4xx_ll_usb.c ****   }
 169              		.loc 1 96 5 is_stmt 1 view .LVU42
  96:Drivers/STM32L4xx_HAL_Driver/Src/stm32l4xx_ll_usb.c ****   }
 170              		.loc 1 96 17 is_stmt 0 view .LVU43
 171 001c A36B     		ldr	r3, [r4, #56]
 172 001e 43F48033 		orr	r3, r3, #65536
 173 0022 A363     		str	r3, [r4, #56]
 174              	.L12:
 104:Drivers/STM32L4xx_HAL_Driver/Src/stm32l4xx_ll_usb.c **** }
 175              		.loc 1 104 3 is_stmt 1 view .LVU44
 105:Drivers/STM32L4xx_HAL_Driver/Src/stm32l4xx_ll_usb.c **** 
 176              		.loc 1 105 1 is_stmt 0 view .LVU45
 177 0024 BDE83840 		pop	{r3, r4, r5, lr}
 178              	.LCFI5:
 179              		.cfi_remember_state
 180              		.cfi_restore 14
 181              		.cfi_restore 5
 182              		.cfi_restore 4
 183              		.cfi_restore 3
 184              		.cfi_def_cfa_offset 16
 185              	.LVL8:
 105:Drivers/STM32L4xx_HAL_Driver/Src/stm32l4xx_ll_usb.c **** 
 186              		.loc 1 105 1 view .LVU46
 187 0028 04B0     		add	sp, sp, #16
 188              	.LCFI6:
 189              		.cfi_def_cfa_offset 0
 190 002a 7047     		bx	lr
 191              	.LVL9:
ARM GAS  /tmp/ccS8Yg0I.s 			page 28


 192              	.L11:
 193              	.LCFI7:
 194              		.cfi_restore_state
 101:Drivers/STM32L4xx_HAL_Driver/Src/stm32l4xx_ll_usb.c ****   }
 195              		.loc 1 101 5 is_stmt 1 view .LVU47
 101:Drivers/STM32L4xx_HAL_Driver/Src/stm32l4xx_ll_usb.c ****   }
 196              		.loc 1 101 17 is_stmt 0 view .LVU48
 197 002c A36B     		ldr	r3, [r4, #56]
 198 002e 23F48033 		bic	r3, r3, #65536
 199 0032 A363     		str	r3, [r4, #56]
 200 0034 F6E7     		b	.L12
 201              		.cfi_endproc
 202              	.LFE134:
 204              		.section	.text.USB_SetTurnaroundTime,"ax",%progbits
 205              		.align	1
 206              		.global	USB_SetTurnaroundTime
 207              		.syntax unified
 208              		.thumb
 209              		.thumb_func
 210              		.fpu fpv4-sp-d16
 212              	USB_SetTurnaroundTime:
 213              	.LVL10:
 214              	.LFB135:
 116:Drivers/STM32L4xx_HAL_Driver/Src/stm32l4xx_ll_usb.c ****   uint32_t UsbTrd;
 215              		.loc 1 116 1 is_stmt 1 view -0
 216              		.cfi_startproc
 217              		@ args = 0, pretend = 0, frame = 0
 218              		@ frame_needed = 0, uses_anonymous_args = 0
 219              		@ link register save eliminated.
 117:Drivers/STM32L4xx_HAL_Driver/Src/stm32l4xx_ll_usb.c **** 
 220              		.loc 1 117 3 view .LVU50
 123:Drivers/STM32L4xx_HAL_Driver/Src/stm32l4xx_ll_usb.c ****   {
 221              		.loc 1 123 3 view .LVU51
 123:Drivers/STM32L4xx_HAL_Driver/Src/stm32l4xx_ll_usb.c ****   {
 222              		.loc 1 123 6 is_stmt 0 view .LVU52
 223 0000 022A     		cmp	r2, #2
 224 0002 0AD0     		beq	.L26
 178:Drivers/STM32L4xx_HAL_Driver/Src/stm32l4xx_ll_usb.c ****   }
 225              		.loc 1 178 12 view .LVU53
 226 0004 0921     		movs	r1, #9
 227              	.LVL11:
 228              	.L15:
 181:Drivers/STM32L4xx_HAL_Driver/Src/stm32l4xx_ll_usb.c ****   USBx->GUSBCFG |= (uint32_t)((UsbTrd << 10) & USB_OTG_GUSBCFG_TRDT);
 229              		.loc 1 181 3 is_stmt 1 view .LVU54
 181:Drivers/STM32L4xx_HAL_Driver/Src/stm32l4xx_ll_usb.c ****   USBx->GUSBCFG |= (uint32_t)((UsbTrd << 10) & USB_OTG_GUSBCFG_TRDT);
 230              		.loc 1 181 17 is_stmt 0 view .LVU55
 231 0006 C268     		ldr	r2, [r0, #12]
 232 0008 22F47052 		bic	r2, r2, #15360
 233 000c C260     		str	r2, [r0, #12]
 182:Drivers/STM32L4xx_HAL_Driver/Src/stm32l4xx_ll_usb.c **** 
 234              		.loc 1 182 3 is_stmt 1 view .LVU56
 182:Drivers/STM32L4xx_HAL_Driver/Src/stm32l4xx_ll_usb.c **** 
 235              		.loc 1 182 17 is_stmt 0 view .LVU57
 236 000e C368     		ldr	r3, [r0, #12]
 237 0010 43EA8123 		orr	r3, r3, r1, lsl #10
 238 0014 C360     		str	r3, [r0, #12]
 184:Drivers/STM32L4xx_HAL_Driver/Src/stm32l4xx_ll_usb.c **** }
ARM GAS  /tmp/ccS8Yg0I.s 			page 29


 239              		.loc 1 184 3 is_stmt 1 view .LVU58
 185:Drivers/STM32L4xx_HAL_Driver/Src/stm32l4xx_ll_usb.c **** 
 240              		.loc 1 185 1 is_stmt 0 view .LVU59
 241 0016 0020     		movs	r0, #0
 242              	.LVL12:
 185:Drivers/STM32L4xx_HAL_Driver/Src/stm32l4xx_ll_usb.c **** 
 243              		.loc 1 185 1 view .LVU60
 244 0018 7047     		bx	lr
 245              	.LVL13:
 246              	.L26:
 125:Drivers/STM32L4xx_HAL_Driver/Src/stm32l4xx_ll_usb.c ****     {
 247              		.loc 1 125 5 is_stmt 1 view .LVU61
 125:Drivers/STM32L4xx_HAL_Driver/Src/stm32l4xx_ll_usb.c ****     {
 248              		.loc 1 125 29 is_stmt 0 view .LVU62
 249 001a 234B     		ldr	r3, .L27
 250 001c 0B44     		add	r3, r3, r1
 125:Drivers/STM32L4xx_HAL_Driver/Src/stm32l4xx_ll_usb.c ****     {
 251              		.loc 1 125 8 view .LVU63
 252 001e 234A     		ldr	r2, .L27+4
 253              	.LVL14:
 125:Drivers/STM32L4xx_HAL_Driver/Src/stm32l4xx_ll_usb.c ****     {
 254              		.loc 1 125 8 view .LVU64
 255 0020 9342     		cmp	r3, r2
 256 0022 2FD9     		bls	.L17
 130:Drivers/STM32L4xx_HAL_Driver/Src/stm32l4xx_ll_usb.c ****     {
 257              		.loc 1 130 10 is_stmt 1 view .LVU65
 130:Drivers/STM32L4xx_HAL_Driver/Src/stm32l4xx_ll_usb.c ****     {
 258              		.loc 1 130 34 is_stmt 0 view .LVU66
 259 0024 224B     		ldr	r3, .L27+8
 260 0026 0B44     		add	r3, r3, r1
 130:Drivers/STM32L4xx_HAL_Driver/Src/stm32l4xx_ll_usb.c ****     {
 261              		.loc 1 130 13 view .LVU67
 262 0028 224A     		ldr	r2, .L27+12
 263 002a 9342     		cmp	r3, r2
 264 002c 2CD9     		bls	.L18
 135:Drivers/STM32L4xx_HAL_Driver/Src/stm32l4xx_ll_usb.c ****     {
 265              		.loc 1 135 10 is_stmt 1 view .LVU68
 135:Drivers/STM32L4xx_HAL_Driver/Src/stm32l4xx_ll_usb.c ****     {
 266              		.loc 1 135 34 is_stmt 0 view .LVU69
 267 002e A1F57403 		sub	r3, r1, #15990784
 268 0032 A3F51053 		sub	r3, r3, #9216
 135:Drivers/STM32L4xx_HAL_Driver/Src/stm32l4xx_ll_usb.c ****     {
 269              		.loc 1 135 13 view .LVU70
 270 0036 204A     		ldr	r2, .L27+16
 271 0038 9342     		cmp	r3, r2
 272 003a 27D9     		bls	.L19
 140:Drivers/STM32L4xx_HAL_Driver/Src/stm32l4xx_ll_usb.c ****     {
 273              		.loc 1 140 10 is_stmt 1 view .LVU71
 140:Drivers/STM32L4xx_HAL_Driver/Src/stm32l4xx_ll_usb.c ****     {
 274              		.loc 1 140 34 is_stmt 0 view .LVU72
 275 003c A1F18373 		sub	r3, r1, #17170432
 276 0040 A3F5E743 		sub	r3, r3, #29568
 140:Drivers/STM32L4xx_HAL_Driver/Src/stm32l4xx_ll_usb.c ****     {
 277              		.loc 1 140 13 view .LVU73
 278 0044 1D4A     		ldr	r2, .L27+20
 279 0046 9342     		cmp	r3, r2
 280 0048 22D3     		bcc	.L20
ARM GAS  /tmp/ccS8Yg0I.s 			page 30


 145:Drivers/STM32L4xx_HAL_Driver/Src/stm32l4xx_ll_usb.c ****     {
 281              		.loc 1 145 10 is_stmt 1 view .LVU74
 145:Drivers/STM32L4xx_HAL_Driver/Src/stm32l4xx_ll_usb.c ****     {
 282              		.loc 1 145 34 is_stmt 0 view .LVU75
 283 004a 1D4B     		ldr	r3, .L27+24
 284 004c 0B44     		add	r3, r3, r1
 145:Drivers/STM32L4xx_HAL_Driver/Src/stm32l4xx_ll_usb.c ****     {
 285              		.loc 1 145 13 view .LVU76
 286 004e 1D4A     		ldr	r2, .L27+28
 287 0050 9342     		cmp	r3, r2
 288 0052 1FD9     		bls	.L21
 150:Drivers/STM32L4xx_HAL_Driver/Src/stm32l4xx_ll_usb.c ****     {
 289              		.loc 1 150 10 is_stmt 1 view .LVU77
 150:Drivers/STM32L4xx_HAL_Driver/Src/stm32l4xx_ll_usb.c ****     {
 290              		.loc 1 150 34 is_stmt 0 view .LVU78
 291 0054 1C4B     		ldr	r3, .L27+32
 292 0056 0B44     		add	r3, r3, r1
 150:Drivers/STM32L4xx_HAL_Driver/Src/stm32l4xx_ll_usb.c ****     {
 293              		.loc 1 150 13 view .LVU79
 294 0058 1C4A     		ldr	r2, .L27+36
 295 005a 9342     		cmp	r3, r2
 296 005c 1CD3     		bcc	.L22
 155:Drivers/STM32L4xx_HAL_Driver/Src/stm32l4xx_ll_usb.c ****     {
 297              		.loc 1 155 10 is_stmt 1 view .LVU80
 155:Drivers/STM32L4xx_HAL_Driver/Src/stm32l4xx_ll_usb.c ****     {
 298              		.loc 1 155 34 is_stmt 0 view .LVU81
 299 005e 1C4B     		ldr	r3, .L27+40
 300 0060 0B44     		add	r3, r3, r1
 155:Drivers/STM32L4xx_HAL_Driver/Src/stm32l4xx_ll_usb.c ****     {
 301              		.loc 1 155 13 view .LVU82
 302 0062 1C4A     		ldr	r2, .L27+44
 303 0064 9342     		cmp	r3, r2
 304 0066 19D3     		bcc	.L23
 160:Drivers/STM32L4xx_HAL_Driver/Src/stm32l4xx_ll_usb.c ****     {
 305              		.loc 1 160 10 is_stmt 1 view .LVU83
 160:Drivers/STM32L4xx_HAL_Driver/Src/stm32l4xx_ll_usb.c ****     {
 306              		.loc 1 160 34 is_stmt 0 view .LVU84
 307 0068 A1F1B773 		sub	r3, r1, #23986176
 308 006c A3F55853 		sub	r3, r3, #13824
 160:Drivers/STM32L4xx_HAL_Driver/Src/stm32l4xx_ll_usb.c ****     {
 309              		.loc 1 160 13 view .LVU85
 310 0070 194A     		ldr	r2, .L27+48
 311 0072 9342     		cmp	r3, r2
 312 0074 14D3     		bcc	.L24
 165:Drivers/STM32L4xx_HAL_Driver/Src/stm32l4xx_ll_usb.c ****     {
 313              		.loc 1 165 10 is_stmt 1 view .LVU86
 165:Drivers/STM32L4xx_HAL_Driver/Src/stm32l4xx_ll_usb.c ****     {
 314              		.loc 1 165 34 is_stmt 0 view .LVU87
 315 0076 194B     		ldr	r3, .L27+52
 316 0078 0B44     		add	r3, r3, r1
 165:Drivers/STM32L4xx_HAL_Driver/Src/stm32l4xx_ll_usb.c ****     {
 317              		.loc 1 165 13 view .LVU88
 318 007a 194A     		ldr	r2, .L27+56
 319 007c 9342     		cmp	r3, r2
 320 007e 11D2     		bcs	.L25
 168:Drivers/STM32L4xx_HAL_Driver/Src/stm32l4xx_ll_usb.c ****     }
 321              		.loc 1 168 14 view .LVU89
ARM GAS  /tmp/ccS8Yg0I.s 			page 31


 322 0080 0721     		movs	r1, #7
 323              	.LVL15:
 168:Drivers/STM32L4xx_HAL_Driver/Src/stm32l4xx_ll_usb.c ****     }
 324              		.loc 1 168 14 view .LVU90
 325 0082 C0E7     		b	.L15
 326              	.LVL16:
 327              	.L17:
 128:Drivers/STM32L4xx_HAL_Driver/Src/stm32l4xx_ll_usb.c ****     }
 328              		.loc 1 128 14 view .LVU91
 329 0084 0F21     		movs	r1, #15
 330              	.LVL17:
 128:Drivers/STM32L4xx_HAL_Driver/Src/stm32l4xx_ll_usb.c ****     }
 331              		.loc 1 128 14 view .LVU92
 332 0086 BEE7     		b	.L15
 333              	.LVL18:
 334              	.L18:
 133:Drivers/STM32L4xx_HAL_Driver/Src/stm32l4xx_ll_usb.c ****     }
 335              		.loc 1 133 14 view .LVU93
 336 0088 0E21     		movs	r1, #14
 337              	.LVL19:
 133:Drivers/STM32L4xx_HAL_Driver/Src/stm32l4xx_ll_usb.c ****     }
 338              		.loc 1 133 14 view .LVU94
 339 008a BCE7     		b	.L15
 340              	.LVL20:
 341              	.L19:
 138:Drivers/STM32L4xx_HAL_Driver/Src/stm32l4xx_ll_usb.c ****     }
 342              		.loc 1 138 14 view .LVU95
 343 008c 0D21     		movs	r1, #13
 344              	.LVL21:
 138:Drivers/STM32L4xx_HAL_Driver/Src/stm32l4xx_ll_usb.c ****     }
 345              		.loc 1 138 14 view .LVU96
 346 008e BAE7     		b	.L15
 347              	.LVL22:
 348              	.L20:
 143:Drivers/STM32L4xx_HAL_Driver/Src/stm32l4xx_ll_usb.c ****     }
 349              		.loc 1 143 14 view .LVU97
 350 0090 0C21     		movs	r1, #12
 351              	.LVL23:
 143:Drivers/STM32L4xx_HAL_Driver/Src/stm32l4xx_ll_usb.c ****     }
 352              		.loc 1 143 14 view .LVU98
 353 0092 B8E7     		b	.L15
 354              	.LVL24:
 355              	.L21:
 148:Drivers/STM32L4xx_HAL_Driver/Src/stm32l4xx_ll_usb.c ****     }
 356              		.loc 1 148 14 view .LVU99
 357 0094 0B21     		movs	r1, #11
 358              	.LVL25:
 148:Drivers/STM32L4xx_HAL_Driver/Src/stm32l4xx_ll_usb.c ****     }
 359              		.loc 1 148 14 view .LVU100
 360 0096 B6E7     		b	.L15
 361              	.LVL26:
 362              	.L22:
 153:Drivers/STM32L4xx_HAL_Driver/Src/stm32l4xx_ll_usb.c ****     }
 363              		.loc 1 153 14 view .LVU101
 364 0098 0A21     		movs	r1, #10
 365              	.LVL27:
 153:Drivers/STM32L4xx_HAL_Driver/Src/stm32l4xx_ll_usb.c ****     }
ARM GAS  /tmp/ccS8Yg0I.s 			page 32


 366              		.loc 1 153 14 view .LVU102
 367 009a B4E7     		b	.L15
 368              	.LVL28:
 369              	.L23:
 158:Drivers/STM32L4xx_HAL_Driver/Src/stm32l4xx_ll_usb.c ****     }
 370              		.loc 1 158 14 view .LVU103
 371 009c 0921     		movs	r1, #9
 372              	.LVL29:
 158:Drivers/STM32L4xx_HAL_Driver/Src/stm32l4xx_ll_usb.c ****     }
 373              		.loc 1 158 14 view .LVU104
 374 009e B2E7     		b	.L15
 375              	.LVL30:
 376              	.L24:
 163:Drivers/STM32L4xx_HAL_Driver/Src/stm32l4xx_ll_usb.c ****     }
 377              		.loc 1 163 14 view .LVU105
 378 00a0 0821     		movs	r1, #8
 379              	.LVL31:
 163:Drivers/STM32L4xx_HAL_Driver/Src/stm32l4xx_ll_usb.c ****     }
 380              		.loc 1 163 14 view .LVU106
 381 00a2 B0E7     		b	.L15
 382              	.LVL32:
 383              	.L25:
 173:Drivers/STM32L4xx_HAL_Driver/Src/stm32l4xx_ll_usb.c ****     }
 384              		.loc 1 173 14 view .LVU107
 385 00a4 0621     		movs	r1, #6
 386              	.LVL33:
 173:Drivers/STM32L4xx_HAL_Driver/Src/stm32l4xx_ll_usb.c ****     }
 387              		.loc 1 173 14 view .LVU108
 388 00a6 AEE7     		b	.L15
 389              	.L28:
 390              		.align	2
 391              	.L27:
 392 00a8 405327FF 		.word	-14200000
 393 00ac FF340C00 		.word	799999
 394 00b0 401E1BFF 		.word	-15000000
 395 00b4 3F420F00 		.word	999999
 396 00b8 7F4F1200 		.word	1199999
 397 00bc 20D61300 		.word	1300000
 398 00c0 60B6E5FE 		.word	-18500000
 399 00c4 5FE31600 		.word	1499999
 400 00c8 00D3CEFE 		.word	-20000000
 401 00cc 40771B00 		.word	1800000
 402 00d0 C05BB3FE 		.word	-21800000
 403 00d4 C0912100 		.word	2200000
 404 00d8 20753800 		.word	3700000
 405 00dc E05459FE 		.word	-27700000
 406 00e0 E09C4100 		.word	4300000
 407              		.cfi_endproc
 408              	.LFE135:
 410              		.section	.text.USB_EnableGlobalInt,"ax",%progbits
 411              		.align	1
 412              		.global	USB_EnableGlobalInt
 413              		.syntax unified
 414              		.thumb
 415              		.thumb_func
 416              		.fpu fpv4-sp-d16
 418              	USB_EnableGlobalInt:
ARM GAS  /tmp/ccS8Yg0I.s 			page 33


 419              	.LVL34:
 420              	.LFB136:
 194:Drivers/STM32L4xx_HAL_Driver/Src/stm32l4xx_ll_usb.c ****   USBx->GAHBCFG |= USB_OTG_GAHBCFG_GINT;
 421              		.loc 1 194 1 is_stmt 1 view -0
 422              		.cfi_startproc
 423              		@ args = 0, pretend = 0, frame = 0
 424              		@ frame_needed = 0, uses_anonymous_args = 0
 425              		@ link register save eliminated.
 195:Drivers/STM32L4xx_HAL_Driver/Src/stm32l4xx_ll_usb.c ****   return HAL_OK;
 426              		.loc 1 195 3 view .LVU110
 195:Drivers/STM32L4xx_HAL_Driver/Src/stm32l4xx_ll_usb.c ****   return HAL_OK;
 427              		.loc 1 195 17 is_stmt 0 view .LVU111
 428 0000 8368     		ldr	r3, [r0, #8]
 429 0002 43F00103 		orr	r3, r3, #1
 430 0006 8360     		str	r3, [r0, #8]
 196:Drivers/STM32L4xx_HAL_Driver/Src/stm32l4xx_ll_usb.c **** }
 431              		.loc 1 196 3 is_stmt 1 view .LVU112
 197:Drivers/STM32L4xx_HAL_Driver/Src/stm32l4xx_ll_usb.c **** 
 432              		.loc 1 197 1 is_stmt 0 view .LVU113
 433 0008 0020     		movs	r0, #0
 434              	.LVL35:
 197:Drivers/STM32L4xx_HAL_Driver/Src/stm32l4xx_ll_usb.c **** 
 435              		.loc 1 197 1 view .LVU114
 436 000a 7047     		bx	lr
 437              		.cfi_endproc
 438              	.LFE136:
 440              		.section	.text.USB_DisableGlobalInt,"ax",%progbits
 441              		.align	1
 442              		.global	USB_DisableGlobalInt
 443              		.syntax unified
 444              		.thumb
 445              		.thumb_func
 446              		.fpu fpv4-sp-d16
 448              	USB_DisableGlobalInt:
 449              	.LVL36:
 450              	.LFB137:
 206:Drivers/STM32L4xx_HAL_Driver/Src/stm32l4xx_ll_usb.c ****   USBx->GAHBCFG &= ~USB_OTG_GAHBCFG_GINT;
 451              		.loc 1 206 1 is_stmt 1 view -0
 452              		.cfi_startproc
 453              		@ args = 0, pretend = 0, frame = 0
 454              		@ frame_needed = 0, uses_anonymous_args = 0
 455              		@ link register save eliminated.
 207:Drivers/STM32L4xx_HAL_Driver/Src/stm32l4xx_ll_usb.c ****   return HAL_OK;
 456              		.loc 1 207 3 view .LVU116
 207:Drivers/STM32L4xx_HAL_Driver/Src/stm32l4xx_ll_usb.c ****   return HAL_OK;
 457              		.loc 1 207 17 is_stmt 0 view .LVU117
 458 0000 8368     		ldr	r3, [r0, #8]
 459 0002 23F00103 		bic	r3, r3, #1
 460 0006 8360     		str	r3, [r0, #8]
 208:Drivers/STM32L4xx_HAL_Driver/Src/stm32l4xx_ll_usb.c **** }
 461              		.loc 1 208 3 is_stmt 1 view .LVU118
 209:Drivers/STM32L4xx_HAL_Driver/Src/stm32l4xx_ll_usb.c **** 
 462              		.loc 1 209 1 is_stmt 0 view .LVU119
 463 0008 0020     		movs	r0, #0
 464              	.LVL37:
 209:Drivers/STM32L4xx_HAL_Driver/Src/stm32l4xx_ll_usb.c **** 
 465              		.loc 1 209 1 view .LVU120
ARM GAS  /tmp/ccS8Yg0I.s 			page 34


 466 000a 7047     		bx	lr
 467              		.cfi_endproc
 468              	.LFE137:
 470              		.section	.text.USB_FlushTxFifo,"ax",%progbits
 471              		.align	1
 472              		.global	USB_FlushTxFifo
 473              		.syntax unified
 474              		.thumb
 475              		.thumb_func
 476              		.fpu fpv4-sp-d16
 478              	USB_FlushTxFifo:
 479              	.LVL38:
 480              	.LFB140:
 404:Drivers/STM32L4xx_HAL_Driver/Src/stm32l4xx_ll_usb.c ****   __IO uint32_t count = 0U;
 481              		.loc 1 404 1 is_stmt 1 view -0
 482              		.cfi_startproc
 483              		@ args = 0, pretend = 0, frame = 8
 484              		@ frame_needed = 0, uses_anonymous_args = 0
 485              		@ link register save eliminated.
 404:Drivers/STM32L4xx_HAL_Driver/Src/stm32l4xx_ll_usb.c ****   __IO uint32_t count = 0U;
 486              		.loc 1 404 1 is_stmt 0 view .LVU122
 487 0000 82B0     		sub	sp, sp, #8
 488              	.LCFI8:
 489              		.cfi_def_cfa_offset 8
 405:Drivers/STM32L4xx_HAL_Driver/Src/stm32l4xx_ll_usb.c **** 
 490              		.loc 1 405 3 is_stmt 1 view .LVU123
 405:Drivers/STM32L4xx_HAL_Driver/Src/stm32l4xx_ll_usb.c **** 
 491              		.loc 1 405 17 is_stmt 0 view .LVU124
 492 0002 0023     		movs	r3, #0
 493 0004 0193     		str	r3, [sp, #4]
 494              	.L33:
 408:Drivers/STM32L4xx_HAL_Driver/Src/stm32l4xx_ll_usb.c ****   {
 495              		.loc 1 408 3 is_stmt 1 view .LVU125
 410:Drivers/STM32L4xx_HAL_Driver/Src/stm32l4xx_ll_usb.c **** 
 496              		.loc 1 410 5 view .LVU126
 410:Drivers/STM32L4xx_HAL_Driver/Src/stm32l4xx_ll_usb.c **** 
 497              		.loc 1 410 10 is_stmt 0 view .LVU127
 498 0006 019B     		ldr	r3, [sp, #4]
 499 0008 0133     		adds	r3, r3, #1
 500 000a 0193     		str	r3, [sp, #4]
 412:Drivers/STM32L4xx_HAL_Driver/Src/stm32l4xx_ll_usb.c ****     {
 501              		.loc 1 412 5 is_stmt 1 view .LVU128
 412:Drivers/STM32L4xx_HAL_Driver/Src/stm32l4xx_ll_usb.c ****     {
 502              		.loc 1 412 15 is_stmt 0 view .LVU129
 503 000c 019A     		ldr	r2, [sp, #4]
 412:Drivers/STM32L4xx_HAL_Driver/Src/stm32l4xx_ll_usb.c ****     {
 504              		.loc 1 412 8 view .LVU130
 505 000e 0F4B     		ldr	r3, .L38
 506 0010 9A42     		cmp	r2, r3
 507 0012 15D8     		bhi	.L35
 416:Drivers/STM32L4xx_HAL_Driver/Src/stm32l4xx_ll_usb.c **** 
 508              		.loc 1 416 11 is_stmt 1 view .LVU131
 416:Drivers/STM32L4xx_HAL_Driver/Src/stm32l4xx_ll_usb.c **** 
 509              		.loc 1 416 17 is_stmt 0 view .LVU132
 510 0014 0369     		ldr	r3, [r0, #16]
 416:Drivers/STM32L4xx_HAL_Driver/Src/stm32l4xx_ll_usb.c **** 
 511              		.loc 1 416 3 view .LVU133
ARM GAS  /tmp/ccS8Yg0I.s 			page 35


 512 0016 002B     		cmp	r3, #0
 513 0018 F5DA     		bge	.L33
 419:Drivers/STM32L4xx_HAL_Driver/Src/stm32l4xx_ll_usb.c ****   USBx->GRSTCTL = (USB_OTG_GRSTCTL_TXFFLSH | (num << 6));
 514              		.loc 1 419 3 is_stmt 1 view .LVU134
 419:Drivers/STM32L4xx_HAL_Driver/Src/stm32l4xx_ll_usb.c ****   USBx->GRSTCTL = (USB_OTG_GRSTCTL_TXFFLSH | (num << 6));
 515              		.loc 1 419 9 is_stmt 0 view .LVU135
 516 001a 0023     		movs	r3, #0
 517 001c 0193     		str	r3, [sp, #4]
 420:Drivers/STM32L4xx_HAL_Driver/Src/stm32l4xx_ll_usb.c **** 
 518              		.loc 1 420 3 is_stmt 1 view .LVU136
 420:Drivers/STM32L4xx_HAL_Driver/Src/stm32l4xx_ll_usb.c **** 
 519              		.loc 1 420 51 is_stmt 0 view .LVU137
 520 001e 8901     		lsls	r1, r1, #6
 521              	.LVL39:
 420:Drivers/STM32L4xx_HAL_Driver/Src/stm32l4xx_ll_usb.c **** 
 522              		.loc 1 420 44 view .LVU138
 523 0020 41F02001 		orr	r1, r1, #32
 420:Drivers/STM32L4xx_HAL_Driver/Src/stm32l4xx_ll_usb.c **** 
 524              		.loc 1 420 17 view .LVU139
 525 0024 0161     		str	r1, [r0, #16]
 526              	.L34:
 422:Drivers/STM32L4xx_HAL_Driver/Src/stm32l4xx_ll_usb.c ****   {
 527              		.loc 1 422 3 is_stmt 1 view .LVU140
 424:Drivers/STM32L4xx_HAL_Driver/Src/stm32l4xx_ll_usb.c **** 
 528              		.loc 1 424 5 view .LVU141
 424:Drivers/STM32L4xx_HAL_Driver/Src/stm32l4xx_ll_usb.c **** 
 529              		.loc 1 424 10 is_stmt 0 view .LVU142
 530 0026 019B     		ldr	r3, [sp, #4]
 531 0028 0133     		adds	r3, r3, #1
 532 002a 0193     		str	r3, [sp, #4]
 426:Drivers/STM32L4xx_HAL_Driver/Src/stm32l4xx_ll_usb.c ****     {
 533              		.loc 1 426 5 is_stmt 1 view .LVU143
 426:Drivers/STM32L4xx_HAL_Driver/Src/stm32l4xx_ll_usb.c ****     {
 534              		.loc 1 426 15 is_stmt 0 view .LVU144
 535 002c 019A     		ldr	r2, [sp, #4]
 426:Drivers/STM32L4xx_HAL_Driver/Src/stm32l4xx_ll_usb.c ****     {
 536              		.loc 1 426 8 view .LVU145
 537 002e 074B     		ldr	r3, .L38
 538 0030 9A42     		cmp	r2, r3
 539 0032 08D8     		bhi	.L36
 430:Drivers/STM32L4xx_HAL_Driver/Src/stm32l4xx_ll_usb.c **** 
 540              		.loc 1 430 11 is_stmt 1 view .LVU146
 430:Drivers/STM32L4xx_HAL_Driver/Src/stm32l4xx_ll_usb.c **** 
 541              		.loc 1 430 17 is_stmt 0 view .LVU147
 542 0034 0369     		ldr	r3, [r0, #16]
 430:Drivers/STM32L4xx_HAL_Driver/Src/stm32l4xx_ll_usb.c **** 
 543              		.loc 1 430 3 view .LVU148
 544 0036 13F0200F 		tst	r3, #32
 545 003a F4D1     		bne	.L34
 432:Drivers/STM32L4xx_HAL_Driver/Src/stm32l4xx_ll_usb.c **** }
 546              		.loc 1 432 10 view .LVU149
 547 003c 0020     		movs	r0, #0
 548              	.LVL40:
 432:Drivers/STM32L4xx_HAL_Driver/Src/stm32l4xx_ll_usb.c **** }
 549              		.loc 1 432 10 view .LVU150
 550 003e 00E0     		b	.L32
 551              	.LVL41:
ARM GAS  /tmp/ccS8Yg0I.s 			page 36


 552              	.L35:
 414:Drivers/STM32L4xx_HAL_Driver/Src/stm32l4xx_ll_usb.c ****     }
 553              		.loc 1 414 14 view .LVU151
 554 0040 0320     		movs	r0, #3
 555              	.LVL42:
 556              	.L32:
 433:Drivers/STM32L4xx_HAL_Driver/Src/stm32l4xx_ll_usb.c **** 
 557              		.loc 1 433 1 view .LVU152
 558 0042 02B0     		add	sp, sp, #8
 559              	.LCFI9:
 560              		.cfi_remember_state
 561              		.cfi_def_cfa_offset 0
 562              		@ sp needed
 563 0044 7047     		bx	lr
 564              	.LVL43:
 565              	.L36:
 566              	.LCFI10:
 567              		.cfi_restore_state
 428:Drivers/STM32L4xx_HAL_Driver/Src/stm32l4xx_ll_usb.c ****     }
 568              		.loc 1 428 14 view .LVU153
 569 0046 0320     		movs	r0, #3
 570              	.LVL44:
 428:Drivers/STM32L4xx_HAL_Driver/Src/stm32l4xx_ll_usb.c ****     }
 571              		.loc 1 428 14 view .LVU154
 572 0048 FBE7     		b	.L32
 573              	.L39:
 574 004a 00BF     		.align	2
 575              	.L38:
 576 004c 400D0300 		.word	200000
 577              		.cfi_endproc
 578              	.LFE140:
 580              		.section	.text.USB_FlushRxFifo,"ax",%progbits
 581              		.align	1
 582              		.global	USB_FlushRxFifo
 583              		.syntax unified
 584              		.thumb
 585              		.thumb_func
 586              		.fpu fpv4-sp-d16
 588              	USB_FlushRxFifo:
 589              	.LVL45:
 590              	.LFB141:
 441:Drivers/STM32L4xx_HAL_Driver/Src/stm32l4xx_ll_usb.c ****   __IO uint32_t count = 0U;
 591              		.loc 1 441 1 is_stmt 1 view -0
 592              		.cfi_startproc
 593              		@ args = 0, pretend = 0, frame = 8
 594              		@ frame_needed = 0, uses_anonymous_args = 0
 595              		@ link register save eliminated.
 441:Drivers/STM32L4xx_HAL_Driver/Src/stm32l4xx_ll_usb.c ****   __IO uint32_t count = 0U;
 596              		.loc 1 441 1 is_stmt 0 view .LVU156
 597 0000 82B0     		sub	sp, sp, #8
 598              	.LCFI11:
 599              		.cfi_def_cfa_offset 8
 442:Drivers/STM32L4xx_HAL_Driver/Src/stm32l4xx_ll_usb.c **** 
 600              		.loc 1 442 3 is_stmt 1 view .LVU157
 442:Drivers/STM32L4xx_HAL_Driver/Src/stm32l4xx_ll_usb.c **** 
 601              		.loc 1 442 17 is_stmt 0 view .LVU158
 602 0002 0023     		movs	r3, #0
ARM GAS  /tmp/ccS8Yg0I.s 			page 37


 603 0004 0193     		str	r3, [sp, #4]
 604              	.L42:
 445:Drivers/STM32L4xx_HAL_Driver/Src/stm32l4xx_ll_usb.c ****   {
 605              		.loc 1 445 3 is_stmt 1 view .LVU159
 447:Drivers/STM32L4xx_HAL_Driver/Src/stm32l4xx_ll_usb.c **** 
 606              		.loc 1 447 5 view .LVU160
 447:Drivers/STM32L4xx_HAL_Driver/Src/stm32l4xx_ll_usb.c **** 
 607              		.loc 1 447 10 is_stmt 0 view .LVU161
 608 0006 019B     		ldr	r3, [sp, #4]
 609 0008 0133     		adds	r3, r3, #1
 610 000a 0193     		str	r3, [sp, #4]
 449:Drivers/STM32L4xx_HAL_Driver/Src/stm32l4xx_ll_usb.c ****     {
 611              		.loc 1 449 5 is_stmt 1 view .LVU162
 449:Drivers/STM32L4xx_HAL_Driver/Src/stm32l4xx_ll_usb.c ****     {
 612              		.loc 1 449 15 is_stmt 0 view .LVU163
 613 000c 019A     		ldr	r2, [sp, #4]
 449:Drivers/STM32L4xx_HAL_Driver/Src/stm32l4xx_ll_usb.c ****     {
 614              		.loc 1 449 8 view .LVU164
 615 000e 0E4B     		ldr	r3, .L47
 616 0010 9A42     		cmp	r2, r3
 617 0012 13D8     		bhi	.L44
 453:Drivers/STM32L4xx_HAL_Driver/Src/stm32l4xx_ll_usb.c **** 
 618              		.loc 1 453 11 is_stmt 1 view .LVU165
 453:Drivers/STM32L4xx_HAL_Driver/Src/stm32l4xx_ll_usb.c **** 
 619              		.loc 1 453 17 is_stmt 0 view .LVU166
 620 0014 0369     		ldr	r3, [r0, #16]
 453:Drivers/STM32L4xx_HAL_Driver/Src/stm32l4xx_ll_usb.c **** 
 621              		.loc 1 453 3 view .LVU167
 622 0016 002B     		cmp	r3, #0
 623 0018 F5DA     		bge	.L42
 456:Drivers/STM32L4xx_HAL_Driver/Src/stm32l4xx_ll_usb.c ****   USBx->GRSTCTL = USB_OTG_GRSTCTL_RXFFLSH;
 624              		.loc 1 456 3 is_stmt 1 view .LVU168
 456:Drivers/STM32L4xx_HAL_Driver/Src/stm32l4xx_ll_usb.c ****   USBx->GRSTCTL = USB_OTG_GRSTCTL_RXFFLSH;
 625              		.loc 1 456 9 is_stmt 0 view .LVU169
 626 001a 0023     		movs	r3, #0
 627 001c 0193     		str	r3, [sp, #4]
 457:Drivers/STM32L4xx_HAL_Driver/Src/stm32l4xx_ll_usb.c **** 
 628              		.loc 1 457 3 is_stmt 1 view .LVU170
 457:Drivers/STM32L4xx_HAL_Driver/Src/stm32l4xx_ll_usb.c **** 
 629              		.loc 1 457 17 is_stmt 0 view .LVU171
 630 001e 1023     		movs	r3, #16
 631 0020 0361     		str	r3, [r0, #16]
 632              	.L43:
 459:Drivers/STM32L4xx_HAL_Driver/Src/stm32l4xx_ll_usb.c ****   {
 633              		.loc 1 459 3 is_stmt 1 view .LVU172
 461:Drivers/STM32L4xx_HAL_Driver/Src/stm32l4xx_ll_usb.c **** 
 634              		.loc 1 461 5 view .LVU173
 461:Drivers/STM32L4xx_HAL_Driver/Src/stm32l4xx_ll_usb.c **** 
 635              		.loc 1 461 10 is_stmt 0 view .LVU174
 636 0022 019B     		ldr	r3, [sp, #4]
 637 0024 0133     		adds	r3, r3, #1
 638 0026 0193     		str	r3, [sp, #4]
 463:Drivers/STM32L4xx_HAL_Driver/Src/stm32l4xx_ll_usb.c ****     {
 639              		.loc 1 463 5 is_stmt 1 view .LVU175
 463:Drivers/STM32L4xx_HAL_Driver/Src/stm32l4xx_ll_usb.c ****     {
 640              		.loc 1 463 15 is_stmt 0 view .LVU176
 641 0028 019A     		ldr	r2, [sp, #4]
ARM GAS  /tmp/ccS8Yg0I.s 			page 38


 463:Drivers/STM32L4xx_HAL_Driver/Src/stm32l4xx_ll_usb.c ****     {
 642              		.loc 1 463 8 view .LVU177
 643 002a 074B     		ldr	r3, .L47
 644 002c 9A42     		cmp	r2, r3
 645 002e 08D8     		bhi	.L45
 467:Drivers/STM32L4xx_HAL_Driver/Src/stm32l4xx_ll_usb.c **** 
 646              		.loc 1 467 11 is_stmt 1 view .LVU178
 467:Drivers/STM32L4xx_HAL_Driver/Src/stm32l4xx_ll_usb.c **** 
 647              		.loc 1 467 17 is_stmt 0 view .LVU179
 648 0030 0369     		ldr	r3, [r0, #16]
 467:Drivers/STM32L4xx_HAL_Driver/Src/stm32l4xx_ll_usb.c **** 
 649              		.loc 1 467 3 view .LVU180
 650 0032 13F0100F 		tst	r3, #16
 651 0036 F4D1     		bne	.L43
 469:Drivers/STM32L4xx_HAL_Driver/Src/stm32l4xx_ll_usb.c **** }
 652              		.loc 1 469 10 view .LVU181
 653 0038 0020     		movs	r0, #0
 654              	.LVL46:
 469:Drivers/STM32L4xx_HAL_Driver/Src/stm32l4xx_ll_usb.c **** }
 655              		.loc 1 469 10 view .LVU182
 656 003a 00E0     		b	.L41
 657              	.LVL47:
 658              	.L44:
 451:Drivers/STM32L4xx_HAL_Driver/Src/stm32l4xx_ll_usb.c ****     }
 659              		.loc 1 451 14 view .LVU183
 660 003c 0320     		movs	r0, #3
 661              	.LVL48:
 662              	.L41:
 470:Drivers/STM32L4xx_HAL_Driver/Src/stm32l4xx_ll_usb.c **** 
 663              		.loc 1 470 1 view .LVU184
 664 003e 02B0     		add	sp, sp, #8
 665              	.LCFI12:
 666              		.cfi_remember_state
 667              		.cfi_def_cfa_offset 0
 668              		@ sp needed
 669 0040 7047     		bx	lr
 670              	.LVL49:
 671              	.L45:
 672              	.LCFI13:
 673              		.cfi_restore_state
 465:Drivers/STM32L4xx_HAL_Driver/Src/stm32l4xx_ll_usb.c ****     }
 674              		.loc 1 465 14 view .LVU185
 675 0042 0320     		movs	r0, #3
 676              	.LVL50:
 465:Drivers/STM32L4xx_HAL_Driver/Src/stm32l4xx_ll_usb.c ****     }
 677              		.loc 1 465 14 view .LVU186
 678 0044 FBE7     		b	.L41
 679              	.L48:
 680 0046 00BF     		.align	2
 681              	.L47:
 682 0048 400D0300 		.word	200000
 683              		.cfi_endproc
 684              	.LFE141:
 686              		.section	.text.USB_SetDevSpeed,"ax",%progbits
 687              		.align	1
 688              		.global	USB_SetDevSpeed
 689              		.syntax unified
ARM GAS  /tmp/ccS8Yg0I.s 			page 39


 690              		.thumb
 691              		.thumb_func
 692              		.fpu fpv4-sp-d16
 694              	USB_SetDevSpeed:
 695              	.LVL51:
 696              	.LFB142:
 482:Drivers/STM32L4xx_HAL_Driver/Src/stm32l4xx_ll_usb.c ****   uint32_t USBx_BASE = (uint32_t)USBx;
 697              		.loc 1 482 1 is_stmt 1 view -0
 698              		.cfi_startproc
 699              		@ args = 0, pretend = 0, frame = 0
 700              		@ frame_needed = 0, uses_anonymous_args = 0
 701              		@ link register save eliminated.
 483:Drivers/STM32L4xx_HAL_Driver/Src/stm32l4xx_ll_usb.c **** 
 702              		.loc 1 483 3 view .LVU188
 485:Drivers/STM32L4xx_HAL_Driver/Src/stm32l4xx_ll_usb.c ****   return HAL_OK;
 703              		.loc 1 485 3 view .LVU189
 485:Drivers/STM32L4xx_HAL_Driver/Src/stm32l4xx_ll_usb.c ****   return HAL_OK;
 704              		.loc 1 485 21 is_stmt 0 view .LVU190
 705 0000 D0F80038 		ldr	r3, [r0, #2048]
 706 0004 1943     		orrs	r1, r1, r3
 707              	.LVL52:
 485:Drivers/STM32L4xx_HAL_Driver/Src/stm32l4xx_ll_usb.c ****   return HAL_OK;
 708              		.loc 1 485 21 view .LVU191
 709 0006 C0F80018 		str	r1, [r0, #2048]
 486:Drivers/STM32L4xx_HAL_Driver/Src/stm32l4xx_ll_usb.c **** }
 710              		.loc 1 486 3 is_stmt 1 view .LVU192
 487:Drivers/STM32L4xx_HAL_Driver/Src/stm32l4xx_ll_usb.c **** 
 711              		.loc 1 487 1 is_stmt 0 view .LVU193
 712 000a 0020     		movs	r0, #0
 713              	.LVL53:
 487:Drivers/STM32L4xx_HAL_Driver/Src/stm32l4xx_ll_usb.c **** 
 714              		.loc 1 487 1 view .LVU194
 715 000c 7047     		bx	lr
 716              		.cfi_endproc
 717              	.LFE142:
 719              		.section	.text.USB_DevInit,"ax",%progbits
 720              		.align	1
 721              		.global	USB_DevInit
 722              		.syntax unified
 723              		.thumb
 724              		.thumb_func
 725              		.fpu fpv4-sp-d16
 727              	USB_DevInit:
 728              	.LVL54:
 729              	.LFB139:
 268:Drivers/STM32L4xx_HAL_Driver/Src/stm32l4xx_ll_usb.c ****   HAL_StatusTypeDef ret = HAL_OK;
 730              		.loc 1 268 1 is_stmt 1 view -0
 731              		.cfi_startproc
 732              		@ args = 56, pretend = 16, frame = 0
 733              		@ frame_needed = 0, uses_anonymous_args = 0
 268:Drivers/STM32L4xx_HAL_Driver/Src/stm32l4xx_ll_usb.c ****   HAL_StatusTypeDef ret = HAL_OK;
 734              		.loc 1 268 1 is_stmt 0 view .LVU196
 735 0000 84B0     		sub	sp, sp, #16
 736              	.LCFI14:
 737              		.cfi_def_cfa_offset 16
 738 0002 2DE9F843 		push	{r3, r4, r5, r6, r7, r8, r9, lr}
 739              	.LCFI15:
ARM GAS  /tmp/ccS8Yg0I.s 			page 40


 740              		.cfi_def_cfa_offset 48
 741              		.cfi_offset 3, -48
 742              		.cfi_offset 4, -44
 743              		.cfi_offset 5, -40
 744              		.cfi_offset 6, -36
 745              		.cfi_offset 7, -32
 746              		.cfi_offset 8, -28
 747              		.cfi_offset 9, -24
 748              		.cfi_offset 14, -20
 749 0006 0446     		mov	r4, r0
 750 0008 09A8     		add	r0, sp, #36
 751              	.LVL55:
 268:Drivers/STM32L4xx_HAL_Driver/Src/stm32l4xx_ll_usb.c ****   HAL_StatusTypeDef ret = HAL_OK;
 752              		.loc 1 268 1 view .LVU197
 753 000a 80E80E00 		stm	r0, {r1, r2, r3}
 269:Drivers/STM32L4xx_HAL_Driver/Src/stm32l4xx_ll_usb.c ****   uint32_t USBx_BASE = (uint32_t)USBx;
 754              		.loc 1 269 3 is_stmt 1 view .LVU198
 755              	.LVL56:
 270:Drivers/STM32L4xx_HAL_Driver/Src/stm32l4xx_ll_usb.c ****   uint32_t i;
 756              		.loc 1 270 3 view .LVU199
 270:Drivers/STM32L4xx_HAL_Driver/Src/stm32l4xx_ll_usb.c ****   uint32_t i;
 757              		.loc 1 270 12 is_stmt 0 view .LVU200
 758 000e 2546     		mov	r5, r4
 759              	.LVL57:
 271:Drivers/STM32L4xx_HAL_Driver/Src/stm32l4xx_ll_usb.c **** 
 760              		.loc 1 271 3 is_stmt 1 view .LVU201
 273:Drivers/STM32L4xx_HAL_Driver/Src/stm32l4xx_ll_usb.c ****   {
 761              		.loc 1 273 3 view .LVU202
 273:Drivers/STM32L4xx_HAL_Driver/Src/stm32l4xx_ll_usb.c ****   {
 762              		.loc 1 273 10 is_stmt 0 view .LVU203
 763 0010 0023     		movs	r3, #0
 273:Drivers/STM32L4xx_HAL_Driver/Src/stm32l4xx_ll_usb.c ****   {
 764              		.loc 1 273 3 view .LVU204
 765 0012 06E0     		b	.L51
 766              	.LVL58:
 767              	.L52:
 275:Drivers/STM32L4xx_HAL_Driver/Src/stm32l4xx_ll_usb.c ****   }
 768              		.loc 1 275 5 is_stmt 1 discriminator 3 view .LVU205
 275:Drivers/STM32L4xx_HAL_Driver/Src/stm32l4xx_ll_usb.c ****   }
 769              		.loc 1 275 22 is_stmt 0 discriminator 3 view .LVU206
 770 0014 03F14002 		add	r2, r3, #64
 771 0018 04EB8202 		add	r2, r4, r2, lsl #2
 772 001c 0021     		movs	r1, #0
 773 001e 5160     		str	r1, [r2, #4]
 273:Drivers/STM32L4xx_HAL_Driver/Src/stm32l4xx_ll_usb.c ****   {
 774              		.loc 1 273 25 is_stmt 1 discriminator 3 view .LVU207
 273:Drivers/STM32L4xx_HAL_Driver/Src/stm32l4xx_ll_usb.c ****   {
 775              		.loc 1 273 26 is_stmt 0 discriminator 3 view .LVU208
 776 0020 0133     		adds	r3, r3, #1
 777              	.LVL59:
 778              	.L51:
 273:Drivers/STM32L4xx_HAL_Driver/Src/stm32l4xx_ll_usb.c ****   {
 779              		.loc 1 273 16 is_stmt 1 discriminator 1 view .LVU209
 273:Drivers/STM32L4xx_HAL_Driver/Src/stm32l4xx_ll_usb.c ****   {
 780              		.loc 1 273 3 is_stmt 0 discriminator 1 view .LVU210
 781 0022 0E2B     		cmp	r3, #14
 782 0024 F6D9     		bls	.L52
ARM GAS  /tmp/ccS8Yg0I.s 			page 41


 279:Drivers/STM32L4xx_HAL_Driver/Src/stm32l4xx_ll_usb.c ****   {
 783              		.loc 1 279 3 is_stmt 1 view .LVU211
 279:Drivers/STM32L4xx_HAL_Driver/Src/stm32l4xx_ll_usb.c ****   {
 784              		.loc 1 279 10 is_stmt 0 view .LVU212
 785 0026 DDF84C80 		ldr	r8, [sp, #76]
 279:Drivers/STM32L4xx_HAL_Driver/Src/stm32l4xx_ll_usb.c ****   {
 786              		.loc 1 279 6 view .LVU213
 787 002a B8F1000F 		cmp	r8, #0
 788 002e 31D1     		bne	.L53
 281:Drivers/STM32L4xx_HAL_Driver/Src/stm32l4xx_ll_usb.c **** 
 789              		.loc 1 281 5 is_stmt 1 view .LVU214
 281:Drivers/STM32L4xx_HAL_Driver/Src/stm32l4xx_ll_usb.c **** 
 790              		.loc 1 281 23 is_stmt 0 view .LVU215
 791 0030 D4F80438 		ldr	r3, [r4, #2052]
 792              	.LVL60:
 281:Drivers/STM32L4xx_HAL_Driver/Src/stm32l4xx_ll_usb.c **** 
 793              		.loc 1 281 23 view .LVU216
 794 0034 43F00203 		orr	r3, r3, #2
 795 0038 C4F80438 		str	r3, [r4, #2052]
 284:Drivers/STM32L4xx_HAL_Driver/Src/stm32l4xx_ll_usb.c **** 
 796              		.loc 1 284 5 is_stmt 1 view .LVU217
 284:Drivers/STM32L4xx_HAL_Driver/Src/stm32l4xx_ll_usb.c **** 
 797              		.loc 1 284 17 is_stmt 0 view .LVU218
 798 003c A36B     		ldr	r3, [r4, #56]
 799 003e 23F40013 		bic	r3, r3, #2097152
 800 0042 A363     		str	r3, [r4, #56]
 287:Drivers/STM32L4xx_HAL_Driver/Src/stm32l4xx_ll_usb.c ****     USBx->GOTGCTL |= USB_OTG_GOTGCTL_BVALOVAL;
 801              		.loc 1 287 5 is_stmt 1 view .LVU219
 287:Drivers/STM32L4xx_HAL_Driver/Src/stm32l4xx_ll_usb.c ****     USBx->GOTGCTL |= USB_OTG_GOTGCTL_BVALOVAL;
 802              		.loc 1 287 19 is_stmt 0 view .LVU220
 803 0044 2368     		ldr	r3, [r4]
 804 0046 43F04003 		orr	r3, r3, #64
 805 004a 2360     		str	r3, [r4]
 288:Drivers/STM32L4xx_HAL_Driver/Src/stm32l4xx_ll_usb.c ****   }
 806              		.loc 1 288 5 is_stmt 1 view .LVU221
 288:Drivers/STM32L4xx_HAL_Driver/Src/stm32l4xx_ll_usb.c ****   }
 807              		.loc 1 288 19 is_stmt 0 view .LVU222
 808 004c 2368     		ldr	r3, [r4]
 809 004e 43F08003 		orr	r3, r3, #128
 810 0052 2360     		str	r3, [r4]
 811              	.L54:
 297:Drivers/STM32L4xx_HAL_Driver/Src/stm32l4xx_ll_usb.c **** 
 812              		.loc 1 297 3 is_stmt 1 view .LVU223
 297:Drivers/STM32L4xx_HAL_Driver/Src/stm32l4xx_ll_usb.c **** 
 813              		.loc 1 297 16 is_stmt 0 view .LVU224
 814 0054 0023     		movs	r3, #0
 815 0056 C4F8003E 		str	r3, [r4, #3584]
 300:Drivers/STM32L4xx_HAL_Driver/Src/stm32l4xx_ll_usb.c **** 
 816              		.loc 1 300 3 is_stmt 1 view .LVU225
 300:Drivers/STM32L4xx_HAL_Driver/Src/stm32l4xx_ll_usb.c **** 
 817              		.loc 1 300 21 is_stmt 0 view .LVU226
 818 005a 04F50066 		add	r6, r4, #2048
 819 005e D4F80038 		ldr	r3, [r4, #2048]
 820 0062 C4F80038 		str	r3, [r4, #2048]
 303:Drivers/STM32L4xx_HAL_Driver/Src/stm32l4xx_ll_usb.c **** 
 821              		.loc 1 303 3 is_stmt 1 view .LVU227
 303:Drivers/STM32L4xx_HAL_Driver/Src/stm32l4xx_ll_usb.c **** 
ARM GAS  /tmp/ccS8Yg0I.s 			page 42


 822              		.loc 1 303 9 is_stmt 0 view .LVU228
 823 0066 0321     		movs	r1, #3
 824 0068 2046     		mov	r0, r4
 825 006a FFF7FEFF 		bl	USB_SetDevSpeed
 826              	.LVL61:
 306:Drivers/STM32L4xx_HAL_Driver/Src/stm32l4xx_ll_usb.c ****   {
 827              		.loc 1 306 3 is_stmt 1 view .LVU229
 306:Drivers/STM32L4xx_HAL_Driver/Src/stm32l4xx_ll_usb.c ****   {
 828              		.loc 1 306 7 is_stmt 0 view .LVU230
 829 006e 1021     		movs	r1, #16
 830 0070 2046     		mov	r0, r4
 831 0072 FFF7FEFF 		bl	USB_FlushTxFifo
 832              	.LVL62:
 306:Drivers/STM32L4xx_HAL_Driver/Src/stm32l4xx_ll_usb.c ****   {
 833              		.loc 1 306 6 view .LVU231
 834 0076 8146     		mov	r9, r0
 835 0078 08B1     		cbz	r0, .L55
 308:Drivers/STM32L4xx_HAL_Driver/Src/stm32l4xx_ll_usb.c ****   }
 836              		.loc 1 308 9 view .LVU232
 837 007a 4FF00109 		mov	r9, #1
 838              	.L55:
 839              	.LVL63:
 311:Drivers/STM32L4xx_HAL_Driver/Src/stm32l4xx_ll_usb.c ****   {
 840              		.loc 1 311 3 is_stmt 1 view .LVU233
 311:Drivers/STM32L4xx_HAL_Driver/Src/stm32l4xx_ll_usb.c ****   {
 841              		.loc 1 311 7 is_stmt 0 view .LVU234
 842 007e 2046     		mov	r0, r4
 843 0080 FFF7FEFF 		bl	USB_FlushRxFifo
 844              	.LVL64:
 311:Drivers/STM32L4xx_HAL_Driver/Src/stm32l4xx_ll_usb.c ****   {
 845              		.loc 1 311 6 view .LVU235
 846 0084 08B1     		cbz	r0, .L56
 313:Drivers/STM32L4xx_HAL_Driver/Src/stm32l4xx_ll_usb.c ****   }
 847              		.loc 1 313 9 view .LVU236
 848 0086 4FF00109 		mov	r9, #1
 849              	.LVL65:
 850              	.L56:
 317:Drivers/STM32L4xx_HAL_Driver/Src/stm32l4xx_ll_usb.c ****   USBx_DEVICE->DOEPMSK = 0U;
 851              		.loc 1 317 3 is_stmt 1 view .LVU237
 317:Drivers/STM32L4xx_HAL_Driver/Src/stm32l4xx_ll_usb.c ****   USBx_DEVICE->DOEPMSK = 0U;
 852              		.loc 1 317 24 is_stmt 0 view .LVU238
 853 008a 0023     		movs	r3, #0
 854 008c 3361     		str	r3, [r6, #16]
 318:Drivers/STM32L4xx_HAL_Driver/Src/stm32l4xx_ll_usb.c ****   USBx_DEVICE->DAINTMSK = 0U;
 855              		.loc 1 318 3 is_stmt 1 view .LVU239
 318:Drivers/STM32L4xx_HAL_Driver/Src/stm32l4xx_ll_usb.c ****   USBx_DEVICE->DAINTMSK = 0U;
 856              		.loc 1 318 24 is_stmt 0 view .LVU240
 857 008e 7361     		str	r3, [r6, #20]
 319:Drivers/STM32L4xx_HAL_Driver/Src/stm32l4xx_ll_usb.c **** 
 858              		.loc 1 319 3 is_stmt 1 view .LVU241
 319:Drivers/STM32L4xx_HAL_Driver/Src/stm32l4xx_ll_usb.c **** 
 859              		.loc 1 319 25 is_stmt 0 view .LVU242
 860 0090 F361     		str	r3, [r6, #28]
 321:Drivers/STM32L4xx_HAL_Driver/Src/stm32l4xx_ll_usb.c ****   {
 861              		.loc 1 321 3 is_stmt 1 view .LVU243
 862              	.LVL66:
 321:Drivers/STM32L4xx_HAL_Driver/Src/stm32l4xx_ll_usb.c ****   {
ARM GAS  /tmp/ccS8Yg0I.s 			page 43


 863              		.loc 1 321 3 is_stmt 0 view .LVU244
 864 0092 0FE0     		b	.L57
 865              	.LVL67:
 866              	.L53:
 293:Drivers/STM32L4xx_HAL_Driver/Src/stm32l4xx_ll_usb.c ****   }
 867              		.loc 1 293 5 is_stmt 1 view .LVU245
 293:Drivers/STM32L4xx_HAL_Driver/Src/stm32l4xx_ll_usb.c ****   }
 868              		.loc 1 293 17 is_stmt 0 view .LVU246
 869 0094 A36B     		ldr	r3, [r4, #56]
 870              	.LVL68:
 293:Drivers/STM32L4xx_HAL_Driver/Src/stm32l4xx_ll_usb.c ****   }
 871              		.loc 1 293 17 view .LVU247
 872 0096 43F40013 		orr	r3, r3, #2097152
 873 009a A363     		str	r3, [r4, #56]
 874 009c DAE7     		b	.L54
 875              	.LVL69:
 876              	.L73:
 325:Drivers/STM32L4xx_HAL_Driver/Src/stm32l4xx_ll_usb.c ****       {
 877              		.loc 1 325 7 is_stmt 1 view .LVU248
 325:Drivers/STM32L4xx_HAL_Driver/Src/stm32l4xx_ll_usb.c ****       {
 878              		.loc 1 325 10 is_stmt 0 view .LVU249
 879 009e C3B9     		cbnz	r3, .L59
 327:Drivers/STM32L4xx_HAL_Driver/Src/stm32l4xx_ll_usb.c ****       }
 880              		.loc 1 327 9 is_stmt 1 view .LVU250
 327:Drivers/STM32L4xx_HAL_Driver/Src/stm32l4xx_ll_usb.c ****       }
 881              		.loc 1 327 31 is_stmt 0 view .LVU251
 882 00a0 4FF00060 		mov	r0, #134217728
 883 00a4 C2F80009 		str	r0, [r2, #2304]
 884              	.L60:
 339:Drivers/STM32L4xx_HAL_Driver/Src/stm32l4xx_ll_usb.c ****     USBx_INEP(i)->DIEPINT  = 0xFB7FU;
 885              		.loc 1 339 5 is_stmt 1 discriminator 2 view .LVU252
 339:Drivers/STM32L4xx_HAL_Driver/Src/stm32l4xx_ll_usb.c ****     USBx_INEP(i)->DIEPINT  = 0xFB7FU;
 886              		.loc 1 339 28 is_stmt 0 discriminator 2 view .LVU253
 887 00a8 0022     		movs	r2, #0
 888 00aa 0A61     		str	r2, [r1, #16]
 340:Drivers/STM32L4xx_HAL_Driver/Src/stm32l4xx_ll_usb.c ****   }
 889              		.loc 1 340 5 is_stmt 1 discriminator 2 view .LVU254
 340:Drivers/STM32L4xx_HAL_Driver/Src/stm32l4xx_ll_usb.c ****   }
 890              		.loc 1 340 28 is_stmt 0 discriminator 2 view .LVU255
 891 00ac 4FF67F32 		movw	r2, #64383
 892 00b0 8A60     		str	r2, [r1, #8]
 321:Drivers/STM32L4xx_HAL_Driver/Src/stm32l4xx_ll_usb.c ****   {
 893              		.loc 1 321 39 is_stmt 1 discriminator 2 view .LVU256
 321:Drivers/STM32L4xx_HAL_Driver/Src/stm32l4xx_ll_usb.c ****   {
 894              		.loc 1 321 40 is_stmt 0 discriminator 2 view .LVU257
 895 00b2 0133     		adds	r3, r3, #1
 896              	.LVL70:
 897              	.L57:
 321:Drivers/STM32L4xx_HAL_Driver/Src/stm32l4xx_ll_usb.c ****   {
 898              		.loc 1 321 16 is_stmt 1 discriminator 1 view .LVU258
 321:Drivers/STM32L4xx_HAL_Driver/Src/stm32l4xx_ll_usb.c ****   {
 899              		.loc 1 321 23 is_stmt 0 discriminator 1 view .LVU259
 900 00b4 099F     		ldr	r7, [sp, #36]
 321:Drivers/STM32L4xx_HAL_Driver/Src/stm32l4xx_ll_usb.c ****   {
 901              		.loc 1 321 3 discriminator 1 view .LVU260
 902 00b6 9F42     		cmp	r7, r3
 903 00b8 10D9     		bls	.L72
ARM GAS  /tmp/ccS8Yg0I.s 			page 44


 323:Drivers/STM32L4xx_HAL_Driver/Src/stm32l4xx_ll_usb.c ****     {
 904              		.loc 1 323 5 is_stmt 1 view .LVU261
 323:Drivers/STM32L4xx_HAL_Driver/Src/stm32l4xx_ll_usb.c ****     {
 905              		.loc 1 323 10 is_stmt 0 view .LVU262
 906 00ba 05EB4312 		add	r2, r5, r3, lsl #5
 907 00be 02F51061 		add	r1, r2, #2304
 323:Drivers/STM32L4xx_HAL_Driver/Src/stm32l4xx_ll_usb.c ****     {
 908              		.loc 1 323 22 view .LVU263
 909 00c2 D2F80009 		ldr	r0, [r2, #2304]
 323:Drivers/STM32L4xx_HAL_Driver/Src/stm32l4xx_ll_usb.c ****     {
 910              		.loc 1 323 8 view .LVU264
 911 00c6 0028     		cmp	r0, #0
 912 00c8 E9DB     		blt	.L73
 336:Drivers/STM32L4xx_HAL_Driver/Src/stm32l4xx_ll_usb.c ****     }
 913              		.loc 1 336 7 is_stmt 1 view .LVU265
 336:Drivers/STM32L4xx_HAL_Driver/Src/stm32l4xx_ll_usb.c ****     }
 914              		.loc 1 336 29 is_stmt 0 view .LVU266
 915 00ca 0020     		movs	r0, #0
 916 00cc C2F80009 		str	r0, [r2, #2304]
 917 00d0 EAE7     		b	.L60
 918              	.L59:
 331:Drivers/STM32L4xx_HAL_Driver/Src/stm32l4xx_ll_usb.c ****       }
 919              		.loc 1 331 9 is_stmt 1 view .LVU267
 331:Drivers/STM32L4xx_HAL_Driver/Src/stm32l4xx_ll_usb.c ****       }
 920              		.loc 1 331 31 is_stmt 0 view .LVU268
 921 00d2 4FF09040 		mov	r0, #1207959552
 922 00d6 C2F80009 		str	r0, [r2, #2304]
 923 00da E5E7     		b	.L60
 924              	.L72:
 343:Drivers/STM32L4xx_HAL_Driver/Src/stm32l4xx_ll_usb.c ****   {
 925              		.loc 1 343 10 view .LVU269
 926 00dc 0023     		movs	r3, #0
 927              	.LVL71:
 343:Drivers/STM32L4xx_HAL_Driver/Src/stm32l4xx_ll_usb.c ****   {
 928              		.loc 1 343 10 view .LVU270
 929 00de 0AE0     		b	.L62
 930              	.LVL72:
 931              	.L76:
 347:Drivers/STM32L4xx_HAL_Driver/Src/stm32l4xx_ll_usb.c ****       {
 932              		.loc 1 347 7 is_stmt 1 view .LVU271
 347:Drivers/STM32L4xx_HAL_Driver/Src/stm32l4xx_ll_usb.c ****       {
 933              		.loc 1 347 10 is_stmt 0 view .LVU272
 934 00e0 BBB1     		cbz	r3, .L74
 353:Drivers/STM32L4xx_HAL_Driver/Src/stm32l4xx_ll_usb.c ****       }
 935              		.loc 1 353 9 is_stmt 1 view .LVU273
 353:Drivers/STM32L4xx_HAL_Driver/Src/stm32l4xx_ll_usb.c ****       }
 936              		.loc 1 353 32 is_stmt 0 view .LVU274
 937 00e2 4FF09040 		mov	r0, #1207959552
 938 00e6 C2F8000B 		str	r0, [r2, #2816]
 939              	.L65:
 361:Drivers/STM32L4xx_HAL_Driver/Src/stm32l4xx_ll_usb.c ****     USBx_OUTEP(i)->DOEPINT  = 0xFB7FU;
 940              		.loc 1 361 5 is_stmt 1 discriminator 2 view .LVU275
 361:Drivers/STM32L4xx_HAL_Driver/Src/stm32l4xx_ll_usb.c ****     USBx_OUTEP(i)->DOEPINT  = 0xFB7FU;
 941              		.loc 1 361 29 is_stmt 0 discriminator 2 view .LVU276
 942 00ea 0022     		movs	r2, #0
 943 00ec 0A61     		str	r2, [r1, #16]
 362:Drivers/STM32L4xx_HAL_Driver/Src/stm32l4xx_ll_usb.c ****   }
ARM GAS  /tmp/ccS8Yg0I.s 			page 45


 944              		.loc 1 362 5 is_stmt 1 discriminator 2 view .LVU277
 362:Drivers/STM32L4xx_HAL_Driver/Src/stm32l4xx_ll_usb.c ****   }
 945              		.loc 1 362 29 is_stmt 0 discriminator 2 view .LVU278
 946 00ee 4FF67F32 		movw	r2, #64383
 947 00f2 8A60     		str	r2, [r1, #8]
 343:Drivers/STM32L4xx_HAL_Driver/Src/stm32l4xx_ll_usb.c ****   {
 948              		.loc 1 343 39 is_stmt 1 discriminator 2 view .LVU279
 343:Drivers/STM32L4xx_HAL_Driver/Src/stm32l4xx_ll_usb.c ****   {
 949              		.loc 1 343 40 is_stmt 0 discriminator 2 view .LVU280
 950 00f4 0133     		adds	r3, r3, #1
 951              	.LVL73:
 952              	.L62:
 343:Drivers/STM32L4xx_HAL_Driver/Src/stm32l4xx_ll_usb.c ****   {
 953              		.loc 1 343 16 is_stmt 1 discriminator 1 view .LVU281
 343:Drivers/STM32L4xx_HAL_Driver/Src/stm32l4xx_ll_usb.c ****   {
 954              		.loc 1 343 3 is_stmt 0 discriminator 1 view .LVU282
 955 00f6 9F42     		cmp	r7, r3
 956 00f8 10D9     		bls	.L75
 345:Drivers/STM32L4xx_HAL_Driver/Src/stm32l4xx_ll_usb.c ****     {
 957              		.loc 1 345 5 is_stmt 1 view .LVU283
 345:Drivers/STM32L4xx_HAL_Driver/Src/stm32l4xx_ll_usb.c ****     {
 958              		.loc 1 345 10 is_stmt 0 view .LVU284
 959 00fa 05EB4312 		add	r2, r5, r3, lsl #5
 960 00fe 02F53061 		add	r1, r2, #2816
 345:Drivers/STM32L4xx_HAL_Driver/Src/stm32l4xx_ll_usb.c ****     {
 961              		.loc 1 345 23 view .LVU285
 962 0102 D2F8000B 		ldr	r0, [r2, #2816]
 345:Drivers/STM32L4xx_HAL_Driver/Src/stm32l4xx_ll_usb.c ****     {
 963              		.loc 1 345 8 view .LVU286
 964 0106 0028     		cmp	r0, #0
 965 0108 EADB     		blt	.L76
 358:Drivers/STM32L4xx_HAL_Driver/Src/stm32l4xx_ll_usb.c ****     }
 966              		.loc 1 358 7 is_stmt 1 view .LVU287
 358:Drivers/STM32L4xx_HAL_Driver/Src/stm32l4xx_ll_usb.c ****     }
 967              		.loc 1 358 30 is_stmt 0 view .LVU288
 968 010a 0020     		movs	r0, #0
 969 010c C2F8000B 		str	r0, [r2, #2816]
 970 0110 EBE7     		b	.L65
 971              	.L74:
 349:Drivers/STM32L4xx_HAL_Driver/Src/stm32l4xx_ll_usb.c ****       }
 972              		.loc 1 349 9 is_stmt 1 view .LVU289
 349:Drivers/STM32L4xx_HAL_Driver/Src/stm32l4xx_ll_usb.c ****       }
 973              		.loc 1 349 32 is_stmt 0 view .LVU290
 974 0112 4FF00060 		mov	r0, #134217728
 975 0116 C2F8000B 		str	r0, [r2, #2816]
 976 011a E6E7     		b	.L65
 977              	.L75:
 365:Drivers/STM32L4xx_HAL_Driver/Src/stm32l4xx_ll_usb.c **** 
 978              		.loc 1 365 3 is_stmt 1 view .LVU291
 365:Drivers/STM32L4xx_HAL_Driver/Src/stm32l4xx_ll_usb.c **** 
 979              		.loc 1 365 24 is_stmt 0 view .LVU292
 980 011c 3369     		ldr	r3, [r6, #16]
 981              	.LVL74:
 365:Drivers/STM32L4xx_HAL_Driver/Src/stm32l4xx_ll_usb.c **** 
 982              		.loc 1 365 24 view .LVU293
 983 011e 23F48073 		bic	r3, r3, #256
 984 0122 3361     		str	r3, [r6, #16]
ARM GAS  /tmp/ccS8Yg0I.s 			page 46


 368:Drivers/STM32L4xx_HAL_Driver/Src/stm32l4xx_ll_usb.c **** 
 985              		.loc 1 368 3 is_stmt 1 view .LVU294
 368:Drivers/STM32L4xx_HAL_Driver/Src/stm32l4xx_ll_usb.c **** 
 986              		.loc 1 368 17 is_stmt 0 view .LVU295
 987 0124 0023     		movs	r3, #0
 988 0126 A361     		str	r3, [r4, #24]
 371:Drivers/STM32L4xx_HAL_Driver/Src/stm32l4xx_ll_usb.c **** 
 989              		.loc 1 371 3 is_stmt 1 view .LVU296
 371:Drivers/STM32L4xx_HAL_Driver/Src/stm32l4xx_ll_usb.c **** 
 990              		.loc 1 371 17 is_stmt 0 view .LVU297
 991 0128 6FF08043 		mvn	r3, #1073741824
 992 012c 6361     		str	r3, [r4, #20]
 374:Drivers/STM32L4xx_HAL_Driver/Src/stm32l4xx_ll_usb.c **** 
 993              		.loc 1 374 3 is_stmt 1 view .LVU298
 374:Drivers/STM32L4xx_HAL_Driver/Src/stm32l4xx_ll_usb.c **** 
 994              		.loc 1 374 17 is_stmt 0 view .LVU299
 995 012e A369     		ldr	r3, [r4, #24]
 996 0130 43F01003 		orr	r3, r3, #16
 997 0134 A361     		str	r3, [r4, #24]
 377:Drivers/STM32L4xx_HAL_Driver/Src/stm32l4xx_ll_usb.c ****                    USB_OTG_GINTMSK_ENUMDNEM | USB_OTG_GINTMSK_IEPINT |
 998              		.loc 1 377 3 is_stmt 1 view .LVU300
 377:Drivers/STM32L4xx_HAL_Driver/Src/stm32l4xx_ll_usb.c ****                    USB_OTG_GINTMSK_ENUMDNEM | USB_OTG_GINTMSK_IEPINT |
 999              		.loc 1 377 17 is_stmt 0 view .LVU301
 1000 0136 A269     		ldr	r2, [r4, #24]
 1001 0138 0B4B     		ldr	r3, .L78
 1002 013a 1343     		orrs	r3, r3, r2
 1003 013c A361     		str	r3, [r4, #24]
 382:Drivers/STM32L4xx_HAL_Driver/Src/stm32l4xx_ll_usb.c ****   {
 1004              		.loc 1 382 3 is_stmt 1 view .LVU302
 382:Drivers/STM32L4xx_HAL_Driver/Src/stm32l4xx_ll_usb.c ****   {
 1005              		.loc 1 382 10 is_stmt 0 view .LVU303
 1006 013e 0F9B     		ldr	r3, [sp, #60]
 382:Drivers/STM32L4xx_HAL_Driver/Src/stm32l4xx_ll_usb.c ****   {
 1007              		.loc 1 382 6 view .LVU304
 1008 0140 1BB1     		cbz	r3, .L67
 384:Drivers/STM32L4xx_HAL_Driver/Src/stm32l4xx_ll_usb.c ****   }
 1009              		.loc 1 384 5 is_stmt 1 view .LVU305
 384:Drivers/STM32L4xx_HAL_Driver/Src/stm32l4xx_ll_usb.c ****   }
 1010              		.loc 1 384 19 is_stmt 0 view .LVU306
 1011 0142 A369     		ldr	r3, [r4, #24]
 1012 0144 43F00803 		orr	r3, r3, #8
 1013 0148 A361     		str	r3, [r4, #24]
 1014              	.L67:
 387:Drivers/STM32L4xx_HAL_Driver/Src/stm32l4xx_ll_usb.c ****   {
 1015              		.loc 1 387 3 is_stmt 1 view .LVU307
 387:Drivers/STM32L4xx_HAL_Driver/Src/stm32l4xx_ll_usb.c ****   {
 1016              		.loc 1 387 6 is_stmt 0 view .LVU308
 1017 014a B8F1010F 		cmp	r8, #1
 1018 014e 04D0     		beq	.L77
 1019              	.L68:
 392:Drivers/STM32L4xx_HAL_Driver/Src/stm32l4xx_ll_usb.c **** }
 1020              		.loc 1 392 3 is_stmt 1 view .LVU309
 393:Drivers/STM32L4xx_HAL_Driver/Src/stm32l4xx_ll_usb.c **** 
 1021              		.loc 1 393 1 is_stmt 0 view .LVU310
 1022 0150 4846     		mov	r0, r9
 1023 0152 BDE8F843 		pop	{r3, r4, r5, r6, r7, r8, r9, lr}
 1024              	.LCFI16:
ARM GAS  /tmp/ccS8Yg0I.s 			page 47


 1025              		.cfi_remember_state
 1026              		.cfi_restore 14
 1027              		.cfi_restore 9
 1028              		.cfi_restore 8
 1029              		.cfi_restore 7
 1030              		.cfi_restore 6
 1031              		.cfi_restore 5
 1032              		.cfi_restore 4
 1033              		.cfi_restore 3
 1034              		.cfi_def_cfa_offset 16
 1035              	.LVL75:
 393:Drivers/STM32L4xx_HAL_Driver/Src/stm32l4xx_ll_usb.c **** 
 1036              		.loc 1 393 1 view .LVU311
 1037 0156 04B0     		add	sp, sp, #16
 1038              	.LCFI17:
 1039              		.cfi_def_cfa_offset 0
 1040 0158 7047     		bx	lr
 1041              	.LVL76:
 1042              	.L77:
 1043              	.LCFI18:
 1044              		.cfi_restore_state
 389:Drivers/STM32L4xx_HAL_Driver/Src/stm32l4xx_ll_usb.c ****   }
 1045              		.loc 1 389 5 is_stmt 1 view .LVU312
 389:Drivers/STM32L4xx_HAL_Driver/Src/stm32l4xx_ll_usb.c ****   }
 1046              		.loc 1 389 19 is_stmt 0 view .LVU313
 1047 015a A369     		ldr	r3, [r4, #24]
 1048 015c 43F08043 		orr	r3, r3, #1073741824
 1049 0160 43F00403 		orr	r3, r3, #4
 1050 0164 A361     		str	r3, [r4, #24]
 1051 0166 F3E7     		b	.L68
 1052              	.L79:
 1053              		.align	2
 1054              	.L78:
 1055 0168 00383C80 		.word	-2143537152
 1056              		.cfi_endproc
 1057              	.LFE139:
 1059              		.section	.text.USB_GetDevSpeed,"ax",%progbits
 1060              		.align	1
 1061              		.global	USB_GetDevSpeed
 1062              		.syntax unified
 1063              		.thumb
 1064              		.thumb_func
 1065              		.fpu fpv4-sp-d16
 1067              	USB_GetDevSpeed:
 1068              	.LVL77:
 1069              	.LFB143:
 497:Drivers/STM32L4xx_HAL_Driver/Src/stm32l4xx_ll_usb.c ****   uint32_t USBx_BASE = (uint32_t)USBx;
 1070              		.loc 1 497 1 is_stmt 1 view -0
 1071              		.cfi_startproc
 1072              		@ args = 0, pretend = 0, frame = 0
 1073              		@ frame_needed = 0, uses_anonymous_args = 0
 1074              		@ link register save eliminated.
 498:Drivers/STM32L4xx_HAL_Driver/Src/stm32l4xx_ll_usb.c ****   uint8_t speed;
 1075              		.loc 1 498 3 view .LVU315
 499:Drivers/STM32L4xx_HAL_Driver/Src/stm32l4xx_ll_usb.c ****   uint32_t DevEnumSpeed = USBx_DEVICE->DSTS & USB_OTG_DSTS_ENUMSPD;
 1076              		.loc 1 499 3 view .LVU316
 500:Drivers/STM32L4xx_HAL_Driver/Src/stm32l4xx_ll_usb.c **** 
ARM GAS  /tmp/ccS8Yg0I.s 			page 48


 1077              		.loc 1 500 3 view .LVU317
 500:Drivers/STM32L4xx_HAL_Driver/Src/stm32l4xx_ll_usb.c **** 
 1078              		.loc 1 500 38 is_stmt 0 view .LVU318
 1079 0000 D0F80838 		ldr	r3, [r0, #2056]
 500:Drivers/STM32L4xx_HAL_Driver/Src/stm32l4xx_ll_usb.c **** 
 1080              		.loc 1 500 12 view .LVU319
 1081 0004 03F00603 		and	r3, r3, #6
 1082              	.LVL78:
 502:Drivers/STM32L4xx_HAL_Driver/Src/stm32l4xx_ll_usb.c ****       (DevEnumSpeed == DSTS_ENUMSPD_FS_PHY_48MHZ))
 1083              		.loc 1 502 3 is_stmt 1 view .LVU320
 502:Drivers/STM32L4xx_HAL_Driver/Src/stm32l4xx_ll_usb.c ****       (DevEnumSpeed == DSTS_ENUMSPD_FS_PHY_48MHZ))
 1084              		.loc 1 502 6 is_stmt 0 view .LVU321
 1085 0008 022B     		cmp	r3, #2
 1086 000a 05D0     		beq	.L82
 502:Drivers/STM32L4xx_HAL_Driver/Src/stm32l4xx_ll_usb.c ****       (DevEnumSpeed == DSTS_ENUMSPD_FS_PHY_48MHZ))
 1087              		.loc 1 502 60 discriminator 1 view .LVU322
 1088 000c 062B     		cmp	r3, #6
 1089 000e 01D0     		beq	.L84
 509:Drivers/STM32L4xx_HAL_Driver/Src/stm32l4xx_ll_usb.c ****   }
 1090              		.loc 1 509 11 view .LVU323
 1091 0010 0F20     		movs	r0, #15
 1092              	.LVL79:
 512:Drivers/STM32L4xx_HAL_Driver/Src/stm32l4xx_ll_usb.c **** }
 1093              		.loc 1 512 3 is_stmt 1 view .LVU324
 513:Drivers/STM32L4xx_HAL_Driver/Src/stm32l4xx_ll_usb.c **** 
 1094              		.loc 1 513 1 is_stmt 0 view .LVU325
 1095 0012 7047     		bx	lr
 1096              	.LVL80:
 1097              	.L84:
 505:Drivers/STM32L4xx_HAL_Driver/Src/stm32l4xx_ll_usb.c ****   }
 1098              		.loc 1 505 11 view .LVU326
 1099 0014 0220     		movs	r0, #2
 1100              	.LVL81:
 505:Drivers/STM32L4xx_HAL_Driver/Src/stm32l4xx_ll_usb.c ****   }
 1101              		.loc 1 505 11 view .LVU327
 1102 0016 7047     		bx	lr
 1103              	.LVL82:
 1104              	.L82:
 505:Drivers/STM32L4xx_HAL_Driver/Src/stm32l4xx_ll_usb.c ****   }
 1105              		.loc 1 505 11 view .LVU328
 1106 0018 0220     		movs	r0, #2
 1107              	.LVL83:
 505:Drivers/STM32L4xx_HAL_Driver/Src/stm32l4xx_ll_usb.c ****   }
 1108              		.loc 1 505 11 view .LVU329
 1109 001a 7047     		bx	lr
 1110              		.cfi_endproc
 1111              	.LFE143:
 1113              		.section	.text.USB_ActivateEndpoint,"ax",%progbits
 1114              		.align	1
 1115              		.global	USB_ActivateEndpoint
 1116              		.syntax unified
 1117              		.thumb
 1118              		.thumb_func
 1119              		.fpu fpv4-sp-d16
 1121              	USB_ActivateEndpoint:
 1122              	.LVL84:
 1123              	.LFB144:
ARM GAS  /tmp/ccS8Yg0I.s 			page 49


 522:Drivers/STM32L4xx_HAL_Driver/Src/stm32l4xx_ll_usb.c ****   uint32_t USBx_BASE = (uint32_t)USBx;
 1124              		.loc 1 522 1 is_stmt 1 view -0
 1125              		.cfi_startproc
 1126              		@ args = 0, pretend = 0, frame = 0
 1127              		@ frame_needed = 0, uses_anonymous_args = 0
 1128              		@ link register save eliminated.
 522:Drivers/STM32L4xx_HAL_Driver/Src/stm32l4xx_ll_usb.c ****   uint32_t USBx_BASE = (uint32_t)USBx;
 1129              		.loc 1 522 1 is_stmt 0 view .LVU331
 1130 0000 70B4     		push	{r4, r5, r6}
 1131              	.LCFI19:
 1132              		.cfi_def_cfa_offset 12
 1133              		.cfi_offset 4, -12
 1134              		.cfi_offset 5, -8
 1135              		.cfi_offset 6, -4
 523:Drivers/STM32L4xx_HAL_Driver/Src/stm32l4xx_ll_usb.c ****   uint32_t epnum = (uint32_t)ep->num;
 1136              		.loc 1 523 3 is_stmt 1 view .LVU332
 1137              	.LVL85:
 524:Drivers/STM32L4xx_HAL_Driver/Src/stm32l4xx_ll_usb.c **** 
 1138              		.loc 1 524 3 view .LVU333
 524:Drivers/STM32L4xx_HAL_Driver/Src/stm32l4xx_ll_usb.c **** 
 1139              		.loc 1 524 32 is_stmt 0 view .LVU334
 1140 0002 0C78     		ldrb	r4, [r1]	@ zero_extendqisi2
 1141              	.LVL86:
 526:Drivers/STM32L4xx_HAL_Driver/Src/stm32l4xx_ll_usb.c ****   {
 1142              		.loc 1 526 3 is_stmt 1 view .LVU335
 526:Drivers/STM32L4xx_HAL_Driver/Src/stm32l4xx_ll_usb.c ****   {
 1143              		.loc 1 526 9 is_stmt 0 view .LVU336
 1144 0004 4B78     		ldrb	r3, [r1, #1]	@ zero_extendqisi2
 526:Drivers/STM32L4xx_HAL_Driver/Src/stm32l4xx_ll_usb.c ****   {
 1145              		.loc 1 526 6 view .LVU337
 1146 0006 012B     		cmp	r3, #1
 1147 0008 22D0     		beq	.L89
 540:Drivers/STM32L4xx_HAL_Driver/Src/stm32l4xx_ll_usb.c **** 
 1148              		.loc 1 540 5 is_stmt 1 view .LVU338
 540:Drivers/STM32L4xx_HAL_Driver/Src/stm32l4xx_ll_usb.c **** 
 1149              		.loc 1 540 27 is_stmt 0 view .LVU339
 1150 000a D0F81C38 		ldr	r3, [r0, #2076]
 540:Drivers/STM32L4xx_HAL_Driver/Src/stm32l4xx_ll_usb.c **** 
 1151              		.loc 1 540 82 view .LVU340
 1152 000e 04F00F06 		and	r6, r4, #15
 540:Drivers/STM32L4xx_HAL_Driver/Src/stm32l4xx_ll_usb.c **** 
 1153              		.loc 1 540 55 view .LVU341
 1154 0012 0122     		movs	r2, #1
 1155 0014 B240     		lsls	r2, r2, r6
 540:Drivers/STM32L4xx_HAL_Driver/Src/stm32l4xx_ll_usb.c **** 
 1156              		.loc 1 540 27 view .LVU342
 1157 0016 43EA0243 		orr	r3, r3, r2, lsl #16
 1158 001a C0F81C38 		str	r3, [r0, #2076]
 542:Drivers/STM32L4xx_HAL_Driver/Src/stm32l4xx_ll_usb.c ****     {
 1159              		.loc 1 542 5 is_stmt 1 view .LVU343
 542:Drivers/STM32L4xx_HAL_Driver/Src/stm32l4xx_ll_usb.c ****     {
 1160              		.loc 1 542 11 is_stmt 0 view .LVU344
 1161 001e 00EB4410 		add	r0, r0, r4, lsl #5
 1162              	.LVL87:
 542:Drivers/STM32L4xx_HAL_Driver/Src/stm32l4xx_ll_usb.c ****     {
 1163              		.loc 1 542 28 view .LVU345
 1164 0022 D0F8003B 		ldr	r3, [r0, #2816]
ARM GAS  /tmp/ccS8Yg0I.s 			page 50


 542:Drivers/STM32L4xx_HAL_Driver/Src/stm32l4xx_ll_usb.c ****     {
 1165              		.loc 1 542 8 view .LVU346
 1166 0026 13F4004F 		tst	r3, #32768
 1167 002a 0ED1     		bne	.L87
 544:Drivers/STM32L4xx_HAL_Driver/Src/stm32l4xx_ll_usb.c ****                                     ((uint32_t)ep->type << 18) |
 1168              		.loc 1 544 7 is_stmt 1 view .LVU347
 544:Drivers/STM32L4xx_HAL_Driver/Src/stm32l4xx_ll_usb.c ****                                     ((uint32_t)ep->type << 18) |
 1169              		.loc 1 544 34 is_stmt 0 view .LVU348
 1170 002c D0F8003B 		ldr	r3, [r0, #2816]
 544:Drivers/STM32L4xx_HAL_Driver/Src/stm32l4xx_ll_usb.c ****                                     ((uint32_t)ep->type << 18) |
 1171              		.loc 1 544 40 view .LVU349
 1172 0030 CA68     		ldr	r2, [r1, #12]
 544:Drivers/STM32L4xx_HAL_Driver/Src/stm32l4xx_ll_usb.c ****                                     ((uint32_t)ep->type << 18) |
 1173              		.loc 1 544 52 view .LVU350
 1174 0032 C2F30A02 		ubfx	r2, r2, #0, #11
 545:Drivers/STM32L4xx_HAL_Driver/Src/stm32l4xx_ll_usb.c ****                                     USB_OTG_DIEPCTL_SD0PID_SEVNFRM |
 1175              		.loc 1 545 50 view .LVU351
 1176 0036 0979     		ldrb	r1, [r1, #4]	@ zero_extendqisi2
 1177              	.LVL88:
 544:Drivers/STM32L4xx_HAL_Driver/Src/stm32l4xx_ll_usb.c ****                                     ((uint32_t)ep->type << 18) |
 1178              		.loc 1 544 77 view .LVU352
 1179 0038 42EA8142 		orr	r2, r2, r1, lsl #18
 544:Drivers/STM32L4xx_HAL_Driver/Src/stm32l4xx_ll_usb.c ****                                     ((uint32_t)ep->type << 18) |
 1180              		.loc 1 544 34 view .LVU353
 1181 003c 1343     		orrs	r3, r3, r2
 1182 003e 43F08053 		orr	r3, r3, #268435456
 1183 0042 43F40043 		orr	r3, r3, #32768
 1184 0046 C0F8003B 		str	r3, [r0, #2816]
 1185              	.LVL89:
 1186              	.L87:
 550:Drivers/STM32L4xx_HAL_Driver/Src/stm32l4xx_ll_usb.c **** }
 1187              		.loc 1 550 3 is_stmt 1 view .LVU354
 551:Drivers/STM32L4xx_HAL_Driver/Src/stm32l4xx_ll_usb.c **** 
 1188              		.loc 1 551 1 is_stmt 0 view .LVU355
 1189 004a 0020     		movs	r0, #0
 1190 004c 70BC     		pop	{r4, r5, r6}
 1191              	.LCFI20:
 1192              		.cfi_remember_state
 1193              		.cfi_restore 6
 1194              		.cfi_restore 5
 1195              		.cfi_restore 4
 1196              		.cfi_def_cfa_offset 0
 1197 004e 7047     		bx	lr
 1198              	.LVL90:
 1199              	.L89:
 1200              	.LCFI21:
 1201              		.cfi_restore_state
 528:Drivers/STM32L4xx_HAL_Driver/Src/stm32l4xx_ll_usb.c **** 
 1202              		.loc 1 528 5 is_stmt 1 view .LVU356
 528:Drivers/STM32L4xx_HAL_Driver/Src/stm32l4xx_ll_usb.c **** 
 1203              		.loc 1 528 27 is_stmt 0 view .LVU357
 1204 0050 D0F81C28 		ldr	r2, [r0, #2076]
 528:Drivers/STM32L4xx_HAL_Driver/Src/stm32l4xx_ll_usb.c **** 
 1205              		.loc 1 528 81 view .LVU358
 1206 0054 04F00F06 		and	r6, r4, #15
 528:Drivers/STM32L4xx_HAL_Driver/Src/stm32l4xx_ll_usb.c **** 
 1207              		.loc 1 528 54 view .LVU359
ARM GAS  /tmp/ccS8Yg0I.s 			page 51


 1208 0058 B340     		lsls	r3, r3, r6
 528:Drivers/STM32L4xx_HAL_Driver/Src/stm32l4xx_ll_usb.c **** 
 1209              		.loc 1 528 52 view .LVU360
 1210 005a 9BB2     		uxth	r3, r3
 528:Drivers/STM32L4xx_HAL_Driver/Src/stm32l4xx_ll_usb.c **** 
 1211              		.loc 1 528 27 view .LVU361
 1212 005c 1343     		orrs	r3, r3, r2
 1213 005e C0F81C38 		str	r3, [r0, #2076]
 530:Drivers/STM32L4xx_HAL_Driver/Src/stm32l4xx_ll_usb.c ****     {
 1214              		.loc 1 530 5 is_stmt 1 view .LVU362
 530:Drivers/STM32L4xx_HAL_Driver/Src/stm32l4xx_ll_usb.c ****     {
 1215              		.loc 1 530 10 is_stmt 0 view .LVU363
 1216 0062 00EB4410 		add	r0, r0, r4, lsl #5
 1217              	.LVL91:
 530:Drivers/STM32L4xx_HAL_Driver/Src/stm32l4xx_ll_usb.c ****     {
 1218              		.loc 1 530 26 view .LVU364
 1219 0066 D0F80039 		ldr	r3, [r0, #2304]
 530:Drivers/STM32L4xx_HAL_Driver/Src/stm32l4xx_ll_usb.c ****     {
 1220              		.loc 1 530 8 view .LVU365
 1221 006a 13F4004F 		tst	r3, #32768
 1222 006e ECD1     		bne	.L87
 532:Drivers/STM32L4xx_HAL_Driver/Src/stm32l4xx_ll_usb.c ****                                    ((uint32_t)ep->type << 18) | (epnum << 22) |
 1223              		.loc 1 532 7 is_stmt 1 view .LVU366
 532:Drivers/STM32L4xx_HAL_Driver/Src/stm32l4xx_ll_usb.c ****                                    ((uint32_t)ep->type << 18) | (epnum << 22) |
 1224              		.loc 1 532 33 is_stmt 0 view .LVU367
 1225 0070 D0F80039 		ldr	r3, [r0, #2304]
 532:Drivers/STM32L4xx_HAL_Driver/Src/stm32l4xx_ll_usb.c ****                                    ((uint32_t)ep->type << 18) | (epnum << 22) |
 1226              		.loc 1 532 39 view .LVU368
 1227 0074 CA68     		ldr	r2, [r1, #12]
 532:Drivers/STM32L4xx_HAL_Driver/Src/stm32l4xx_ll_usb.c ****                                    ((uint32_t)ep->type << 18) | (epnum << 22) |
 1228              		.loc 1 532 51 view .LVU369
 1229 0076 C2F30A02 		ubfx	r2, r2, #0, #11
 533:Drivers/STM32L4xx_HAL_Driver/Src/stm32l4xx_ll_usb.c ****                                    USB_OTG_DIEPCTL_SD0PID_SEVNFRM |
 1230              		.loc 1 533 49 view .LVU370
 1231 007a 0979     		ldrb	r1, [r1, #4]	@ zero_extendqisi2
 1232              	.LVL92:
 532:Drivers/STM32L4xx_HAL_Driver/Src/stm32l4xx_ll_usb.c ****                                    ((uint32_t)ep->type << 18) | (epnum << 22) |
 1233              		.loc 1 532 76 view .LVU371
 1234 007c 42EA8142 		orr	r2, r2, r1, lsl #18
 533:Drivers/STM32L4xx_HAL_Driver/Src/stm32l4xx_ll_usb.c ****                                    USB_OTG_DIEPCTL_SD0PID_SEVNFRM |
 1235              		.loc 1 533 63 view .LVU372
 1236 0080 42EA8454 		orr	r4, r2, r4, lsl #22
 1237              	.LVL93:
 532:Drivers/STM32L4xx_HAL_Driver/Src/stm32l4xx_ll_usb.c ****                                    ((uint32_t)ep->type << 18) | (epnum << 22) |
 1238              		.loc 1 532 33 view .LVU373
 1239 0084 1C43     		orrs	r4, r4, r3
 1240 0086 44F08054 		orr	r4, r4, #268435456
 1241 008a 44F40044 		orr	r4, r4, #32768
 1242 008e C0F80049 		str	r4, [r0, #2304]
 1243 0092 DAE7     		b	.L87
 1244              		.cfi_endproc
 1245              	.LFE144:
 1247              		.section	.text.USB_ActivateDedicatedEndpoint,"ax",%progbits
 1248              		.align	1
 1249              		.global	USB_ActivateDedicatedEndpoint
 1250              		.syntax unified
 1251              		.thumb
ARM GAS  /tmp/ccS8Yg0I.s 			page 52


 1252              		.thumb_func
 1253              		.fpu fpv4-sp-d16
 1255              	USB_ActivateDedicatedEndpoint:
 1256              	.LVL94:
 1257              	.LFB145:
 560:Drivers/STM32L4xx_HAL_Driver/Src/stm32l4xx_ll_usb.c ****   uint32_t USBx_BASE = (uint32_t)USBx;
 1258              		.loc 1 560 1 is_stmt 1 view -0
 1259              		.cfi_startproc
 1260              		@ args = 0, pretend = 0, frame = 0
 1261              		@ frame_needed = 0, uses_anonymous_args = 0
 1262              		@ link register save eliminated.
 560:Drivers/STM32L4xx_HAL_Driver/Src/stm32l4xx_ll_usb.c ****   uint32_t USBx_BASE = (uint32_t)USBx;
 1263              		.loc 1 560 1 is_stmt 0 view .LVU375
 1264 0000 70B4     		push	{r4, r5, r6}
 1265              	.LCFI22:
 1266              		.cfi_def_cfa_offset 12
 1267              		.cfi_offset 4, -12
 1268              		.cfi_offset 5, -8
 1269              		.cfi_offset 6, -4
 561:Drivers/STM32L4xx_HAL_Driver/Src/stm32l4xx_ll_usb.c ****   uint32_t epnum = (uint32_t)ep->num;
 1270              		.loc 1 561 3 is_stmt 1 view .LVU376
 1271              	.LVL95:
 562:Drivers/STM32L4xx_HAL_Driver/Src/stm32l4xx_ll_usb.c **** 
 1272              		.loc 1 562 3 view .LVU377
 562:Drivers/STM32L4xx_HAL_Driver/Src/stm32l4xx_ll_usb.c **** 
 1273              		.loc 1 562 32 is_stmt 0 view .LVU378
 1274 0002 0A78     		ldrb	r2, [r1]	@ zero_extendqisi2
 1275              	.LVL96:
 565:Drivers/STM32L4xx_HAL_Driver/Src/stm32l4xx_ll_usb.c ****   {
 1276              		.loc 1 565 3 is_stmt 1 view .LVU379
 565:Drivers/STM32L4xx_HAL_Driver/Src/stm32l4xx_ll_usb.c ****   {
 1277              		.loc 1 565 9 is_stmt 0 view .LVU380
 1278 0004 4B78     		ldrb	r3, [r1, #1]	@ zero_extendqisi2
 565:Drivers/STM32L4xx_HAL_Driver/Src/stm32l4xx_ll_usb.c ****   {
 1279              		.loc 1 565 6 view .LVU381
 1280 0006 012B     		cmp	r3, #1
 1281 0008 23D0     		beq	.L96
 579:Drivers/STM32L4xx_HAL_Driver/Src/stm32l4xx_ll_usb.c ****     {
 1282              		.loc 1 579 5 is_stmt 1 view .LVU382
 579:Drivers/STM32L4xx_HAL_Driver/Src/stm32l4xx_ll_usb.c ****     {
 1283              		.loc 1 579 11 is_stmt 0 view .LVU383
 1284 000a 00EB4214 		add	r4, r0, r2, lsl #5
 579:Drivers/STM32L4xx_HAL_Driver/Src/stm32l4xx_ll_usb.c ****     {
 1285              		.loc 1 579 28 view .LVU384
 1286 000e D4F8003B 		ldr	r3, [r4, #2816]
 579:Drivers/STM32L4xx_HAL_Driver/Src/stm32l4xx_ll_usb.c ****     {
 1287              		.loc 1 579 8 view .LVU385
 1288 0012 13F4004F 		tst	r3, #32768
 1289 0016 0ED1     		bne	.L94
 581:Drivers/STM32L4xx_HAL_Driver/Src/stm32l4xx_ll_usb.c ****                                     ((uint32_t)ep->type << 18) | (epnum << 22) |
 1290              		.loc 1 581 7 is_stmt 1 view .LVU386
 581:Drivers/STM32L4xx_HAL_Driver/Src/stm32l4xx_ll_usb.c ****                                     ((uint32_t)ep->type << 18) | (epnum << 22) |
 1291              		.loc 1 581 34 is_stmt 0 view .LVU387
 1292 0018 D4F8005B 		ldr	r5, [r4, #2816]
 581:Drivers/STM32L4xx_HAL_Driver/Src/stm32l4xx_ll_usb.c ****                                     ((uint32_t)ep->type << 18) | (epnum << 22) |
 1293              		.loc 1 581 40 view .LVU388
 1294 001c CB68     		ldr	r3, [r1, #12]
ARM GAS  /tmp/ccS8Yg0I.s 			page 53


 581:Drivers/STM32L4xx_HAL_Driver/Src/stm32l4xx_ll_usb.c ****                                     ((uint32_t)ep->type << 18) | (epnum << 22) |
 1295              		.loc 1 581 52 view .LVU389
 1296 001e C3F30A03 		ubfx	r3, r3, #0, #11
 582:Drivers/STM32L4xx_HAL_Driver/Src/stm32l4xx_ll_usb.c ****                                     USB_OTG_DOEPCTL_USBAEP;
 1297              		.loc 1 582 50 view .LVU390
 1298 0022 0E79     		ldrb	r6, [r1, #4]	@ zero_extendqisi2
 581:Drivers/STM32L4xx_HAL_Driver/Src/stm32l4xx_ll_usb.c ****                                     ((uint32_t)ep->type << 18) | (epnum << 22) |
 1299              		.loc 1 581 77 view .LVU391
 1300 0024 43EA8643 		orr	r3, r3, r6, lsl #18
 582:Drivers/STM32L4xx_HAL_Driver/Src/stm32l4xx_ll_usb.c ****                                     USB_OTG_DOEPCTL_USBAEP;
 1301              		.loc 1 582 64 view .LVU392
 1302 0028 43EA8253 		orr	r3, r3, r2, lsl #22
 581:Drivers/STM32L4xx_HAL_Driver/Src/stm32l4xx_ll_usb.c ****                                     ((uint32_t)ep->type << 18) | (epnum << 22) |
 1303              		.loc 1 581 34 view .LVU393
 1304 002c 2B43     		orrs	r3, r3, r5
 1305 002e 43F40043 		orr	r3, r3, #32768
 1306 0032 C4F8003B 		str	r3, [r4, #2816]
 1307              	.L94:
 586:Drivers/STM32L4xx_HAL_Driver/Src/stm32l4xx_ll_usb.c ****   }
 1308              		.loc 1 586 5 is_stmt 1 view .LVU394
 586:Drivers/STM32L4xx_HAL_Driver/Src/stm32l4xx_ll_usb.c ****   }
 1309              		.loc 1 586 27 is_stmt 0 view .LVU395
 1310 0036 D0F83C38 		ldr	r3, [r0, #2108]
 586:Drivers/STM32L4xx_HAL_Driver/Src/stm32l4xx_ll_usb.c ****   }
 1311              		.loc 1 586 76 view .LVU396
 1312 003a 0A78     		ldrb	r2, [r1]	@ zero_extendqisi2
 1313              	.LVL97:
 586:Drivers/STM32L4xx_HAL_Driver/Src/stm32l4xx_ll_usb.c ****   }
 1314              		.loc 1 586 82 view .LVU397
 1315 003c 02F00F01 		and	r1, r2, #15
 1316              	.LVL98:
 586:Drivers/STM32L4xx_HAL_Driver/Src/stm32l4xx_ll_usb.c ****   }
 1317              		.loc 1 586 55 view .LVU398
 1318 0040 0122     		movs	r2, #1
 1319 0042 8A40     		lsls	r2, r2, r1
 586:Drivers/STM32L4xx_HAL_Driver/Src/stm32l4xx_ll_usb.c ****   }
 1320              		.loc 1 586 27 view .LVU399
 1321 0044 43EA0243 		orr	r3, r3, r2, lsl #16
 1322 0048 C0F83C38 		str	r3, [r0, #2108]
 1323              	.L93:
 589:Drivers/STM32L4xx_HAL_Driver/Src/stm32l4xx_ll_usb.c **** }
 1324              		.loc 1 589 3 is_stmt 1 view .LVU400
 590:Drivers/STM32L4xx_HAL_Driver/Src/stm32l4xx_ll_usb.c **** 
 1325              		.loc 1 590 1 is_stmt 0 view .LVU401
 1326 004c 0020     		movs	r0, #0
 1327              	.LVL99:
 590:Drivers/STM32L4xx_HAL_Driver/Src/stm32l4xx_ll_usb.c **** 
 1328              		.loc 1 590 1 view .LVU402
 1329 004e 70BC     		pop	{r4, r5, r6}
 1330              	.LCFI23:
 1331              		.cfi_remember_state
 1332              		.cfi_restore 6
 1333              		.cfi_restore 5
 1334              		.cfi_restore 4
 1335              		.cfi_def_cfa_offset 0
 1336 0050 7047     		bx	lr
 1337              	.LVL100:
ARM GAS  /tmp/ccS8Yg0I.s 			page 54


 1338              	.L96:
 1339              	.LCFI24:
 1340              		.cfi_restore_state
 567:Drivers/STM32L4xx_HAL_Driver/Src/stm32l4xx_ll_usb.c ****     {
 1341              		.loc 1 567 5 is_stmt 1 view .LVU403
 567:Drivers/STM32L4xx_HAL_Driver/Src/stm32l4xx_ll_usb.c ****     {
 1342              		.loc 1 567 11 is_stmt 0 view .LVU404
 1343 0052 00EB4215 		add	r5, r0, r2, lsl #5
 567:Drivers/STM32L4xx_HAL_Driver/Src/stm32l4xx_ll_usb.c ****     {
 1344              		.loc 1 567 27 view .LVU405
 1345 0056 D5F80039 		ldr	r3, [r5, #2304]
 567:Drivers/STM32L4xx_HAL_Driver/Src/stm32l4xx_ll_usb.c ****     {
 1346              		.loc 1 567 8 view .LVU406
 1347 005a 13F4004F 		tst	r3, #32768
 1348 005e 10D1     		bne	.L92
 569:Drivers/STM32L4xx_HAL_Driver/Src/stm32l4xx_ll_usb.c ****                                    ((uint32_t)ep->type << 18) | (epnum << 22) |
 1349              		.loc 1 569 7 is_stmt 1 view .LVU407
 569:Drivers/STM32L4xx_HAL_Driver/Src/stm32l4xx_ll_usb.c ****                                    ((uint32_t)ep->type << 18) | (epnum << 22) |
 1350              		.loc 1 569 33 is_stmt 0 view .LVU408
 1351 0060 D5F80039 		ldr	r3, [r5, #2304]
 569:Drivers/STM32L4xx_HAL_Driver/Src/stm32l4xx_ll_usb.c ****                                    ((uint32_t)ep->type << 18) | (epnum << 22) |
 1352              		.loc 1 569 39 view .LVU409
 1353 0064 CC68     		ldr	r4, [r1, #12]
 569:Drivers/STM32L4xx_HAL_Driver/Src/stm32l4xx_ll_usb.c ****                                    ((uint32_t)ep->type << 18) | (epnum << 22) |
 1354              		.loc 1 569 51 view .LVU410
 1355 0066 C4F30A04 		ubfx	r4, r4, #0, #11
 570:Drivers/STM32L4xx_HAL_Driver/Src/stm32l4xx_ll_usb.c ****                                    USB_OTG_DIEPCTL_SD0PID_SEVNFRM |
 1356              		.loc 1 570 49 view .LVU411
 1357 006a 0E79     		ldrb	r6, [r1, #4]	@ zero_extendqisi2
 569:Drivers/STM32L4xx_HAL_Driver/Src/stm32l4xx_ll_usb.c ****                                    ((uint32_t)ep->type << 18) | (epnum << 22) |
 1358              		.loc 1 569 76 view .LVU412
 1359 006c 44EA8644 		orr	r4, r4, r6, lsl #18
 570:Drivers/STM32L4xx_HAL_Driver/Src/stm32l4xx_ll_usb.c ****                                    USB_OTG_DIEPCTL_SD0PID_SEVNFRM |
 1360              		.loc 1 570 63 view .LVU413
 1361 0070 44EA8252 		orr	r2, r4, r2, lsl #22
 1362              	.LVL101:
 569:Drivers/STM32L4xx_HAL_Driver/Src/stm32l4xx_ll_usb.c ****                                    ((uint32_t)ep->type << 18) | (epnum << 22) |
 1363              		.loc 1 569 33 view .LVU414
 1364 0074 1343     		orrs	r3, r3, r2
 1365 0076 43F08053 		orr	r3, r3, #268435456
 1366 007a 43F40043 		orr	r3, r3, #32768
 1367 007e C5F80039 		str	r3, [r5, #2304]
 1368              	.LVL102:
 1369              	.L92:
 575:Drivers/STM32L4xx_HAL_Driver/Src/stm32l4xx_ll_usb.c ****   }
 1370              		.loc 1 575 5 is_stmt 1 view .LVU415
 575:Drivers/STM32L4xx_HAL_Driver/Src/stm32l4xx_ll_usb.c ****   }
 1371              		.loc 1 575 27 is_stmt 0 view .LVU416
 1372 0082 D0F83C28 		ldr	r2, [r0, #2108]
 575:Drivers/STM32L4xx_HAL_Driver/Src/stm32l4xx_ll_usb.c ****   }
 1373              		.loc 1 575 75 view .LVU417
 1374 0086 0B78     		ldrb	r3, [r1]	@ zero_extendqisi2
 575:Drivers/STM32L4xx_HAL_Driver/Src/stm32l4xx_ll_usb.c ****   }
 1375              		.loc 1 575 81 view .LVU418
 1376 0088 03F00F01 		and	r1, r3, #15
 1377              	.LVL103:
 575:Drivers/STM32L4xx_HAL_Driver/Src/stm32l4xx_ll_usb.c ****   }
ARM GAS  /tmp/ccS8Yg0I.s 			page 55


 1378              		.loc 1 575 54 view .LVU419
 1379 008c 0123     		movs	r3, #1
 1380 008e 8B40     		lsls	r3, r3, r1
 575:Drivers/STM32L4xx_HAL_Driver/Src/stm32l4xx_ll_usb.c ****   }
 1381              		.loc 1 575 52 view .LVU420
 1382 0090 9BB2     		uxth	r3, r3
 575:Drivers/STM32L4xx_HAL_Driver/Src/stm32l4xx_ll_usb.c ****   }
 1383              		.loc 1 575 27 view .LVU421
 1384 0092 1343     		orrs	r3, r3, r2
 1385 0094 C0F83C38 		str	r3, [r0, #2108]
 1386 0098 D8E7     		b	.L93
 1387              		.cfi_endproc
 1388              	.LFE145:
 1390              		.section	.text.USB_DeactivateEndpoint,"ax",%progbits
 1391              		.align	1
 1392              		.global	USB_DeactivateEndpoint
 1393              		.syntax unified
 1394              		.thumb
 1395              		.thumb_func
 1396              		.fpu fpv4-sp-d16
 1398              	USB_DeactivateEndpoint:
 1399              	.LVL104:
 1400              	.LFB146:
 599:Drivers/STM32L4xx_HAL_Driver/Src/stm32l4xx_ll_usb.c ****   uint32_t USBx_BASE = (uint32_t)USBx;
 1401              		.loc 1 599 1 is_stmt 1 view -0
 1402              		.cfi_startproc
 1403              		@ args = 0, pretend = 0, frame = 0
 1404              		@ frame_needed = 0, uses_anonymous_args = 0
 1405              		@ link register save eliminated.
 599:Drivers/STM32L4xx_HAL_Driver/Src/stm32l4xx_ll_usb.c ****   uint32_t USBx_BASE = (uint32_t)USBx;
 1406              		.loc 1 599 1 is_stmt 0 view .LVU423
 1407 0000 30B4     		push	{r4, r5}
 1408              	.LCFI25:
 1409              		.cfi_def_cfa_offset 8
 1410              		.cfi_offset 4, -8
 1411              		.cfi_offset 5, -4
 600:Drivers/STM32L4xx_HAL_Driver/Src/stm32l4xx_ll_usb.c ****   uint32_t epnum = (uint32_t)ep->num;
 1412              		.loc 1 600 3 is_stmt 1 view .LVU424
 1413              	.LVL105:
 601:Drivers/STM32L4xx_HAL_Driver/Src/stm32l4xx_ll_usb.c **** 
 1414              		.loc 1 601 3 view .LVU425
 601:Drivers/STM32L4xx_HAL_Driver/Src/stm32l4xx_ll_usb.c **** 
 1415              		.loc 1 601 32 is_stmt 0 view .LVU426
 1416 0002 0B78     		ldrb	r3, [r1]	@ zero_extendqisi2
 1417              	.LVL106:
 604:Drivers/STM32L4xx_HAL_Driver/Src/stm32l4xx_ll_usb.c ****   {
 1418              		.loc 1 604 3 is_stmt 1 view .LVU427
 604:Drivers/STM32L4xx_HAL_Driver/Src/stm32l4xx_ll_usb.c ****   {
 1419              		.loc 1 604 9 is_stmt 0 view .LVU428
 1420 0004 4A78     		ldrb	r2, [r1, #1]	@ zero_extendqisi2
 604:Drivers/STM32L4xx_HAL_Driver/Src/stm32l4xx_ll_usb.c ****   {
 1421              		.loc 1 604 6 view .LVU429
 1422 0006 012A     		cmp	r2, #1
 1423 0008 24D0     		beq	.L103
 622:Drivers/STM32L4xx_HAL_Driver/Src/stm32l4xx_ll_usb.c ****     {
 1424              		.loc 1 622 5 is_stmt 1 view .LVU430
 622:Drivers/STM32L4xx_HAL_Driver/Src/stm32l4xx_ll_usb.c ****     {
ARM GAS  /tmp/ccS8Yg0I.s 			page 56


 1425              		.loc 1 622 10 is_stmt 0 view .LVU431
 1426 000a 00EB4313 		add	r3, r0, r3, lsl #5
 1427              	.LVL107:
 622:Drivers/STM32L4xx_HAL_Driver/Src/stm32l4xx_ll_usb.c ****     {
 1428              		.loc 1 622 27 view .LVU432
 1429 000e D3F8002B 		ldr	r2, [r3, #2816]
 622:Drivers/STM32L4xx_HAL_Driver/Src/stm32l4xx_ll_usb.c ****     {
 1430              		.loc 1 622 8 view .LVU433
 1431 0012 002A     		cmp	r2, #0
 1432 0014 50DB     		blt	.L104
 1433              	.LVL108:
 1434              	.L101:
 628:Drivers/STM32L4xx_HAL_Driver/Src/stm32l4xx_ll_usb.c ****     USBx_DEVICE->DAINTMSK &= ~(USB_OTG_DAINTMSK_OEPM & ((uint32_t)(1UL << (ep->num & EP_ADDR_MSK)) 
 1435              		.loc 1 628 5 is_stmt 1 view .LVU434
 628:Drivers/STM32L4xx_HAL_Driver/Src/stm32l4xx_ll_usb.c ****     USBx_DEVICE->DAINTMSK &= ~(USB_OTG_DAINTMSK_OEPM & ((uint32_t)(1UL << (ep->num & EP_ADDR_MSK)) 
 1436              		.loc 1 628 27 is_stmt 0 view .LVU435
 1437 0016 D0F83C58 		ldr	r5, [r0, #2108]
 628:Drivers/STM32L4xx_HAL_Driver/Src/stm32l4xx_ll_usb.c ****     USBx_DEVICE->DAINTMSK &= ~(USB_OTG_DAINTMSK_OEPM & ((uint32_t)(1UL << (ep->num & EP_ADDR_MSK)) 
 1438              		.loc 1 628 78 view .LVU436
 1439 001a 0A78     		ldrb	r2, [r1]	@ zero_extendqisi2
 628:Drivers/STM32L4xx_HAL_Driver/Src/stm32l4xx_ll_usb.c ****     USBx_DEVICE->DAINTMSK &= ~(USB_OTG_DAINTMSK_OEPM & ((uint32_t)(1UL << (ep->num & EP_ADDR_MSK)) 
 1440              		.loc 1 628 84 view .LVU437
 1441 001c 02F00F02 		and	r2, r2, #15
 628:Drivers/STM32L4xx_HAL_Driver/Src/stm32l4xx_ll_usb.c ****     USBx_DEVICE->DAINTMSK &= ~(USB_OTG_DAINTMSK_OEPM & ((uint32_t)(1UL << (ep->num & EP_ADDR_MSK)) 
 1442              		.loc 1 628 57 view .LVU438
 1443 0020 0124     		movs	r4, #1
 1444 0022 04FA02F2 		lsl	r2, r4, r2
 628:Drivers/STM32L4xx_HAL_Driver/Src/stm32l4xx_ll_usb.c ****     USBx_DEVICE->DAINTMSK &= ~(USB_OTG_DAINTMSK_OEPM & ((uint32_t)(1UL << (ep->num & EP_ADDR_MSK)) 
 1445              		.loc 1 628 27 view .LVU439
 1446 0026 25EA0242 		bic	r2, r5, r2, lsl #16
 1447 002a C0F83C28 		str	r2, [r0, #2108]
 629:Drivers/STM32L4xx_HAL_Driver/Src/stm32l4xx_ll_usb.c ****     USBx_OUTEP(epnum)->DOEPCTL &= ~(USB_OTG_DOEPCTL_USBAEP |
 1448              		.loc 1 629 5 is_stmt 1 view .LVU440
 629:Drivers/STM32L4xx_HAL_Driver/Src/stm32l4xx_ll_usb.c ****     USBx_OUTEP(epnum)->DOEPCTL &= ~(USB_OTG_DOEPCTL_USBAEP |
 1449              		.loc 1 629 27 is_stmt 0 view .LVU441
 1450 002e D0F81C28 		ldr	r2, [r0, #2076]
 629:Drivers/STM32L4xx_HAL_Driver/Src/stm32l4xx_ll_usb.c ****     USBx_OUTEP(epnum)->DOEPCTL &= ~(USB_OTG_DOEPCTL_USBAEP |
 1451              		.loc 1 629 78 view .LVU442
 1452 0032 0978     		ldrb	r1, [r1]	@ zero_extendqisi2
 1453              	.LVL109:
 629:Drivers/STM32L4xx_HAL_Driver/Src/stm32l4xx_ll_usb.c ****     USBx_OUTEP(epnum)->DOEPCTL &= ~(USB_OTG_DOEPCTL_USBAEP |
 1454              		.loc 1 629 84 view .LVU443
 1455 0034 01F00F01 		and	r1, r1, #15
 629:Drivers/STM32L4xx_HAL_Driver/Src/stm32l4xx_ll_usb.c ****     USBx_OUTEP(epnum)->DOEPCTL &= ~(USB_OTG_DOEPCTL_USBAEP |
 1456              		.loc 1 629 57 view .LVU444
 1457 0038 8C40     		lsls	r4, r4, r1
 629:Drivers/STM32L4xx_HAL_Driver/Src/stm32l4xx_ll_usb.c ****     USBx_OUTEP(epnum)->DOEPCTL &= ~(USB_OTG_DOEPCTL_USBAEP |
 1458              		.loc 1 629 27 view .LVU445
 1459 003a 22EA0444 		bic	r4, r2, r4, lsl #16
 1460 003e C0F81C48 		str	r4, [r0, #2076]
 630:Drivers/STM32L4xx_HAL_Driver/Src/stm32l4xx_ll_usb.c ****                                     USB_OTG_DOEPCTL_MPSIZ |
 1461              		.loc 1 630 5 is_stmt 1 view .LVU446
 630:Drivers/STM32L4xx_HAL_Driver/Src/stm32l4xx_ll_usb.c ****                                     USB_OTG_DOEPCTL_MPSIZ |
 1462              		.loc 1 630 32 is_stmt 0 view .LVU447
 1463 0042 D3F8001B 		ldr	r1, [r3, #2816]
 1464 0046 234A     		ldr	r2, .L106
 1465 0048 0A40     		ands	r2, r2, r1
ARM GAS  /tmp/ccS8Yg0I.s 			page 57


 1466 004a C3F8002B 		str	r2, [r3, #2816]
 1467              	.L100:
 636:Drivers/STM32L4xx_HAL_Driver/Src/stm32l4xx_ll_usb.c **** }
 1468              		.loc 1 636 3 is_stmt 1 view .LVU448
 637:Drivers/STM32L4xx_HAL_Driver/Src/stm32l4xx_ll_usb.c **** 
 1469              		.loc 1 637 1 is_stmt 0 view .LVU449
 1470 004e 0020     		movs	r0, #0
 1471              	.LVL110:
 637:Drivers/STM32L4xx_HAL_Driver/Src/stm32l4xx_ll_usb.c **** 
 1472              		.loc 1 637 1 view .LVU450
 1473 0050 30BC     		pop	{r4, r5}
 1474              	.LCFI26:
 1475              		.cfi_remember_state
 1476              		.cfi_restore 5
 1477              		.cfi_restore 4
 1478              		.cfi_def_cfa_offset 0
 1479 0052 7047     		bx	lr
 1480              	.LVL111:
 1481              	.L103:
 1482              	.LCFI27:
 1483              		.cfi_restore_state
 606:Drivers/STM32L4xx_HAL_Driver/Src/stm32l4xx_ll_usb.c ****     {
 1484              		.loc 1 606 5 is_stmt 1 view .LVU451
 606:Drivers/STM32L4xx_HAL_Driver/Src/stm32l4xx_ll_usb.c ****     {
 1485              		.loc 1 606 10 is_stmt 0 view .LVU452
 1486 0054 00EB4313 		add	r3, r0, r3, lsl #5
 1487              	.LVL112:
 606:Drivers/STM32L4xx_HAL_Driver/Src/stm32l4xx_ll_usb.c ****     {
 1488              		.loc 1 606 26 view .LVU453
 1489 0058 D3F80029 		ldr	r2, [r3, #2304]
 606:Drivers/STM32L4xx_HAL_Driver/Src/stm32l4xx_ll_usb.c ****     {
 1490              		.loc 1 606 8 view .LVU454
 1491 005c 002A     		cmp	r2, #0
 1492 005e 1EDB     		blt	.L105
 1493              	.LVL113:
 1494              	.L99:
 612:Drivers/STM32L4xx_HAL_Driver/Src/stm32l4xx_ll_usb.c ****     USBx_DEVICE->DAINTMSK &= ~(USB_OTG_DAINTMSK_IEPM & (uint32_t)(1UL << (ep->num & EP_ADDR_MSK)));
 1495              		.loc 1 612 5 is_stmt 1 view .LVU455
 612:Drivers/STM32L4xx_HAL_Driver/Src/stm32l4xx_ll_usb.c ****     USBx_DEVICE->DAINTMSK &= ~(USB_OTG_DAINTMSK_IEPM & (uint32_t)(1UL << (ep->num & EP_ADDR_MSK)));
 1496              		.loc 1 612 27 is_stmt 0 view .LVU456
 1497 0060 D0F83C58 		ldr	r5, [r0, #2108]
 612:Drivers/STM32L4xx_HAL_Driver/Src/stm32l4xx_ll_usb.c ****     USBx_DEVICE->DAINTMSK &= ~(USB_OTG_DAINTMSK_IEPM & (uint32_t)(1UL << (ep->num & EP_ADDR_MSK)));
 1498              		.loc 1 612 77 view .LVU457
 1499 0064 0A78     		ldrb	r2, [r1]	@ zero_extendqisi2
 612:Drivers/STM32L4xx_HAL_Driver/Src/stm32l4xx_ll_usb.c ****     USBx_DEVICE->DAINTMSK &= ~(USB_OTG_DAINTMSK_IEPM & (uint32_t)(1UL << (ep->num & EP_ADDR_MSK)));
 1500              		.loc 1 612 83 view .LVU458
 1501 0066 02F00F02 		and	r2, r2, #15
 612:Drivers/STM32L4xx_HAL_Driver/Src/stm32l4xx_ll_usb.c ****     USBx_DEVICE->DAINTMSK &= ~(USB_OTG_DAINTMSK_IEPM & (uint32_t)(1UL << (ep->num & EP_ADDR_MSK)));
 1502              		.loc 1 612 56 view .LVU459
 1503 006a 0124     		movs	r4, #1
 1504 006c 04FA02F2 		lsl	r2, r4, r2
 612:Drivers/STM32L4xx_HAL_Driver/Src/stm32l4xx_ll_usb.c ****     USBx_DEVICE->DAINTMSK &= ~(USB_OTG_DAINTMSK_IEPM & (uint32_t)(1UL << (ep->num & EP_ADDR_MSK)));
 1505              		.loc 1 612 54 view .LVU460
 1506 0070 92B2     		uxth	r2, r2
 612:Drivers/STM32L4xx_HAL_Driver/Src/stm32l4xx_ll_usb.c ****     USBx_DEVICE->DAINTMSK &= ~(USB_OTG_DAINTMSK_IEPM & (uint32_t)(1UL << (ep->num & EP_ADDR_MSK)));
 1507              		.loc 1 612 27 view .LVU461
 1508 0072 25EA0202 		bic	r2, r5, r2
ARM GAS  /tmp/ccS8Yg0I.s 			page 58


 1509 0076 C0F83C28 		str	r2, [r0, #2108]
 613:Drivers/STM32L4xx_HAL_Driver/Src/stm32l4xx_ll_usb.c ****     USBx_INEP(epnum)->DIEPCTL &= ~(USB_OTG_DIEPCTL_USBAEP |
 1510              		.loc 1 613 5 is_stmt 1 view .LVU462
 613:Drivers/STM32L4xx_HAL_Driver/Src/stm32l4xx_ll_usb.c ****     USBx_INEP(epnum)->DIEPCTL &= ~(USB_OTG_DIEPCTL_USBAEP |
 1511              		.loc 1 613 27 is_stmt 0 view .LVU463
 1512 007a D0F81C28 		ldr	r2, [r0, #2076]
 613:Drivers/STM32L4xx_HAL_Driver/Src/stm32l4xx_ll_usb.c ****     USBx_INEP(epnum)->DIEPCTL &= ~(USB_OTG_DIEPCTL_USBAEP |
 1513              		.loc 1 613 77 view .LVU464
 1514 007e 0978     		ldrb	r1, [r1]	@ zero_extendqisi2
 1515              	.LVL114:
 613:Drivers/STM32L4xx_HAL_Driver/Src/stm32l4xx_ll_usb.c ****     USBx_INEP(epnum)->DIEPCTL &= ~(USB_OTG_DIEPCTL_USBAEP |
 1516              		.loc 1 613 83 view .LVU465
 1517 0080 01F00F01 		and	r1, r1, #15
 613:Drivers/STM32L4xx_HAL_Driver/Src/stm32l4xx_ll_usb.c ****     USBx_INEP(epnum)->DIEPCTL &= ~(USB_OTG_DIEPCTL_USBAEP |
 1518              		.loc 1 613 56 view .LVU466
 1519 0084 8C40     		lsls	r4, r4, r1
 613:Drivers/STM32L4xx_HAL_Driver/Src/stm32l4xx_ll_usb.c ****     USBx_INEP(epnum)->DIEPCTL &= ~(USB_OTG_DIEPCTL_USBAEP |
 1520              		.loc 1 613 54 view .LVU467
 1521 0086 A4B2     		uxth	r4, r4
 613:Drivers/STM32L4xx_HAL_Driver/Src/stm32l4xx_ll_usb.c ****     USBx_INEP(epnum)->DIEPCTL &= ~(USB_OTG_DIEPCTL_USBAEP |
 1522              		.loc 1 613 27 view .LVU468
 1523 0088 22EA0404 		bic	r4, r2, r4
 1524 008c C0F81C48 		str	r4, [r0, #2076]
 614:Drivers/STM32L4xx_HAL_Driver/Src/stm32l4xx_ll_usb.c ****                                    USB_OTG_DIEPCTL_MPSIZ |
 1525              		.loc 1 614 5 is_stmt 1 view .LVU469
 614:Drivers/STM32L4xx_HAL_Driver/Src/stm32l4xx_ll_usb.c ****                                    USB_OTG_DIEPCTL_MPSIZ |
 1526              		.loc 1 614 31 is_stmt 0 view .LVU470
 1527 0090 D3F80019 		ldr	r1, [r3, #2304]
 1528 0094 104A     		ldr	r2, .L106+4
 1529 0096 0A40     		ands	r2, r2, r1
 1530 0098 C3F80029 		str	r2, [r3, #2304]
 1531 009c D7E7     		b	.L100
 1532              	.LVL115:
 1533              	.L105:
 608:Drivers/STM32L4xx_HAL_Driver/Src/stm32l4xx_ll_usb.c ****       USBx_INEP(epnum)->DIEPCTL |= USB_OTG_DIEPCTL_EPDIS;
 1534              		.loc 1 608 7 is_stmt 1 view .LVU471
 608:Drivers/STM32L4xx_HAL_Driver/Src/stm32l4xx_ll_usb.c ****       USBx_INEP(epnum)->DIEPCTL |= USB_OTG_DIEPCTL_EPDIS;
 1535              		.loc 1 608 33 is_stmt 0 view .LVU472
 1536 009e D3F80029 		ldr	r2, [r3, #2304]
 1537 00a2 42F00062 		orr	r2, r2, #134217728
 1538 00a6 C3F80029 		str	r2, [r3, #2304]
 1539              	.LVL116:
 609:Drivers/STM32L4xx_HAL_Driver/Src/stm32l4xx_ll_usb.c ****     }
 1540              		.loc 1 609 7 is_stmt 1 view .LVU473
 609:Drivers/STM32L4xx_HAL_Driver/Src/stm32l4xx_ll_usb.c ****     }
 1541              		.loc 1 609 33 is_stmt 0 view .LVU474
 1542 00aa D3F80029 		ldr	r2, [r3, #2304]
 1543 00ae 42F08042 		orr	r2, r2, #1073741824
 1544 00b2 C3F80029 		str	r2, [r3, #2304]
 1545 00b6 D3E7     		b	.L99
 1546              	.LVL117:
 1547              	.L104:
 624:Drivers/STM32L4xx_HAL_Driver/Src/stm32l4xx_ll_usb.c ****       USBx_OUTEP(epnum)->DOEPCTL |= USB_OTG_DOEPCTL_EPDIS;
 1548              		.loc 1 624 7 is_stmt 1 view .LVU475
 624:Drivers/STM32L4xx_HAL_Driver/Src/stm32l4xx_ll_usb.c ****       USBx_OUTEP(epnum)->DOEPCTL |= USB_OTG_DOEPCTL_EPDIS;
 1549              		.loc 1 624 34 is_stmt 0 view .LVU476
 1550 00b8 D3F8002B 		ldr	r2, [r3, #2816]
ARM GAS  /tmp/ccS8Yg0I.s 			page 59


 1551 00bc 42F00062 		orr	r2, r2, #134217728
 1552 00c0 C3F8002B 		str	r2, [r3, #2816]
 1553              	.LVL118:
 625:Drivers/STM32L4xx_HAL_Driver/Src/stm32l4xx_ll_usb.c ****     }
 1554              		.loc 1 625 7 is_stmt 1 view .LVU477
 625:Drivers/STM32L4xx_HAL_Driver/Src/stm32l4xx_ll_usb.c ****     }
 1555              		.loc 1 625 34 is_stmt 0 view .LVU478
 1556 00c4 D3F8002B 		ldr	r2, [r3, #2816]
 1557 00c8 42F08042 		orr	r2, r2, #1073741824
 1558 00cc C3F8002B 		str	r2, [r3, #2816]
 1559 00d0 A1E7     		b	.L101
 1560              	.L107:
 1561 00d2 00BF     		.align	2
 1562              	.L106:
 1563 00d4 0078F3EF 		.word	-269256704
 1564 00d8 007833EC 		.word	-332171264
 1565              		.cfi_endproc
 1566              	.LFE146:
 1568              		.section	.text.USB_DeactivateDedicatedEndpoint,"ax",%progbits
 1569              		.align	1
 1570              		.global	USB_DeactivateDedicatedEndpoint
 1571              		.syntax unified
 1572              		.thumb
 1573              		.thumb_func
 1574              		.fpu fpv4-sp-d16
 1576              	USB_DeactivateDedicatedEndpoint:
 1577              	.LVL119:
 1578              	.LFB147:
 646:Drivers/STM32L4xx_HAL_Driver/Src/stm32l4xx_ll_usb.c ****   uint32_t USBx_BASE = (uint32_t)USBx;
 1579              		.loc 1 646 1 is_stmt 1 view -0
 1580              		.cfi_startproc
 1581              		@ args = 0, pretend = 0, frame = 0
 1582              		@ frame_needed = 0, uses_anonymous_args = 0
 1583              		@ link register save eliminated.
 647:Drivers/STM32L4xx_HAL_Driver/Src/stm32l4xx_ll_usb.c ****   uint32_t epnum = (uint32_t)ep->num;
 1584              		.loc 1 647 3 view .LVU480
 648:Drivers/STM32L4xx_HAL_Driver/Src/stm32l4xx_ll_usb.c **** 
 1585              		.loc 1 648 3 view .LVU481
 648:Drivers/STM32L4xx_HAL_Driver/Src/stm32l4xx_ll_usb.c **** 
 1586              		.loc 1 648 32 is_stmt 0 view .LVU482
 1587 0000 0B78     		ldrb	r3, [r1]	@ zero_extendqisi2
 1588              	.LVL120:
 651:Drivers/STM32L4xx_HAL_Driver/Src/stm32l4xx_ll_usb.c ****   {
 1589              		.loc 1 651 3 is_stmt 1 view .LVU483
 651:Drivers/STM32L4xx_HAL_Driver/Src/stm32l4xx_ll_usb.c ****   {
 1590              		.loc 1 651 9 is_stmt 0 view .LVU484
 1591 0002 4A78     		ldrb	r2, [r1, #1]	@ zero_extendqisi2
 651:Drivers/STM32L4xx_HAL_Driver/Src/stm32l4xx_ll_usb.c ****   {
 1592              		.loc 1 651 6 view .LVU485
 1593 0004 012A     		cmp	r2, #1
 1594 0006 18D0     		beq	.L113
 664:Drivers/STM32L4xx_HAL_Driver/Src/stm32l4xx_ll_usb.c ****     {
 1595              		.loc 1 664 5 is_stmt 1 view .LVU486
 664:Drivers/STM32L4xx_HAL_Driver/Src/stm32l4xx_ll_usb.c ****     {
 1596              		.loc 1 664 10 is_stmt 0 view .LVU487
 1597 0008 00EB4313 		add	r3, r0, r3, lsl #5
 1598              	.LVL121:
ARM GAS  /tmp/ccS8Yg0I.s 			page 60


 664:Drivers/STM32L4xx_HAL_Driver/Src/stm32l4xx_ll_usb.c ****     {
 1599              		.loc 1 664 27 view .LVU488
 1600 000c D3F8002B 		ldr	r2, [r3, #2816]
 664:Drivers/STM32L4xx_HAL_Driver/Src/stm32l4xx_ll_usb.c ****     {
 1601              		.loc 1 664 8 view .LVU489
 1602 0010 002A     		cmp	r2, #0
 1603 0012 38DB     		blt	.L114
 1604              	.LVL122:
 1605              	.L112:
 670:Drivers/STM32L4xx_HAL_Driver/Src/stm32l4xx_ll_usb.c ****     USBx_DEVICE->DAINTMSK &= ~(USB_OTG_DAINTMSK_OEPM & ((uint32_t)(1UL << (ep->num & EP_ADDR_MSK)) 
 1606              		.loc 1 670 5 is_stmt 1 view .LVU490
 670:Drivers/STM32L4xx_HAL_Driver/Src/stm32l4xx_ll_usb.c ****     USBx_DEVICE->DAINTMSK &= ~(USB_OTG_DAINTMSK_OEPM & ((uint32_t)(1UL << (ep->num & EP_ADDR_MSK)) 
 1607              		.loc 1 670 32 is_stmt 0 view .LVU491
 1608 0014 D3F8002B 		ldr	r2, [r3, #2816]
 1609 0018 22F40042 		bic	r2, r2, #32768
 1610 001c C3F8002B 		str	r2, [r3, #2816]
 671:Drivers/STM32L4xx_HAL_Driver/Src/stm32l4xx_ll_usb.c ****   }
 1611              		.loc 1 671 5 is_stmt 1 view .LVU492
 671:Drivers/STM32L4xx_HAL_Driver/Src/stm32l4xx_ll_usb.c ****   }
 1612              		.loc 1 671 27 is_stmt 0 view .LVU493
 1613 0020 D0F81C38 		ldr	r3, [r0, #2076]
 671:Drivers/STM32L4xx_HAL_Driver/Src/stm32l4xx_ll_usb.c ****   }
 1614              		.loc 1 671 78 view .LVU494
 1615 0024 0A78     		ldrb	r2, [r1]	@ zero_extendqisi2
 671:Drivers/STM32L4xx_HAL_Driver/Src/stm32l4xx_ll_usb.c ****   }
 1616              		.loc 1 671 84 view .LVU495
 1617 0026 02F00F01 		and	r1, r2, #15
 1618              	.LVL123:
 671:Drivers/STM32L4xx_HAL_Driver/Src/stm32l4xx_ll_usb.c ****   }
 1619              		.loc 1 671 57 view .LVU496
 1620 002a 0122     		movs	r2, #1
 1621 002c 8A40     		lsls	r2, r2, r1
 671:Drivers/STM32L4xx_HAL_Driver/Src/stm32l4xx_ll_usb.c ****   }
 1622              		.loc 1 671 27 view .LVU497
 1623 002e 23EA0243 		bic	r3, r3, r2, lsl #16
 1624 0032 C0F81C38 		str	r3, [r0, #2076]
 1625              	.L111:
 674:Drivers/STM32L4xx_HAL_Driver/Src/stm32l4xx_ll_usb.c **** }
 1626              		.loc 1 674 3 is_stmt 1 view .LVU498
 675:Drivers/STM32L4xx_HAL_Driver/Src/stm32l4xx_ll_usb.c **** 
 1627              		.loc 1 675 1 is_stmt 0 view .LVU499
 1628 0036 0020     		movs	r0, #0
 1629              	.LVL124:
 675:Drivers/STM32L4xx_HAL_Driver/Src/stm32l4xx_ll_usb.c **** 
 1630              		.loc 1 675 1 view .LVU500
 1631 0038 7047     		bx	lr
 1632              	.LVL125:
 1633              	.L113:
 653:Drivers/STM32L4xx_HAL_Driver/Src/stm32l4xx_ll_usb.c ****     {
 1634              		.loc 1 653 5 is_stmt 1 view .LVU501
 653:Drivers/STM32L4xx_HAL_Driver/Src/stm32l4xx_ll_usb.c ****     {
 1635              		.loc 1 653 10 is_stmt 0 view .LVU502
 1636 003a 00EB4313 		add	r3, r0, r3, lsl #5
 1637              	.LVL126:
 653:Drivers/STM32L4xx_HAL_Driver/Src/stm32l4xx_ll_usb.c ****     {
 1638              		.loc 1 653 26 view .LVU503
 1639 003e D3F80029 		ldr	r2, [r3, #2304]
ARM GAS  /tmp/ccS8Yg0I.s 			page 61


 653:Drivers/STM32L4xx_HAL_Driver/Src/stm32l4xx_ll_usb.c ****     {
 1640              		.loc 1 653 8 view .LVU504
 1641 0042 002A     		cmp	r2, #0
 1642 0044 12DB     		blt	.L115
 1643              	.LVL127:
 1644              	.L110:
 659:Drivers/STM32L4xx_HAL_Driver/Src/stm32l4xx_ll_usb.c ****     USBx_DEVICE->DAINTMSK &= ~(USB_OTG_DAINTMSK_IEPM & (uint32_t)(1UL << (ep->num & EP_ADDR_MSK)));
 1645              		.loc 1 659 5 is_stmt 1 view .LVU505
 659:Drivers/STM32L4xx_HAL_Driver/Src/stm32l4xx_ll_usb.c ****     USBx_DEVICE->DAINTMSK &= ~(USB_OTG_DAINTMSK_IEPM & (uint32_t)(1UL << (ep->num & EP_ADDR_MSK)));
 1646              		.loc 1 659 31 is_stmt 0 view .LVU506
 1647 0046 D3F80029 		ldr	r2, [r3, #2304]
 1648 004a 22F40042 		bic	r2, r2, #32768
 1649 004e C3F80029 		str	r2, [r3, #2304]
 660:Drivers/STM32L4xx_HAL_Driver/Src/stm32l4xx_ll_usb.c ****   }
 1650              		.loc 1 660 5 is_stmt 1 view .LVU507
 660:Drivers/STM32L4xx_HAL_Driver/Src/stm32l4xx_ll_usb.c ****   }
 1651              		.loc 1 660 27 is_stmt 0 view .LVU508
 1652 0052 D0F81C28 		ldr	r2, [r0, #2076]
 660:Drivers/STM32L4xx_HAL_Driver/Src/stm32l4xx_ll_usb.c ****   }
 1653              		.loc 1 660 77 view .LVU509
 1654 0056 0B78     		ldrb	r3, [r1]	@ zero_extendqisi2
 660:Drivers/STM32L4xx_HAL_Driver/Src/stm32l4xx_ll_usb.c ****   }
 1655              		.loc 1 660 83 view .LVU510
 1656 0058 03F00F01 		and	r1, r3, #15
 1657              	.LVL128:
 660:Drivers/STM32L4xx_HAL_Driver/Src/stm32l4xx_ll_usb.c ****   }
 1658              		.loc 1 660 56 view .LVU511
 1659 005c 0123     		movs	r3, #1
 1660 005e 8B40     		lsls	r3, r3, r1
 660:Drivers/STM32L4xx_HAL_Driver/Src/stm32l4xx_ll_usb.c ****   }
 1661              		.loc 1 660 54 view .LVU512
 1662 0060 9BB2     		uxth	r3, r3
 660:Drivers/STM32L4xx_HAL_Driver/Src/stm32l4xx_ll_usb.c ****   }
 1663              		.loc 1 660 27 view .LVU513
 1664 0062 22EA0303 		bic	r3, r2, r3
 1665 0066 C0F81C38 		str	r3, [r0, #2076]
 1666 006a E4E7     		b	.L111
 1667              	.LVL129:
 1668              	.L115:
 655:Drivers/STM32L4xx_HAL_Driver/Src/stm32l4xx_ll_usb.c ****       USBx_INEP(epnum)->DIEPCTL  |= USB_OTG_DIEPCTL_EPDIS;
 1669              		.loc 1 655 7 is_stmt 1 view .LVU514
 655:Drivers/STM32L4xx_HAL_Driver/Src/stm32l4xx_ll_usb.c ****       USBx_INEP(epnum)->DIEPCTL  |= USB_OTG_DIEPCTL_EPDIS;
 1670              		.loc 1 655 34 is_stmt 0 view .LVU515
 1671 006c D3F80029 		ldr	r2, [r3, #2304]
 1672 0070 42F00062 		orr	r2, r2, #134217728
 1673 0074 C3F80029 		str	r2, [r3, #2304]
 1674              	.LVL130:
 656:Drivers/STM32L4xx_HAL_Driver/Src/stm32l4xx_ll_usb.c ****     }
 1675              		.loc 1 656 7 is_stmt 1 view .LVU516
 656:Drivers/STM32L4xx_HAL_Driver/Src/stm32l4xx_ll_usb.c ****     }
 1676              		.loc 1 656 34 is_stmt 0 view .LVU517
 1677 0078 D3F80029 		ldr	r2, [r3, #2304]
 1678 007c 42F08042 		orr	r2, r2, #1073741824
 1679 0080 C3F80029 		str	r2, [r3, #2304]
 1680 0084 DFE7     		b	.L110
 1681              	.LVL131:
 1682              	.L114:
ARM GAS  /tmp/ccS8Yg0I.s 			page 62


 666:Drivers/STM32L4xx_HAL_Driver/Src/stm32l4xx_ll_usb.c ****       USBx_OUTEP(epnum)->DOEPCTL  |= USB_OTG_DOEPCTL_EPDIS;
 1683              		.loc 1 666 7 is_stmt 1 view .LVU518
 666:Drivers/STM32L4xx_HAL_Driver/Src/stm32l4xx_ll_usb.c ****       USBx_OUTEP(epnum)->DOEPCTL  |= USB_OTG_DOEPCTL_EPDIS;
 1684              		.loc 1 666 35 is_stmt 0 view .LVU519
 1685 0086 D3F8002B 		ldr	r2, [r3, #2816]
 1686 008a 42F00062 		orr	r2, r2, #134217728
 1687 008e C3F8002B 		str	r2, [r3, #2816]
 1688              	.LVL132:
 667:Drivers/STM32L4xx_HAL_Driver/Src/stm32l4xx_ll_usb.c ****     }
 1689              		.loc 1 667 7 is_stmt 1 view .LVU520
 667:Drivers/STM32L4xx_HAL_Driver/Src/stm32l4xx_ll_usb.c ****     }
 1690              		.loc 1 667 35 is_stmt 0 view .LVU521
 1691 0092 D3F8002B 		ldr	r2, [r3, #2816]
 1692 0096 42F08042 		orr	r2, r2, #1073741824
 1693 009a C3F8002B 		str	r2, [r3, #2816]
 1694 009e B9E7     		b	.L112
 1695              		.cfi_endproc
 1696              	.LFE147:
 1698              		.section	.text.USB_EP0StartXfer,"ax",%progbits
 1699              		.align	1
 1700              		.global	USB_EP0StartXfer
 1701              		.syntax unified
 1702              		.thumb
 1703              		.thumb_func
 1704              		.fpu fpv4-sp-d16
 1706              	USB_EP0StartXfer:
 1707              	.LVL133:
 1708              	.LFB149:
 792:Drivers/STM32L4xx_HAL_Driver/Src/stm32l4xx_ll_usb.c ****   uint32_t USBx_BASE = (uint32_t)USBx;
 1709              		.loc 1 792 1 is_stmt 1 view -0
 1710              		.cfi_startproc
 1711              		@ args = 0, pretend = 0, frame = 0
 1712              		@ frame_needed = 0, uses_anonymous_args = 0
 1713              		@ link register save eliminated.
 793:Drivers/STM32L4xx_HAL_Driver/Src/stm32l4xx_ll_usb.c ****   uint32_t epnum = (uint32_t)ep->num;
 1714              		.loc 1 793 3 view .LVU523
 794:Drivers/STM32L4xx_HAL_Driver/Src/stm32l4xx_ll_usb.c **** 
 1715              		.loc 1 794 3 view .LVU524
 794:Drivers/STM32L4xx_HAL_Driver/Src/stm32l4xx_ll_usb.c **** 
 1716              		.loc 1 794 32 is_stmt 0 view .LVU525
 1717 0000 0B78     		ldrb	r3, [r1]	@ zero_extendqisi2
 1718              	.LVL134:
 797:Drivers/STM32L4xx_HAL_Driver/Src/stm32l4xx_ll_usb.c ****   {
 1719              		.loc 1 797 3 is_stmt 1 view .LVU526
 797:Drivers/STM32L4xx_HAL_Driver/Src/stm32l4xx_ll_usb.c ****   {
 1720              		.loc 1 797 9 is_stmt 0 view .LVU527
 1721 0002 4A78     		ldrb	r2, [r1, #1]	@ zero_extendqisi2
 797:Drivers/STM32L4xx_HAL_Driver/Src/stm32l4xx_ll_usb.c ****   {
 1722              		.loc 1 797 6 view .LVU528
 1723 0004 012A     		cmp	r2, #1
 1724 0006 25D0     		beq	.L127
 839:Drivers/STM32L4xx_HAL_Driver/Src/stm32l4xx_ll_usb.c ****     USBx_OUTEP(epnum)->DOEPTSIZ &= ~(USB_OTG_DOEPTSIZ_PKTCNT);
 1725              		.loc 1 839 5 is_stmt 1 view .LVU529
 839:Drivers/STM32L4xx_HAL_Driver/Src/stm32l4xx_ll_usb.c ****     USBx_OUTEP(epnum)->DOEPTSIZ &= ~(USB_OTG_DOEPTSIZ_PKTCNT);
 1726              		.loc 1 839 33 is_stmt 0 view .LVU530
 1727 0008 00EB4310 		add	r0, r0, r3, lsl #5
 1728              	.LVL135:
ARM GAS  /tmp/ccS8Yg0I.s 			page 63


 839:Drivers/STM32L4xx_HAL_Driver/Src/stm32l4xx_ll_usb.c ****     USBx_OUTEP(epnum)->DOEPTSIZ &= ~(USB_OTG_DOEPTSIZ_PKTCNT);
 1729              		.loc 1 839 33 view .LVU531
 1730 000c 00F53063 		add	r3, r0, #2816
 1731              	.LVL136:
 839:Drivers/STM32L4xx_HAL_Driver/Src/stm32l4xx_ll_usb.c ****     USBx_OUTEP(epnum)->DOEPTSIZ &= ~(USB_OTG_DOEPTSIZ_PKTCNT);
 1732              		.loc 1 839 33 view .LVU532
 1733 0010 1A69     		ldr	r2, [r3, #16]
 1734 0012 D20C     		lsrs	r2, r2, #19
 1735 0014 D204     		lsls	r2, r2, #19
 1736 0016 1A61     		str	r2, [r3, #16]
 1737              	.LVL137:
 840:Drivers/STM32L4xx_HAL_Driver/Src/stm32l4xx_ll_usb.c **** 
 1738              		.loc 1 840 5 is_stmt 1 view .LVU533
 840:Drivers/STM32L4xx_HAL_Driver/Src/stm32l4xx_ll_usb.c **** 
 1739              		.loc 1 840 33 is_stmt 0 view .LVU534
 1740 0018 1A69     		ldr	r2, [r3, #16]
 1741 001a 22F0FF52 		bic	r2, r2, #534773760
 1742 001e 22F4C012 		bic	r2, r2, #1572864
 1743 0022 1A61     		str	r2, [r3, #16]
 842:Drivers/STM32L4xx_HAL_Driver/Src/stm32l4xx_ll_usb.c ****     {
 1744              		.loc 1 842 5 is_stmt 1 view .LVU535
 842:Drivers/STM32L4xx_HAL_Driver/Src/stm32l4xx_ll_usb.c ****     {
 1745              		.loc 1 842 11 is_stmt 0 view .LVU536
 1746 0024 8A69     		ldr	r2, [r1, #24]
 842:Drivers/STM32L4xx_HAL_Driver/Src/stm32l4xx_ll_usb.c ****     {
 1747              		.loc 1 842 8 view .LVU537
 1748 0026 0AB1     		cbz	r2, .L122
 844:Drivers/STM32L4xx_HAL_Driver/Src/stm32l4xx_ll_usb.c ****     }
 1749              		.loc 1 844 7 is_stmt 1 view .LVU538
 844:Drivers/STM32L4xx_HAL_Driver/Src/stm32l4xx_ll_usb.c ****     }
 1750              		.loc 1 844 24 is_stmt 0 view .LVU539
 1751 0028 CA68     		ldr	r2, [r1, #12]
 844:Drivers/STM32L4xx_HAL_Driver/Src/stm32l4xx_ll_usb.c ****     }
 1752              		.loc 1 844 20 view .LVU540
 1753 002a 8A61     		str	r2, [r1, #24]
 1754              	.L122:
 848:Drivers/STM32L4xx_HAL_Driver/Src/stm32l4xx_ll_usb.c **** 
 1755              		.loc 1 848 5 is_stmt 1 view .LVU541
 848:Drivers/STM32L4xx_HAL_Driver/Src/stm32l4xx_ll_usb.c **** 
 1756              		.loc 1 848 23 is_stmt 0 view .LVU542
 1757 002c CA68     		ldr	r2, [r1, #12]
 848:Drivers/STM32L4xx_HAL_Driver/Src/stm32l4xx_ll_usb.c **** 
 1758              		.loc 1 848 19 view .LVU543
 1759 002e CA61     		str	r2, [r1, #28]
 850:Drivers/STM32L4xx_HAL_Driver/Src/stm32l4xx_ll_usb.c ****     USBx_OUTEP(epnum)->DOEPTSIZ |= (USB_OTG_DOEPTSIZ_XFRSIZ & ep->xfer_size);
 1760              		.loc 1 850 5 is_stmt 1 view .LVU544
 850:Drivers/STM32L4xx_HAL_Driver/Src/stm32l4xx_ll_usb.c ****     USBx_OUTEP(epnum)->DOEPTSIZ |= (USB_OTG_DOEPTSIZ_XFRSIZ & ep->xfer_size);
 1761              		.loc 1 850 33 is_stmt 0 view .LVU545
 1762 0030 1A69     		ldr	r2, [r3, #16]
 1763 0032 42F40022 		orr	r2, r2, #524288
 1764 0036 1A61     		str	r2, [r3, #16]
 851:Drivers/STM32L4xx_HAL_Driver/Src/stm32l4xx_ll_usb.c **** 
 1765              		.loc 1 851 5 is_stmt 1 view .LVU546
 851:Drivers/STM32L4xx_HAL_Driver/Src/stm32l4xx_ll_usb.c **** 
 1766              		.loc 1 851 33 is_stmt 0 view .LVU547
 1767 0038 1A69     		ldr	r2, [r3, #16]
 851:Drivers/STM32L4xx_HAL_Driver/Src/stm32l4xx_ll_usb.c **** 
ARM GAS  /tmp/ccS8Yg0I.s 			page 64


 1768              		.loc 1 851 65 view .LVU548
 1769 003a C969     		ldr	r1, [r1, #28]
 1770              	.LVL138:
 851:Drivers/STM32L4xx_HAL_Driver/Src/stm32l4xx_ll_usb.c **** 
 1771              		.loc 1 851 61 view .LVU549
 1772 003c C1F31201 		ubfx	r1, r1, #0, #19
 851:Drivers/STM32L4xx_HAL_Driver/Src/stm32l4xx_ll_usb.c **** 
 1773              		.loc 1 851 33 view .LVU550
 1774 0040 0A43     		orrs	r2, r2, r1
 1775 0042 1A61     		str	r2, [r3, #16]
 854:Drivers/STM32L4xx_HAL_Driver/Src/stm32l4xx_ll_usb.c ****   }
 1776              		.loc 1 854 5 is_stmt 1 view .LVU551
 854:Drivers/STM32L4xx_HAL_Driver/Src/stm32l4xx_ll_usb.c ****   }
 1777              		.loc 1 854 32 is_stmt 0 view .LVU552
 1778 0044 D0F8003B 		ldr	r3, [r0, #2816]
 1779 0048 43F00443 		orr	r3, r3, #-2080374784
 1780 004c C0F8003B 		str	r3, [r0, #2816]
 857:Drivers/STM32L4xx_HAL_Driver/Src/stm32l4xx_ll_usb.c **** }
 1781              		.loc 1 857 3 is_stmt 1 view .LVU553
 858:Drivers/STM32L4xx_HAL_Driver/Src/stm32l4xx_ll_usb.c **** 
 1782              		.loc 1 858 1 is_stmt 0 view .LVU554
 1783 0050 0020     		movs	r0, #0
 1784 0052 7047     		bx	lr
 1785              	.LVL139:
 1786              	.L127:
 792:Drivers/STM32L4xx_HAL_Driver/Src/stm32l4xx_ll_usb.c ****   uint32_t USBx_BASE = (uint32_t)USBx;
 1787              		.loc 1 792 1 view .LVU555
 1788 0054 30B4     		push	{r4, r5}
 1789              	.LCFI28:
 1790              		.cfi_def_cfa_offset 8
 1791              		.cfi_offset 4, -8
 1792              		.cfi_offset 5, -4
 800:Drivers/STM32L4xx_HAL_Driver/Src/stm32l4xx_ll_usb.c ****     {
 1793              		.loc 1 800 5 is_stmt 1 view .LVU556
 800:Drivers/STM32L4xx_HAL_Driver/Src/stm32l4xx_ll_usb.c ****     {
 1794              		.loc 1 800 11 is_stmt 0 view .LVU557
 1795 0056 8A69     		ldr	r2, [r1, #24]
 800:Drivers/STM32L4xx_HAL_Driver/Src/stm32l4xx_ll_usb.c ****     {
 1796              		.loc 1 800 8 view .LVU558
 1797 0058 62BB     		cbnz	r2, .L118
 802:Drivers/STM32L4xx_HAL_Driver/Src/stm32l4xx_ll_usb.c ****       USBx_INEP(epnum)->DIEPTSIZ |= (USB_OTG_DIEPTSIZ_PKTCNT & (1U << 19));
 1798              		.loc 1 802 7 is_stmt 1 view .LVU559
 802:Drivers/STM32L4xx_HAL_Driver/Src/stm32l4xx_ll_usb.c ****       USBx_INEP(epnum)->DIEPTSIZ |= (USB_OTG_DIEPTSIZ_PKTCNT & (1U << 19));
 1799              		.loc 1 802 34 is_stmt 0 view .LVU560
 1800 005a 00EB4312 		add	r2, r0, r3, lsl #5
 1801 005e D2F81049 		ldr	r4, [r2, #2320]
 1802 0062 24F0FF54 		bic	r4, r4, #534773760
 1803 0066 24F4C014 		bic	r4, r4, #1572864
 1804 006a C2F81049 		str	r4, [r2, #2320]
 803:Drivers/STM32L4xx_HAL_Driver/Src/stm32l4xx_ll_usb.c ****       USBx_INEP(epnum)->DIEPTSIZ &= ~(USB_OTG_DIEPTSIZ_XFRSIZ);
 1805              		.loc 1 803 7 is_stmt 1 view .LVU561
 803:Drivers/STM32L4xx_HAL_Driver/Src/stm32l4xx_ll_usb.c ****       USBx_INEP(epnum)->DIEPTSIZ &= ~(USB_OTG_DIEPTSIZ_XFRSIZ);
 1806              		.loc 1 803 34 is_stmt 0 view .LVU562
 1807 006e D2F81049 		ldr	r4, [r2, #2320]
 1808 0072 44F40024 		orr	r4, r4, #524288
 1809 0076 C2F81049 		str	r4, [r2, #2320]
 804:Drivers/STM32L4xx_HAL_Driver/Src/stm32l4xx_ll_usb.c ****     }
ARM GAS  /tmp/ccS8Yg0I.s 			page 65


 1810              		.loc 1 804 7 is_stmt 1 view .LVU563
 804:Drivers/STM32L4xx_HAL_Driver/Src/stm32l4xx_ll_usb.c ****     }
 1811              		.loc 1 804 34 is_stmt 0 view .LVU564
 1812 007a D2F81049 		ldr	r4, [r2, #2320]
 1813 007e E40C     		lsrs	r4, r4, #19
 1814 0080 E404     		lsls	r4, r4, #19
 1815 0082 C2F81049 		str	r4, [r2, #2320]
 1816              	.L119:
 825:Drivers/STM32L4xx_HAL_Driver/Src/stm32l4xx_ll_usb.c **** 
 1817              		.loc 1 825 5 is_stmt 1 view .LVU565
 825:Drivers/STM32L4xx_HAL_Driver/Src/stm32l4xx_ll_usb.c **** 
 1818              		.loc 1 825 31 is_stmt 0 view .LVU566
 1819 0086 00EB4313 		add	r3, r0, r3, lsl #5
 1820              	.LVL140:
 825:Drivers/STM32L4xx_HAL_Driver/Src/stm32l4xx_ll_usb.c **** 
 1821              		.loc 1 825 31 view .LVU567
 1822 008a D3F80029 		ldr	r2, [r3, #2304]
 1823 008e 42F00442 		orr	r2, r2, #-2080374784
 1824 0092 C3F80029 		str	r2, [r3, #2304]
 828:Drivers/STM32L4xx_HAL_Driver/Src/stm32l4xx_ll_usb.c ****     {
 1825              		.loc 1 828 5 is_stmt 1 view .LVU568
 828:Drivers/STM32L4xx_HAL_Driver/Src/stm32l4xx_ll_usb.c ****     {
 1826              		.loc 1 828 11 is_stmt 0 view .LVU569
 1827 0096 8B69     		ldr	r3, [r1, #24]
 828:Drivers/STM32L4xx_HAL_Driver/Src/stm32l4xx_ll_usb.c ****     {
 1828              		.loc 1 828 8 view .LVU570
 1829 0098 4BB1     		cbz	r3, .L121
 830:Drivers/STM32L4xx_HAL_Driver/Src/stm32l4xx_ll_usb.c ****     }
 1830              		.loc 1 830 7 is_stmt 1 view .LVU571
 830:Drivers/STM32L4xx_HAL_Driver/Src/stm32l4xx_ll_usb.c ****     }
 1831              		.loc 1 830 31 is_stmt 0 view .LVU572
 1832 009a D0F83438 		ldr	r3, [r0, #2100]
 830:Drivers/STM32L4xx_HAL_Driver/Src/stm32l4xx_ll_usb.c ****     }
 1833              		.loc 1 830 44 view .LVU573
 1834 009e 0A78     		ldrb	r2, [r1]	@ zero_extendqisi2
 830:Drivers/STM32L4xx_HAL_Driver/Src/stm32l4xx_ll_usb.c ****     }
 1835              		.loc 1 830 50 view .LVU574
 1836 00a0 02F00F01 		and	r1, r2, #15
 1837              	.LVL141:
 830:Drivers/STM32L4xx_HAL_Driver/Src/stm32l4xx_ll_usb.c ****     }
 1838              		.loc 1 830 38 view .LVU575
 1839 00a4 0122     		movs	r2, #1
 1840 00a6 8A40     		lsls	r2, r2, r1
 830:Drivers/STM32L4xx_HAL_Driver/Src/stm32l4xx_ll_usb.c ****     }
 1841              		.loc 1 830 31 view .LVU576
 1842 00a8 1343     		orrs	r3, r3, r2
 1843 00aa C0F83438 		str	r3, [r0, #2100]
 1844              	.L121:
 857:Drivers/STM32L4xx_HAL_Driver/Src/stm32l4xx_ll_usb.c **** }
 1845              		.loc 1 857 3 is_stmt 1 view .LVU577
 858:Drivers/STM32L4xx_HAL_Driver/Src/stm32l4xx_ll_usb.c **** 
 1846              		.loc 1 858 1 is_stmt 0 view .LVU578
 1847 00ae 0020     		movs	r0, #0
 1848              	.LVL142:
 858:Drivers/STM32L4xx_HAL_Driver/Src/stm32l4xx_ll_usb.c **** 
 1849              		.loc 1 858 1 view .LVU579
 1850 00b0 30BC     		pop	{r4, r5}
ARM GAS  /tmp/ccS8Yg0I.s 			page 66


 1851              	.LCFI29:
 1852              		.cfi_remember_state
 1853              		.cfi_restore 5
 1854              		.cfi_restore 4
 1855              		.cfi_def_cfa_offset 0
 1856 00b2 7047     		bx	lr
 1857              	.LVL143:
 1858              	.L118:
 1859              	.LCFI30:
 1860              		.cfi_restore_state
 813:Drivers/STM32L4xx_HAL_Driver/Src/stm32l4xx_ll_usb.c ****       USBx_INEP(epnum)->DIEPTSIZ &= ~(USB_OTG_DIEPTSIZ_PKTCNT);
 1861              		.loc 1 813 7 is_stmt 1 view .LVU580
 813:Drivers/STM32L4xx_HAL_Driver/Src/stm32l4xx_ll_usb.c ****       USBx_INEP(epnum)->DIEPTSIZ &= ~(USB_OTG_DIEPTSIZ_PKTCNT);
 1862              		.loc 1 813 34 is_stmt 0 view .LVU581
 1863 00b4 00EB4312 		add	r2, r0, r3, lsl #5
 1864 00b8 02F51062 		add	r2, r2, #2304
 1865 00bc 1469     		ldr	r4, [r2, #16]
 1866 00be E40C     		lsrs	r4, r4, #19
 1867 00c0 E404     		lsls	r4, r4, #19
 1868 00c2 1461     		str	r4, [r2, #16]
 814:Drivers/STM32L4xx_HAL_Driver/Src/stm32l4xx_ll_usb.c **** 
 1869              		.loc 1 814 7 is_stmt 1 view .LVU582
 814:Drivers/STM32L4xx_HAL_Driver/Src/stm32l4xx_ll_usb.c **** 
 1870              		.loc 1 814 34 is_stmt 0 view .LVU583
 1871 00c4 1469     		ldr	r4, [r2, #16]
 1872 00c6 24F0FF54 		bic	r4, r4, #534773760
 1873 00ca 24F4C014 		bic	r4, r4, #1572864
 1874 00ce 1461     		str	r4, [r2, #16]
 816:Drivers/STM32L4xx_HAL_Driver/Src/stm32l4xx_ll_usb.c ****       {
 1875              		.loc 1 816 7 is_stmt 1 view .LVU584
 816:Drivers/STM32L4xx_HAL_Driver/Src/stm32l4xx_ll_usb.c ****       {
 1876              		.loc 1 816 13 is_stmt 0 view .LVU585
 1877 00d0 8D69     		ldr	r5, [r1, #24]
 816:Drivers/STM32L4xx_HAL_Driver/Src/stm32l4xx_ll_usb.c ****       {
 1878              		.loc 1 816 28 view .LVU586
 1879 00d2 CC68     		ldr	r4, [r1, #12]
 816:Drivers/STM32L4xx_HAL_Driver/Src/stm32l4xx_ll_usb.c ****       {
 1880              		.loc 1 816 10 view .LVU587
 1881 00d4 A542     		cmp	r5, r4
 1882 00d6 00D9     		bls	.L120
 818:Drivers/STM32L4xx_HAL_Driver/Src/stm32l4xx_ll_usb.c ****       }
 1883              		.loc 1 818 9 is_stmt 1 view .LVU588
 818:Drivers/STM32L4xx_HAL_Driver/Src/stm32l4xx_ll_usb.c ****       }
 1884              		.loc 1 818 22 is_stmt 0 view .LVU589
 1885 00d8 8C61     		str	r4, [r1, #24]
 1886              	.L120:
 820:Drivers/STM32L4xx_HAL_Driver/Src/stm32l4xx_ll_usb.c ****       USBx_INEP(epnum)->DIEPTSIZ |= (USB_OTG_DIEPTSIZ_XFRSIZ & ep->xfer_len);
 1887              		.loc 1 820 7 is_stmt 1 view .LVU590
 820:Drivers/STM32L4xx_HAL_Driver/Src/stm32l4xx_ll_usb.c ****       USBx_INEP(epnum)->DIEPTSIZ |= (USB_OTG_DIEPTSIZ_XFRSIZ & ep->xfer_len);
 1888              		.loc 1 820 34 is_stmt 0 view .LVU591
 1889 00da 1469     		ldr	r4, [r2, #16]
 1890 00dc 44F40024 		orr	r4, r4, #524288
 1891 00e0 1461     		str	r4, [r2, #16]
 821:Drivers/STM32L4xx_HAL_Driver/Src/stm32l4xx_ll_usb.c ****     }
 1892              		.loc 1 821 7 is_stmt 1 view .LVU592
 821:Drivers/STM32L4xx_HAL_Driver/Src/stm32l4xx_ll_usb.c ****     }
 1893              		.loc 1 821 34 is_stmt 0 view .LVU593
ARM GAS  /tmp/ccS8Yg0I.s 			page 67


 1894 00e2 1469     		ldr	r4, [r2, #16]
 821:Drivers/STM32L4xx_HAL_Driver/Src/stm32l4xx_ll_usb.c ****     }
 1895              		.loc 1 821 66 view .LVU594
 1896 00e4 8D69     		ldr	r5, [r1, #24]
 821:Drivers/STM32L4xx_HAL_Driver/Src/stm32l4xx_ll_usb.c ****     }
 1897              		.loc 1 821 62 view .LVU595
 1898 00e6 C5F31205 		ubfx	r5, r5, #0, #19
 821:Drivers/STM32L4xx_HAL_Driver/Src/stm32l4xx_ll_usb.c ****     }
 1899              		.loc 1 821 34 view .LVU596
 1900 00ea 2C43     		orrs	r4, r4, r5
 1901 00ec 1461     		str	r4, [r2, #16]
 1902 00ee CAE7     		b	.L119
 1903              		.cfi_endproc
 1904              	.LFE149:
 1906              		.section	.text.USB_EPStopXfer,"ax",%progbits
 1907              		.align	1
 1908              		.global	USB_EPStopXfer
 1909              		.syntax unified
 1910              		.thumb
 1911              		.thumb_func
 1912              		.fpu fpv4-sp-d16
 1914              	USB_EPStopXfer:
 1915              	.LVL144:
 1916              	.LFB150:
 868:Drivers/STM32L4xx_HAL_Driver/Src/stm32l4xx_ll_usb.c ****   __IO uint32_t count = 0U;
 1917              		.loc 1 868 1 is_stmt 1 view -0
 1918              		.cfi_startproc
 1919              		@ args = 0, pretend = 0, frame = 8
 1920              		@ frame_needed = 0, uses_anonymous_args = 0
 1921              		@ link register save eliminated.
 868:Drivers/STM32L4xx_HAL_Driver/Src/stm32l4xx_ll_usb.c ****   __IO uint32_t count = 0U;
 1922              		.loc 1 868 1 is_stmt 0 view .LVU598
 1923 0000 30B4     		push	{r4, r5}
 1924              	.LCFI31:
 1925              		.cfi_def_cfa_offset 8
 1926              		.cfi_offset 4, -8
 1927              		.cfi_offset 5, -4
 1928 0002 82B0     		sub	sp, sp, #8
 1929              	.LCFI32:
 1930              		.cfi_def_cfa_offset 16
 1931 0004 0346     		mov	r3, r0
 869:Drivers/STM32L4xx_HAL_Driver/Src/stm32l4xx_ll_usb.c ****   HAL_StatusTypeDef ret = HAL_OK;
 1932              		.loc 1 869 3 is_stmt 1 view .LVU599
 869:Drivers/STM32L4xx_HAL_Driver/Src/stm32l4xx_ll_usb.c ****   HAL_StatusTypeDef ret = HAL_OK;
 1933              		.loc 1 869 17 is_stmt 0 view .LVU600
 1934 0006 0022     		movs	r2, #0
 1935 0008 0192     		str	r2, [sp, #4]
 870:Drivers/STM32L4xx_HAL_Driver/Src/stm32l4xx_ll_usb.c ****   uint32_t USBx_BASE = (uint32_t)USBx;
 1936              		.loc 1 870 3 is_stmt 1 view .LVU601
 1937              	.LVL145:
 871:Drivers/STM32L4xx_HAL_Driver/Src/stm32l4xx_ll_usb.c **** 
 1938              		.loc 1 871 3 view .LVU602
 871:Drivers/STM32L4xx_HAL_Driver/Src/stm32l4xx_ll_usb.c **** 
 1939              		.loc 1 871 12 is_stmt 0 view .LVU603
 1940 000a 0446     		mov	r4, r0
 1941              	.LVL146:
 874:Drivers/STM32L4xx_HAL_Driver/Src/stm32l4xx_ll_usb.c ****   {
ARM GAS  /tmp/ccS8Yg0I.s 			page 68


 1942              		.loc 1 874 3 is_stmt 1 view .LVU604
 874:Drivers/STM32L4xx_HAL_Driver/Src/stm32l4xx_ll_usb.c ****   {
 1943              		.loc 1 874 9 is_stmt 0 view .LVU605
 1944 000c 4878     		ldrb	r0, [r1, #1]	@ zero_extendqisi2
 1945              	.LVL147:
 874:Drivers/STM32L4xx_HAL_Driver/Src/stm32l4xx_ll_usb.c ****   {
 1946              		.loc 1 874 6 view .LVU606
 1947 000e 0128     		cmp	r0, #1
 1948 0010 0AD0     		beq	.L137
 896:Drivers/STM32L4xx_HAL_Driver/Src/stm32l4xx_ll_usb.c ****     {
 1949              		.loc 1 896 5 is_stmt 1 view .LVU607
 896:Drivers/STM32L4xx_HAL_Driver/Src/stm32l4xx_ll_usb.c ****     {
 1950              		.loc 1 896 11 is_stmt 0 view .LVU608
 1951 0012 0A78     		ldrb	r2, [r1]	@ zero_extendqisi2
 1952 0014 03EB4212 		add	r2, r3, r2, lsl #5
 896:Drivers/STM32L4xx_HAL_Driver/Src/stm32l4xx_ll_usb.c ****     {
 1953              		.loc 1 896 30 view .LVU609
 1954 0018 D2F8000B 		ldr	r0, [r2, #2816]
 896:Drivers/STM32L4xx_HAL_Driver/Src/stm32l4xx_ll_usb.c ****     {
 1955              		.loc 1 896 8 view .LVU610
 1956 001c 0028     		cmp	r0, #0
 1957 001e 2CDB     		blt	.L138
 870:Drivers/STM32L4xx_HAL_Driver/Src/stm32l4xx_ll_usb.c ****   uint32_t USBx_BASE = (uint32_t)USBx;
 1958              		.loc 1 870 21 view .LVU611
 1959 0020 0020     		movs	r0, #0
 1960              	.LVL148:
 1961              	.L130:
 914:Drivers/STM32L4xx_HAL_Driver/Src/stm32l4xx_ll_usb.c **** }
 1962              		.loc 1 914 3 is_stmt 1 view .LVU612
 915:Drivers/STM32L4xx_HAL_Driver/Src/stm32l4xx_ll_usb.c **** 
 1963              		.loc 1 915 1 is_stmt 0 view .LVU613
 1964 0022 02B0     		add	sp, sp, #8
 1965              	.LCFI33:
 1966              		.cfi_remember_state
 1967              		.cfi_def_cfa_offset 8
 1968              		@ sp needed
 1969 0024 30BC     		pop	{r4, r5}
 1970              	.LCFI34:
 1971              		.cfi_restore 5
 1972              		.cfi_restore 4
 1973              		.cfi_def_cfa_offset 0
 1974              	.LVL149:
 915:Drivers/STM32L4xx_HAL_Driver/Src/stm32l4xx_ll_usb.c **** 
 1975              		.loc 1 915 1 view .LVU614
 1976 0026 7047     		bx	lr
 1977              	.LVL150:
 1978              	.L137:
 1979              	.LCFI35:
 1980              		.cfi_restore_state
 877:Drivers/STM32L4xx_HAL_Driver/Src/stm32l4xx_ll_usb.c ****     {
 1981              		.loc 1 877 5 is_stmt 1 view .LVU615
 877:Drivers/STM32L4xx_HAL_Driver/Src/stm32l4xx_ll_usb.c ****     {
 1982              		.loc 1 877 11 is_stmt 0 view .LVU616
 1983 0028 0A78     		ldrb	r2, [r1]	@ zero_extendqisi2
 1984 002a 03EB4212 		add	r2, r3, r2, lsl #5
 877:Drivers/STM32L4xx_HAL_Driver/Src/stm32l4xx_ll_usb.c ****     {
 1985              		.loc 1 877 29 view .LVU617
ARM GAS  /tmp/ccS8Yg0I.s 			page 69


 1986 002e D2F80059 		ldr	r5, [r2, #2304]
 877:Drivers/STM32L4xx_HAL_Driver/Src/stm32l4xx_ll_usb.c ****     {
 1987              		.loc 1 877 8 view .LVU618
 1988 0032 002D     		cmp	r5, #0
 1989 0034 01DB     		blt	.L139
 870:Drivers/STM32L4xx_HAL_Driver/Src/stm32l4xx_ll_usb.c ****   uint32_t USBx_BASE = (uint32_t)USBx;
 1990              		.loc 1 870 21 view .LVU619
 1991 0036 0020     		movs	r0, #0
 1992 0038 F3E7     		b	.L130
 1993              	.L139:
 879:Drivers/STM32L4xx_HAL_Driver/Src/stm32l4xx_ll_usb.c ****       USBx_INEP(ep->num)->DIEPCTL |= (USB_OTG_DIEPCTL_EPDIS);
 1994              		.loc 1 879 7 is_stmt 1 view .LVU620
 879:Drivers/STM32L4xx_HAL_Driver/Src/stm32l4xx_ll_usb.c ****       USBx_INEP(ep->num)->DIEPCTL |= (USB_OTG_DIEPCTL_EPDIS);
 1995              		.loc 1 879 35 is_stmt 0 view .LVU621
 1996 003a D2F80059 		ldr	r5, [r2, #2304]
 1997 003e 45F00065 		orr	r5, r5, #134217728
 1998 0042 C2F80059 		str	r5, [r2, #2304]
 880:Drivers/STM32L4xx_HAL_Driver/Src/stm32l4xx_ll_usb.c **** 
 1999              		.loc 1 880 7 is_stmt 1 view .LVU622
 2000 0046 0A78     		ldrb	r2, [r1]	@ zero_extendqisi2
 880:Drivers/STM32L4xx_HAL_Driver/Src/stm32l4xx_ll_usb.c **** 
 2001              		.loc 1 880 35 is_stmt 0 view .LVU623
 2002 0048 03EB4213 		add	r3, r3, r2, lsl #5
 2003              	.LVL151:
 880:Drivers/STM32L4xx_HAL_Driver/Src/stm32l4xx_ll_usb.c **** 
 2004              		.loc 1 880 35 view .LVU624
 2005 004c D3F80029 		ldr	r2, [r3, #2304]
 2006 0050 42F08042 		orr	r2, r2, #1073741824
 2007 0054 C3F80029 		str	r2, [r3, #2304]
 2008              	.L131:
 882:Drivers/STM32L4xx_HAL_Driver/Src/stm32l4xx_ll_usb.c ****       {
 2009              		.loc 1 882 7 is_stmt 1 view .LVU625
 884:Drivers/STM32L4xx_HAL_Driver/Src/stm32l4xx_ll_usb.c **** 
 2010              		.loc 1 884 9 view .LVU626
 884:Drivers/STM32L4xx_HAL_Driver/Src/stm32l4xx_ll_usb.c **** 
 2011              		.loc 1 884 14 is_stmt 0 view .LVU627
 2012 0058 019B     		ldr	r3, [sp, #4]
 2013 005a 0133     		adds	r3, r3, #1
 2014 005c 0193     		str	r3, [sp, #4]
 886:Drivers/STM32L4xx_HAL_Driver/Src/stm32l4xx_ll_usb.c ****         {
 2015              		.loc 1 886 9 is_stmt 1 view .LVU628
 886:Drivers/STM32L4xx_HAL_Driver/Src/stm32l4xx_ll_usb.c ****         {
 2016              		.loc 1 886 19 is_stmt 0 view .LVU629
 2017 005e 019A     		ldr	r2, [sp, #4]
 886:Drivers/STM32L4xx_HAL_Driver/Src/stm32l4xx_ll_usb.c ****         {
 2018              		.loc 1 886 12 view .LVU630
 2019 0060 42F21073 		movw	r3, #10000
 2020 0064 9A42     		cmp	r2, r3
 2021 0066 DCD8     		bhi	.L130
 891:Drivers/STM32L4xx_HAL_Driver/Src/stm32l4xx_ll_usb.c ****     }
 2022              		.loc 1 891 15 is_stmt 1 view .LVU631
 891:Drivers/STM32L4xx_HAL_Driver/Src/stm32l4xx_ll_usb.c ****     }
 2023              		.loc 1 891 18 is_stmt 0 view .LVU632
 2024 0068 0B78     		ldrb	r3, [r1]	@ zero_extendqisi2
 2025 006a 04EB4313 		add	r3, r4, r3, lsl #5
 891:Drivers/STM32L4xx_HAL_Driver/Src/stm32l4xx_ll_usb.c ****     }
 2026              		.loc 1 891 36 view .LVU633
ARM GAS  /tmp/ccS8Yg0I.s 			page 70


 2027 006e D3F80039 		ldr	r3, [r3, #2304]
 891:Drivers/STM32L4xx_HAL_Driver/Src/stm32l4xx_ll_usb.c ****     }
 2028              		.loc 1 891 7 view .LVU634
 2029 0072 002B     		cmp	r3, #0
 2030 0074 F0DB     		blt	.L131
 870:Drivers/STM32L4xx_HAL_Driver/Src/stm32l4xx_ll_usb.c ****   uint32_t USBx_BASE = (uint32_t)USBx;
 2031              		.loc 1 870 21 view .LVU635
 2032 0076 0020     		movs	r0, #0
 2033 0078 D3E7     		b	.L130
 2034              	.LVL152:
 2035              	.L138:
 898:Drivers/STM32L4xx_HAL_Driver/Src/stm32l4xx_ll_usb.c ****       USBx_OUTEP(ep->num)->DOEPCTL |= (USB_OTG_DOEPCTL_EPDIS);
 2036              		.loc 1 898 7 is_stmt 1 view .LVU636
 898:Drivers/STM32L4xx_HAL_Driver/Src/stm32l4xx_ll_usb.c ****       USBx_OUTEP(ep->num)->DOEPCTL |= (USB_OTG_DOEPCTL_EPDIS);
 2037              		.loc 1 898 36 is_stmt 0 view .LVU637
 2038 007a D2F8000B 		ldr	r0, [r2, #2816]
 2039 007e 40F00060 		orr	r0, r0, #134217728
 2040 0082 C2F8000B 		str	r0, [r2, #2816]
 899:Drivers/STM32L4xx_HAL_Driver/Src/stm32l4xx_ll_usb.c **** 
 2041              		.loc 1 899 7 is_stmt 1 view .LVU638
 2042 0086 0878     		ldrb	r0, [r1]	@ zero_extendqisi2
 899:Drivers/STM32L4xx_HAL_Driver/Src/stm32l4xx_ll_usb.c **** 
 2043              		.loc 1 899 36 is_stmt 0 view .LVU639
 2044 0088 03EB4013 		add	r3, r3, r0, lsl #5
 2045              	.LVL153:
 899:Drivers/STM32L4xx_HAL_Driver/Src/stm32l4xx_ll_usb.c **** 
 2046              		.loc 1 899 36 view .LVU640
 2047 008c D3F8002B 		ldr	r2, [r3, #2816]
 2048 0090 42F08042 		orr	r2, r2, #1073741824
 2049 0094 C3F8002B 		str	r2, [r3, #2816]
 2050              	.L132:
 901:Drivers/STM32L4xx_HAL_Driver/Src/stm32l4xx_ll_usb.c ****       {
 2051              		.loc 1 901 7 is_stmt 1 view .LVU641
 903:Drivers/STM32L4xx_HAL_Driver/Src/stm32l4xx_ll_usb.c **** 
 2052              		.loc 1 903 9 view .LVU642
 903:Drivers/STM32L4xx_HAL_Driver/Src/stm32l4xx_ll_usb.c **** 
 2053              		.loc 1 903 14 is_stmt 0 view .LVU643
 2054 0098 019B     		ldr	r3, [sp, #4]
 2055 009a 0133     		adds	r3, r3, #1
 2056 009c 0193     		str	r3, [sp, #4]
 905:Drivers/STM32L4xx_HAL_Driver/Src/stm32l4xx_ll_usb.c ****         {
 2057              		.loc 1 905 9 is_stmt 1 view .LVU644
 905:Drivers/STM32L4xx_HAL_Driver/Src/stm32l4xx_ll_usb.c ****         {
 2058              		.loc 1 905 19 is_stmt 0 view .LVU645
 2059 009e 019A     		ldr	r2, [sp, #4]
 905:Drivers/STM32L4xx_HAL_Driver/Src/stm32l4xx_ll_usb.c ****         {
 2060              		.loc 1 905 12 view .LVU646
 2061 00a0 42F21073 		movw	r3, #10000
 2062 00a4 9A42     		cmp	r2, r3
 2063 00a6 08D8     		bhi	.L135
 910:Drivers/STM32L4xx_HAL_Driver/Src/stm32l4xx_ll_usb.c ****     }
 2064              		.loc 1 910 15 is_stmt 1 view .LVU647
 910:Drivers/STM32L4xx_HAL_Driver/Src/stm32l4xx_ll_usb.c ****     }
 2065              		.loc 1 910 18 is_stmt 0 view .LVU648
 2066 00a8 0B78     		ldrb	r3, [r1]	@ zero_extendqisi2
 2067 00aa 04EB4313 		add	r3, r4, r3, lsl #5
 910:Drivers/STM32L4xx_HAL_Driver/Src/stm32l4xx_ll_usb.c ****     }
ARM GAS  /tmp/ccS8Yg0I.s 			page 71


 2068              		.loc 1 910 37 view .LVU649
 2069 00ae D3F8003B 		ldr	r3, [r3, #2816]
 910:Drivers/STM32L4xx_HAL_Driver/Src/stm32l4xx_ll_usb.c ****     }
 2070              		.loc 1 910 7 view .LVU650
 2071 00b2 002B     		cmp	r3, #0
 2072 00b4 F0DB     		blt	.L132
 870:Drivers/STM32L4xx_HAL_Driver/Src/stm32l4xx_ll_usb.c ****   uint32_t USBx_BASE = (uint32_t)USBx;
 2073              		.loc 1 870 21 view .LVU651
 2074 00b6 0020     		movs	r0, #0
 2075 00b8 B3E7     		b	.L130
 2076              	.L135:
 907:Drivers/STM32L4xx_HAL_Driver/Src/stm32l4xx_ll_usb.c ****           break;
 2077              		.loc 1 907 15 view .LVU652
 2078 00ba 0120     		movs	r0, #1
 2079 00bc B1E7     		b	.L130
 2080              		.cfi_endproc
 2081              	.LFE150:
 2083              		.section	.text.USB_WritePacket,"ax",%progbits
 2084              		.align	1
 2085              		.global	USB_WritePacket
 2086              		.syntax unified
 2087              		.thumb
 2088              		.thumb_func
 2089              		.fpu fpv4-sp-d16
 2091              	USB_WritePacket:
 2092              	.LVL154:
 2093              	.LFB151:
 929:Drivers/STM32L4xx_HAL_Driver/Src/stm32l4xx_ll_usb.c ****   uint32_t USBx_BASE = (uint32_t)USBx;
 2094              		.loc 1 929 1 is_stmt 1 view -0
 2095              		.cfi_startproc
 2096              		@ args = 0, pretend = 0, frame = 0
 2097              		@ frame_needed = 0, uses_anonymous_args = 0
 2098              		@ link register save eliminated.
 929:Drivers/STM32L4xx_HAL_Driver/Src/stm32l4xx_ll_usb.c ****   uint32_t USBx_BASE = (uint32_t)USBx;
 2099              		.loc 1 929 1 is_stmt 0 view .LVU654
 2100 0000 70B4     		push	{r4, r5, r6}
 2101              	.LCFI36:
 2102              		.cfi_def_cfa_offset 12
 2103              		.cfi_offset 4, -12
 2104              		.cfi_offset 5, -8
 2105              		.cfi_offset 6, -4
 930:Drivers/STM32L4xx_HAL_Driver/Src/stm32l4xx_ll_usb.c ****   uint8_t *pSrc = src;
 2106              		.loc 1 930 3 is_stmt 1 view .LVU655
 2107              	.LVL155:
 931:Drivers/STM32L4xx_HAL_Driver/Src/stm32l4xx_ll_usb.c ****   uint32_t count32b;
 2108              		.loc 1 931 3 view .LVU656
 932:Drivers/STM32L4xx_HAL_Driver/Src/stm32l4xx_ll_usb.c ****   uint32_t i;
 2109              		.loc 1 932 3 view .LVU657
 933:Drivers/STM32L4xx_HAL_Driver/Src/stm32l4xx_ll_usb.c **** 
 2110              		.loc 1 933 3 view .LVU658
 935:Drivers/STM32L4xx_HAL_Driver/Src/stm32l4xx_ll_usb.c ****   for (i = 0U; i < count32b; i++)
 2111              		.loc 1 935 3 view .LVU659
 935:Drivers/STM32L4xx_HAL_Driver/Src/stm32l4xx_ll_usb.c ****   for (i = 0U; i < count32b; i++)
 2112              		.loc 1 935 29 is_stmt 0 view .LVU660
 2113 0002 0333     		adds	r3, r3, #3
 2114              	.LVL156:
 935:Drivers/STM32L4xx_HAL_Driver/Src/stm32l4xx_ll_usb.c ****   for (i = 0U; i < count32b; i++)
ARM GAS  /tmp/ccS8Yg0I.s 			page 72


 2115              		.loc 1 935 12 view .LVU661
 2116 0004 9E08     		lsrs	r6, r3, #2
 2117              	.LVL157:
 936:Drivers/STM32L4xx_HAL_Driver/Src/stm32l4xx_ll_usb.c ****   {
 2118              		.loc 1 936 3 is_stmt 1 view .LVU662
 936:Drivers/STM32L4xx_HAL_Driver/Src/stm32l4xx_ll_usb.c ****   {
 2119              		.loc 1 936 10 is_stmt 0 view .LVU663
 2120 0006 0024     		movs	r4, #0
 2121              	.LVL158:
 2122              	.L141:
 936:Drivers/STM32L4xx_HAL_Driver/Src/stm32l4xx_ll_usb.c ****   {
 2123              		.loc 1 936 16 is_stmt 1 discriminator 1 view .LVU664
 936:Drivers/STM32L4xx_HAL_Driver/Src/stm32l4xx_ll_usb.c ****   {
 2124              		.loc 1 936 3 is_stmt 0 discriminator 1 view .LVU665
 2125 0008 B442     		cmp	r4, r6
 2126 000a 08D2     		bcs	.L144
 938:Drivers/STM32L4xx_HAL_Driver/Src/stm32l4xx_ll_usb.c ****     pSrc++;
 2127              		.loc 1 938 5 is_stmt 1 discriminator 3 view .LVU666
 2128 000c 00EB0233 		add	r3, r0, r2, lsl #12
 2129 0010 03F58053 		add	r3, r3, #4096
 938:Drivers/STM32L4xx_HAL_Driver/Src/stm32l4xx_ll_usb.c ****     pSrc++;
 2130              		.loc 1 938 39 is_stmt 0 discriminator 3 view .LVU667
 2131 0014 51F8045B 		ldr	r5, [r1], #4	@ unaligned
 2132              	.LVL159:
 938:Drivers/STM32L4xx_HAL_Driver/Src/stm32l4xx_ll_usb.c ****     pSrc++;
 2133              		.loc 1 938 37 discriminator 3 view .LVU668
 2134 0018 1D60     		str	r5, [r3]
 939:Drivers/STM32L4xx_HAL_Driver/Src/stm32l4xx_ll_usb.c ****     pSrc++;
 2135              		.loc 1 939 5 is_stmt 1 discriminator 3 view .LVU669
 2136              	.LVL160:
 940:Drivers/STM32L4xx_HAL_Driver/Src/stm32l4xx_ll_usb.c ****     pSrc++;
 2137              		.loc 1 940 5 discriminator 3 view .LVU670
 941:Drivers/STM32L4xx_HAL_Driver/Src/stm32l4xx_ll_usb.c ****     pSrc++;
 2138              		.loc 1 941 5 discriminator 3 view .LVU671
 942:Drivers/STM32L4xx_HAL_Driver/Src/stm32l4xx_ll_usb.c ****   }
 2139              		.loc 1 942 5 discriminator 3 view .LVU672
 936:Drivers/STM32L4xx_HAL_Driver/Src/stm32l4xx_ll_usb.c ****   {
 2140              		.loc 1 936 30 discriminator 3 view .LVU673
 936:Drivers/STM32L4xx_HAL_Driver/Src/stm32l4xx_ll_usb.c ****   {
 2141              		.loc 1 936 31 is_stmt 0 discriminator 3 view .LVU674
 2142 001a 0134     		adds	r4, r4, #1
 2143              	.LVL161:
 936:Drivers/STM32L4xx_HAL_Driver/Src/stm32l4xx_ll_usb.c ****   {
 2144              		.loc 1 936 31 discriminator 3 view .LVU675
 2145 001c F4E7     		b	.L141
 2146              	.L144:
 945:Drivers/STM32L4xx_HAL_Driver/Src/stm32l4xx_ll_usb.c **** }
 2147              		.loc 1 945 3 is_stmt 1 view .LVU676
 946:Drivers/STM32L4xx_HAL_Driver/Src/stm32l4xx_ll_usb.c **** 
 2148              		.loc 1 946 1 is_stmt 0 view .LVU677
 2149 001e 0020     		movs	r0, #0
 2150              	.LVL162:
 946:Drivers/STM32L4xx_HAL_Driver/Src/stm32l4xx_ll_usb.c **** 
 2151              		.loc 1 946 1 view .LVU678
 2152 0020 70BC     		pop	{r4, r5, r6}
 2153              	.LCFI37:
 2154              		.cfi_restore 6
ARM GAS  /tmp/ccS8Yg0I.s 			page 73


 2155              		.cfi_restore 5
 2156              		.cfi_restore 4
 2157              		.cfi_def_cfa_offset 0
 2158              	.LVL163:
 946:Drivers/STM32L4xx_HAL_Driver/Src/stm32l4xx_ll_usb.c **** 
 2159              		.loc 1 946 1 view .LVU679
 2160 0022 7047     		bx	lr
 2161              		.cfi_endproc
 2162              	.LFE151:
 2164              		.section	.text.USB_EPStartXfer,"ax",%progbits
 2165              		.align	1
 2166              		.global	USB_EPStartXfer
 2167              		.syntax unified
 2168              		.thumb
 2169              		.thumb_func
 2170              		.fpu fpv4-sp-d16
 2172              	USB_EPStartXfer:
 2173              	.LVL164:
 2174              	.LFB148:
 684:Drivers/STM32L4xx_HAL_Driver/Src/stm32l4xx_ll_usb.c ****   uint32_t USBx_BASE = (uint32_t)USBx;
 2175              		.loc 1 684 1 is_stmt 1 view -0
 2176              		.cfi_startproc
 2177              		@ args = 0, pretend = 0, frame = 0
 2178              		@ frame_needed = 0, uses_anonymous_args = 0
 684:Drivers/STM32L4xx_HAL_Driver/Src/stm32l4xx_ll_usb.c ****   uint32_t USBx_BASE = (uint32_t)USBx;
 2179              		.loc 1 684 1 is_stmt 0 view .LVU681
 2180 0000 70B5     		push	{r4, r5, r6, lr}
 2181              	.LCFI38:
 2182              		.cfi_def_cfa_offset 16
 2183              		.cfi_offset 4, -16
 2184              		.cfi_offset 5, -12
 2185              		.cfi_offset 6, -8
 2186              		.cfi_offset 14, -4
 685:Drivers/STM32L4xx_HAL_Driver/Src/stm32l4xx_ll_usb.c ****   uint32_t epnum = (uint32_t)ep->num;
 2187              		.loc 1 685 3 is_stmt 1 view .LVU682
 2188              	.LVL165:
 686:Drivers/STM32L4xx_HAL_Driver/Src/stm32l4xx_ll_usb.c ****   uint16_t pktcnt;
 2189              		.loc 1 686 3 view .LVU683
 686:Drivers/STM32L4xx_HAL_Driver/Src/stm32l4xx_ll_usb.c ****   uint16_t pktcnt;
 2190              		.loc 1 686 32 is_stmt 0 view .LVU684
 2191 0002 0B78     		ldrb	r3, [r1]	@ zero_extendqisi2
 2192              	.LVL166:
 687:Drivers/STM32L4xx_HAL_Driver/Src/stm32l4xx_ll_usb.c **** 
 2193              		.loc 1 687 3 is_stmt 1 view .LVU685
 690:Drivers/STM32L4xx_HAL_Driver/Src/stm32l4xx_ll_usb.c ****   {
 2194              		.loc 1 690 3 view .LVU686
 690:Drivers/STM32L4xx_HAL_Driver/Src/stm32l4xx_ll_usb.c ****   {
 2195              		.loc 1 690 9 is_stmt 0 view .LVU687
 2196 0004 4A78     		ldrb	r2, [r1, #1]	@ zero_extendqisi2
 690:Drivers/STM32L4xx_HAL_Driver/Src/stm32l4xx_ll_usb.c ****   {
 2197              		.loc 1 690 6 view .LVU688
 2198 0006 012A     		cmp	r2, #1
 2199 0008 27D0     		beq	.L158
 750:Drivers/STM32L4xx_HAL_Driver/Src/stm32l4xx_ll_usb.c ****     USBx_OUTEP(epnum)->DOEPTSIZ &= ~(USB_OTG_DOEPTSIZ_PKTCNT);
 2200              		.loc 1 750 5 is_stmt 1 view .LVU689
 750:Drivers/STM32L4xx_HAL_Driver/Src/stm32l4xx_ll_usb.c ****     USBx_OUTEP(epnum)->DOEPTSIZ &= ~(USB_OTG_DOEPTSIZ_PKTCNT);
 2201              		.loc 1 750 33 is_stmt 0 view .LVU690
ARM GAS  /tmp/ccS8Yg0I.s 			page 74


 2202 000a 00EB4313 		add	r3, r0, r3, lsl #5
 2203              	.LVL167:
 750:Drivers/STM32L4xx_HAL_Driver/Src/stm32l4xx_ll_usb.c ****     USBx_OUTEP(epnum)->DOEPTSIZ &= ~(USB_OTG_DOEPTSIZ_PKTCNT);
 2204              		.loc 1 750 33 view .LVU691
 2205 000e 03F53062 		add	r2, r3, #2816
 2206 0012 1469     		ldr	r4, [r2, #16]
 2207 0014 E40C     		lsrs	r4, r4, #19
 2208 0016 E404     		lsls	r4, r4, #19
 2209 0018 1461     		str	r4, [r2, #16]
 2210              	.LVL168:
 751:Drivers/STM32L4xx_HAL_Driver/Src/stm32l4xx_ll_usb.c **** 
 2211              		.loc 1 751 5 is_stmt 1 view .LVU692
 751:Drivers/STM32L4xx_HAL_Driver/Src/stm32l4xx_ll_usb.c **** 
 2212              		.loc 1 751 33 is_stmt 0 view .LVU693
 2213 001a 1469     		ldr	r4, [r2, #16]
 2214 001c 24F0FF54 		bic	r4, r4, #534773760
 2215 0020 24F4C014 		bic	r4, r4, #1572864
 2216 0024 1461     		str	r4, [r2, #16]
 753:Drivers/STM32L4xx_HAL_Driver/Src/stm32l4xx_ll_usb.c ****     {
 2217              		.loc 1 753 5 is_stmt 1 view .LVU694
 753:Drivers/STM32L4xx_HAL_Driver/Src/stm32l4xx_ll_usb.c ****     {
 2218              		.loc 1 753 11 is_stmt 0 view .LVU695
 2219 0026 8C69     		ldr	r4, [r1, #24]
 753:Drivers/STM32L4xx_HAL_Driver/Src/stm32l4xx_ll_usb.c ****     {
 2220              		.loc 1 753 8 view .LVU696
 2221 0028 002C     		cmp	r4, #0
 2222 002a 40F09380 		bne	.L153
 755:Drivers/STM32L4xx_HAL_Driver/Src/stm32l4xx_ll_usb.c ****       USBx_OUTEP(epnum)->DOEPTSIZ |= (USB_OTG_DOEPTSIZ_PKTCNT & (1U << 19));
 2223              		.loc 1 755 7 is_stmt 1 view .LVU697
 755:Drivers/STM32L4xx_HAL_Driver/Src/stm32l4xx_ll_usb.c ****       USBx_OUTEP(epnum)->DOEPTSIZ |= (USB_OTG_DOEPTSIZ_PKTCNT & (1U << 19));
 2224              		.loc 1 755 35 is_stmt 0 view .LVU698
 2225 002e 1469     		ldr	r4, [r2, #16]
 755:Drivers/STM32L4xx_HAL_Driver/Src/stm32l4xx_ll_usb.c ****       USBx_OUTEP(epnum)->DOEPTSIZ |= (USB_OTG_DOEPTSIZ_PKTCNT & (1U << 19));
 2226              		.loc 1 755 67 view .LVU699
 2227 0030 CD68     		ldr	r5, [r1, #12]
 755:Drivers/STM32L4xx_HAL_Driver/Src/stm32l4xx_ll_usb.c ****       USBx_OUTEP(epnum)->DOEPTSIZ |= (USB_OTG_DOEPTSIZ_PKTCNT & (1U << 19));
 2228              		.loc 1 755 63 view .LVU700
 2229 0032 C5F31205 		ubfx	r5, r5, #0, #19
 755:Drivers/STM32L4xx_HAL_Driver/Src/stm32l4xx_ll_usb.c ****       USBx_OUTEP(epnum)->DOEPTSIZ |= (USB_OTG_DOEPTSIZ_PKTCNT & (1U << 19));
 2230              		.loc 1 755 35 view .LVU701
 2231 0036 2C43     		orrs	r4, r4, r5
 2232 0038 1461     		str	r4, [r2, #16]
 756:Drivers/STM32L4xx_HAL_Driver/Src/stm32l4xx_ll_usb.c ****     }
 2233              		.loc 1 756 7 is_stmt 1 view .LVU702
 756:Drivers/STM32L4xx_HAL_Driver/Src/stm32l4xx_ll_usb.c ****     }
 2234              		.loc 1 756 35 is_stmt 0 view .LVU703
 2235 003a 1469     		ldr	r4, [r2, #16]
 2236 003c 44F40024 		orr	r4, r4, #524288
 2237 0040 1461     		str	r4, [r2, #16]
 2238              	.L154:
 767:Drivers/STM32L4xx_HAL_Driver/Src/stm32l4xx_ll_usb.c ****     {
 2239              		.loc 1 767 5 is_stmt 1 view .LVU704
 767:Drivers/STM32L4xx_HAL_Driver/Src/stm32l4xx_ll_usb.c ****     {
 2240              		.loc 1 767 11 is_stmt 0 view .LVU705
 2241 0042 0A79     		ldrb	r2, [r1, #4]	@ zero_extendqisi2
 767:Drivers/STM32L4xx_HAL_Driver/Src/stm32l4xx_ll_usb.c ****     {
 2242              		.loc 1 767 8 view .LVU706
ARM GAS  /tmp/ccS8Yg0I.s 			page 75


 2243 0044 012A     		cmp	r2, #1
 2244 0046 00F09B80 		beq	.L159
 2245              	.L155:
 779:Drivers/STM32L4xx_HAL_Driver/Src/stm32l4xx_ll_usb.c ****   }
 2246              		.loc 1 779 5 is_stmt 1 view .LVU707
 779:Drivers/STM32L4xx_HAL_Driver/Src/stm32l4xx_ll_usb.c ****   }
 2247              		.loc 1 779 32 is_stmt 0 view .LVU708
 2248 004a D3F8002B 		ldr	r2, [r3, #2816]
 2249 004e 42F00442 		orr	r2, r2, #-2080374784
 2250 0052 C3F8002B 		str	r2, [r3, #2816]
 2251              	.LVL169:
 2252              	.L150:
 782:Drivers/STM32L4xx_HAL_Driver/Src/stm32l4xx_ll_usb.c **** }
 2253              		.loc 1 782 3 is_stmt 1 view .LVU709
 783:Drivers/STM32L4xx_HAL_Driver/Src/stm32l4xx_ll_usb.c **** 
 2254              		.loc 1 783 1 is_stmt 0 view .LVU710
 2255 0056 0020     		movs	r0, #0
 2256 0058 70BD     		pop	{r4, r5, r6, pc}
 2257              	.LVL170:
 2258              	.L158:
 693:Drivers/STM32L4xx_HAL_Driver/Src/stm32l4xx_ll_usb.c ****     {
 2259              		.loc 1 693 5 is_stmt 1 view .LVU711
 693:Drivers/STM32L4xx_HAL_Driver/Src/stm32l4xx_ll_usb.c ****     {
 2260              		.loc 1 693 11 is_stmt 0 view .LVU712
 2261 005a 8A69     		ldr	r2, [r1, #24]
 693:Drivers/STM32L4xx_HAL_Driver/Src/stm32l4xx_ll_usb.c ****     {
 2262              		.loc 1 693 8 view .LVU713
 2263 005c 72BB     		cbnz	r2, .L147
 695:Drivers/STM32L4xx_HAL_Driver/Src/stm32l4xx_ll_usb.c ****       USBx_INEP(epnum)->DIEPTSIZ |= (USB_OTG_DIEPTSIZ_PKTCNT & (1U << 19));
 2264              		.loc 1 695 7 is_stmt 1 view .LVU714
 695:Drivers/STM32L4xx_HAL_Driver/Src/stm32l4xx_ll_usb.c ****       USBx_INEP(epnum)->DIEPTSIZ |= (USB_OTG_DIEPTSIZ_PKTCNT & (1U << 19));
 2265              		.loc 1 695 34 is_stmt 0 view .LVU715
 2266 005e 00EB4312 		add	r2, r0, r3, lsl #5
 2267 0062 D2F81049 		ldr	r4, [r2, #2320]
 2268 0066 24F0FF54 		bic	r4, r4, #534773760
 2269 006a 24F4C014 		bic	r4, r4, #1572864
 2270 006e C2F81049 		str	r4, [r2, #2320]
 696:Drivers/STM32L4xx_HAL_Driver/Src/stm32l4xx_ll_usb.c ****       USBx_INEP(epnum)->DIEPTSIZ &= ~(USB_OTG_DIEPTSIZ_XFRSIZ);
 2271              		.loc 1 696 7 is_stmt 1 view .LVU716
 696:Drivers/STM32L4xx_HAL_Driver/Src/stm32l4xx_ll_usb.c ****       USBx_INEP(epnum)->DIEPTSIZ &= ~(USB_OTG_DIEPTSIZ_XFRSIZ);
 2272              		.loc 1 696 34 is_stmt 0 view .LVU717
 2273 0072 D2F81049 		ldr	r4, [r2, #2320]
 2274 0076 44F40024 		orr	r4, r4, #524288
 2275 007a C2F81049 		str	r4, [r2, #2320]
 697:Drivers/STM32L4xx_HAL_Driver/Src/stm32l4xx_ll_usb.c ****     }
 2276              		.loc 1 697 7 is_stmt 1 view .LVU718
 697:Drivers/STM32L4xx_HAL_Driver/Src/stm32l4xx_ll_usb.c ****     }
 2277              		.loc 1 697 34 is_stmt 0 view .LVU719
 2278 007e D2F81049 		ldr	r4, [r2, #2320]
 2279 0082 E40C     		lsrs	r4, r4, #19
 2280 0084 E404     		lsls	r4, r4, #19
 2281 0086 C2F81049 		str	r4, [r2, #2320]
 2282              	.L148:
 720:Drivers/STM32L4xx_HAL_Driver/Src/stm32l4xx_ll_usb.c **** 
 2283              		.loc 1 720 5 is_stmt 1 view .LVU720
 720:Drivers/STM32L4xx_HAL_Driver/Src/stm32l4xx_ll_usb.c **** 
 2284              		.loc 1 720 31 is_stmt 0 view .LVU721
ARM GAS  /tmp/ccS8Yg0I.s 			page 76


 2285 008a 00EB4313 		add	r3, r0, r3, lsl #5
 2286              	.LVL171:
 720:Drivers/STM32L4xx_HAL_Driver/Src/stm32l4xx_ll_usb.c **** 
 2287              		.loc 1 720 31 view .LVU722
 2288 008e D3F80029 		ldr	r2, [r3, #2304]
 2289 0092 42F00442 		orr	r2, r2, #-2080374784
 2290 0096 C3F80029 		str	r2, [r3, #2304]
 722:Drivers/STM32L4xx_HAL_Driver/Src/stm32l4xx_ll_usb.c ****     {
 2291              		.loc 1 722 5 is_stmt 1 view .LVU723
 722:Drivers/STM32L4xx_HAL_Driver/Src/stm32l4xx_ll_usb.c ****     {
 2292              		.loc 1 722 11 is_stmt 0 view .LVU724
 2293 009a 0A79     		ldrb	r2, [r1, #4]	@ zero_extendqisi2
 722:Drivers/STM32L4xx_HAL_Driver/Src/stm32l4xx_ll_usb.c ****     {
 2294              		.loc 1 722 8 view .LVU725
 2295 009c 012A     		cmp	r2, #1
 2296 009e 41D0     		beq	.L149
 725:Drivers/STM32L4xx_HAL_Driver/Src/stm32l4xx_ll_usb.c ****       {
 2297              		.loc 1 725 7 is_stmt 1 view .LVU726
 725:Drivers/STM32L4xx_HAL_Driver/Src/stm32l4xx_ll_usb.c ****       {
 2298              		.loc 1 725 13 is_stmt 0 view .LVU727
 2299 00a0 8B69     		ldr	r3, [r1, #24]
 725:Drivers/STM32L4xx_HAL_Driver/Src/stm32l4xx_ll_usb.c ****       {
 2300              		.loc 1 725 10 view .LVU728
 2301 00a2 002B     		cmp	r3, #0
 2302 00a4 D7D0     		beq	.L150
 727:Drivers/STM32L4xx_HAL_Driver/Src/stm32l4xx_ll_usb.c ****       }
 2303              		.loc 1 727 9 is_stmt 1 view .LVU729
 727:Drivers/STM32L4xx_HAL_Driver/Src/stm32l4xx_ll_usb.c ****       }
 2304              		.loc 1 727 33 is_stmt 0 view .LVU730
 2305 00a6 D0F83438 		ldr	r3, [r0, #2100]
 727:Drivers/STM32L4xx_HAL_Driver/Src/stm32l4xx_ll_usb.c ****       }
 2306              		.loc 1 727 46 view .LVU731
 2307 00aa 0A78     		ldrb	r2, [r1]	@ zero_extendqisi2
 727:Drivers/STM32L4xx_HAL_Driver/Src/stm32l4xx_ll_usb.c ****       }
 2308              		.loc 1 727 52 view .LVU732
 2309 00ac 02F00F01 		and	r1, r2, #15
 2310              	.LVL172:
 727:Drivers/STM32L4xx_HAL_Driver/Src/stm32l4xx_ll_usb.c ****       }
 2311              		.loc 1 727 40 view .LVU733
 2312 00b0 0122     		movs	r2, #1
 2313 00b2 8A40     		lsls	r2, r2, r1
 727:Drivers/STM32L4xx_HAL_Driver/Src/stm32l4xx_ll_usb.c ****       }
 2314              		.loc 1 727 33 view .LVU734
 2315 00b4 1343     		orrs	r3, r3, r2
 2316 00b6 C0F83438 		str	r3, [r0, #2100]
 2317 00ba CCE7     		b	.L150
 2318              	.LVL173:
 2319              	.L147:
 706:Drivers/STM32L4xx_HAL_Driver/Src/stm32l4xx_ll_usb.c ****       USBx_INEP(epnum)->DIEPTSIZ &= ~(USB_OTG_DIEPTSIZ_PKTCNT);
 2320              		.loc 1 706 7 is_stmt 1 view .LVU735
 706:Drivers/STM32L4xx_HAL_Driver/Src/stm32l4xx_ll_usb.c ****       USBx_INEP(epnum)->DIEPTSIZ &= ~(USB_OTG_DIEPTSIZ_PKTCNT);
 2321              		.loc 1 706 34 is_stmt 0 view .LVU736
 2322 00bc 00EB4312 		add	r2, r0, r3, lsl #5
 2323 00c0 D2F81049 		ldr	r4, [r2, #2320]
 2324 00c4 E40C     		lsrs	r4, r4, #19
 2325 00c6 E404     		lsls	r4, r4, #19
 2326 00c8 C2F81049 		str	r4, [r2, #2320]
ARM GAS  /tmp/ccS8Yg0I.s 			page 77


 707:Drivers/STM32L4xx_HAL_Driver/Src/stm32l4xx_ll_usb.c ****       USBx_INEP(epnum)->DIEPTSIZ |= (USB_OTG_DIEPTSIZ_PKTCNT &
 2327              		.loc 1 707 7 is_stmt 1 view .LVU737
 707:Drivers/STM32L4xx_HAL_Driver/Src/stm32l4xx_ll_usb.c ****       USBx_INEP(epnum)->DIEPTSIZ |= (USB_OTG_DIEPTSIZ_PKTCNT &
 2328              		.loc 1 707 34 is_stmt 0 view .LVU738
 2329 00cc D2F81049 		ldr	r4, [r2, #2320]
 2330 00d0 24F0FF54 		bic	r4, r4, #534773760
 2331 00d4 24F4C014 		bic	r4, r4, #1572864
 2332 00d8 C2F81049 		str	r4, [r2, #2320]
 708:Drivers/STM32L4xx_HAL_Driver/Src/stm32l4xx_ll_usb.c ****                                      (((ep->xfer_len + ep->maxpacket - 1U) / ep->maxpacket) << 19))
 2333              		.loc 1 708 7 is_stmt 1 view .LVU739
 708:Drivers/STM32L4xx_HAL_Driver/Src/stm32l4xx_ll_usb.c ****                                      (((ep->xfer_len + ep->maxpacket - 1U) / ep->maxpacket) << 19))
 2334              		.loc 1 708 34 is_stmt 0 view .LVU740
 2335 00dc D2F81059 		ldr	r5, [r2, #2320]
 709:Drivers/STM32L4xx_HAL_Driver/Src/stm32l4xx_ll_usb.c **** 
 2336              		.loc 1 709 43 view .LVU741
 2337 00e0 8C69     		ldr	r4, [r1, #24]
 709:Drivers/STM32L4xx_HAL_Driver/Src/stm32l4xx_ll_usb.c **** 
 2338              		.loc 1 709 58 view .LVU742
 2339 00e2 CE68     		ldr	r6, [r1, #12]
 709:Drivers/STM32L4xx_HAL_Driver/Src/stm32l4xx_ll_usb.c **** 
 2340              		.loc 1 709 54 view .LVU743
 2341 00e4 3444     		add	r4, r4, r6
 709:Drivers/STM32L4xx_HAL_Driver/Src/stm32l4xx_ll_usb.c **** 
 2342              		.loc 1 709 70 view .LVU744
 2343 00e6 013C     		subs	r4, r4, #1
 709:Drivers/STM32L4xx_HAL_Driver/Src/stm32l4xx_ll_usb.c **** 
 2344              		.loc 1 709 76 view .LVU745
 2345 00e8 B4FBF6F4 		udiv	r4, r4, r6
 708:Drivers/STM32L4xx_HAL_Driver/Src/stm32l4xx_ll_usb.c ****                                      (((ep->xfer_len + ep->maxpacket - 1U) / ep->maxpacket) << 19))
 2346              		.loc 1 708 62 view .LVU746
 2347 00ec 2E4E     		ldr	r6, .L160
 2348 00ee 06EAC444 		and	r4, r6, r4, lsl #19
 708:Drivers/STM32L4xx_HAL_Driver/Src/stm32l4xx_ll_usb.c ****                                      (((ep->xfer_len + ep->maxpacket - 1U) / ep->maxpacket) << 19))
 2349              		.loc 1 708 34 view .LVU747
 2350 00f2 2C43     		orrs	r4, r4, r5
 2351 00f4 C2F81049 		str	r4, [r2, #2320]
 711:Drivers/STM32L4xx_HAL_Driver/Src/stm32l4xx_ll_usb.c **** 
 2352              		.loc 1 711 7 is_stmt 1 view .LVU748
 711:Drivers/STM32L4xx_HAL_Driver/Src/stm32l4xx_ll_usb.c **** 
 2353              		.loc 1 711 34 is_stmt 0 view .LVU749
 2354 00f8 D2F81049 		ldr	r4, [r2, #2320]
 711:Drivers/STM32L4xx_HAL_Driver/Src/stm32l4xx_ll_usb.c **** 
 2355              		.loc 1 711 66 view .LVU750
 2356 00fc 8D69     		ldr	r5, [r1, #24]
 711:Drivers/STM32L4xx_HAL_Driver/Src/stm32l4xx_ll_usb.c **** 
 2357              		.loc 1 711 62 view .LVU751
 2358 00fe C5F31205 		ubfx	r5, r5, #0, #19
 711:Drivers/STM32L4xx_HAL_Driver/Src/stm32l4xx_ll_usb.c **** 
 2359              		.loc 1 711 34 view .LVU752
 2360 0102 2C43     		orrs	r4, r4, r5
 2361 0104 C2F81049 		str	r4, [r2, #2320]
 706:Drivers/STM32L4xx_HAL_Driver/Src/stm32l4xx_ll_usb.c ****       USBx_INEP(epnum)->DIEPTSIZ &= ~(USB_OTG_DIEPTSIZ_PKTCNT);
 2362              		.loc 1 706 34 view .LVU753
 2363 0108 02F51062 		add	r2, r2, #2304
 713:Drivers/STM32L4xx_HAL_Driver/Src/stm32l4xx_ll_usb.c ****       {
 2364              		.loc 1 713 7 is_stmt 1 view .LVU754
 713:Drivers/STM32L4xx_HAL_Driver/Src/stm32l4xx_ll_usb.c ****       {
ARM GAS  /tmp/ccS8Yg0I.s 			page 78


 2365              		.loc 1 713 13 is_stmt 0 view .LVU755
 2366 010c 0C79     		ldrb	r4, [r1, #4]	@ zero_extendqisi2
 713:Drivers/STM32L4xx_HAL_Driver/Src/stm32l4xx_ll_usb.c ****       {
 2367              		.loc 1 713 10 view .LVU756
 2368 010e 012C     		cmp	r4, #1
 2369 0110 BBD1     		bne	.L148
 715:Drivers/STM32L4xx_HAL_Driver/Src/stm32l4xx_ll_usb.c ****         USBx_INEP(epnum)->DIEPTSIZ |= (USB_OTG_DIEPTSIZ_MULCNT & (1U << 29));
 2370              		.loc 1 715 9 is_stmt 1 view .LVU757
 715:Drivers/STM32L4xx_HAL_Driver/Src/stm32l4xx_ll_usb.c ****         USBx_INEP(epnum)->DIEPTSIZ |= (USB_OTG_DIEPTSIZ_MULCNT & (1U << 29));
 2371              		.loc 1 715 36 is_stmt 0 view .LVU758
 2372 0112 1469     		ldr	r4, [r2, #16]
 2373 0114 24F0C044 		bic	r4, r4, #1610612736
 2374 0118 1461     		str	r4, [r2, #16]
 716:Drivers/STM32L4xx_HAL_Driver/Src/stm32l4xx_ll_usb.c ****       }
 2375              		.loc 1 716 9 is_stmt 1 view .LVU759
 716:Drivers/STM32L4xx_HAL_Driver/Src/stm32l4xx_ll_usb.c ****       }
 2376              		.loc 1 716 36 is_stmt 0 view .LVU760
 2377 011a 1469     		ldr	r4, [r2, #16]
 2378 011c 44F00054 		orr	r4, r4, #536870912
 2379 0120 1461     		str	r4, [r2, #16]
 2380 0122 B2E7     		b	.L148
 2381              	.LVL174:
 2382              	.L149:
 732:Drivers/STM32L4xx_HAL_Driver/Src/stm32l4xx_ll_usb.c ****       {
 2383              		.loc 1 732 7 is_stmt 1 view .LVU761
 732:Drivers/STM32L4xx_HAL_Driver/Src/stm32l4xx_ll_usb.c ****       {
 2384              		.loc 1 732 23 is_stmt 0 view .LVU762
 2385 0124 D0F80828 		ldr	r2, [r0, #2056]
 732:Drivers/STM32L4xx_HAL_Driver/Src/stm32l4xx_ll_usb.c ****       {
 2386              		.loc 1 732 10 view .LVU763
 2387 0128 12F4807F 		tst	r2, #256
 2388 012c 0BD1     		bne	.L151
 734:Drivers/STM32L4xx_HAL_Driver/Src/stm32l4xx_ll_usb.c ****       }
 2389              		.loc 1 734 9 is_stmt 1 view .LVU764
 734:Drivers/STM32L4xx_HAL_Driver/Src/stm32l4xx_ll_usb.c ****       }
 2390              		.loc 1 734 35 is_stmt 0 view .LVU765
 2391 012e D3F80029 		ldr	r2, [r3, #2304]
 2392 0132 42F00052 		orr	r2, r2, #536870912
 2393 0136 C3F80029 		str	r2, [r3, #2304]
 2394              	.L152:
 741:Drivers/STM32L4xx_HAL_Driver/Src/stm32l4xx_ll_usb.c ****     }
 2395              		.loc 1 741 7 is_stmt 1 view .LVU766
 741:Drivers/STM32L4xx_HAL_Driver/Src/stm32l4xx_ll_usb.c ****     }
 2396              		.loc 1 741 13 is_stmt 0 view .LVU767
 2397 013a 0B8B     		ldrh	r3, [r1, #24]
 2398 013c 0A78     		ldrb	r2, [r1]	@ zero_extendqisi2
 2399 013e 0969     		ldr	r1, [r1, #16]
 2400              	.LVL175:
 741:Drivers/STM32L4xx_HAL_Driver/Src/stm32l4xx_ll_usb.c ****     }
 2401              		.loc 1 741 13 view .LVU768
 2402 0140 FFF7FEFF 		bl	USB_WritePacket
 2403              	.LVL176:
 741:Drivers/STM32L4xx_HAL_Driver/Src/stm32l4xx_ll_usb.c ****     }
 2404              		.loc 1 741 13 view .LVU769
 2405 0144 87E7     		b	.L150
 2406              	.LVL177:
 2407              	.L151:
ARM GAS  /tmp/ccS8Yg0I.s 			page 79


 738:Drivers/STM32L4xx_HAL_Driver/Src/stm32l4xx_ll_usb.c ****       }
 2408              		.loc 1 738 9 is_stmt 1 view .LVU770
 738:Drivers/STM32L4xx_HAL_Driver/Src/stm32l4xx_ll_usb.c ****       }
 2409              		.loc 1 738 35 is_stmt 0 view .LVU771
 2410 0146 D3F80029 		ldr	r2, [r3, #2304]
 2411 014a 42F08052 		orr	r2, r2, #268435456
 2412 014e C3F80029 		str	r2, [r3, #2304]
 2413 0152 F2E7     		b	.L152
 2414              	.L153:
 760:Drivers/STM32L4xx_HAL_Driver/Src/stm32l4xx_ll_usb.c ****       ep->xfer_size = ep->maxpacket * pktcnt;
 2415              		.loc 1 760 7 is_stmt 1 view .LVU772
 760:Drivers/STM32L4xx_HAL_Driver/Src/stm32l4xx_ll_usb.c ****       ep->xfer_size = ep->maxpacket * pktcnt;
 2416              		.loc 1 760 45 is_stmt 0 view .LVU773
 2417 0154 CD68     		ldr	r5, [r1, #12]
 760:Drivers/STM32L4xx_HAL_Driver/Src/stm32l4xx_ll_usb.c ****       ep->xfer_size = ep->maxpacket * pktcnt;
 2418              		.loc 1 760 41 view .LVU774
 2419 0156 2C44     		add	r4, r4, r5
 760:Drivers/STM32L4xx_HAL_Driver/Src/stm32l4xx_ll_usb.c ****       ep->xfer_size = ep->maxpacket * pktcnt;
 2420              		.loc 1 760 57 view .LVU775
 2421 0158 013C     		subs	r4, r4, #1
 760:Drivers/STM32L4xx_HAL_Driver/Src/stm32l4xx_ll_usb.c ****       ep->xfer_size = ep->maxpacket * pktcnt;
 2422              		.loc 1 760 63 view .LVU776
 2423 015a B4FBF5F4 		udiv	r4, r4, r5
 2424              	.LVL178:
 761:Drivers/STM32L4xx_HAL_Driver/Src/stm32l4xx_ll_usb.c **** 
 2425              		.loc 1 761 7 is_stmt 1 view .LVU777
 761:Drivers/STM32L4xx_HAL_Driver/Src/stm32l4xx_ll_usb.c **** 
 2426              		.loc 1 761 37 is_stmt 0 view .LVU778
 2427 015e A6B2     		uxth	r6, r4
 2428 0160 05FB06F5 		mul	r5, r5, r6
 761:Drivers/STM32L4xx_HAL_Driver/Src/stm32l4xx_ll_usb.c **** 
 2429              		.loc 1 761 21 view .LVU779
 2430 0164 CD61     		str	r5, [r1, #28]
 763:Drivers/STM32L4xx_HAL_Driver/Src/stm32l4xx_ll_usb.c ****       USBx_OUTEP(epnum)->DOEPTSIZ |= USB_OTG_DOEPTSIZ_XFRSIZ & ep->xfer_size;
 2431              		.loc 1 763 7 is_stmt 1 view .LVU780
 763:Drivers/STM32L4xx_HAL_Driver/Src/stm32l4xx_ll_usb.c ****       USBx_OUTEP(epnum)->DOEPTSIZ |= USB_OTG_DOEPTSIZ_XFRSIZ & ep->xfer_size;
 2432              		.loc 1 763 35 is_stmt 0 view .LVU781
 2433 0166 1569     		ldr	r5, [r2, #16]
 763:Drivers/STM32L4xx_HAL_Driver/Src/stm32l4xx_ll_usb.c ****       USBx_OUTEP(epnum)->DOEPTSIZ |= USB_OTG_DOEPTSIZ_XFRSIZ & ep->xfer_size;
 2434              		.loc 1 763 62 view .LVU782
 2435 0168 0F4E     		ldr	r6, .L160
 2436 016a 06EAC444 		and	r4, r6, r4, lsl #19
 2437              	.LVL179:
 763:Drivers/STM32L4xx_HAL_Driver/Src/stm32l4xx_ll_usb.c ****       USBx_OUTEP(epnum)->DOEPTSIZ |= USB_OTG_DOEPTSIZ_XFRSIZ & ep->xfer_size;
 2438              		.loc 1 763 35 view .LVU783
 2439 016e 2C43     		orrs	r4, r4, r5
 2440 0170 1461     		str	r4, [r2, #16]
 2441              	.LVL180:
 764:Drivers/STM32L4xx_HAL_Driver/Src/stm32l4xx_ll_usb.c ****     }
 2442              		.loc 1 764 7 is_stmt 1 view .LVU784
 764:Drivers/STM32L4xx_HAL_Driver/Src/stm32l4xx_ll_usb.c ****     }
 2443              		.loc 1 764 35 is_stmt 0 view .LVU785
 2444 0172 1469     		ldr	r4, [r2, #16]
 764:Drivers/STM32L4xx_HAL_Driver/Src/stm32l4xx_ll_usb.c ****     }
 2445              		.loc 1 764 66 view .LVU786
 2446 0174 CD69     		ldr	r5, [r1, #28]
 764:Drivers/STM32L4xx_HAL_Driver/Src/stm32l4xx_ll_usb.c ****     }
ARM GAS  /tmp/ccS8Yg0I.s 			page 80


 2447              		.loc 1 764 62 view .LVU787
 2448 0176 C5F31205 		ubfx	r5, r5, #0, #19
 764:Drivers/STM32L4xx_HAL_Driver/Src/stm32l4xx_ll_usb.c ****     }
 2449              		.loc 1 764 35 view .LVU788
 2450 017a 2C43     		orrs	r4, r4, r5
 2451 017c 1461     		str	r4, [r2, #16]
 2452 017e 60E7     		b	.L154
 2453              	.L159:
 769:Drivers/STM32L4xx_HAL_Driver/Src/stm32l4xx_ll_usb.c ****       {
 2454              		.loc 1 769 7 is_stmt 1 view .LVU789
 769:Drivers/STM32L4xx_HAL_Driver/Src/stm32l4xx_ll_usb.c ****       {
 2455              		.loc 1 769 23 is_stmt 0 view .LVU790
 2456 0180 D0F80828 		ldr	r2, [r0, #2056]
 769:Drivers/STM32L4xx_HAL_Driver/Src/stm32l4xx_ll_usb.c ****       {
 2457              		.loc 1 769 10 view .LVU791
 2458 0184 12F4807F 		tst	r2, #256
 2459 0188 06D1     		bne	.L156
 771:Drivers/STM32L4xx_HAL_Driver/Src/stm32l4xx_ll_usb.c ****       }
 2460              		.loc 1 771 9 is_stmt 1 view .LVU792
 771:Drivers/STM32L4xx_HAL_Driver/Src/stm32l4xx_ll_usb.c ****       }
 2461              		.loc 1 771 36 is_stmt 0 view .LVU793
 2462 018a D3F8002B 		ldr	r2, [r3, #2816]
 2463 018e 42F00052 		orr	r2, r2, #536870912
 2464 0192 C3F8002B 		str	r2, [r3, #2816]
 2465 0196 58E7     		b	.L155
 2466              	.L156:
 775:Drivers/STM32L4xx_HAL_Driver/Src/stm32l4xx_ll_usb.c ****       }
 2467              		.loc 1 775 9 is_stmt 1 view .LVU794
 775:Drivers/STM32L4xx_HAL_Driver/Src/stm32l4xx_ll_usb.c ****       }
 2468              		.loc 1 775 36 is_stmt 0 view .LVU795
 2469 0198 D3F8002B 		ldr	r2, [r3, #2816]
 2470 019c 42F08052 		orr	r2, r2, #268435456
 2471 01a0 C3F8002B 		str	r2, [r3, #2816]
 2472 01a4 51E7     		b	.L155
 2473              	.L161:
 2474 01a6 00BF     		.align	2
 2475              	.L160:
 2476 01a8 0000F81F 		.word	536346624
 2477              		.cfi_endproc
 2478              	.LFE148:
 2480              		.section	.text.USB_ReadPacket,"ax",%progbits
 2481              		.align	1
 2482              		.global	USB_ReadPacket
 2483              		.syntax unified
 2484              		.thumb
 2485              		.thumb_func
 2486              		.fpu fpv4-sp-d16
 2488              	USB_ReadPacket:
 2489              	.LVL181:
 2490              	.LFB152:
 956:Drivers/STM32L4xx_HAL_Driver/Src/stm32l4xx_ll_usb.c ****   uint32_t USBx_BASE = (uint32_t)USBx;
 2491              		.loc 1 956 1 is_stmt 1 view -0
 2492              		.cfi_startproc
 2493              		@ args = 0, pretend = 0, frame = 8
 2494              		@ frame_needed = 0, uses_anonymous_args = 0
 2495              		@ link register save eliminated.
 956:Drivers/STM32L4xx_HAL_Driver/Src/stm32l4xx_ll_usb.c ****   uint32_t USBx_BASE = (uint32_t)USBx;
ARM GAS  /tmp/ccS8Yg0I.s 			page 81


 2496              		.loc 1 956 1 is_stmt 0 view .LVU797
 2497 0000 F0B4     		push	{r4, r5, r6, r7}
 2498              	.LCFI39:
 2499              		.cfi_def_cfa_offset 16
 2500              		.cfi_offset 4, -16
 2501              		.cfi_offset 5, -12
 2502              		.cfi_offset 6, -8
 2503              		.cfi_offset 7, -4
 2504 0002 82B0     		sub	sp, sp, #8
 2505              	.LCFI40:
 2506              		.cfi_def_cfa_offset 24
 2507 0004 0746     		mov	r7, r0
 2508 0006 0846     		mov	r0, r1
 2509              	.LVL182:
 957:Drivers/STM32L4xx_HAL_Driver/Src/stm32l4xx_ll_usb.c ****   uint8_t *pDest = dest;
 2510              		.loc 1 957 3 is_stmt 1 view .LVU798
 957:Drivers/STM32L4xx_HAL_Driver/Src/stm32l4xx_ll_usb.c ****   uint8_t *pDest = dest;
 2511              		.loc 1 957 12 is_stmt 0 view .LVU799
 2512 0008 3E46     		mov	r6, r7
 2513              	.LVL183:
 958:Drivers/STM32L4xx_HAL_Driver/Src/stm32l4xx_ll_usb.c ****   uint32_t pData;
 2514              		.loc 1 958 3 is_stmt 1 view .LVU800
 959:Drivers/STM32L4xx_HAL_Driver/Src/stm32l4xx_ll_usb.c ****   uint32_t i;
 2515              		.loc 1 959 3 view .LVU801
 960:Drivers/STM32L4xx_HAL_Driver/Src/stm32l4xx_ll_usb.c ****   uint32_t count32b = (uint32_t)len >> 2U;
 2516              		.loc 1 960 3 view .LVU802
 961:Drivers/STM32L4xx_HAL_Driver/Src/stm32l4xx_ll_usb.c ****   uint16_t remaining_bytes = len % 4U;
 2517              		.loc 1 961 3 view .LVU803
 961:Drivers/STM32L4xx_HAL_Driver/Src/stm32l4xx_ll_usb.c ****   uint16_t remaining_bytes = len % 4U;
 2518              		.loc 1 961 37 is_stmt 0 view .LVU804
 2519 000a 9508     		lsrs	r5, r2, #2
 2520              	.LVL184:
 962:Drivers/STM32L4xx_HAL_Driver/Src/stm32l4xx_ll_usb.c **** 
 2521              		.loc 1 962 3 is_stmt 1 view .LVU805
 962:Drivers/STM32L4xx_HAL_Driver/Src/stm32l4xx_ll_usb.c **** 
 2522              		.loc 1 962 12 is_stmt 0 view .LVU806
 2523 000c 02F00302 		and	r2, r2, #3
 2524              	.LVL185:
 964:Drivers/STM32L4xx_HAL_Driver/Src/stm32l4xx_ll_usb.c ****   {
 2525              		.loc 1 964 3 is_stmt 1 view .LVU807
 964:Drivers/STM32L4xx_HAL_Driver/Src/stm32l4xx_ll_usb.c ****   {
 2526              		.loc 1 964 10 is_stmt 0 view .LVU808
 2527 0010 0023     		movs	r3, #0
 2528              	.LVL186:
 2529              	.L163:
 964:Drivers/STM32L4xx_HAL_Driver/Src/stm32l4xx_ll_usb.c ****   {
 2530              		.loc 1 964 16 is_stmt 1 discriminator 1 view .LVU809
 964:Drivers/STM32L4xx_HAL_Driver/Src/stm32l4xx_ll_usb.c ****   {
 2531              		.loc 1 964 3 is_stmt 0 discriminator 1 view .LVU810
 2532 0012 AB42     		cmp	r3, r5
 2533 0014 06D2     		bcs	.L168
 966:Drivers/STM32L4xx_HAL_Driver/Src/stm32l4xx_ll_usb.c ****     pDest++;
 2534              		.loc 1 966 5 is_stmt 1 discriminator 3 view .LVU811
 2535 0016 06F58054 		add	r4, r6, #4096
 2536 001a 2468     		ldr	r4, [r4]
 2537 001c 40F8044B 		str	r4, [r0], #4	@ unaligned
 2538              	.LVL187:
ARM GAS  /tmp/ccS8Yg0I.s 			page 82


 967:Drivers/STM32L4xx_HAL_Driver/Src/stm32l4xx_ll_usb.c ****     pDest++;
 2539              		.loc 1 967 5 discriminator 3 view .LVU812
 968:Drivers/STM32L4xx_HAL_Driver/Src/stm32l4xx_ll_usb.c ****     pDest++;
 2540              		.loc 1 968 5 discriminator 3 view .LVU813
 969:Drivers/STM32L4xx_HAL_Driver/Src/stm32l4xx_ll_usb.c ****     pDest++;
 2541              		.loc 1 969 5 discriminator 3 view .LVU814
 970:Drivers/STM32L4xx_HAL_Driver/Src/stm32l4xx_ll_usb.c ****   }
 2542              		.loc 1 970 5 discriminator 3 view .LVU815
 964:Drivers/STM32L4xx_HAL_Driver/Src/stm32l4xx_ll_usb.c ****   {
 2543              		.loc 1 964 30 discriminator 3 view .LVU816
 964:Drivers/STM32L4xx_HAL_Driver/Src/stm32l4xx_ll_usb.c ****   {
 2544              		.loc 1 964 31 is_stmt 0 discriminator 3 view .LVU817
 2545 0020 0133     		adds	r3, r3, #1
 2546              	.LVL188:
 964:Drivers/STM32L4xx_HAL_Driver/Src/stm32l4xx_ll_usb.c ****   {
 2547              		.loc 1 964 31 discriminator 3 view .LVU818
 2548 0022 F6E7     		b	.L163
 2549              	.LVL189:
 2550              	.L168:
 974:Drivers/STM32L4xx_HAL_Driver/Src/stm32l4xx_ll_usb.c ****   {
 2551              		.loc 1 974 3 is_stmt 1 view .LVU819
 974:Drivers/STM32L4xx_HAL_Driver/Src/stm32l4xx_ll_usb.c ****   {
 2552              		.loc 1 974 6 is_stmt 0 view .LVU820
 2553 0024 7AB1     		cbz	r2, .L165
 976:Drivers/STM32L4xx_HAL_Driver/Src/stm32l4xx_ll_usb.c ****     __UNALIGNED_UINT32_WRITE(&pData, USBx_DFIFO(0U));
 2554              		.loc 1 976 5 is_stmt 1 view .LVU821
 2555              	.LVL190:
 977:Drivers/STM32L4xx_HAL_Driver/Src/stm32l4xx_ll_usb.c **** 
 2556              		.loc 1 977 5 view .LVU822
 2557 0026 07F58057 		add	r7, r7, #4096
 2558 002a 3B68     		ldr	r3, [r7]
 2559 002c 0193     		str	r3, [sp, #4]
 976:Drivers/STM32L4xx_HAL_Driver/Src/stm32l4xx_ll_usb.c ****     __UNALIGNED_UINT32_WRITE(&pData, USBx_DFIFO(0U));
 2560              		.loc 1 976 7 is_stmt 0 view .LVU823
 2561 002e 0025     		movs	r5, #0
 2562              	.LVL191:
 2563              	.L166:
 979:Drivers/STM32L4xx_HAL_Driver/Src/stm32l4xx_ll_usb.c ****     {
 2564              		.loc 1 979 5 is_stmt 1 discriminator 1 view .LVU824
 981:Drivers/STM32L4xx_HAL_Driver/Src/stm32l4xx_ll_usb.c ****       i++;
 2565              		.loc 1 981 7 discriminator 1 view .LVU825
 981:Drivers/STM32L4xx_HAL_Driver/Src/stm32l4xx_ll_usb.c ****       i++;
 2566              		.loc 1 981 50 is_stmt 0 discriminator 1 view .LVU826
 2567 0030 EBB2     		uxtb	r3, r5
 2568 0032 DC00     		lsls	r4, r3, #3
 981:Drivers/STM32L4xx_HAL_Driver/Src/stm32l4xx_ll_usb.c ****       i++;
 2569              		.loc 1 981 43 discriminator 1 view .LVU827
 2570 0034 019B     		ldr	r3, [sp, #4]
 2571 0036 E340     		lsrs	r3, r3, r4
 981:Drivers/STM32L4xx_HAL_Driver/Src/stm32l4xx_ll_usb.c ****       i++;
 2572              		.loc 1 981 25 discriminator 1 view .LVU828
 2573 0038 00F8013B 		strb	r3, [r0], #1
 2574              	.LVL192:
 982:Drivers/STM32L4xx_HAL_Driver/Src/stm32l4xx_ll_usb.c ****       pDest++;
 2575              		.loc 1 982 7 is_stmt 1 discriminator 1 view .LVU829
 982:Drivers/STM32L4xx_HAL_Driver/Src/stm32l4xx_ll_usb.c ****       pDest++;
 2576              		.loc 1 982 8 is_stmt 0 discriminator 1 view .LVU830
ARM GAS  /tmp/ccS8Yg0I.s 			page 83


 2577 003c 0135     		adds	r5, r5, #1
 2578              	.LVL193:
 983:Drivers/STM32L4xx_HAL_Driver/Src/stm32l4xx_ll_usb.c ****       remaining_bytes--;
 2579              		.loc 1 983 7 is_stmt 1 discriminator 1 view .LVU831
 984:Drivers/STM32L4xx_HAL_Driver/Src/stm32l4xx_ll_usb.c ****     } while (remaining_bytes != 0U);
 2580              		.loc 1 984 7 discriminator 1 view .LVU832
 984:Drivers/STM32L4xx_HAL_Driver/Src/stm32l4xx_ll_usb.c ****     } while (remaining_bytes != 0U);
 2581              		.loc 1 984 22 is_stmt 0 discriminator 1 view .LVU833
 2582 003e 013A     		subs	r2, r2, #1
 2583              	.LVL194:
 984:Drivers/STM32L4xx_HAL_Driver/Src/stm32l4xx_ll_usb.c ****     } while (remaining_bytes != 0U);
 2584              		.loc 1 984 22 discriminator 1 view .LVU834
 2585 0040 92B2     		uxth	r2, r2
 2586              	.LVL195:
 985:Drivers/STM32L4xx_HAL_Driver/Src/stm32l4xx_ll_usb.c ****   }
 2587              		.loc 1 985 13 is_stmt 1 discriminator 1 view .LVU835
 985:Drivers/STM32L4xx_HAL_Driver/Src/stm32l4xx_ll_usb.c ****   }
 2588              		.loc 1 985 5 is_stmt 0 discriminator 1 view .LVU836
 2589 0042 002A     		cmp	r2, #0
 2590 0044 F4D1     		bne	.L166
 2591              	.LVL196:
 2592              	.L165:
 988:Drivers/STM32L4xx_HAL_Driver/Src/stm32l4xx_ll_usb.c **** }
 2593              		.loc 1 988 3 is_stmt 1 view .LVU837
 989:Drivers/STM32L4xx_HAL_Driver/Src/stm32l4xx_ll_usb.c **** 
 2594              		.loc 1 989 1 is_stmt 0 view .LVU838
 2595 0046 02B0     		add	sp, sp, #8
 2596              	.LCFI41:
 2597              		.cfi_def_cfa_offset 16
 2598              		@ sp needed
 2599 0048 F0BC     		pop	{r4, r5, r6, r7}
 2600              	.LCFI42:
 2601              		.cfi_restore 7
 2602              		.cfi_restore 6
 2603              		.cfi_restore 5
 2604              		.cfi_restore 4
 2605              		.cfi_def_cfa_offset 0
 2606              	.LVL197:
 989:Drivers/STM32L4xx_HAL_Driver/Src/stm32l4xx_ll_usb.c **** 
 2607              		.loc 1 989 1 view .LVU839
 2608 004a 7047     		bx	lr
 2609              		.cfi_endproc
 2610              	.LFE152:
 2612              		.section	.text.USB_EPSetStall,"ax",%progbits
 2613              		.align	1
 2614              		.global	USB_EPSetStall
 2615              		.syntax unified
 2616              		.thumb
 2617              		.thumb_func
 2618              		.fpu fpv4-sp-d16
 2620              	USB_EPSetStall:
 2621              	.LVL198:
 2622              	.LFB153:
 998:Drivers/STM32L4xx_HAL_Driver/Src/stm32l4xx_ll_usb.c ****   uint32_t USBx_BASE = (uint32_t)USBx;
 2623              		.loc 1 998 1 is_stmt 1 view -0
 2624              		.cfi_startproc
 2625              		@ args = 0, pretend = 0, frame = 0
ARM GAS  /tmp/ccS8Yg0I.s 			page 84


 2626              		@ frame_needed = 0, uses_anonymous_args = 0
 2627              		@ link register save eliminated.
 999:Drivers/STM32L4xx_HAL_Driver/Src/stm32l4xx_ll_usb.c ****   uint32_t epnum = (uint32_t)ep->num;
 2628              		.loc 1 999 3 view .LVU841
1000:Drivers/STM32L4xx_HAL_Driver/Src/stm32l4xx_ll_usb.c **** 
 2629              		.loc 1 1000 3 view .LVU842
1000:Drivers/STM32L4xx_HAL_Driver/Src/stm32l4xx_ll_usb.c **** 
 2630              		.loc 1 1000 32 is_stmt 0 view .LVU843
 2631 0000 0B78     		ldrb	r3, [r1]	@ zero_extendqisi2
 2632              	.LVL199:
1002:Drivers/STM32L4xx_HAL_Driver/Src/stm32l4xx_ll_usb.c ****   {
 2633              		.loc 1 1002 3 is_stmt 1 view .LVU844
1002:Drivers/STM32L4xx_HAL_Driver/Src/stm32l4xx_ll_usb.c ****   {
 2634              		.loc 1 1002 9 is_stmt 0 view .LVU845
 2635 0002 4A78     		ldrb	r2, [r1, #1]	@ zero_extendqisi2
1002:Drivers/STM32L4xx_HAL_Driver/Src/stm32l4xx_ll_usb.c ****   {
 2636              		.loc 1 1002 6 view .LVU846
 2637 0004 012A     		cmp	r2, #1
 2638 0006 14D0     		beq	.L174
1012:Drivers/STM32L4xx_HAL_Driver/Src/stm32l4xx_ll_usb.c ****     {
 2639              		.loc 1 1012 5 is_stmt 1 view .LVU847
1012:Drivers/STM32L4xx_HAL_Driver/Src/stm32l4xx_ll_usb.c ****     {
 2640              		.loc 1 1012 11 is_stmt 0 view .LVU848
 2641 0008 00EB4310 		add	r0, r0, r3, lsl #5
 2642              	.LVL200:
1012:Drivers/STM32L4xx_HAL_Driver/Src/stm32l4xx_ll_usb.c ****     {
 2643              		.loc 1 1012 28 view .LVU849
 2644 000c D0F8002B 		ldr	r2, [r0, #2816]
1012:Drivers/STM32L4xx_HAL_Driver/Src/stm32l4xx_ll_usb.c ****     {
 2645              		.loc 1 1012 8 view .LVU850
 2646 0010 002A     		cmp	r2, #0
 2647 0012 06DB     		blt	.L173
1012:Drivers/STM32L4xx_HAL_Driver/Src/stm32l4xx_ll_usb.c ****     {
 2648              		.loc 1 1012 70 discriminator 1 view .LVU851
 2649 0014 2BB1     		cbz	r3, .L173
1014:Drivers/STM32L4xx_HAL_Driver/Src/stm32l4xx_ll_usb.c ****     }
 2650              		.loc 1 1014 7 is_stmt 1 view .LVU852
1014:Drivers/STM32L4xx_HAL_Driver/Src/stm32l4xx_ll_usb.c ****     }
 2651              		.loc 1 1014 34 is_stmt 0 view .LVU853
 2652 0016 D0F8003B 		ldr	r3, [r0, #2816]
 2653              	.LVL201:
1014:Drivers/STM32L4xx_HAL_Driver/Src/stm32l4xx_ll_usb.c ****     }
 2654              		.loc 1 1014 34 view .LVU854
 2655 001a 23F08043 		bic	r3, r3, #1073741824
 2656 001e C0F8003B 		str	r3, [r0, #2816]
 2657              	.LVL202:
 2658              	.L173:
1016:Drivers/STM32L4xx_HAL_Driver/Src/stm32l4xx_ll_usb.c ****   }
 2659              		.loc 1 1016 5 is_stmt 1 view .LVU855
1016:Drivers/STM32L4xx_HAL_Driver/Src/stm32l4xx_ll_usb.c ****   }
 2660              		.loc 1 1016 32 is_stmt 0 view .LVU856
 2661 0022 D0F8003B 		ldr	r3, [r0, #2816]
 2662 0026 43F40013 		orr	r3, r3, #2097152
 2663 002a C0F8003B 		str	r3, [r0, #2816]
 2664              	.L172:
1019:Drivers/STM32L4xx_HAL_Driver/Src/stm32l4xx_ll_usb.c **** }
 2665              		.loc 1 1019 3 is_stmt 1 view .LVU857
ARM GAS  /tmp/ccS8Yg0I.s 			page 85


1020:Drivers/STM32L4xx_HAL_Driver/Src/stm32l4xx_ll_usb.c **** 
 2666              		.loc 1 1020 1 is_stmt 0 view .LVU858
 2667 002e 0020     		movs	r0, #0
 2668 0030 7047     		bx	lr
 2669              	.LVL203:
 2670              	.L174:
1004:Drivers/STM32L4xx_HAL_Driver/Src/stm32l4xx_ll_usb.c ****     {
 2671              		.loc 1 1004 5 is_stmt 1 view .LVU859
1004:Drivers/STM32L4xx_HAL_Driver/Src/stm32l4xx_ll_usb.c ****     {
 2672              		.loc 1 1004 11 is_stmt 0 view .LVU860
 2673 0032 00EB4310 		add	r0, r0, r3, lsl #5
 2674              	.LVL204:
1004:Drivers/STM32L4xx_HAL_Driver/Src/stm32l4xx_ll_usb.c ****     {
 2675              		.loc 1 1004 27 view .LVU861
 2676 0036 D0F80029 		ldr	r2, [r0, #2304]
1004:Drivers/STM32L4xx_HAL_Driver/Src/stm32l4xx_ll_usb.c ****     {
 2677              		.loc 1 1004 8 view .LVU862
 2678 003a 002A     		cmp	r2, #0
 2679 003c 06DB     		blt	.L171
1004:Drivers/STM32L4xx_HAL_Driver/Src/stm32l4xx_ll_usb.c ****     {
 2680              		.loc 1 1004 69 discriminator 1 view .LVU863
 2681 003e 2BB1     		cbz	r3, .L171
1006:Drivers/STM32L4xx_HAL_Driver/Src/stm32l4xx_ll_usb.c ****     }
 2682              		.loc 1 1006 7 is_stmt 1 view .LVU864
1006:Drivers/STM32L4xx_HAL_Driver/Src/stm32l4xx_ll_usb.c ****     }
 2683              		.loc 1 1006 33 is_stmt 0 view .LVU865
 2684 0040 D0F80039 		ldr	r3, [r0, #2304]
 2685              	.LVL205:
1006:Drivers/STM32L4xx_HAL_Driver/Src/stm32l4xx_ll_usb.c ****     }
 2686              		.loc 1 1006 33 view .LVU866
 2687 0044 23F08043 		bic	r3, r3, #1073741824
 2688 0048 C0F80039 		str	r3, [r0, #2304]
 2689              	.LVL206:
 2690              	.L171:
1008:Drivers/STM32L4xx_HAL_Driver/Src/stm32l4xx_ll_usb.c ****   }
 2691              		.loc 1 1008 5 is_stmt 1 view .LVU867
1008:Drivers/STM32L4xx_HAL_Driver/Src/stm32l4xx_ll_usb.c ****   }
 2692              		.loc 1 1008 31 is_stmt 0 view .LVU868
 2693 004c D0F80039 		ldr	r3, [r0, #2304]
 2694 0050 43F40013 		orr	r3, r3, #2097152
 2695 0054 C0F80039 		str	r3, [r0, #2304]
 2696 0058 E9E7     		b	.L172
 2697              		.cfi_endproc
 2698              	.LFE153:
 2700              		.section	.text.USB_EPClearStall,"ax",%progbits
 2701              		.align	1
 2702              		.global	USB_EPClearStall
 2703              		.syntax unified
 2704              		.thumb
 2705              		.thumb_func
 2706              		.fpu fpv4-sp-d16
 2708              	USB_EPClearStall:
 2709              	.LVL207:
 2710              	.LFB154:
1029:Drivers/STM32L4xx_HAL_Driver/Src/stm32l4xx_ll_usb.c ****   uint32_t USBx_BASE = (uint32_t)USBx;
 2711              		.loc 1 1029 1 is_stmt 1 view -0
 2712              		.cfi_startproc
ARM GAS  /tmp/ccS8Yg0I.s 			page 86


 2713              		@ args = 0, pretend = 0, frame = 0
 2714              		@ frame_needed = 0, uses_anonymous_args = 0
 2715              		@ link register save eliminated.
1030:Drivers/STM32L4xx_HAL_Driver/Src/stm32l4xx_ll_usb.c ****   uint32_t epnum = (uint32_t)ep->num;
 2716              		.loc 1 1030 3 view .LVU870
1031:Drivers/STM32L4xx_HAL_Driver/Src/stm32l4xx_ll_usb.c **** 
 2717              		.loc 1 1031 3 view .LVU871
1031:Drivers/STM32L4xx_HAL_Driver/Src/stm32l4xx_ll_usb.c **** 
 2718              		.loc 1 1031 32 is_stmt 0 view .LVU872
 2719 0000 0B78     		ldrb	r3, [r1]	@ zero_extendqisi2
 2720              	.LVL208:
1033:Drivers/STM32L4xx_HAL_Driver/Src/stm32l4xx_ll_usb.c ****   {
 2721              		.loc 1 1033 3 is_stmt 1 view .LVU873
1033:Drivers/STM32L4xx_HAL_Driver/Src/stm32l4xx_ll_usb.c ****   {
 2722              		.loc 1 1033 9 is_stmt 0 view .LVU874
 2723 0002 4A78     		ldrb	r2, [r1, #1]	@ zero_extendqisi2
1033:Drivers/STM32L4xx_HAL_Driver/Src/stm32l4xx_ll_usb.c ****   {
 2724              		.loc 1 1033 6 view .LVU875
 2725 0004 012A     		cmp	r2, #1
 2726 0006 0ED0     		beq	.L178
1043:Drivers/STM32L4xx_HAL_Driver/Src/stm32l4xx_ll_usb.c ****     if ((ep->type == EP_TYPE_INTR) || (ep->type == EP_TYPE_BULK))
 2727              		.loc 1 1043 5 is_stmt 1 view .LVU876
1043:Drivers/STM32L4xx_HAL_Driver/Src/stm32l4xx_ll_usb.c ****     if ((ep->type == EP_TYPE_INTR) || (ep->type == EP_TYPE_BULK))
 2728              		.loc 1 1043 32 is_stmt 0 view .LVU877
 2729 0008 00EB4310 		add	r0, r0, r3, lsl #5
 2730              	.LVL209:
1043:Drivers/STM32L4xx_HAL_Driver/Src/stm32l4xx_ll_usb.c ****     if ((ep->type == EP_TYPE_INTR) || (ep->type == EP_TYPE_BULK))
 2731              		.loc 1 1043 32 view .LVU878
 2732 000c D0F8003B 		ldr	r3, [r0, #2816]
 2733              	.LVL210:
1043:Drivers/STM32L4xx_HAL_Driver/Src/stm32l4xx_ll_usb.c ****     if ((ep->type == EP_TYPE_INTR) || (ep->type == EP_TYPE_BULK))
 2734              		.loc 1 1043 32 view .LVU879
 2735 0010 23F40013 		bic	r3, r3, #2097152
 2736 0014 C0F8003B 		str	r3, [r0, #2816]
 2737              	.LVL211:
1044:Drivers/STM32L4xx_HAL_Driver/Src/stm32l4xx_ll_usb.c ****     {
 2738              		.loc 1 1044 5 is_stmt 1 view .LVU880
1044:Drivers/STM32L4xx_HAL_Driver/Src/stm32l4xx_ll_usb.c ****     {
 2739              		.loc 1 1044 12 is_stmt 0 view .LVU881
 2740 0018 0B79     		ldrb	r3, [r1, #4]	@ zero_extendqisi2
1044:Drivers/STM32L4xx_HAL_Driver/Src/stm32l4xx_ll_usb.c ****     {
 2741              		.loc 1 1044 36 view .LVU882
 2742 001a 023B     		subs	r3, r3, #2
 2743 001c DBB2     		uxtb	r3, r3
1044:Drivers/STM32L4xx_HAL_Driver/Src/stm32l4xx_ll_usb.c ****     {
 2744              		.loc 1 1044 8 view .LVU883
 2745 001e 012B     		cmp	r3, #1
 2746 0020 15D9     		bls	.L179
 2747              	.L177:
1049:Drivers/STM32L4xx_HAL_Driver/Src/stm32l4xx_ll_usb.c **** }
 2748              		.loc 1 1049 3 is_stmt 1 view .LVU884
1050:Drivers/STM32L4xx_HAL_Driver/Src/stm32l4xx_ll_usb.c **** 
 2749              		.loc 1 1050 1 is_stmt 0 view .LVU885
 2750 0022 0020     		movs	r0, #0
 2751 0024 7047     		bx	lr
 2752              	.LVL212:
 2753              	.L178:
ARM GAS  /tmp/ccS8Yg0I.s 			page 87


1035:Drivers/STM32L4xx_HAL_Driver/Src/stm32l4xx_ll_usb.c ****     if ((ep->type == EP_TYPE_INTR) || (ep->type == EP_TYPE_BULK))
 2754              		.loc 1 1035 5 is_stmt 1 view .LVU886
1035:Drivers/STM32L4xx_HAL_Driver/Src/stm32l4xx_ll_usb.c ****     if ((ep->type == EP_TYPE_INTR) || (ep->type == EP_TYPE_BULK))
 2755              		.loc 1 1035 31 is_stmt 0 view .LVU887
 2756 0026 00EB4310 		add	r0, r0, r3, lsl #5
 2757              	.LVL213:
1035:Drivers/STM32L4xx_HAL_Driver/Src/stm32l4xx_ll_usb.c ****     if ((ep->type == EP_TYPE_INTR) || (ep->type == EP_TYPE_BULK))
 2758              		.loc 1 1035 31 view .LVU888
 2759 002a D0F80039 		ldr	r3, [r0, #2304]
 2760              	.LVL214:
1035:Drivers/STM32L4xx_HAL_Driver/Src/stm32l4xx_ll_usb.c ****     if ((ep->type == EP_TYPE_INTR) || (ep->type == EP_TYPE_BULK))
 2761              		.loc 1 1035 31 view .LVU889
 2762 002e 23F40013 		bic	r3, r3, #2097152
 2763 0032 C0F80039 		str	r3, [r0, #2304]
 2764              	.LVL215:
1036:Drivers/STM32L4xx_HAL_Driver/Src/stm32l4xx_ll_usb.c ****     {
 2765              		.loc 1 1036 5 is_stmt 1 view .LVU890
1036:Drivers/STM32L4xx_HAL_Driver/Src/stm32l4xx_ll_usb.c ****     {
 2766              		.loc 1 1036 12 is_stmt 0 view .LVU891
 2767 0036 0B79     		ldrb	r3, [r1, #4]	@ zero_extendqisi2
1036:Drivers/STM32L4xx_HAL_Driver/Src/stm32l4xx_ll_usb.c ****     {
 2768              		.loc 1 1036 36 view .LVU892
 2769 0038 023B     		subs	r3, r3, #2
 2770 003a DBB2     		uxtb	r3, r3
1036:Drivers/STM32L4xx_HAL_Driver/Src/stm32l4xx_ll_usb.c ****     {
 2771              		.loc 1 1036 8 view .LVU893
 2772 003c 012B     		cmp	r3, #1
 2773 003e F0D8     		bhi	.L177
1038:Drivers/STM32L4xx_HAL_Driver/Src/stm32l4xx_ll_usb.c ****     }
 2774              		.loc 1 1038 7 is_stmt 1 view .LVU894
1038:Drivers/STM32L4xx_HAL_Driver/Src/stm32l4xx_ll_usb.c ****     }
 2775              		.loc 1 1038 33 is_stmt 0 view .LVU895
 2776 0040 D0F80039 		ldr	r3, [r0, #2304]
 2777 0044 43F08053 		orr	r3, r3, #268435456
 2778 0048 C0F80039 		str	r3, [r0, #2304]
 2779 004c E9E7     		b	.L177
 2780              	.L179:
1046:Drivers/STM32L4xx_HAL_Driver/Src/stm32l4xx_ll_usb.c ****     }
 2781              		.loc 1 1046 7 is_stmt 1 view .LVU896
1046:Drivers/STM32L4xx_HAL_Driver/Src/stm32l4xx_ll_usb.c ****     }
 2782              		.loc 1 1046 34 is_stmt 0 view .LVU897
 2783 004e D0F8003B 		ldr	r3, [r0, #2816]
 2784 0052 43F08053 		orr	r3, r3, #268435456
 2785 0056 C0F8003B 		str	r3, [r0, #2816]
 2786 005a E2E7     		b	.L177
 2787              		.cfi_endproc
 2788              	.LFE154:
 2790              		.section	.text.USB_StopDevice,"ax",%progbits
 2791              		.align	1
 2792              		.global	USB_StopDevice
 2793              		.syntax unified
 2794              		.thumb
 2795              		.thumb_func
 2796              		.fpu fpv4-sp-d16
 2798              	USB_StopDevice:
 2799              	.LVL216:
 2800              	.LFB155:
ARM GAS  /tmp/ccS8Yg0I.s 			page 88


1058:Drivers/STM32L4xx_HAL_Driver/Src/stm32l4xx_ll_usb.c ****   HAL_StatusTypeDef ret;
 2801              		.loc 1 1058 1 is_stmt 1 view -0
 2802              		.cfi_startproc
 2803              		@ args = 0, pretend = 0, frame = 0
 2804              		@ frame_needed = 0, uses_anonymous_args = 0
1058:Drivers/STM32L4xx_HAL_Driver/Src/stm32l4xx_ll_usb.c ****   HAL_StatusTypeDef ret;
 2805              		.loc 1 1058 1 is_stmt 0 view .LVU899
 2806 0000 70B5     		push	{r4, r5, r6, lr}
 2807              	.LCFI43:
 2808              		.cfi_def_cfa_offset 16
 2809              		.cfi_offset 4, -16
 2810              		.cfi_offset 5, -12
 2811              		.cfi_offset 6, -8
 2812              		.cfi_offset 14, -4
 2813 0002 0646     		mov	r6, r0
1059:Drivers/STM32L4xx_HAL_Driver/Src/stm32l4xx_ll_usb.c ****   uint32_t USBx_BASE = (uint32_t)USBx;
 2814              		.loc 1 1059 3 is_stmt 1 view .LVU900
1060:Drivers/STM32L4xx_HAL_Driver/Src/stm32l4xx_ll_usb.c ****   uint32_t i;
 2815              		.loc 1 1060 3 view .LVU901
1060:Drivers/STM32L4xx_HAL_Driver/Src/stm32l4xx_ll_usb.c ****   uint32_t i;
 2816              		.loc 1 1060 12 is_stmt 0 view .LVU902
 2817 0004 0546     		mov	r5, r0
 2818              	.LVL217:
1061:Drivers/STM32L4xx_HAL_Driver/Src/stm32l4xx_ll_usb.c **** 
 2819              		.loc 1 1061 3 is_stmt 1 view .LVU903
1064:Drivers/STM32L4xx_HAL_Driver/Src/stm32l4xx_ll_usb.c ****   {
 2820              		.loc 1 1064 3 view .LVU904
1064:Drivers/STM32L4xx_HAL_Driver/Src/stm32l4xx_ll_usb.c ****   {
 2821              		.loc 1 1064 10 is_stmt 0 view .LVU905
 2822 0006 0022     		movs	r2, #0
1064:Drivers/STM32L4xx_HAL_Driver/Src/stm32l4xx_ll_usb.c ****   {
 2823              		.loc 1 1064 3 view .LVU906
 2824 0008 08E0     		b	.L181
 2825              	.LVL218:
 2826              	.L182:
1066:Drivers/STM32L4xx_HAL_Driver/Src/stm32l4xx_ll_usb.c ****     USBx_OUTEP(i)->DOEPINT = 0xFB7FU;
 2827              		.loc 1 1066 5 is_stmt 1 discriminator 3 view .LVU907
 2828 000a 05EB4213 		add	r3, r5, r2, lsl #5
1066:Drivers/STM32L4xx_HAL_Driver/Src/stm32l4xx_ll_usb.c ****     USBx_OUTEP(i)->DOEPINT = 0xFB7FU;
 2829              		.loc 1 1066 27 is_stmt 0 discriminator 3 view .LVU908
 2830 000e 4FF67F31 		movw	r1, #64383
 2831 0012 C3F80819 		str	r1, [r3, #2312]
1067:Drivers/STM32L4xx_HAL_Driver/Src/stm32l4xx_ll_usb.c ****   }
 2832              		.loc 1 1067 5 is_stmt 1 discriminator 3 view .LVU909
1067:Drivers/STM32L4xx_HAL_Driver/Src/stm32l4xx_ll_usb.c ****   }
 2833              		.loc 1 1067 28 is_stmt 0 discriminator 3 view .LVU910
 2834 0016 C3F8081B 		str	r1, [r3, #2824]
1064:Drivers/STM32L4xx_HAL_Driver/Src/stm32l4xx_ll_usb.c ****   {
 2835              		.loc 1 1064 25 is_stmt 1 discriminator 3 view .LVU911
1064:Drivers/STM32L4xx_HAL_Driver/Src/stm32l4xx_ll_usb.c ****   {
 2836              		.loc 1 1064 26 is_stmt 0 discriminator 3 view .LVU912
 2837 001a 0132     		adds	r2, r2, #1
 2838              	.LVL219:
 2839              	.L181:
1064:Drivers/STM32L4xx_HAL_Driver/Src/stm32l4xx_ll_usb.c ****   {
 2840              		.loc 1 1064 16 is_stmt 1 discriminator 1 view .LVU913
1064:Drivers/STM32L4xx_HAL_Driver/Src/stm32l4xx_ll_usb.c ****   {
ARM GAS  /tmp/ccS8Yg0I.s 			page 89


 2841              		.loc 1 1064 3 is_stmt 0 discriminator 1 view .LVU914
 2842 001c 0E2A     		cmp	r2, #14
 2843 001e F4D9     		bls	.L182
1071:Drivers/STM32L4xx_HAL_Driver/Src/stm32l4xx_ll_usb.c ****   USBx_DEVICE->DOEPMSK  = 0U;
 2844              		.loc 1 1071 3 is_stmt 1 view .LVU915
1071:Drivers/STM32L4xx_HAL_Driver/Src/stm32l4xx_ll_usb.c ****   USBx_DEVICE->DOEPMSK  = 0U;
 2845              		.loc 1 1071 25 is_stmt 0 view .LVU916
 2846 0020 0022     		movs	r2, #0
 2847              	.LVL220:
1071:Drivers/STM32L4xx_HAL_Driver/Src/stm32l4xx_ll_usb.c ****   USBx_DEVICE->DOEPMSK  = 0U;
 2848              		.loc 1 1071 25 view .LVU917
 2849 0022 C6F81028 		str	r2, [r6, #2064]
1072:Drivers/STM32L4xx_HAL_Driver/Src/stm32l4xx_ll_usb.c ****   USBx_DEVICE->DAINTMSK = 0U;
 2850              		.loc 1 1072 3 is_stmt 1 view .LVU918
1072:Drivers/STM32L4xx_HAL_Driver/Src/stm32l4xx_ll_usb.c ****   USBx_DEVICE->DAINTMSK = 0U;
 2851              		.loc 1 1072 25 is_stmt 0 view .LVU919
 2852 0026 C6F81428 		str	r2, [r6, #2068]
1073:Drivers/STM32L4xx_HAL_Driver/Src/stm32l4xx_ll_usb.c **** 
 2853              		.loc 1 1073 3 is_stmt 1 view .LVU920
1073:Drivers/STM32L4xx_HAL_Driver/Src/stm32l4xx_ll_usb.c **** 
 2854              		.loc 1 1073 25 is_stmt 0 view .LVU921
 2855 002a C6F81C28 		str	r2, [r6, #2076]
1076:Drivers/STM32L4xx_HAL_Driver/Src/stm32l4xx_ll_usb.c ****   if (ret != HAL_OK)
 2856              		.loc 1 1076 3 is_stmt 1 view .LVU922
1076:Drivers/STM32L4xx_HAL_Driver/Src/stm32l4xx_ll_usb.c ****   if (ret != HAL_OK)
 2857              		.loc 1 1076 9 is_stmt 0 view .LVU923
 2858 002e 3046     		mov	r0, r6
 2859              	.LVL221:
1076:Drivers/STM32L4xx_HAL_Driver/Src/stm32l4xx_ll_usb.c ****   if (ret != HAL_OK)
 2860              		.loc 1 1076 9 view .LVU924
 2861 0030 FFF7FEFF 		bl	USB_FlushRxFifo
 2862              	.LVL222:
1077:Drivers/STM32L4xx_HAL_Driver/Src/stm32l4xx_ll_usb.c ****   {
 2863              		.loc 1 1077 3 is_stmt 1 view .LVU925
1077:Drivers/STM32L4xx_HAL_Driver/Src/stm32l4xx_ll_usb.c ****   {
 2864              		.loc 1 1077 6 is_stmt 0 view .LVU926
 2865 0034 00B1     		cbz	r0, .L185
 2866              	.L183:
1089:Drivers/STM32L4xx_HAL_Driver/Src/stm32l4xx_ll_usb.c **** 
 2867              		.loc 1 1089 1 view .LVU927
 2868 0036 70BD     		pop	{r4, r5, r6, pc}
 2869              	.LVL223:
 2870              	.L185:
1082:Drivers/STM32L4xx_HAL_Driver/Src/stm32l4xx_ll_usb.c ****   if (ret != HAL_OK)
 2871              		.loc 1 1082 3 is_stmt 1 view .LVU928
1082:Drivers/STM32L4xx_HAL_Driver/Src/stm32l4xx_ll_usb.c ****   if (ret != HAL_OK)
 2872              		.loc 1 1082 9 is_stmt 0 view .LVU929
 2873 0038 1021     		movs	r1, #16
 2874 003a 3046     		mov	r0, r6
 2875              	.LVL224:
1082:Drivers/STM32L4xx_HAL_Driver/Src/stm32l4xx_ll_usb.c ****   if (ret != HAL_OK)
 2876              		.loc 1 1082 9 view .LVU930
 2877 003c FFF7FEFF 		bl	USB_FlushTxFifo
 2878              	.LVL225:
1083:Drivers/STM32L4xx_HAL_Driver/Src/stm32l4xx_ll_usb.c ****   {
 2879              		.loc 1 1083 3 is_stmt 1 view .LVU931
 2880 0040 F9E7     		b	.L183
ARM GAS  /tmp/ccS8Yg0I.s 			page 90


 2881              		.cfi_endproc
 2882              	.LFE155:
 2884              		.section	.text.USB_SetDevAddress,"ax",%progbits
 2885              		.align	1
 2886              		.global	USB_SetDevAddress
 2887              		.syntax unified
 2888              		.thumb
 2889              		.thumb_func
 2890              		.fpu fpv4-sp-d16
 2892              	USB_SetDevAddress:
 2893              	.LVL226:
 2894              	.LFB156:
1099:Drivers/STM32L4xx_HAL_Driver/Src/stm32l4xx_ll_usb.c ****   uint32_t USBx_BASE = (uint32_t)USBx;
 2895              		.loc 1 1099 1 view -0
 2896              		.cfi_startproc
 2897              		@ args = 0, pretend = 0, frame = 0
 2898              		@ frame_needed = 0, uses_anonymous_args = 0
 2899              		@ link register save eliminated.
1100:Drivers/STM32L4xx_HAL_Driver/Src/stm32l4xx_ll_usb.c **** 
 2900              		.loc 1 1100 3 view .LVU933
1102:Drivers/STM32L4xx_HAL_Driver/Src/stm32l4xx_ll_usb.c ****   USBx_DEVICE->DCFG |= ((uint32_t)address << 4) & USB_OTG_DCFG_DAD;
 2901              		.loc 1 1102 3 view .LVU934
1102:Drivers/STM32L4xx_HAL_Driver/Src/stm32l4xx_ll_usb.c ****   USBx_DEVICE->DCFG |= ((uint32_t)address << 4) & USB_OTG_DCFG_DAD;
 2902              		.loc 1 1102 21 is_stmt 0 view .LVU935
 2903 0000 D0F80038 		ldr	r3, [r0, #2048]
 2904 0004 23F4FE63 		bic	r3, r3, #2032
 2905 0008 C0F80038 		str	r3, [r0, #2048]
1103:Drivers/STM32L4xx_HAL_Driver/Src/stm32l4xx_ll_usb.c **** 
 2906              		.loc 1 1103 3 is_stmt 1 view .LVU936
1103:Drivers/STM32L4xx_HAL_Driver/Src/stm32l4xx_ll_usb.c **** 
 2907              		.loc 1 1103 21 is_stmt 0 view .LVU937
 2908 000c D0F80038 		ldr	r3, [r0, #2048]
1103:Drivers/STM32L4xx_HAL_Driver/Src/stm32l4xx_ll_usb.c **** 
 2909              		.loc 1 1103 43 view .LVU938
 2910 0010 0901     		lsls	r1, r1, #4
 2911              	.LVL227:
1103:Drivers/STM32L4xx_HAL_Driver/Src/stm32l4xx_ll_usb.c **** 
 2912              		.loc 1 1103 49 view .LVU939
 2913 0012 01F4FE61 		and	r1, r1, #2032
1103:Drivers/STM32L4xx_HAL_Driver/Src/stm32l4xx_ll_usb.c **** 
 2914              		.loc 1 1103 21 view .LVU940
 2915 0016 1943     		orrs	r1, r1, r3
 2916 0018 C0F80018 		str	r1, [r0, #2048]
1105:Drivers/STM32L4xx_HAL_Driver/Src/stm32l4xx_ll_usb.c **** }
 2917              		.loc 1 1105 3 is_stmt 1 view .LVU941
1106:Drivers/STM32L4xx_HAL_Driver/Src/stm32l4xx_ll_usb.c **** 
 2918              		.loc 1 1106 1 is_stmt 0 view .LVU942
 2919 001c 0020     		movs	r0, #0
 2920              	.LVL228:
1106:Drivers/STM32L4xx_HAL_Driver/Src/stm32l4xx_ll_usb.c **** 
 2921              		.loc 1 1106 1 view .LVU943
 2922 001e 7047     		bx	lr
 2923              		.cfi_endproc
 2924              	.LFE156:
 2926              		.section	.text.USB_DevConnect,"ax",%progbits
 2927              		.align	1
 2928              		.global	USB_DevConnect
ARM GAS  /tmp/ccS8Yg0I.s 			page 91


 2929              		.syntax unified
 2930              		.thumb
 2931              		.thumb_func
 2932              		.fpu fpv4-sp-d16
 2934              	USB_DevConnect:
 2935              	.LVL229:
 2936              	.LFB157:
1114:Drivers/STM32L4xx_HAL_Driver/Src/stm32l4xx_ll_usb.c ****   uint32_t USBx_BASE = (uint32_t)USBx;
 2937              		.loc 1 1114 1 is_stmt 1 view -0
 2938              		.cfi_startproc
 2939              		@ args = 0, pretend = 0, frame = 0
 2940              		@ frame_needed = 0, uses_anonymous_args = 0
 2941              		@ link register save eliminated.
1115:Drivers/STM32L4xx_HAL_Driver/Src/stm32l4xx_ll_usb.c **** 
 2942              		.loc 1 1115 3 view .LVU945
1118:Drivers/STM32L4xx_HAL_Driver/Src/stm32l4xx_ll_usb.c **** 
 2943              		.loc 1 1118 3 view .LVU946
1118:Drivers/STM32L4xx_HAL_Driver/Src/stm32l4xx_ll_usb.c **** 
 2944              		.loc 1 1118 16 is_stmt 0 view .LVU947
 2945 0000 D0F8003E 		ldr	r3, [r0, #3584]
 2946 0004 23F00303 		bic	r3, r3, #3
 2947 0008 C0F8003E 		str	r3, [r0, #3584]
1120:Drivers/STM32L4xx_HAL_Driver/Src/stm32l4xx_ll_usb.c **** 
 2948              		.loc 1 1120 3 is_stmt 1 view .LVU948
1120:Drivers/STM32L4xx_HAL_Driver/Src/stm32l4xx_ll_usb.c **** 
 2949              		.loc 1 1120 21 is_stmt 0 view .LVU949
 2950 000c D0F80438 		ldr	r3, [r0, #2052]
 2951 0010 23F00203 		bic	r3, r3, #2
 2952 0014 C0F80438 		str	r3, [r0, #2052]
1122:Drivers/STM32L4xx_HAL_Driver/Src/stm32l4xx_ll_usb.c **** }
 2953              		.loc 1 1122 3 is_stmt 1 view .LVU950
1123:Drivers/STM32L4xx_HAL_Driver/Src/stm32l4xx_ll_usb.c **** 
 2954              		.loc 1 1123 1 is_stmt 0 view .LVU951
 2955 0018 0020     		movs	r0, #0
 2956              	.LVL230:
1123:Drivers/STM32L4xx_HAL_Driver/Src/stm32l4xx_ll_usb.c **** 
 2957              		.loc 1 1123 1 view .LVU952
 2958 001a 7047     		bx	lr
 2959              		.cfi_endproc
 2960              	.LFE157:
 2962              		.section	.text.USB_DevDisconnect,"ax",%progbits
 2963              		.align	1
 2964              		.global	USB_DevDisconnect
 2965              		.syntax unified
 2966              		.thumb
 2967              		.thumb_func
 2968              		.fpu fpv4-sp-d16
 2970              	USB_DevDisconnect:
 2971              	.LVL231:
 2972              	.LFB158:
1131:Drivers/STM32L4xx_HAL_Driver/Src/stm32l4xx_ll_usb.c ****   uint32_t USBx_BASE = (uint32_t)USBx;
 2973              		.loc 1 1131 1 is_stmt 1 view -0
 2974              		.cfi_startproc
 2975              		@ args = 0, pretend = 0, frame = 0
 2976              		@ frame_needed = 0, uses_anonymous_args = 0
 2977              		@ link register save eliminated.
1132:Drivers/STM32L4xx_HAL_Driver/Src/stm32l4xx_ll_usb.c **** 
ARM GAS  /tmp/ccS8Yg0I.s 			page 92


 2978              		.loc 1 1132 3 view .LVU954
1135:Drivers/STM32L4xx_HAL_Driver/Src/stm32l4xx_ll_usb.c **** 
 2979              		.loc 1 1135 3 view .LVU955
1135:Drivers/STM32L4xx_HAL_Driver/Src/stm32l4xx_ll_usb.c **** 
 2980              		.loc 1 1135 16 is_stmt 0 view .LVU956
 2981 0000 D0F8003E 		ldr	r3, [r0, #3584]
 2982 0004 23F00303 		bic	r3, r3, #3
 2983 0008 C0F8003E 		str	r3, [r0, #3584]
1137:Drivers/STM32L4xx_HAL_Driver/Src/stm32l4xx_ll_usb.c **** 
 2984              		.loc 1 1137 3 is_stmt 1 view .LVU957
1137:Drivers/STM32L4xx_HAL_Driver/Src/stm32l4xx_ll_usb.c **** 
 2985              		.loc 1 1137 21 is_stmt 0 view .LVU958
 2986 000c D0F80438 		ldr	r3, [r0, #2052]
 2987 0010 43F00203 		orr	r3, r3, #2
 2988 0014 C0F80438 		str	r3, [r0, #2052]
1139:Drivers/STM32L4xx_HAL_Driver/Src/stm32l4xx_ll_usb.c **** }
 2989              		.loc 1 1139 3 is_stmt 1 view .LVU959
1140:Drivers/STM32L4xx_HAL_Driver/Src/stm32l4xx_ll_usb.c **** 
 2990              		.loc 1 1140 1 is_stmt 0 view .LVU960
 2991 0018 0020     		movs	r0, #0
 2992              	.LVL232:
1140:Drivers/STM32L4xx_HAL_Driver/Src/stm32l4xx_ll_usb.c **** 
 2993              		.loc 1 1140 1 view .LVU961
 2994 001a 7047     		bx	lr
 2995              		.cfi_endproc
 2996              	.LFE158:
 2998              		.section	.text.USB_ReadInterrupts,"ax",%progbits
 2999              		.align	1
 3000              		.global	USB_ReadInterrupts
 3001              		.syntax unified
 3002              		.thumb
 3003              		.thumb_func
 3004              		.fpu fpv4-sp-d16
 3006              	USB_ReadInterrupts:
 3007              	.LVL233:
 3008              	.LFB159:
1148:Drivers/STM32L4xx_HAL_Driver/Src/stm32l4xx_ll_usb.c ****   uint32_t tmpreg;
 3009              		.loc 1 1148 1 is_stmt 1 view -0
 3010              		.cfi_startproc
 3011              		@ args = 0, pretend = 0, frame = 0
 3012              		@ frame_needed = 0, uses_anonymous_args = 0
 3013              		@ link register save eliminated.
1149:Drivers/STM32L4xx_HAL_Driver/Src/stm32l4xx_ll_usb.c **** 
 3014              		.loc 1 1149 3 view .LVU963
1151:Drivers/STM32L4xx_HAL_Driver/Src/stm32l4xx_ll_usb.c ****   tmpreg &= USBx->GINTMSK;
 3015              		.loc 1 1151 3 view .LVU964
1151:Drivers/STM32L4xx_HAL_Driver/Src/stm32l4xx_ll_usb.c ****   tmpreg &= USBx->GINTMSK;
 3016              		.loc 1 1151 10 is_stmt 0 view .LVU965
 3017 0000 4269     		ldr	r2, [r0, #20]
 3018              	.LVL234:
1152:Drivers/STM32L4xx_HAL_Driver/Src/stm32l4xx_ll_usb.c **** 
 3019              		.loc 1 1152 3 is_stmt 1 view .LVU966
1152:Drivers/STM32L4xx_HAL_Driver/Src/stm32l4xx_ll_usb.c **** 
 3020              		.loc 1 1152 17 is_stmt 0 view .LVU967
 3021 0002 8069     		ldr	r0, [r0, #24]
 3022              	.LVL235:
1154:Drivers/STM32L4xx_HAL_Driver/Src/stm32l4xx_ll_usb.c **** }
ARM GAS  /tmp/ccS8Yg0I.s 			page 93


 3023              		.loc 1 1154 3 is_stmt 1 view .LVU968
1155:Drivers/STM32L4xx_HAL_Driver/Src/stm32l4xx_ll_usb.c **** 
 3024              		.loc 1 1155 1 is_stmt 0 view .LVU969
 3025 0004 1040     		ands	r0, r0, r2
 3026              	.LVL236:
1155:Drivers/STM32L4xx_HAL_Driver/Src/stm32l4xx_ll_usb.c **** 
 3027              		.loc 1 1155 1 view .LVU970
 3028 0006 7047     		bx	lr
 3029              		.cfi_endproc
 3030              	.LFE159:
 3032              		.section	.text.USB_ReadDevAllOutEpInterrupt,"ax",%progbits
 3033              		.align	1
 3034              		.global	USB_ReadDevAllOutEpInterrupt
 3035              		.syntax unified
 3036              		.thumb
 3037              		.thumb_func
 3038              		.fpu fpv4-sp-d16
 3040              	USB_ReadDevAllOutEpInterrupt:
 3041              	.LVL237:
 3042              	.LFB160:
1163:Drivers/STM32L4xx_HAL_Driver/Src/stm32l4xx_ll_usb.c ****   uint32_t USBx_BASE = (uint32_t)USBx;
 3043              		.loc 1 1163 1 is_stmt 1 view -0
 3044              		.cfi_startproc
 3045              		@ args = 0, pretend = 0, frame = 0
 3046              		@ frame_needed = 0, uses_anonymous_args = 0
 3047              		@ link register save eliminated.
1164:Drivers/STM32L4xx_HAL_Driver/Src/stm32l4xx_ll_usb.c ****   uint32_t tmpreg;
 3048              		.loc 1 1164 3 view .LVU972
1165:Drivers/STM32L4xx_HAL_Driver/Src/stm32l4xx_ll_usb.c **** 
 3049              		.loc 1 1165 3 view .LVU973
1167:Drivers/STM32L4xx_HAL_Driver/Src/stm32l4xx_ll_usb.c ****   tmpreg &= USBx_DEVICE->DAINTMSK;
 3050              		.loc 1 1167 3 view .LVU974
1167:Drivers/STM32L4xx_HAL_Driver/Src/stm32l4xx_ll_usb.c ****   tmpreg &= USBx_DEVICE->DAINTMSK;
 3051              		.loc 1 1167 11 is_stmt 0 view .LVU975
 3052 0000 D0F81838 		ldr	r3, [r0, #2072]
1167:Drivers/STM32L4xx_HAL_Driver/Src/stm32l4xx_ll_usb.c ****   tmpreg &= USBx_DEVICE->DAINTMSK;
 3053              		.loc 1 1167 13 view .LVU976
 3054 0004 00F50060 		add	r0, r0, #2048
 3055              	.LVL238:
1168:Drivers/STM32L4xx_HAL_Driver/Src/stm32l4xx_ll_usb.c **** 
 3056              		.loc 1 1168 3 is_stmt 1 view .LVU977
1168:Drivers/STM32L4xx_HAL_Driver/Src/stm32l4xx_ll_usb.c **** 
 3057              		.loc 1 1168 24 is_stmt 0 view .LVU978
 3058 0008 C069     		ldr	r0, [r0, #28]
 3059              	.LVL239:
1168:Drivers/STM32L4xx_HAL_Driver/Src/stm32l4xx_ll_usb.c **** 
 3060              		.loc 1 1168 10 view .LVU979
 3061 000a 1840     		ands	r0, r0, r3
 3062              	.LVL240:
1170:Drivers/STM32L4xx_HAL_Driver/Src/stm32l4xx_ll_usb.c **** }
 3063              		.loc 1 1170 3 is_stmt 1 view .LVU980
1171:Drivers/STM32L4xx_HAL_Driver/Src/stm32l4xx_ll_usb.c **** 
 3064              		.loc 1 1171 1 is_stmt 0 view .LVU981
 3065 000c 000C     		lsrs	r0, r0, #16
 3066              	.LVL241:
1171:Drivers/STM32L4xx_HAL_Driver/Src/stm32l4xx_ll_usb.c **** 
 3067              		.loc 1 1171 1 view .LVU982
ARM GAS  /tmp/ccS8Yg0I.s 			page 94


 3068 000e 7047     		bx	lr
 3069              		.cfi_endproc
 3070              	.LFE160:
 3072              		.section	.text.USB_ReadDevAllInEpInterrupt,"ax",%progbits
 3073              		.align	1
 3074              		.global	USB_ReadDevAllInEpInterrupt
 3075              		.syntax unified
 3076              		.thumb
 3077              		.thumb_func
 3078              		.fpu fpv4-sp-d16
 3080              	USB_ReadDevAllInEpInterrupt:
 3081              	.LVL242:
 3082              	.LFB161:
1179:Drivers/STM32L4xx_HAL_Driver/Src/stm32l4xx_ll_usb.c ****   uint32_t USBx_BASE = (uint32_t)USBx;
 3083              		.loc 1 1179 1 is_stmt 1 view -0
 3084              		.cfi_startproc
 3085              		@ args = 0, pretend = 0, frame = 0
 3086              		@ frame_needed = 0, uses_anonymous_args = 0
 3087              		@ link register save eliminated.
1180:Drivers/STM32L4xx_HAL_Driver/Src/stm32l4xx_ll_usb.c ****   uint32_t tmpreg;
 3088              		.loc 1 1180 3 view .LVU984
1181:Drivers/STM32L4xx_HAL_Driver/Src/stm32l4xx_ll_usb.c **** 
 3089              		.loc 1 1181 3 view .LVU985
1183:Drivers/STM32L4xx_HAL_Driver/Src/stm32l4xx_ll_usb.c ****   tmpreg &= USBx_DEVICE->DAINTMSK;
 3090              		.loc 1 1183 3 view .LVU986
1183:Drivers/STM32L4xx_HAL_Driver/Src/stm32l4xx_ll_usb.c ****   tmpreg &= USBx_DEVICE->DAINTMSK;
 3091              		.loc 1 1183 11 is_stmt 0 view .LVU987
 3092 0000 D0F81838 		ldr	r3, [r0, #2072]
1183:Drivers/STM32L4xx_HAL_Driver/Src/stm32l4xx_ll_usb.c ****   tmpreg &= USBx_DEVICE->DAINTMSK;
 3093              		.loc 1 1183 13 view .LVU988
 3094 0004 00F50060 		add	r0, r0, #2048
 3095              	.LVL243:
1184:Drivers/STM32L4xx_HAL_Driver/Src/stm32l4xx_ll_usb.c **** 
 3096              		.loc 1 1184 3 is_stmt 1 view .LVU989
1184:Drivers/STM32L4xx_HAL_Driver/Src/stm32l4xx_ll_usb.c **** 
 3097              		.loc 1 1184 24 is_stmt 0 view .LVU990
 3098 0008 C069     		ldr	r0, [r0, #28]
 3099              	.LVL244:
1184:Drivers/STM32L4xx_HAL_Driver/Src/stm32l4xx_ll_usb.c **** 
 3100              		.loc 1 1184 10 view .LVU991
 3101 000a 1840     		ands	r0, r0, r3
 3102              	.LVL245:
1186:Drivers/STM32L4xx_HAL_Driver/Src/stm32l4xx_ll_usb.c **** }
 3103              		.loc 1 1186 3 is_stmt 1 view .LVU992
1187:Drivers/STM32L4xx_HAL_Driver/Src/stm32l4xx_ll_usb.c **** 
 3104              		.loc 1 1187 1 is_stmt 0 view .LVU993
 3105 000c 80B2     		uxth	r0, r0
 3106              	.LVL246:
1187:Drivers/STM32L4xx_HAL_Driver/Src/stm32l4xx_ll_usb.c **** 
 3107              		.loc 1 1187 1 view .LVU994
 3108 000e 7047     		bx	lr
 3109              		.cfi_endproc
 3110              	.LFE161:
 3112              		.section	.text.USB_ReadDevOutEPInterrupt,"ax",%progbits
 3113              		.align	1
 3114              		.global	USB_ReadDevOutEPInterrupt
 3115              		.syntax unified
ARM GAS  /tmp/ccS8Yg0I.s 			page 95


 3116              		.thumb
 3117              		.thumb_func
 3118              		.fpu fpv4-sp-d16
 3120              	USB_ReadDevOutEPInterrupt:
 3121              	.LVL247:
 3122              	.LFB162:
1197:Drivers/STM32L4xx_HAL_Driver/Src/stm32l4xx_ll_usb.c ****   uint32_t USBx_BASE = (uint32_t)USBx;
 3123              		.loc 1 1197 1 is_stmt 1 view -0
 3124              		.cfi_startproc
 3125              		@ args = 0, pretend = 0, frame = 0
 3126              		@ frame_needed = 0, uses_anonymous_args = 0
 3127              		@ link register save eliminated.
1198:Drivers/STM32L4xx_HAL_Driver/Src/stm32l4xx_ll_usb.c ****   uint32_t tmpreg;
 3128              		.loc 1 1198 3 view .LVU996
1199:Drivers/STM32L4xx_HAL_Driver/Src/stm32l4xx_ll_usb.c **** 
 3129              		.loc 1 1199 3 view .LVU997
1201:Drivers/STM32L4xx_HAL_Driver/Src/stm32l4xx_ll_usb.c ****   tmpreg &= USBx_DEVICE->DOEPMSK;
 3130              		.loc 1 1201 3 view .LVU998
1201:Drivers/STM32L4xx_HAL_Driver/Src/stm32l4xx_ll_usb.c ****   tmpreg &= USBx_DEVICE->DOEPMSK;
 3131              		.loc 1 1201 13 is_stmt 0 view .LVU999
 3132 0000 00EB4111 		add	r1, r0, r1, lsl #5
 3133              	.LVL248:
1201:Drivers/STM32L4xx_HAL_Driver/Src/stm32l4xx_ll_usb.c ****   tmpreg &= USBx_DEVICE->DOEPMSK;
 3134              		.loc 1 1201 11 view .LVU1000
 3135 0004 D1F8082B 		ldr	r2, [r1, #2824]
 3136              	.LVL249:
1202:Drivers/STM32L4xx_HAL_Driver/Src/stm32l4xx_ll_usb.c **** 
 3137              		.loc 1 1202 3 is_stmt 1 view .LVU1001
1202:Drivers/STM32L4xx_HAL_Driver/Src/stm32l4xx_ll_usb.c **** 
 3138              		.loc 1 1202 13 is_stmt 0 view .LVU1002
 3139 0008 00F50060 		add	r0, r0, #2048
 3140              	.LVL250:
1202:Drivers/STM32L4xx_HAL_Driver/Src/stm32l4xx_ll_usb.c **** 
 3141              		.loc 1 1202 24 view .LVU1003
 3142 000c 4069     		ldr	r0, [r0, #20]
 3143              	.LVL251:
1204:Drivers/STM32L4xx_HAL_Driver/Src/stm32l4xx_ll_usb.c **** }
 3144              		.loc 1 1204 3 is_stmt 1 view .LVU1004
1205:Drivers/STM32L4xx_HAL_Driver/Src/stm32l4xx_ll_usb.c **** 
 3145              		.loc 1 1205 1 is_stmt 0 view .LVU1005
 3146 000e 1040     		ands	r0, r0, r2
 3147              	.LVL252:
1205:Drivers/STM32L4xx_HAL_Driver/Src/stm32l4xx_ll_usb.c **** 
 3148              		.loc 1 1205 1 view .LVU1006
 3149 0010 7047     		bx	lr
 3150              		.cfi_endproc
 3151              	.LFE162:
 3153              		.section	.text.USB_ReadDevInEPInterrupt,"ax",%progbits
 3154              		.align	1
 3155              		.global	USB_ReadDevInEPInterrupt
 3156              		.syntax unified
 3157              		.thumb
 3158              		.thumb_func
 3159              		.fpu fpv4-sp-d16
 3161              	USB_ReadDevInEPInterrupt:
 3162              	.LVL253:
 3163              	.LFB163:
ARM GAS  /tmp/ccS8Yg0I.s 			page 96


1215:Drivers/STM32L4xx_HAL_Driver/Src/stm32l4xx_ll_usb.c ****   uint32_t USBx_BASE = (uint32_t)USBx;
 3164              		.loc 1 1215 1 is_stmt 1 view -0
 3165              		.cfi_startproc
 3166              		@ args = 0, pretend = 0, frame = 0
 3167              		@ frame_needed = 0, uses_anonymous_args = 0
 3168              		@ link register save eliminated.
1215:Drivers/STM32L4xx_HAL_Driver/Src/stm32l4xx_ll_usb.c ****   uint32_t USBx_BASE = (uint32_t)USBx;
 3169              		.loc 1 1215 1 is_stmt 0 view .LVU1008
 3170 0000 10B4     		push	{r4}
 3171              	.LCFI44:
 3172              		.cfi_def_cfa_offset 4
 3173              		.cfi_offset 4, -4
1216:Drivers/STM32L4xx_HAL_Driver/Src/stm32l4xx_ll_usb.c ****   uint32_t tmpreg;
 3174              		.loc 1 1216 3 is_stmt 1 view .LVU1009
 3175              	.LVL254:
1217:Drivers/STM32L4xx_HAL_Driver/Src/stm32l4xx_ll_usb.c ****   uint32_t msk;
 3176              		.loc 1 1217 3 view .LVU1010
1218:Drivers/STM32L4xx_HAL_Driver/Src/stm32l4xx_ll_usb.c ****   uint32_t emp;
 3177              		.loc 1 1218 3 view .LVU1011
1219:Drivers/STM32L4xx_HAL_Driver/Src/stm32l4xx_ll_usb.c **** 
 3178              		.loc 1 1219 3 view .LVU1012
1221:Drivers/STM32L4xx_HAL_Driver/Src/stm32l4xx_ll_usb.c ****   emp = USBx_DEVICE->DIEPEMPMSK;
 3179              		.loc 1 1221 3 view .LVU1013
1221:Drivers/STM32L4xx_HAL_Driver/Src/stm32l4xx_ll_usb.c ****   emp = USBx_DEVICE->DIEPEMPMSK;
 3180              		.loc 1 1221 7 is_stmt 0 view .LVU1014
 3181 0002 D0F81048 		ldr	r4, [r0, #2064]
 3182              	.LVL255:
1222:Drivers/STM32L4xx_HAL_Driver/Src/stm32l4xx_ll_usb.c ****   msk |= ((emp >> (epnum & EP_ADDR_MSK)) & 0x1U) << 7;
 3183              		.loc 1 1222 3 is_stmt 1 view .LVU1015
1222:Drivers/STM32L4xx_HAL_Driver/Src/stm32l4xx_ll_usb.c ****   msk |= ((emp >> (epnum & EP_ADDR_MSK)) & 0x1U) << 7;
 3184              		.loc 1 1222 7 is_stmt 0 view .LVU1016
 3185 0006 D0F83438 		ldr	r3, [r0, #2100]
 3186              	.LVL256:
1223:Drivers/STM32L4xx_HAL_Driver/Src/stm32l4xx_ll_usb.c ****   tmpreg = USBx_INEP((uint32_t)epnum)->DIEPINT & msk;
 3187              		.loc 1 1223 3 is_stmt 1 view .LVU1017
1223:Drivers/STM32L4xx_HAL_Driver/Src/stm32l4xx_ll_usb.c ****   tmpreg = USBx_INEP((uint32_t)epnum)->DIEPINT & msk;
 3188              		.loc 1 1223 26 is_stmt 0 view .LVU1018
 3189 000a 01F00F02 		and	r2, r1, #15
1223:Drivers/STM32L4xx_HAL_Driver/Src/stm32l4xx_ll_usb.c ****   tmpreg = USBx_INEP((uint32_t)epnum)->DIEPINT & msk;
 3190              		.loc 1 1223 16 view .LVU1019
 3191 000e D340     		lsrs	r3, r3, r2
 3192              	.LVL257:
1223:Drivers/STM32L4xx_HAL_Driver/Src/stm32l4xx_ll_usb.c ****   tmpreg = USBx_INEP((uint32_t)epnum)->DIEPINT & msk;
 3193              		.loc 1 1223 50 view .LVU1020
 3194 0010 DB01     		lsls	r3, r3, #7
 3195 0012 DBB2     		uxtb	r3, r3
1223:Drivers/STM32L4xx_HAL_Driver/Src/stm32l4xx_ll_usb.c ****   tmpreg = USBx_INEP((uint32_t)epnum)->DIEPINT & msk;
 3196              		.loc 1 1223 7 view .LVU1021
 3197 0014 2343     		orrs	r3, r3, r4
 3198              	.LVL258:
1224:Drivers/STM32L4xx_HAL_Driver/Src/stm32l4xx_ll_usb.c **** 
 3199              		.loc 1 1224 3 is_stmt 1 view .LVU1022
1224:Drivers/STM32L4xx_HAL_Driver/Src/stm32l4xx_ll_usb.c **** 
 3200              		.loc 1 1224 12 is_stmt 0 view .LVU1023
 3201 0016 00EB4110 		add	r0, r0, r1, lsl #5
 3202              	.LVL259:
1224:Drivers/STM32L4xx_HAL_Driver/Src/stm32l4xx_ll_usb.c **** 
ARM GAS  /tmp/ccS8Yg0I.s 			page 97


 3203              		.loc 1 1224 12 view .LVU1024
 3204 001a 00F51060 		add	r0, r0, #2304
1224:Drivers/STM32L4xx_HAL_Driver/Src/stm32l4xx_ll_usb.c **** 
 3205              		.loc 1 1224 38 view .LVU1025
 3206 001e 8068     		ldr	r0, [r0, #8]
 3207              	.LVL260:
1226:Drivers/STM32L4xx_HAL_Driver/Src/stm32l4xx_ll_usb.c **** }
 3208              		.loc 1 1226 3 is_stmt 1 view .LVU1026
1227:Drivers/STM32L4xx_HAL_Driver/Src/stm32l4xx_ll_usb.c **** 
 3209              		.loc 1 1227 1 is_stmt 0 view .LVU1027
 3210 0020 1840     		ands	r0, r0, r3
 3211              	.LVL261:
1227:Drivers/STM32L4xx_HAL_Driver/Src/stm32l4xx_ll_usb.c **** 
 3212              		.loc 1 1227 1 view .LVU1028
 3213 0022 5DF8044B 		ldr	r4, [sp], #4
 3214              	.LCFI45:
 3215              		.cfi_restore 4
 3216              		.cfi_def_cfa_offset 0
 3217 0026 7047     		bx	lr
 3218              		.cfi_endproc
 3219              	.LFE163:
 3221              		.section	.text.USB_ClearInterrupts,"ax",%progbits
 3222              		.align	1
 3223              		.global	USB_ClearInterrupts
 3224              		.syntax unified
 3225              		.thumb
 3226              		.thumb_func
 3227              		.fpu fpv4-sp-d16
 3229              	USB_ClearInterrupts:
 3230              	.LVL262:
 3231              	.LFB164:
1236:Drivers/STM32L4xx_HAL_Driver/Src/stm32l4xx_ll_usb.c ****   USBx->GINTSTS |= interrupt;
 3232              		.loc 1 1236 1 is_stmt 1 view -0
 3233              		.cfi_startproc
 3234              		@ args = 0, pretend = 0, frame = 0
 3235              		@ frame_needed = 0, uses_anonymous_args = 0
 3236              		@ link register save eliminated.
1237:Drivers/STM32L4xx_HAL_Driver/Src/stm32l4xx_ll_usb.c **** }
 3237              		.loc 1 1237 3 view .LVU1030
1237:Drivers/STM32L4xx_HAL_Driver/Src/stm32l4xx_ll_usb.c **** }
 3238              		.loc 1 1237 17 is_stmt 0 view .LVU1031
 3239 0000 4369     		ldr	r3, [r0, #20]
 3240 0002 0B43     		orrs	r3, r3, r1
 3241 0004 4361     		str	r3, [r0, #20]
1238:Drivers/STM32L4xx_HAL_Driver/Src/stm32l4xx_ll_usb.c **** 
 3242              		.loc 1 1238 1 view .LVU1032
 3243 0006 7047     		bx	lr
 3244              		.cfi_endproc
 3245              	.LFE164:
 3247              		.section	.text.USB_GetMode,"ax",%progbits
 3248              		.align	1
 3249              		.global	USB_GetMode
 3250              		.syntax unified
 3251              		.thumb
 3252              		.thumb_func
 3253              		.fpu fpv4-sp-d16
 3255              	USB_GetMode:
ARM GAS  /tmp/ccS8Yg0I.s 			page 98


 3256              	.LVL263:
 3257              	.LFB165:
1249:Drivers/STM32L4xx_HAL_Driver/Src/stm32l4xx_ll_usb.c ****   return ((USBx->GINTSTS) & 0x1U);
 3258              		.loc 1 1249 1 is_stmt 1 view -0
 3259              		.cfi_startproc
 3260              		@ args = 0, pretend = 0, frame = 0
 3261              		@ frame_needed = 0, uses_anonymous_args = 0
 3262              		@ link register save eliminated.
1250:Drivers/STM32L4xx_HAL_Driver/Src/stm32l4xx_ll_usb.c **** }
 3263              		.loc 1 1250 3 view .LVU1034
1250:Drivers/STM32L4xx_HAL_Driver/Src/stm32l4xx_ll_usb.c **** }
 3264              		.loc 1 1250 16 is_stmt 0 view .LVU1035
 3265 0000 4069     		ldr	r0, [r0, #20]
 3266              	.LVL264:
1251:Drivers/STM32L4xx_HAL_Driver/Src/stm32l4xx_ll_usb.c **** 
 3267              		.loc 1 1251 1 view .LVU1036
 3268 0002 00F00100 		and	r0, r0, #1
 3269 0006 7047     		bx	lr
 3270              		.cfi_endproc
 3271              	.LFE165:
 3273              		.section	.text.USB_SetCurrentMode,"ax",%progbits
 3274              		.align	1
 3275              		.global	USB_SetCurrentMode
 3276              		.syntax unified
 3277              		.thumb
 3278              		.thumb_func
 3279              		.fpu fpv4-sp-d16
 3281              	USB_SetCurrentMode:
 3282              	.LVL265:
 3283              	.LFB138:
 221:Drivers/STM32L4xx_HAL_Driver/Src/stm32l4xx_ll_usb.c ****   uint32_t ms = 0U;
 3284              		.loc 1 221 1 is_stmt 1 view -0
 3285              		.cfi_startproc
 3286              		@ args = 0, pretend = 0, frame = 0
 3287              		@ frame_needed = 0, uses_anonymous_args = 0
 221:Drivers/STM32L4xx_HAL_Driver/Src/stm32l4xx_ll_usb.c ****   uint32_t ms = 0U;
 3288              		.loc 1 221 1 is_stmt 0 view .LVU1038
 3289 0000 38B5     		push	{r3, r4, r5, lr}
 3290              	.LCFI46:
 3291              		.cfi_def_cfa_offset 16
 3292              		.cfi_offset 3, -16
 3293              		.cfi_offset 4, -12
 3294              		.cfi_offset 5, -8
 3295              		.cfi_offset 14, -4
 3296 0002 0546     		mov	r5, r0
 222:Drivers/STM32L4xx_HAL_Driver/Src/stm32l4xx_ll_usb.c **** 
 3297              		.loc 1 222 3 is_stmt 1 view .LVU1039
 3298              	.LVL266:
 224:Drivers/STM32L4xx_HAL_Driver/Src/stm32l4xx_ll_usb.c **** 
 3299              		.loc 1 224 3 view .LVU1040
 224:Drivers/STM32L4xx_HAL_Driver/Src/stm32l4xx_ll_usb.c **** 
 3300              		.loc 1 224 17 is_stmt 0 view .LVU1041
 3301 0004 C368     		ldr	r3, [r0, #12]
 3302 0006 23F0C043 		bic	r3, r3, #1610612736
 3303 000a C360     		str	r3, [r0, #12]
 226:Drivers/STM32L4xx_HAL_Driver/Src/stm32l4xx_ll_usb.c ****   {
 3304              		.loc 1 226 3 is_stmt 1 view .LVU1042
ARM GAS  /tmp/ccS8Yg0I.s 			page 99


 226:Drivers/STM32L4xx_HAL_Driver/Src/stm32l4xx_ll_usb.c ****   {
 3305              		.loc 1 226 6 is_stmt 0 view .LVU1043
 3306 000c 0129     		cmp	r1, #1
 3307 000e 13D0     		beq	.L206
 236:Drivers/STM32L4xx_HAL_Driver/Src/stm32l4xx_ll_usb.c ****   {
 3308              		.loc 1 236 8 is_stmt 1 view .LVU1044
 236:Drivers/STM32L4xx_HAL_Driver/Src/stm32l4xx_ll_usb.c ****   {
 3309              		.loc 1 236 11 is_stmt 0 view .LVU1045
 3310 0010 19BB     		cbnz	r1, .L203
 238:Drivers/STM32L4xx_HAL_Driver/Src/stm32l4xx_ll_usb.c **** 
 3311              		.loc 1 238 5 is_stmt 1 view .LVU1046
 238:Drivers/STM32L4xx_HAL_Driver/Src/stm32l4xx_ll_usb.c **** 
 3312              		.loc 1 238 19 is_stmt 0 view .LVU1047
 3313 0012 C368     		ldr	r3, [r0, #12]
 3314 0014 43F08043 		orr	r3, r3, #1073741824
 3315 0018 C360     		str	r3, [r0, #12]
 222:Drivers/STM32L4xx_HAL_Driver/Src/stm32l4xx_ll_usb.c **** 
 3316              		.loc 1 222 12 view .LVU1048
 3317 001a 0024     		movs	r4, #0
 3318              	.LVL267:
 3319              	.L202:
 240:Drivers/STM32L4xx_HAL_Driver/Src/stm32l4xx_ll_usb.c ****     {
 3320              		.loc 1 240 5 is_stmt 1 discriminator 2 view .LVU1049
 242:Drivers/STM32L4xx_HAL_Driver/Src/stm32l4xx_ll_usb.c ****       ms++;
 3321              		.loc 1 242 7 discriminator 2 view .LVU1050
 3322 001c 0120     		movs	r0, #1
 3323 001e FFF7FEFF 		bl	HAL_Delay
 3324              	.LVL268:
 243:Drivers/STM32L4xx_HAL_Driver/Src/stm32l4xx_ll_usb.c ****     } while ((USB_GetMode(USBx) != (uint32_t)USB_DEVICE_MODE) && (ms < 50U));
 3325              		.loc 1 243 7 discriminator 2 view .LVU1051
 243:Drivers/STM32L4xx_HAL_Driver/Src/stm32l4xx_ll_usb.c ****     } while ((USB_GetMode(USBx) != (uint32_t)USB_DEVICE_MODE) && (ms < 50U));
 3326              		.loc 1 243 9 is_stmt 0 discriminator 2 view .LVU1052
 3327 0022 0134     		adds	r4, r4, #1
 3328              	.LVL269:
 244:Drivers/STM32L4xx_HAL_Driver/Src/stm32l4xx_ll_usb.c ****   }
 3329              		.loc 1 244 13 is_stmt 1 discriminator 2 view .LVU1053
 244:Drivers/STM32L4xx_HAL_Driver/Src/stm32l4xx_ll_usb.c ****   }
 3330              		.loc 1 244 15 is_stmt 0 discriminator 2 view .LVU1054
 3331 0024 2846     		mov	r0, r5
 3332 0026 FFF7FEFF 		bl	USB_GetMode
 3333              	.LVL270:
 244:Drivers/STM32L4xx_HAL_Driver/Src/stm32l4xx_ll_usb.c ****   }
 3334              		.loc 1 244 5 discriminator 2 view .LVU1055
 3335 002a 08B1     		cbz	r0, .L199
 244:Drivers/STM32L4xx_HAL_Driver/Src/stm32l4xx_ll_usb.c ****   }
 3336              		.loc 1 244 63 discriminator 1 view .LVU1056
 3337 002c 312C     		cmp	r4, #49
 3338 002e F5D9     		bls	.L202
 3339              	.L199:
 251:Drivers/STM32L4xx_HAL_Driver/Src/stm32l4xx_ll_usb.c ****   {
 3340              		.loc 1 251 3 is_stmt 1 view .LVU1057
 251:Drivers/STM32L4xx_HAL_Driver/Src/stm32l4xx_ll_usb.c ****   {
 3341              		.loc 1 251 6 is_stmt 0 view .LVU1058
 3342 0030 322C     		cmp	r4, #50
 3343 0032 14D0     		beq	.L204
 256:Drivers/STM32L4xx_HAL_Driver/Src/stm32l4xx_ll_usb.c **** }
 3344              		.loc 1 256 10 view .LVU1059
ARM GAS  /tmp/ccS8Yg0I.s 			page 100


 3345 0034 0020     		movs	r0, #0
 3346              	.LVL271:
 3347              	.L201:
 257:Drivers/STM32L4xx_HAL_Driver/Src/stm32l4xx_ll_usb.c **** 
 3348              		.loc 1 257 1 view .LVU1060
 3349 0036 38BD     		pop	{r3, r4, r5, pc}
 3350              	.LVL272:
 3351              	.L206:
 228:Drivers/STM32L4xx_HAL_Driver/Src/stm32l4xx_ll_usb.c **** 
 3352              		.loc 1 228 5 is_stmt 1 view .LVU1061
 228:Drivers/STM32L4xx_HAL_Driver/Src/stm32l4xx_ll_usb.c **** 
 3353              		.loc 1 228 19 is_stmt 0 view .LVU1062
 3354 0038 C368     		ldr	r3, [r0, #12]
 3355 003a 43F00053 		orr	r3, r3, #536870912
 3356 003e C360     		str	r3, [r0, #12]
 222:Drivers/STM32L4xx_HAL_Driver/Src/stm32l4xx_ll_usb.c **** 
 3357              		.loc 1 222 12 view .LVU1063
 3358 0040 0024     		movs	r4, #0
 3359              	.LVL273:
 3360              	.L200:
 230:Drivers/STM32L4xx_HAL_Driver/Src/stm32l4xx_ll_usb.c ****     {
 3361              		.loc 1 230 5 is_stmt 1 discriminator 2 view .LVU1064
 232:Drivers/STM32L4xx_HAL_Driver/Src/stm32l4xx_ll_usb.c ****       ms++;
 3362              		.loc 1 232 7 discriminator 2 view .LVU1065
 3363 0042 0120     		movs	r0, #1
 3364 0044 FFF7FEFF 		bl	HAL_Delay
 3365              	.LVL274:
 233:Drivers/STM32L4xx_HAL_Driver/Src/stm32l4xx_ll_usb.c ****     } while ((USB_GetMode(USBx) != (uint32_t)USB_HOST_MODE) && (ms < 50U));
 3366              		.loc 1 233 7 discriminator 2 view .LVU1066
 233:Drivers/STM32L4xx_HAL_Driver/Src/stm32l4xx_ll_usb.c ****     } while ((USB_GetMode(USBx) != (uint32_t)USB_HOST_MODE) && (ms < 50U));
 3367              		.loc 1 233 9 is_stmt 0 discriminator 2 view .LVU1067
 3368 0048 0134     		adds	r4, r4, #1
 3369              	.LVL275:
 234:Drivers/STM32L4xx_HAL_Driver/Src/stm32l4xx_ll_usb.c ****   }
 3370              		.loc 1 234 13 is_stmt 1 discriminator 2 view .LVU1068
 234:Drivers/STM32L4xx_HAL_Driver/Src/stm32l4xx_ll_usb.c ****   }
 3371              		.loc 1 234 15 is_stmt 0 discriminator 2 view .LVU1069
 3372 004a 2846     		mov	r0, r5
 3373 004c FFF7FEFF 		bl	USB_GetMode
 3374              	.LVL276:
 234:Drivers/STM32L4xx_HAL_Driver/Src/stm32l4xx_ll_usb.c ****   }
 3375              		.loc 1 234 5 discriminator 2 view .LVU1070
 3376 0050 0128     		cmp	r0, #1
 3377 0052 EDD0     		beq	.L199
 234:Drivers/STM32L4xx_HAL_Driver/Src/stm32l4xx_ll_usb.c ****   }
 3378              		.loc 1 234 61 discriminator 1 view .LVU1071
 3379 0054 312C     		cmp	r4, #49
 3380 0056 F4D9     		bls	.L200
 3381 0058 EAE7     		b	.L199
 3382              	.LVL277:
 3383              	.L203:
 248:Drivers/STM32L4xx_HAL_Driver/Src/stm32l4xx_ll_usb.c ****   }
 3384              		.loc 1 248 12 view .LVU1072
 3385 005a 0120     		movs	r0, #1
 3386              	.LVL278:
 248:Drivers/STM32L4xx_HAL_Driver/Src/stm32l4xx_ll_usb.c ****   }
 3387              		.loc 1 248 12 view .LVU1073
ARM GAS  /tmp/ccS8Yg0I.s 			page 101


 3388 005c EBE7     		b	.L201
 3389              	.LVL279:
 3390              	.L204:
 253:Drivers/STM32L4xx_HAL_Driver/Src/stm32l4xx_ll_usb.c ****   }
 3391              		.loc 1 253 12 view .LVU1074
 3392 005e 0120     		movs	r0, #1
 3393 0060 E9E7     		b	.L201
 3394              		.cfi_endproc
 3395              	.LFE138:
 3397              		.section	.text.USB_ActivateSetup,"ax",%progbits
 3398              		.align	1
 3399              		.global	USB_ActivateSetup
 3400              		.syntax unified
 3401              		.thumb
 3402              		.thumb_func
 3403              		.fpu fpv4-sp-d16
 3405              	USB_ActivateSetup:
 3406              	.LVL280:
 3407              	.LFB166:
1259:Drivers/STM32L4xx_HAL_Driver/Src/stm32l4xx_ll_usb.c ****   uint32_t USBx_BASE = (uint32_t)USBx;
 3408              		.loc 1 1259 1 is_stmt 1 view -0
 3409              		.cfi_startproc
 3410              		@ args = 0, pretend = 0, frame = 0
 3411              		@ frame_needed = 0, uses_anonymous_args = 0
 3412              		@ link register save eliminated.
1260:Drivers/STM32L4xx_HAL_Driver/Src/stm32l4xx_ll_usb.c **** 
 3413              		.loc 1 1260 3 view .LVU1076
1263:Drivers/STM32L4xx_HAL_Driver/Src/stm32l4xx_ll_usb.c **** 
 3414              		.loc 1 1263 3 view .LVU1077
1263:Drivers/STM32L4xx_HAL_Driver/Src/stm32l4xx_ll_usb.c **** 
 3415              		.loc 1 1263 26 is_stmt 0 view .LVU1078
 3416 0000 D0F80039 		ldr	r3, [r0, #2304]
 3417 0004 23F4FF63 		bic	r3, r3, #2040
 3418 0008 23F00703 		bic	r3, r3, #7
 3419 000c C0F80039 		str	r3, [r0, #2304]
1265:Drivers/STM32L4xx_HAL_Driver/Src/stm32l4xx_ll_usb.c **** 
 3420              		.loc 1 1265 3 is_stmt 1 view .LVU1079
1265:Drivers/STM32L4xx_HAL_Driver/Src/stm32l4xx_ll_usb.c **** 
 3421              		.loc 1 1265 21 is_stmt 0 view .LVU1080
 3422 0010 D0F80438 		ldr	r3, [r0, #2052]
 3423 0014 43F48073 		orr	r3, r3, #256
 3424 0018 C0F80438 		str	r3, [r0, #2052]
1267:Drivers/STM32L4xx_HAL_Driver/Src/stm32l4xx_ll_usb.c **** }
 3425              		.loc 1 1267 3 is_stmt 1 view .LVU1081
1268:Drivers/STM32L4xx_HAL_Driver/Src/stm32l4xx_ll_usb.c **** 
 3426              		.loc 1 1268 1 is_stmt 0 view .LVU1082
 3427 001c 0020     		movs	r0, #0
 3428              	.LVL281:
1268:Drivers/STM32L4xx_HAL_Driver/Src/stm32l4xx_ll_usb.c **** 
 3429              		.loc 1 1268 1 view .LVU1083
 3430 001e 7047     		bx	lr
 3431              		.cfi_endproc
 3432              	.LFE166:
 3434              		.section	.text.USB_EP0_OutStart,"ax",%progbits
 3435              		.align	1
 3436              		.global	USB_EP0_OutStart
 3437              		.syntax unified
ARM GAS  /tmp/ccS8Yg0I.s 			page 102


 3438              		.thumb
 3439              		.thumb_func
 3440              		.fpu fpv4-sp-d16
 3442              	USB_EP0_OutStart:
 3443              	.LVL282:
 3444              	.LFB167:
1277:Drivers/STM32L4xx_HAL_Driver/Src/stm32l4xx_ll_usb.c ****   uint32_t USBx_BASE = (uint32_t)USBx;
 3445              		.loc 1 1277 1 is_stmt 1 view -0
 3446              		.cfi_startproc
 3447              		@ args = 0, pretend = 0, frame = 0
 3448              		@ frame_needed = 0, uses_anonymous_args = 0
 3449              		@ link register save eliminated.
1278:Drivers/STM32L4xx_HAL_Driver/Src/stm32l4xx_ll_usb.c ****   uint32_t gSNPSiD = *(__IO uint32_t *)(&USBx->CID + 0x1U);
 3450              		.loc 1 1278 3 view .LVU1085
1279:Drivers/STM32L4xx_HAL_Driver/Src/stm32l4xx_ll_usb.c ****   UNUSED(psetup);
 3451              		.loc 1 1279 3 view .LVU1086
1279:Drivers/STM32L4xx_HAL_Driver/Src/stm32l4xx_ll_usb.c ****   UNUSED(psetup);
 3452              		.loc 1 1279 12 is_stmt 0 view .LVU1087
 3453 0000 026C     		ldr	r2, [r0, #64]
 3454              	.LVL283:
1280:Drivers/STM32L4xx_HAL_Driver/Src/stm32l4xx_ll_usb.c **** 
 3455              		.loc 1 1280 3 is_stmt 1 view .LVU1088
1282:Drivers/STM32L4xx_HAL_Driver/Src/stm32l4xx_ll_usb.c ****   {
 3456              		.loc 1 1282 3 view .LVU1089
1282:Drivers/STM32L4xx_HAL_Driver/Src/stm32l4xx_ll_usb.c ****   {
 3457              		.loc 1 1282 6 is_stmt 0 view .LVU1090
 3458 0002 0F4B     		ldr	r3, .L211
 3459 0004 9A42     		cmp	r2, r3
 3460 0006 03D9     		bls	.L209
1284:Drivers/STM32L4xx_HAL_Driver/Src/stm32l4xx_ll_usb.c ****     {
 3461              		.loc 1 1284 5 is_stmt 1 view .LVU1091
1284:Drivers/STM32L4xx_HAL_Driver/Src/stm32l4xx_ll_usb.c ****     {
 3462              		.loc 1 1284 24 is_stmt 0 view .LVU1092
 3463 0008 D0F8003B 		ldr	r3, [r0, #2816]
1284:Drivers/STM32L4xx_HAL_Driver/Src/stm32l4xx_ll_usb.c ****     {
 3464              		.loc 1 1284 8 view .LVU1093
 3465 000c 002B     		cmp	r3, #0
 3466 000e 14DB     		blt	.L210
 3467              	.L209:
1290:Drivers/STM32L4xx_HAL_Driver/Src/stm32l4xx_ll_usb.c ****   USBx_OUTEP(0U)->DOEPTSIZ |= (USB_OTG_DOEPTSIZ_PKTCNT & (1U << 19));
 3468              		.loc 1 1290 3 is_stmt 1 view .LVU1094
1290:Drivers/STM32L4xx_HAL_Driver/Src/stm32l4xx_ll_usb.c ****   USBx_OUTEP(0U)->DOEPTSIZ |= (USB_OTG_DOEPTSIZ_PKTCNT & (1U << 19));
 3469              		.loc 1 1290 28 is_stmt 0 view .LVU1095
 3470 0010 0023     		movs	r3, #0
 3471 0012 C0F8103B 		str	r3, [r0, #2832]
1291:Drivers/STM32L4xx_HAL_Driver/Src/stm32l4xx_ll_usb.c ****   USBx_OUTEP(0U)->DOEPTSIZ |= (3U * 8U);
 3472              		.loc 1 1291 3 is_stmt 1 view .LVU1096
1291:Drivers/STM32L4xx_HAL_Driver/Src/stm32l4xx_ll_usb.c ****   USBx_OUTEP(0U)->DOEPTSIZ |= (3U * 8U);
 3473              		.loc 1 1291 28 is_stmt 0 view .LVU1097
 3474 0016 D0F8103B 		ldr	r3, [r0, #2832]
 3475 001a 43F40023 		orr	r3, r3, #524288
 3476 001e C0F8103B 		str	r3, [r0, #2832]
1292:Drivers/STM32L4xx_HAL_Driver/Src/stm32l4xx_ll_usb.c ****   USBx_OUTEP(0U)->DOEPTSIZ |=  USB_OTG_DOEPTSIZ_STUPCNT;
 3477              		.loc 1 1292 3 is_stmt 1 view .LVU1098
1292:Drivers/STM32L4xx_HAL_Driver/Src/stm32l4xx_ll_usb.c ****   USBx_OUTEP(0U)->DOEPTSIZ |=  USB_OTG_DOEPTSIZ_STUPCNT;
 3478              		.loc 1 1292 28 is_stmt 0 view .LVU1099
 3479 0022 D0F8103B 		ldr	r3, [r0, #2832]
ARM GAS  /tmp/ccS8Yg0I.s 			page 103


 3480 0026 43F01803 		orr	r3, r3, #24
 3481 002a C0F8103B 		str	r3, [r0, #2832]
1293:Drivers/STM32L4xx_HAL_Driver/Src/stm32l4xx_ll_usb.c **** 
 3482              		.loc 1 1293 3 is_stmt 1 view .LVU1100
1293:Drivers/STM32L4xx_HAL_Driver/Src/stm32l4xx_ll_usb.c **** 
 3483              		.loc 1 1293 28 is_stmt 0 view .LVU1101
 3484 002e D0F8103B 		ldr	r3, [r0, #2832]
 3485 0032 43F0C043 		orr	r3, r3, #1610612736
 3486 0036 C0F8103B 		str	r3, [r0, #2832]
1295:Drivers/STM32L4xx_HAL_Driver/Src/stm32l4xx_ll_usb.c **** }
 3487              		.loc 1 1295 3 is_stmt 1 view .LVU1102
 3488              	.L210:
1296:Drivers/STM32L4xx_HAL_Driver/Src/stm32l4xx_ll_usb.c **** 
 3489              		.loc 1 1296 1 is_stmt 0 view .LVU1103
 3490 003a 0020     		movs	r0, #0
 3491              	.LVL284:
1296:Drivers/STM32L4xx_HAL_Driver/Src/stm32l4xx_ll_usb.c **** 
 3492              		.loc 1 1296 1 view .LVU1104
 3493 003c 7047     		bx	lr
 3494              	.L212:
 3495 003e 00BF     		.align	2
 3496              	.L211:
 3497 0040 0A30544F 		.word	1330917386
 3498              		.cfi_endproc
 3499              	.LFE167:
 3501              		.section	.text.USB_HostInit,"ax",%progbits
 3502              		.align	1
 3503              		.global	USB_HostInit
 3504              		.syntax unified
 3505              		.thumb
 3506              		.thumb_func
 3507              		.fpu fpv4-sp-d16
 3509              	USB_HostInit:
 3510              	.LVL285:
 3511              	.LFB169:
1334:Drivers/STM32L4xx_HAL_Driver/Src/stm32l4xx_ll_usb.c **** 
1335:Drivers/STM32L4xx_HAL_Driver/Src/stm32l4xx_ll_usb.c **** /**
1336:Drivers/STM32L4xx_HAL_Driver/Src/stm32l4xx_ll_usb.c ****   * @brief  USB_HostInit : Initializes the USB OTG controller registers
1337:Drivers/STM32L4xx_HAL_Driver/Src/stm32l4xx_ll_usb.c ****   *         for Host mode
1338:Drivers/STM32L4xx_HAL_Driver/Src/stm32l4xx_ll_usb.c ****   * @param  USBx  Selected device
1339:Drivers/STM32L4xx_HAL_Driver/Src/stm32l4xx_ll_usb.c ****   * @param  cfg   pointer to a USB_OTG_CfgTypeDef structure that contains
1340:Drivers/STM32L4xx_HAL_Driver/Src/stm32l4xx_ll_usb.c ****   *         the configuration information for the specified USBx peripheral.
1341:Drivers/STM32L4xx_HAL_Driver/Src/stm32l4xx_ll_usb.c ****   * @retval HAL status
1342:Drivers/STM32L4xx_HAL_Driver/Src/stm32l4xx_ll_usb.c ****   */
1343:Drivers/STM32L4xx_HAL_Driver/Src/stm32l4xx_ll_usb.c **** HAL_StatusTypeDef USB_HostInit(USB_OTG_GlobalTypeDef *USBx, USB_OTG_CfgTypeDef cfg)
1344:Drivers/STM32L4xx_HAL_Driver/Src/stm32l4xx_ll_usb.c **** {
 3512              		.loc 1 1344 1 is_stmt 1 view -0
 3513              		.cfi_startproc
 3514              		@ args = 56, pretend = 16, frame = 0
 3515              		@ frame_needed = 0, uses_anonymous_args = 0
 3516              		.loc 1 1344 1 is_stmt 0 view .LVU1106
 3517 0000 84B0     		sub	sp, sp, #16
 3518              	.LCFI47:
 3519              		.cfi_def_cfa_offset 16
 3520 0002 70B5     		push	{r4, r5, r6, lr}
 3521              	.LCFI48:
 3522              		.cfi_def_cfa_offset 32
ARM GAS  /tmp/ccS8Yg0I.s 			page 104


 3523              		.cfi_offset 4, -32
 3524              		.cfi_offset 5, -28
 3525              		.cfi_offset 6, -24
 3526              		.cfi_offset 14, -20
 3527 0004 0446     		mov	r4, r0
 3528 0006 05AD     		add	r5, sp, #20
 3529 0008 85E80E00 		stm	r5, {r1, r2, r3}
1345:Drivers/STM32L4xx_HAL_Driver/Src/stm32l4xx_ll_usb.c ****   HAL_StatusTypeDef ret = HAL_OK;
 3530              		.loc 1 1345 3 is_stmt 1 view .LVU1107
 3531              	.LVL286:
1346:Drivers/STM32L4xx_HAL_Driver/Src/stm32l4xx_ll_usb.c ****   uint32_t USBx_BASE = (uint32_t)USBx;
 3532              		.loc 1 1346 3 view .LVU1108
 3533              		.loc 1 1346 12 is_stmt 0 view .LVU1109
 3534 000c 0546     		mov	r5, r0
 3535              	.LVL287:
1347:Drivers/STM32L4xx_HAL_Driver/Src/stm32l4xx_ll_usb.c ****   uint32_t i;
 3536              		.loc 1 1347 3 is_stmt 1 view .LVU1110
1348:Drivers/STM32L4xx_HAL_Driver/Src/stm32l4xx_ll_usb.c **** 
1349:Drivers/STM32L4xx_HAL_Driver/Src/stm32l4xx_ll_usb.c ****   /* Restart the Phy Clock */
1350:Drivers/STM32L4xx_HAL_Driver/Src/stm32l4xx_ll_usb.c ****   USBx_PCGCCTL = 0U;
 3537              		.loc 1 1350 3 view .LVU1111
 3538              		.loc 1 1350 16 is_stmt 0 view .LVU1112
 3539 000e 0023     		movs	r3, #0
 3540 0010 C0F8003E 		str	r3, [r0, #3584]
1351:Drivers/STM32L4xx_HAL_Driver/Src/stm32l4xx_ll_usb.c **** 
1352:Drivers/STM32L4xx_HAL_Driver/Src/stm32l4xx_ll_usb.c ****   /* Disable VBUS sensing */
1353:Drivers/STM32L4xx_HAL_Driver/Src/stm32l4xx_ll_usb.c ****   USBx->GCCFG &= ~(USB_OTG_GCCFG_VBDEN);
 3541              		.loc 1 1353 3 is_stmt 1 view .LVU1113
 3542              		.loc 1 1353 15 is_stmt 0 view .LVU1114
 3543 0014 836B     		ldr	r3, [r0, #56]
 3544 0016 23F40013 		bic	r3, r3, #2097152
 3545 001a 8363     		str	r3, [r0, #56]
1354:Drivers/STM32L4xx_HAL_Driver/Src/stm32l4xx_ll_usb.c **** 
1355:Drivers/STM32L4xx_HAL_Driver/Src/stm32l4xx_ll_usb.c ****   /* Disable Battery chargin detector */
1356:Drivers/STM32L4xx_HAL_Driver/Src/stm32l4xx_ll_usb.c ****   USBx->GCCFG &= ~(USB_OTG_GCCFG_BCDEN);
 3546              		.loc 1 1356 3 is_stmt 1 view .LVU1115
 3547              		.loc 1 1356 15 is_stmt 0 view .LVU1116
 3548 001c 836B     		ldr	r3, [r0, #56]
 3549 001e 23F40033 		bic	r3, r3, #131072
 3550 0022 8363     		str	r3, [r0, #56]
1357:Drivers/STM32L4xx_HAL_Driver/Src/stm32l4xx_ll_usb.c **** 
1358:Drivers/STM32L4xx_HAL_Driver/Src/stm32l4xx_ll_usb.c ****   /* Set default Max speed support */
1359:Drivers/STM32L4xx_HAL_Driver/Src/stm32l4xx_ll_usb.c ****   USBx_HOST->HCFG &= ~(USB_OTG_HCFG_FSLSS);
 3551              		.loc 1 1359 3 is_stmt 1 view .LVU1117
 3552              		.loc 1 1359 19 is_stmt 0 view .LVU1118
 3553 0024 D0F80034 		ldr	r3, [r0, #1024]
 3554 0028 23F00403 		bic	r3, r3, #4
 3555 002c C0F80034 		str	r3, [r0, #1024]
1360:Drivers/STM32L4xx_HAL_Driver/Src/stm32l4xx_ll_usb.c **** 
1361:Drivers/STM32L4xx_HAL_Driver/Src/stm32l4xx_ll_usb.c ****   /* Make sure the FIFOs are flushed. */
1362:Drivers/STM32L4xx_HAL_Driver/Src/stm32l4xx_ll_usb.c ****   if (USB_FlushTxFifo(USBx, 0x10U) != HAL_OK) /* all Tx FIFOs */
 3556              		.loc 1 1362 3 is_stmt 1 view .LVU1119
 3557              		.loc 1 1362 7 is_stmt 0 view .LVU1120
 3558 0030 1021     		movs	r1, #16
 3559 0032 FFF7FEFF 		bl	USB_FlushTxFifo
 3560              	.LVL288:
 3561              		.loc 1 1362 6 view .LVU1121
ARM GAS  /tmp/ccS8Yg0I.s 			page 105


 3562 0036 0646     		mov	r6, r0
 3563 0038 00B1     		cbz	r0, .L214
1363:Drivers/STM32L4xx_HAL_Driver/Src/stm32l4xx_ll_usb.c ****   {
1364:Drivers/STM32L4xx_HAL_Driver/Src/stm32l4xx_ll_usb.c ****     ret = HAL_ERROR;
 3564              		.loc 1 1364 9 view .LVU1122
 3565 003a 0126     		movs	r6, #1
 3566              	.L214:
 3567              	.LVL289:
1365:Drivers/STM32L4xx_HAL_Driver/Src/stm32l4xx_ll_usb.c ****   }
1366:Drivers/STM32L4xx_HAL_Driver/Src/stm32l4xx_ll_usb.c **** 
1367:Drivers/STM32L4xx_HAL_Driver/Src/stm32l4xx_ll_usb.c ****   if (USB_FlushRxFifo(USBx) != HAL_OK)
 3568              		.loc 1 1367 3 is_stmt 1 view .LVU1123
 3569              		.loc 1 1367 7 is_stmt 0 view .LVU1124
 3570 003c 2046     		mov	r0, r4
 3571 003e FFF7FEFF 		bl	USB_FlushRxFifo
 3572              	.LVL290:
 3573              		.loc 1 1367 6 view .LVU1125
 3574 0042 00B1     		cbz	r0, .L215
1368:Drivers/STM32L4xx_HAL_Driver/Src/stm32l4xx_ll_usb.c ****   {
1369:Drivers/STM32L4xx_HAL_Driver/Src/stm32l4xx_ll_usb.c ****     ret = HAL_ERROR;
 3575              		.loc 1 1369 9 view .LVU1126
 3576 0044 0126     		movs	r6, #1
 3577              	.LVL291:
 3578              	.L215:
1370:Drivers/STM32L4xx_HAL_Driver/Src/stm32l4xx_ll_usb.c ****   }
1371:Drivers/STM32L4xx_HAL_Driver/Src/stm32l4xx_ll_usb.c **** 
1372:Drivers/STM32L4xx_HAL_Driver/Src/stm32l4xx_ll_usb.c ****   /* Clear all pending HC Interrupts */
1373:Drivers/STM32L4xx_HAL_Driver/Src/stm32l4xx_ll_usb.c ****   for (i = 0U; i < cfg.Host_channels; i++)
 3579              		.loc 1 1373 3 is_stmt 1 view .LVU1127
 3580              		.loc 1 1373 10 is_stmt 0 view .LVU1128
 3581 0046 0022     		movs	r2, #0
 3582              	.LVL292:
 3583              	.L216:
 3584              		.loc 1 1373 16 is_stmt 1 discriminator 1 view .LVU1129
 3585              		.loc 1 1373 23 is_stmt 0 discriminator 1 view .LVU1130
 3586 0048 069B     		ldr	r3, [sp, #24]
 3587              		.loc 1 1373 3 discriminator 1 view .LVU1131
 3588 004a 9342     		cmp	r3, r2
 3589 004c 0AD9     		bls	.L221
1374:Drivers/STM32L4xx_HAL_Driver/Src/stm32l4xx_ll_usb.c ****   {
1375:Drivers/STM32L4xx_HAL_Driver/Src/stm32l4xx_ll_usb.c ****     USBx_HC(i)->HCINT = 0xFFFFFFFFU;
 3590              		.loc 1 1375 5 is_stmt 1 discriminator 3 view .LVU1132
 3591 004e 05EB4213 		add	r3, r5, r2, lsl #5
 3592              		.loc 1 1375 23 is_stmt 0 discriminator 3 view .LVU1133
 3593 0052 4FF0FF31 		mov	r1, #-1
 3594 0056 C3F80815 		str	r1, [r3, #1288]
1376:Drivers/STM32L4xx_HAL_Driver/Src/stm32l4xx_ll_usb.c ****     USBx_HC(i)->HCINTMSK = 0U;
 3595              		.loc 1 1376 5 is_stmt 1 discriminator 3 view .LVU1134
 3596              		.loc 1 1376 26 is_stmt 0 discriminator 3 view .LVU1135
 3597 005a 0021     		movs	r1, #0
 3598 005c C3F80C15 		str	r1, [r3, #1292]
1373:Drivers/STM32L4xx_HAL_Driver/Src/stm32l4xx_ll_usb.c ****   {
 3599              		.loc 1 1373 39 is_stmt 1 discriminator 3 view .LVU1136
1373:Drivers/STM32L4xx_HAL_Driver/Src/stm32l4xx_ll_usb.c ****   {
 3600              		.loc 1 1373 40 is_stmt 0 discriminator 3 view .LVU1137
 3601 0060 0132     		adds	r2, r2, #1
 3602              	.LVL293:
ARM GAS  /tmp/ccS8Yg0I.s 			page 106


1373:Drivers/STM32L4xx_HAL_Driver/Src/stm32l4xx_ll_usb.c ****   {
 3603              		.loc 1 1373 40 discriminator 3 view .LVU1138
 3604 0062 F1E7     		b	.L216
 3605              	.L221:
1377:Drivers/STM32L4xx_HAL_Driver/Src/stm32l4xx_ll_usb.c ****   }
1378:Drivers/STM32L4xx_HAL_Driver/Src/stm32l4xx_ll_usb.c **** 
1379:Drivers/STM32L4xx_HAL_Driver/Src/stm32l4xx_ll_usb.c ****   /* Disable all interrupts. */
1380:Drivers/STM32L4xx_HAL_Driver/Src/stm32l4xx_ll_usb.c ****   USBx->GINTMSK = 0U;
 3606              		.loc 1 1380 3 is_stmt 1 view .LVU1139
 3607              		.loc 1 1380 17 is_stmt 0 view .LVU1140
 3608 0064 0023     		movs	r3, #0
 3609 0066 A361     		str	r3, [r4, #24]
1381:Drivers/STM32L4xx_HAL_Driver/Src/stm32l4xx_ll_usb.c **** 
1382:Drivers/STM32L4xx_HAL_Driver/Src/stm32l4xx_ll_usb.c ****   /* Clear any pending interrupts */
1383:Drivers/STM32L4xx_HAL_Driver/Src/stm32l4xx_ll_usb.c ****   USBx->GINTSTS = 0xFFFFFFFFU;
 3610              		.loc 1 1383 3 is_stmt 1 view .LVU1141
 3611              		.loc 1 1383 17 is_stmt 0 view .LVU1142
 3612 0068 4FF0FF33 		mov	r3, #-1
 3613 006c 6361     		str	r3, [r4, #20]
1384:Drivers/STM32L4xx_HAL_Driver/Src/stm32l4xx_ll_usb.c **** 
1385:Drivers/STM32L4xx_HAL_Driver/Src/stm32l4xx_ll_usb.c ****   /* set Rx FIFO size */
1386:Drivers/STM32L4xx_HAL_Driver/Src/stm32l4xx_ll_usb.c ****   USBx->GRXFSIZ  = 0x80U;
 3614              		.loc 1 1386 3 is_stmt 1 view .LVU1143
 3615              		.loc 1 1386 18 is_stmt 0 view .LVU1144
 3616 006e 8023     		movs	r3, #128
 3617 0070 6362     		str	r3, [r4, #36]
1387:Drivers/STM32L4xx_HAL_Driver/Src/stm32l4xx_ll_usb.c ****   USBx->DIEPTXF0_HNPTXFSIZ = (uint32_t)(((0x60U << 16) & USB_OTG_NPTXFD) | 0x80U);
 3618              		.loc 1 1387 3 is_stmt 1 view .LVU1145
 3619              		.loc 1 1387 28 is_stmt 0 view .LVU1146
 3620 0072 03F5C003 		add	r3, r3, #6291456
 3621 0076 A362     		str	r3, [r4, #40]
1388:Drivers/STM32L4xx_HAL_Driver/Src/stm32l4xx_ll_usb.c ****   USBx->HPTXFSIZ = (uint32_t)(((0x40U << 16)& USB_OTG_HPTXFSIZ_PTXFD) | 0xE0U);
 3622              		.loc 1 1388 3 is_stmt 1 view .LVU1147
 3623              		.loc 1 1388 18 is_stmt 0 view .LVU1148
 3624 0078 074B     		ldr	r3, .L222
 3625 007a C4F80031 		str	r3, [r4, #256]
1389:Drivers/STM32L4xx_HAL_Driver/Src/stm32l4xx_ll_usb.c ****   /* Enable the common interrupts */
1390:Drivers/STM32L4xx_HAL_Driver/Src/stm32l4xx_ll_usb.c ****   USBx->GINTMSK |= USB_OTG_GINTMSK_RXFLVLM;
 3626              		.loc 1 1390 3 is_stmt 1 view .LVU1149
 3627              		.loc 1 1390 17 is_stmt 0 view .LVU1150
 3628 007e A369     		ldr	r3, [r4, #24]
 3629 0080 43F01003 		orr	r3, r3, #16
 3630 0084 A361     		str	r3, [r4, #24]
1391:Drivers/STM32L4xx_HAL_Driver/Src/stm32l4xx_ll_usb.c **** 
1392:Drivers/STM32L4xx_HAL_Driver/Src/stm32l4xx_ll_usb.c ****   /* Enable interrupts matching to the Host mode ONLY */
1393:Drivers/STM32L4xx_HAL_Driver/Src/stm32l4xx_ll_usb.c ****   USBx->GINTMSK |= (USB_OTG_GINTMSK_PRTIM            | USB_OTG_GINTMSK_HCIM | \
 3631              		.loc 1 1393 3 is_stmt 1 view .LVU1151
 3632              		.loc 1 1393 17 is_stmt 0 view .LVU1152
 3633 0086 A269     		ldr	r2, [r4, #24]
 3634              	.LVL294:
 3635              		.loc 1 1393 17 view .LVU1153
 3636 0088 044B     		ldr	r3, .L222+4
 3637 008a 1343     		orrs	r3, r3, r2
 3638 008c A361     		str	r3, [r4, #24]
1394:Drivers/STM32L4xx_HAL_Driver/Src/stm32l4xx_ll_usb.c ****                     USB_OTG_GINTMSK_SOFM             | USB_OTG_GINTSTS_DISCINT | \
1395:Drivers/STM32L4xx_HAL_Driver/Src/stm32l4xx_ll_usb.c ****                     USB_OTG_GINTMSK_PXFRM_IISOOXFRM  | USB_OTG_GINTMSK_WUIM);
1396:Drivers/STM32L4xx_HAL_Driver/Src/stm32l4xx_ll_usb.c **** 
ARM GAS  /tmp/ccS8Yg0I.s 			page 107


1397:Drivers/STM32L4xx_HAL_Driver/Src/stm32l4xx_ll_usb.c ****   return ret;
 3639              		.loc 1 1397 3 is_stmt 1 view .LVU1154
1398:Drivers/STM32L4xx_HAL_Driver/Src/stm32l4xx_ll_usb.c **** }
 3640              		.loc 1 1398 1 is_stmt 0 view .LVU1155
 3641 008e 3046     		mov	r0, r6
 3642 0090 BDE87040 		pop	{r4, r5, r6, lr}
 3643              	.LCFI49:
 3644              		.cfi_restore 14
 3645              		.cfi_restore 6
 3646              		.cfi_restore 5
 3647              		.cfi_restore 4
 3648              		.cfi_def_cfa_offset 16
 3649              	.LVL295:
 3650              		.loc 1 1398 1 view .LVU1156
 3651 0094 04B0     		add	sp, sp, #16
 3652              	.LCFI50:
 3653              		.cfi_def_cfa_offset 0
 3654 0096 7047     		bx	lr
 3655              	.L223:
 3656              		.align	2
 3657              	.L222:
 3658 0098 E0004000 		.word	4194528
 3659 009c 080020A3 		.word	-1558183928
 3660              		.cfi_endproc
 3661              	.LFE169:
 3663              		.section	.text.USB_InitFSLSPClkSel,"ax",%progbits
 3664              		.align	1
 3665              		.global	USB_InitFSLSPClkSel
 3666              		.syntax unified
 3667              		.thumb
 3668              		.thumb_func
 3669              		.fpu fpv4-sp-d16
 3671              	USB_InitFSLSPClkSel:
 3672              	.LVL296:
 3673              	.LFB170:
1399:Drivers/STM32L4xx_HAL_Driver/Src/stm32l4xx_ll_usb.c **** 
1400:Drivers/STM32L4xx_HAL_Driver/Src/stm32l4xx_ll_usb.c **** /**
1401:Drivers/STM32L4xx_HAL_Driver/Src/stm32l4xx_ll_usb.c ****   * @brief  USB_InitFSLSPClkSel : Initializes the FSLSPClkSel field of the
1402:Drivers/STM32L4xx_HAL_Driver/Src/stm32l4xx_ll_usb.c ****   *         HCFG register on the PHY type and set the right frame interval
1403:Drivers/STM32L4xx_HAL_Driver/Src/stm32l4xx_ll_usb.c ****   * @param  USBx  Selected device
1404:Drivers/STM32L4xx_HAL_Driver/Src/stm32l4xx_ll_usb.c ****   * @param  freq  clock frequency
1405:Drivers/STM32L4xx_HAL_Driver/Src/stm32l4xx_ll_usb.c ****   *          This parameter can be one of these values:
1406:Drivers/STM32L4xx_HAL_Driver/Src/stm32l4xx_ll_usb.c ****   *           HCFG_48_MHZ : Full Speed 48 MHz Clock
1407:Drivers/STM32L4xx_HAL_Driver/Src/stm32l4xx_ll_usb.c ****   *           HCFG_6_MHZ : Low Speed 6 MHz Clock
1408:Drivers/STM32L4xx_HAL_Driver/Src/stm32l4xx_ll_usb.c ****   * @retval HAL status
1409:Drivers/STM32L4xx_HAL_Driver/Src/stm32l4xx_ll_usb.c ****   */
1410:Drivers/STM32L4xx_HAL_Driver/Src/stm32l4xx_ll_usb.c **** HAL_StatusTypeDef USB_InitFSLSPClkSel(USB_OTG_GlobalTypeDef *USBx, uint8_t freq)
1411:Drivers/STM32L4xx_HAL_Driver/Src/stm32l4xx_ll_usb.c **** {
 3674              		.loc 1 1411 1 is_stmt 1 view -0
 3675              		.cfi_startproc
 3676              		@ args = 0, pretend = 0, frame = 0
 3677              		@ frame_needed = 0, uses_anonymous_args = 0
 3678              		@ link register save eliminated.
 3679              		.loc 1 1411 1 is_stmt 0 view .LVU1158
 3680 0000 10B4     		push	{r4}
 3681              	.LCFI51:
 3682              		.cfi_def_cfa_offset 4
ARM GAS  /tmp/ccS8Yg0I.s 			page 108


 3683              		.cfi_offset 4, -4
1412:Drivers/STM32L4xx_HAL_Driver/Src/stm32l4xx_ll_usb.c ****   uint32_t USBx_BASE = (uint32_t)USBx;
 3684              		.loc 1 1412 3 is_stmt 1 view .LVU1159
 3685              	.LVL297:
1413:Drivers/STM32L4xx_HAL_Driver/Src/stm32l4xx_ll_usb.c **** 
1414:Drivers/STM32L4xx_HAL_Driver/Src/stm32l4xx_ll_usb.c ****   USBx_HOST->HCFG &= ~(USB_OTG_HCFG_FSLSPCS);
 3686              		.loc 1 1414 3 view .LVU1160
 3687              		.loc 1 1414 19 is_stmt 0 view .LVU1161
 3688 0002 00F58064 		add	r4, r0, #1024
 3689 0006 D0F80034 		ldr	r3, [r0, #1024]
 3690 000a 23F00303 		bic	r3, r3, #3
 3691 000e C0F80034 		str	r3, [r0, #1024]
1415:Drivers/STM32L4xx_HAL_Driver/Src/stm32l4xx_ll_usb.c ****   USBx_HOST->HCFG |= (uint32_t)freq & USB_OTG_HCFG_FSLSPCS;
 3692              		.loc 1 1415 3 is_stmt 1 view .LVU1162
 3693              		.loc 1 1415 19 is_stmt 0 view .LVU1163
 3694 0012 D0F80034 		ldr	r3, [r0, #1024]
 3695              		.loc 1 1415 37 view .LVU1164
 3696 0016 01F00302 		and	r2, r1, #3
 3697              		.loc 1 1415 19 view .LVU1165
 3698 001a 1343     		orrs	r3, r3, r2
 3699 001c C0F80034 		str	r3, [r0, #1024]
1416:Drivers/STM32L4xx_HAL_Driver/Src/stm32l4xx_ll_usb.c **** 
1417:Drivers/STM32L4xx_HAL_Driver/Src/stm32l4xx_ll_usb.c ****   if (freq == HCFG_48_MHZ)
 3700              		.loc 1 1417 3 is_stmt 1 view .LVU1166
 3701              		.loc 1 1417 6 is_stmt 0 view .LVU1167
 3702 0020 0129     		cmp	r1, #1
 3703 0022 05D0     		beq	.L228
1418:Drivers/STM32L4xx_HAL_Driver/Src/stm32l4xx_ll_usb.c ****   {
1419:Drivers/STM32L4xx_HAL_Driver/Src/stm32l4xx_ll_usb.c ****     USBx_HOST->HFIR = 48000U;
1420:Drivers/STM32L4xx_HAL_Driver/Src/stm32l4xx_ll_usb.c ****   }
1421:Drivers/STM32L4xx_HAL_Driver/Src/stm32l4xx_ll_usb.c ****   else if (freq == HCFG_6_MHZ)
 3704              		.loc 1 1421 8 is_stmt 1 view .LVU1168
 3705              		.loc 1 1421 11 is_stmt 0 view .LVU1169
 3706 0024 0229     		cmp	r1, #2
 3707 0026 07D0     		beq	.L229
 3708              	.L226:
1422:Drivers/STM32L4xx_HAL_Driver/Src/stm32l4xx_ll_usb.c ****   {
1423:Drivers/STM32L4xx_HAL_Driver/Src/stm32l4xx_ll_usb.c ****     USBx_HOST->HFIR = 6000U;
1424:Drivers/STM32L4xx_HAL_Driver/Src/stm32l4xx_ll_usb.c ****   }
1425:Drivers/STM32L4xx_HAL_Driver/Src/stm32l4xx_ll_usb.c ****   else
1426:Drivers/STM32L4xx_HAL_Driver/Src/stm32l4xx_ll_usb.c ****   {
1427:Drivers/STM32L4xx_HAL_Driver/Src/stm32l4xx_ll_usb.c ****     /* ... */
1428:Drivers/STM32L4xx_HAL_Driver/Src/stm32l4xx_ll_usb.c ****   }
 3709              		.loc 1 1428 3 is_stmt 1 view .LVU1170
1429:Drivers/STM32L4xx_HAL_Driver/Src/stm32l4xx_ll_usb.c **** 
1430:Drivers/STM32L4xx_HAL_Driver/Src/stm32l4xx_ll_usb.c ****   return HAL_OK;
 3710              		.loc 1 1430 3 view .LVU1171
1431:Drivers/STM32L4xx_HAL_Driver/Src/stm32l4xx_ll_usb.c **** }
 3711              		.loc 1 1431 1 is_stmt 0 view .LVU1172
 3712 0028 0020     		movs	r0, #0
 3713              	.LVL298:
 3714              		.loc 1 1431 1 view .LVU1173
 3715 002a 5DF8044B 		ldr	r4, [sp], #4
 3716              	.LCFI52:
 3717              		.cfi_remember_state
 3718              		.cfi_restore 4
 3719              		.cfi_def_cfa_offset 0
ARM GAS  /tmp/ccS8Yg0I.s 			page 109


 3720              	.LVL299:
 3721              		.loc 1 1431 1 view .LVU1174
 3722 002e 7047     		bx	lr
 3723              	.LVL300:
 3724              	.L228:
 3725              	.LCFI53:
 3726              		.cfi_restore_state
1419:Drivers/STM32L4xx_HAL_Driver/Src/stm32l4xx_ll_usb.c ****   }
 3727              		.loc 1 1419 5 is_stmt 1 view .LVU1175
1419:Drivers/STM32L4xx_HAL_Driver/Src/stm32l4xx_ll_usb.c ****   }
 3728              		.loc 1 1419 21 is_stmt 0 view .LVU1176
 3729 0030 4BF68033 		movw	r3, #48000
 3730 0034 6360     		str	r3, [r4, #4]
 3731 0036 F7E7     		b	.L226
 3732              	.L229:
1423:Drivers/STM32L4xx_HAL_Driver/Src/stm32l4xx_ll_usb.c ****   }
 3733              		.loc 1 1423 5 is_stmt 1 view .LVU1177
1423:Drivers/STM32L4xx_HAL_Driver/Src/stm32l4xx_ll_usb.c ****   }
 3734              		.loc 1 1423 21 is_stmt 0 view .LVU1178
 3735 0038 41F27073 		movw	r3, #6000
 3736 003c 6360     		str	r3, [r4, #4]
 3737 003e F3E7     		b	.L226
 3738              		.cfi_endproc
 3739              	.LFE170:
 3741              		.section	.text.USB_ResetPort,"ax",%progbits
 3742              		.align	1
 3743              		.global	USB_ResetPort
 3744              		.syntax unified
 3745              		.thumb
 3746              		.thumb_func
 3747              		.fpu fpv4-sp-d16
 3749              	USB_ResetPort:
 3750              	.LVL301:
 3751              	.LFB171:
1432:Drivers/STM32L4xx_HAL_Driver/Src/stm32l4xx_ll_usb.c **** 
1433:Drivers/STM32L4xx_HAL_Driver/Src/stm32l4xx_ll_usb.c **** /**
1434:Drivers/STM32L4xx_HAL_Driver/Src/stm32l4xx_ll_usb.c ****   * @brief  USB_OTG_ResetPort : Reset Host Port
1435:Drivers/STM32L4xx_HAL_Driver/Src/stm32l4xx_ll_usb.c ****   * @param  USBx  Selected device
1436:Drivers/STM32L4xx_HAL_Driver/Src/stm32l4xx_ll_usb.c ****   * @retval HAL status
1437:Drivers/STM32L4xx_HAL_Driver/Src/stm32l4xx_ll_usb.c ****   * @note (1)The application must wait at least 10 ms
1438:Drivers/STM32L4xx_HAL_Driver/Src/stm32l4xx_ll_usb.c ****   *   before clearing the reset bit.
1439:Drivers/STM32L4xx_HAL_Driver/Src/stm32l4xx_ll_usb.c ****   */
1440:Drivers/STM32L4xx_HAL_Driver/Src/stm32l4xx_ll_usb.c **** HAL_StatusTypeDef USB_ResetPort(USB_OTG_GlobalTypeDef *USBx)
1441:Drivers/STM32L4xx_HAL_Driver/Src/stm32l4xx_ll_usb.c **** {
 3752              		.loc 1 1441 1 is_stmt 1 view -0
 3753              		.cfi_startproc
 3754              		@ args = 0, pretend = 0, frame = 8
 3755              		@ frame_needed = 0, uses_anonymous_args = 0
 3756              		.loc 1 1441 1 is_stmt 0 view .LVU1180
 3757 0000 30B5     		push	{r4, r5, lr}
 3758              	.LCFI54:
 3759              		.cfi_def_cfa_offset 12
 3760              		.cfi_offset 4, -12
 3761              		.cfi_offset 5, -8
 3762              		.cfi_offset 14, -4
 3763 0002 83B0     		sub	sp, sp, #12
 3764              	.LCFI55:
ARM GAS  /tmp/ccS8Yg0I.s 			page 110


 3765              		.cfi_def_cfa_offset 24
 3766 0004 0446     		mov	r4, r0
1442:Drivers/STM32L4xx_HAL_Driver/Src/stm32l4xx_ll_usb.c ****   uint32_t USBx_BASE = (uint32_t)USBx;
 3767              		.loc 1 1442 3 is_stmt 1 view .LVU1181
 3768              	.LVL302:
1443:Drivers/STM32L4xx_HAL_Driver/Src/stm32l4xx_ll_usb.c **** 
1444:Drivers/STM32L4xx_HAL_Driver/Src/stm32l4xx_ll_usb.c ****   __IO uint32_t hprt0 = 0U;
 3769              		.loc 1 1444 3 view .LVU1182
 3770              		.loc 1 1444 17 is_stmt 0 view .LVU1183
 3771 0006 0025     		movs	r5, #0
 3772 0008 0195     		str	r5, [sp, #4]
1445:Drivers/STM32L4xx_HAL_Driver/Src/stm32l4xx_ll_usb.c **** 
1446:Drivers/STM32L4xx_HAL_Driver/Src/stm32l4xx_ll_usb.c ****   hprt0 = USBx_HPRT0;
 3773              		.loc 1 1446 3 is_stmt 1 view .LVU1184
 3774              		.loc 1 1446 11 is_stmt 0 view .LVU1185
 3775 000a D0F84034 		ldr	r3, [r0, #1088]
 3776              		.loc 1 1446 9 view .LVU1186
 3777 000e 0193     		str	r3, [sp, #4]
1447:Drivers/STM32L4xx_HAL_Driver/Src/stm32l4xx_ll_usb.c **** 
1448:Drivers/STM32L4xx_HAL_Driver/Src/stm32l4xx_ll_usb.c ****   hprt0 &= ~(USB_OTG_HPRT_PENA | USB_OTG_HPRT_PCDET |
 3778              		.loc 1 1448 3 is_stmt 1 view .LVU1187
 3779              		.loc 1 1448 9 is_stmt 0 view .LVU1188
 3780 0010 019B     		ldr	r3, [sp, #4]
 3781 0012 23F02E03 		bic	r3, r3, #46
 3782 0016 0193     		str	r3, [sp, #4]
1449:Drivers/STM32L4xx_HAL_Driver/Src/stm32l4xx_ll_usb.c ****              USB_OTG_HPRT_PENCHNG | USB_OTG_HPRT_POCCHNG);
1450:Drivers/STM32L4xx_HAL_Driver/Src/stm32l4xx_ll_usb.c **** 
1451:Drivers/STM32L4xx_HAL_Driver/Src/stm32l4xx_ll_usb.c ****   USBx_HPRT0 = (USB_OTG_HPRT_PRST | hprt0);
 3783              		.loc 1 1451 3 is_stmt 1 view .LVU1189
 3784              		.loc 1 1451 35 is_stmt 0 view .LVU1190
 3785 0018 019B     		ldr	r3, [sp, #4]
 3786 001a 43F48073 		orr	r3, r3, #256
 3787              		.loc 1 1451 14 view .LVU1191
 3788 001e C0F84034 		str	r3, [r0, #1088]
1452:Drivers/STM32L4xx_HAL_Driver/Src/stm32l4xx_ll_usb.c ****   HAL_Delay(100U);                                 /* See Note #1 */
 3789              		.loc 1 1452 3 is_stmt 1 view .LVU1192
 3790 0022 6420     		movs	r0, #100
 3791              	.LVL303:
 3792              		.loc 1 1452 3 is_stmt 0 view .LVU1193
 3793 0024 FFF7FEFF 		bl	HAL_Delay
 3794              	.LVL304:
1453:Drivers/STM32L4xx_HAL_Driver/Src/stm32l4xx_ll_usb.c ****   USBx_HPRT0 = ((~USB_OTG_HPRT_PRST) & hprt0);
 3795              		.loc 1 1453 3 is_stmt 1 view .LVU1194
 3796              		.loc 1 1453 38 is_stmt 0 view .LVU1195
 3797 0028 019B     		ldr	r3, [sp, #4]
 3798 002a 23F48073 		bic	r3, r3, #256
 3799              		.loc 1 1453 14 view .LVU1196
 3800 002e C4F84034 		str	r3, [r4, #1088]
1454:Drivers/STM32L4xx_HAL_Driver/Src/stm32l4xx_ll_usb.c ****   HAL_Delay(10U);
 3801              		.loc 1 1454 3 is_stmt 1 view .LVU1197
 3802 0032 0A20     		movs	r0, #10
 3803 0034 FFF7FEFF 		bl	HAL_Delay
 3804              	.LVL305:
1455:Drivers/STM32L4xx_HAL_Driver/Src/stm32l4xx_ll_usb.c **** 
1456:Drivers/STM32L4xx_HAL_Driver/Src/stm32l4xx_ll_usb.c ****   return HAL_OK;
 3805              		.loc 1 1456 3 view .LVU1198
1457:Drivers/STM32L4xx_HAL_Driver/Src/stm32l4xx_ll_usb.c **** }
ARM GAS  /tmp/ccS8Yg0I.s 			page 111


 3806              		.loc 1 1457 1 is_stmt 0 view .LVU1199
 3807 0038 2846     		mov	r0, r5
 3808 003a 03B0     		add	sp, sp, #12
 3809              	.LCFI56:
 3810              		.cfi_def_cfa_offset 12
 3811              		@ sp needed
 3812 003c 30BD     		pop	{r4, r5, pc}
 3813              		.loc 1 1457 1 view .LVU1200
 3814              		.cfi_endproc
 3815              	.LFE171:
 3817              		.section	.text.USB_DriveVbus,"ax",%progbits
 3818              		.align	1
 3819              		.global	USB_DriveVbus
 3820              		.syntax unified
 3821              		.thumb
 3822              		.thumb_func
 3823              		.fpu fpv4-sp-d16
 3825              	USB_DriveVbus:
 3826              	.LVL306:
 3827              	.LFB172:
1458:Drivers/STM32L4xx_HAL_Driver/Src/stm32l4xx_ll_usb.c **** 
1459:Drivers/STM32L4xx_HAL_Driver/Src/stm32l4xx_ll_usb.c **** /**
1460:Drivers/STM32L4xx_HAL_Driver/Src/stm32l4xx_ll_usb.c ****   * @brief  USB_DriveVbus : activate or de-activate vbus
1461:Drivers/STM32L4xx_HAL_Driver/Src/stm32l4xx_ll_usb.c ****   * @param  state  VBUS state
1462:Drivers/STM32L4xx_HAL_Driver/Src/stm32l4xx_ll_usb.c ****   *          This parameter can be one of these values:
1463:Drivers/STM32L4xx_HAL_Driver/Src/stm32l4xx_ll_usb.c ****   *           0 : Deactivate VBUS
1464:Drivers/STM32L4xx_HAL_Driver/Src/stm32l4xx_ll_usb.c ****   *           1 : Activate VBUS
1465:Drivers/STM32L4xx_HAL_Driver/Src/stm32l4xx_ll_usb.c ****   * @retval HAL status
1466:Drivers/STM32L4xx_HAL_Driver/Src/stm32l4xx_ll_usb.c ****   */
1467:Drivers/STM32L4xx_HAL_Driver/Src/stm32l4xx_ll_usb.c **** HAL_StatusTypeDef USB_DriveVbus(USB_OTG_GlobalTypeDef *USBx, uint8_t state)
1468:Drivers/STM32L4xx_HAL_Driver/Src/stm32l4xx_ll_usb.c **** {
 3828              		.loc 1 1468 1 is_stmt 1 view -0
 3829              		.cfi_startproc
 3830              		@ args = 0, pretend = 0, frame = 8
 3831              		@ frame_needed = 0, uses_anonymous_args = 0
 3832              		@ link register save eliminated.
 3833              		.loc 1 1468 1 is_stmt 0 view .LVU1202
 3834 0000 82B0     		sub	sp, sp, #8
 3835              	.LCFI57:
 3836              		.cfi_def_cfa_offset 8
1469:Drivers/STM32L4xx_HAL_Driver/Src/stm32l4xx_ll_usb.c ****   uint32_t USBx_BASE = (uint32_t)USBx;
 3837              		.loc 1 1469 3 is_stmt 1 view .LVU1203
 3838              	.LVL307:
1470:Drivers/STM32L4xx_HAL_Driver/Src/stm32l4xx_ll_usb.c ****   __IO uint32_t hprt0 = 0U;
 3839              		.loc 1 1470 3 view .LVU1204
 3840              		.loc 1 1470 17 is_stmt 0 view .LVU1205
 3841 0002 0023     		movs	r3, #0
 3842 0004 0193     		str	r3, [sp, #4]
1471:Drivers/STM32L4xx_HAL_Driver/Src/stm32l4xx_ll_usb.c **** 
1472:Drivers/STM32L4xx_HAL_Driver/Src/stm32l4xx_ll_usb.c ****   hprt0 = USBx_HPRT0;
 3843              		.loc 1 1472 3 is_stmt 1 view .LVU1206
 3844              		.loc 1 1472 11 is_stmt 0 view .LVU1207
 3845 0006 D0F84034 		ldr	r3, [r0, #1088]
 3846              		.loc 1 1472 9 view .LVU1208
 3847 000a 0193     		str	r3, [sp, #4]
1473:Drivers/STM32L4xx_HAL_Driver/Src/stm32l4xx_ll_usb.c **** 
1474:Drivers/STM32L4xx_HAL_Driver/Src/stm32l4xx_ll_usb.c ****   hprt0 &= ~(USB_OTG_HPRT_PENA | USB_OTG_HPRT_PCDET |
ARM GAS  /tmp/ccS8Yg0I.s 			page 112


 3848              		.loc 1 1474 3 is_stmt 1 view .LVU1209
 3849              		.loc 1 1474 9 is_stmt 0 view .LVU1210
 3850 000c 019B     		ldr	r3, [sp, #4]
 3851 000e 23F02E03 		bic	r3, r3, #46
 3852 0012 0193     		str	r3, [sp, #4]
1475:Drivers/STM32L4xx_HAL_Driver/Src/stm32l4xx_ll_usb.c ****              USB_OTG_HPRT_PENCHNG | USB_OTG_HPRT_POCCHNG);
1476:Drivers/STM32L4xx_HAL_Driver/Src/stm32l4xx_ll_usb.c **** 
1477:Drivers/STM32L4xx_HAL_Driver/Src/stm32l4xx_ll_usb.c ****   if (((hprt0 & USB_OTG_HPRT_PPWR) == 0U) && (state == 1U))
 3853              		.loc 1 1477 3 is_stmt 1 view .LVU1211
 3854              		.loc 1 1477 15 is_stmt 0 view .LVU1212
 3855 0014 019B     		ldr	r3, [sp, #4]
 3856              		.loc 1 1477 6 view .LVU1213
 3857 0016 13F4805F 		tst	r3, #4096
 3858 001a 01D1     		bne	.L233
 3859              		.loc 1 1477 43 discriminator 1 view .LVU1214
 3860 001c 0129     		cmp	r1, #1
 3861 001e 0CD0     		beq	.L236
 3862              	.L233:
1478:Drivers/STM32L4xx_HAL_Driver/Src/stm32l4xx_ll_usb.c ****   {
1479:Drivers/STM32L4xx_HAL_Driver/Src/stm32l4xx_ll_usb.c ****     USBx_HPRT0 = (USB_OTG_HPRT_PPWR | hprt0);
1480:Drivers/STM32L4xx_HAL_Driver/Src/stm32l4xx_ll_usb.c ****   }
1481:Drivers/STM32L4xx_HAL_Driver/Src/stm32l4xx_ll_usb.c ****   if (((hprt0 & USB_OTG_HPRT_PPWR) == USB_OTG_HPRT_PPWR) && (state == 0U))
 3863              		.loc 1 1481 3 is_stmt 1 view .LVU1215
 3864              		.loc 1 1481 15 is_stmt 0 view .LVU1216
 3865 0020 019B     		ldr	r3, [sp, #4]
 3866              		.loc 1 1481 6 view .LVU1217
 3867 0022 13F4805F 		tst	r3, #4096
 3868 0026 05D0     		beq	.L234
 3869              		.loc 1 1481 58 discriminator 1 view .LVU1218
 3870 0028 21B9     		cbnz	r1, .L234
1482:Drivers/STM32L4xx_HAL_Driver/Src/stm32l4xx_ll_usb.c ****   {
1483:Drivers/STM32L4xx_HAL_Driver/Src/stm32l4xx_ll_usb.c ****     USBx_HPRT0 = ((~USB_OTG_HPRT_PPWR) & hprt0);
 3871              		.loc 1 1483 5 is_stmt 1 view .LVU1219
 3872              		.loc 1 1483 40 is_stmt 0 view .LVU1220
 3873 002a 019B     		ldr	r3, [sp, #4]
 3874 002c 23F48053 		bic	r3, r3, #4096
 3875              		.loc 1 1483 16 view .LVU1221
 3876 0030 C0F84034 		str	r3, [r0, #1088]
 3877              	.L234:
1484:Drivers/STM32L4xx_HAL_Driver/Src/stm32l4xx_ll_usb.c ****   }
1485:Drivers/STM32L4xx_HAL_Driver/Src/stm32l4xx_ll_usb.c ****   return HAL_OK;
 3878              		.loc 1 1485 3 is_stmt 1 view .LVU1222
1486:Drivers/STM32L4xx_HAL_Driver/Src/stm32l4xx_ll_usb.c **** }
 3879              		.loc 1 1486 1 is_stmt 0 view .LVU1223
 3880 0034 0020     		movs	r0, #0
 3881              	.LVL308:
 3882              		.loc 1 1486 1 view .LVU1224
 3883 0036 02B0     		add	sp, sp, #8
 3884              	.LCFI58:
 3885              		.cfi_remember_state
 3886              		.cfi_def_cfa_offset 0
 3887              		@ sp needed
 3888 0038 7047     		bx	lr
 3889              	.LVL309:
 3890              	.L236:
 3891              	.LCFI59:
 3892              		.cfi_restore_state
ARM GAS  /tmp/ccS8Yg0I.s 			page 113


1479:Drivers/STM32L4xx_HAL_Driver/Src/stm32l4xx_ll_usb.c ****   }
 3893              		.loc 1 1479 5 is_stmt 1 view .LVU1225
1479:Drivers/STM32L4xx_HAL_Driver/Src/stm32l4xx_ll_usb.c ****   }
 3894              		.loc 1 1479 37 is_stmt 0 view .LVU1226
 3895 003a 019B     		ldr	r3, [sp, #4]
 3896 003c 43F48053 		orr	r3, r3, #4096
1479:Drivers/STM32L4xx_HAL_Driver/Src/stm32l4xx_ll_usb.c ****   }
 3897              		.loc 1 1479 16 view .LVU1227
 3898 0040 C0F84034 		str	r3, [r0, #1088]
 3899 0044 ECE7     		b	.L233
 3900              		.cfi_endproc
 3901              	.LFE172:
 3903              		.section	.text.USB_GetHostSpeed,"ax",%progbits
 3904              		.align	1
 3905              		.global	USB_GetHostSpeed
 3906              		.syntax unified
 3907              		.thumb
 3908              		.thumb_func
 3909              		.fpu fpv4-sp-d16
 3911              	USB_GetHostSpeed:
 3912              	.LVL310:
 3913              	.LFB173:
1487:Drivers/STM32L4xx_HAL_Driver/Src/stm32l4xx_ll_usb.c **** 
1488:Drivers/STM32L4xx_HAL_Driver/Src/stm32l4xx_ll_usb.c **** /**
1489:Drivers/STM32L4xx_HAL_Driver/Src/stm32l4xx_ll_usb.c ****   * @brief  Return Host Core speed
1490:Drivers/STM32L4xx_HAL_Driver/Src/stm32l4xx_ll_usb.c ****   * @param  USBx  Selected device
1491:Drivers/STM32L4xx_HAL_Driver/Src/stm32l4xx_ll_usb.c ****   * @retval speed : Host speed
1492:Drivers/STM32L4xx_HAL_Driver/Src/stm32l4xx_ll_usb.c ****   *          This parameter can be one of these values:
1493:Drivers/STM32L4xx_HAL_Driver/Src/stm32l4xx_ll_usb.c ****   *            @arg HCD_SPEED_FULL: Full speed mode
1494:Drivers/STM32L4xx_HAL_Driver/Src/stm32l4xx_ll_usb.c ****   *            @arg HCD_SPEED_LOW: Low speed mode
1495:Drivers/STM32L4xx_HAL_Driver/Src/stm32l4xx_ll_usb.c ****   */
1496:Drivers/STM32L4xx_HAL_Driver/Src/stm32l4xx_ll_usb.c **** uint32_t USB_GetHostSpeed(USB_OTG_GlobalTypeDef *USBx)
1497:Drivers/STM32L4xx_HAL_Driver/Src/stm32l4xx_ll_usb.c **** {
 3914              		.loc 1 1497 1 is_stmt 1 view -0
 3915              		.cfi_startproc
 3916              		@ args = 0, pretend = 0, frame = 8
 3917              		@ frame_needed = 0, uses_anonymous_args = 0
 3918              		@ link register save eliminated.
 3919              		.loc 1 1497 1 is_stmt 0 view .LVU1229
 3920 0000 82B0     		sub	sp, sp, #8
 3921              	.LCFI60:
 3922              		.cfi_def_cfa_offset 8
1498:Drivers/STM32L4xx_HAL_Driver/Src/stm32l4xx_ll_usb.c ****   uint32_t USBx_BASE = (uint32_t)USBx;
 3923              		.loc 1 1498 3 is_stmt 1 view .LVU1230
 3924              	.LVL311:
1499:Drivers/STM32L4xx_HAL_Driver/Src/stm32l4xx_ll_usb.c ****   __IO uint32_t hprt0 = 0U;
 3925              		.loc 1 1499 3 view .LVU1231
 3926              		.loc 1 1499 17 is_stmt 0 view .LVU1232
 3927 0002 0023     		movs	r3, #0
 3928 0004 0193     		str	r3, [sp, #4]
1500:Drivers/STM32L4xx_HAL_Driver/Src/stm32l4xx_ll_usb.c **** 
1501:Drivers/STM32L4xx_HAL_Driver/Src/stm32l4xx_ll_usb.c ****   hprt0 = USBx_HPRT0;
 3929              		.loc 1 1501 3 is_stmt 1 view .LVU1233
 3930              		.loc 1 1501 11 is_stmt 0 view .LVU1234
 3931 0006 D0F84034 		ldr	r3, [r0, #1088]
 3932              		.loc 1 1501 9 view .LVU1235
 3933 000a 0193     		str	r3, [sp, #4]
ARM GAS  /tmp/ccS8Yg0I.s 			page 114


1502:Drivers/STM32L4xx_HAL_Driver/Src/stm32l4xx_ll_usb.c ****   return ((hprt0 & USB_OTG_HPRT_PSPD) >> 17);
 3934              		.loc 1 1502 3 is_stmt 1 view .LVU1236
 3935              		.loc 1 1502 39 is_stmt 0 view .LVU1237
 3936 000c 0198     		ldr	r0, [sp, #4]
 3937              	.LVL312:
1503:Drivers/STM32L4xx_HAL_Driver/Src/stm32l4xx_ll_usb.c **** }
 3938              		.loc 1 1503 1 view .LVU1238
 3939 000e C0F34140 		ubfx	r0, r0, #17, #2
 3940 0012 02B0     		add	sp, sp, #8
 3941              	.LCFI61:
 3942              		.cfi_def_cfa_offset 0
 3943              		@ sp needed
 3944 0014 7047     		bx	lr
 3945              		.cfi_endproc
 3946              	.LFE173:
 3948              		.section	.text.USB_GetCurrentFrame,"ax",%progbits
 3949              		.align	1
 3950              		.global	USB_GetCurrentFrame
 3951              		.syntax unified
 3952              		.thumb
 3953              		.thumb_func
 3954              		.fpu fpv4-sp-d16
 3956              	USB_GetCurrentFrame:
 3957              	.LVL313:
 3958              	.LFB174:
1504:Drivers/STM32L4xx_HAL_Driver/Src/stm32l4xx_ll_usb.c **** 
1505:Drivers/STM32L4xx_HAL_Driver/Src/stm32l4xx_ll_usb.c **** /**
1506:Drivers/STM32L4xx_HAL_Driver/Src/stm32l4xx_ll_usb.c ****   * @brief  Return Host Current Frame number
1507:Drivers/STM32L4xx_HAL_Driver/Src/stm32l4xx_ll_usb.c ****   * @param  USBx  Selected device
1508:Drivers/STM32L4xx_HAL_Driver/Src/stm32l4xx_ll_usb.c ****   * @retval current frame number
1509:Drivers/STM32L4xx_HAL_Driver/Src/stm32l4xx_ll_usb.c ****   */
1510:Drivers/STM32L4xx_HAL_Driver/Src/stm32l4xx_ll_usb.c **** uint32_t USB_GetCurrentFrame(USB_OTG_GlobalTypeDef *USBx)
1511:Drivers/STM32L4xx_HAL_Driver/Src/stm32l4xx_ll_usb.c **** {
 3959              		.loc 1 1511 1 is_stmt 1 view -0
 3960              		.cfi_startproc
 3961              		@ args = 0, pretend = 0, frame = 0
 3962              		@ frame_needed = 0, uses_anonymous_args = 0
 3963              		@ link register save eliminated.
1512:Drivers/STM32L4xx_HAL_Driver/Src/stm32l4xx_ll_usb.c ****   uint32_t USBx_BASE = (uint32_t)USBx;
 3964              		.loc 1 1512 3 view .LVU1240
1513:Drivers/STM32L4xx_HAL_Driver/Src/stm32l4xx_ll_usb.c **** 
1514:Drivers/STM32L4xx_HAL_Driver/Src/stm32l4xx_ll_usb.c ****   return (USBx_HOST->HFNUM & USB_OTG_HFNUM_FRNUM);
 3965              		.loc 1 1514 3 view .LVU1241
 3966              		.loc 1 1514 11 is_stmt 0 view .LVU1242
 3967 0000 00F58060 		add	r0, r0, #1024
 3968              	.LVL314:
 3969              		.loc 1 1514 20 view .LVU1243
 3970 0004 8068     		ldr	r0, [r0, #8]
 3971              	.LVL315:
1515:Drivers/STM32L4xx_HAL_Driver/Src/stm32l4xx_ll_usb.c **** }
 3972              		.loc 1 1515 1 view .LVU1244
 3973 0006 80B2     		uxth	r0, r0
 3974 0008 7047     		bx	lr
 3975              		.cfi_endproc
 3976              	.LFE174:
 3978              		.section	.text.USB_HC_Init,"ax",%progbits
 3979              		.align	1
ARM GAS  /tmp/ccS8Yg0I.s 			page 115


 3980              		.global	USB_HC_Init
 3981              		.syntax unified
 3982              		.thumb
 3983              		.thumb_func
 3984              		.fpu fpv4-sp-d16
 3986              	USB_HC_Init:
 3987              	.LVL316:
 3988              	.LFB175:
1516:Drivers/STM32L4xx_HAL_Driver/Src/stm32l4xx_ll_usb.c **** 
1517:Drivers/STM32L4xx_HAL_Driver/Src/stm32l4xx_ll_usb.c **** /**
1518:Drivers/STM32L4xx_HAL_Driver/Src/stm32l4xx_ll_usb.c ****   * @brief  Initialize a host channel
1519:Drivers/STM32L4xx_HAL_Driver/Src/stm32l4xx_ll_usb.c ****   * @param  USBx  Selected device
1520:Drivers/STM32L4xx_HAL_Driver/Src/stm32l4xx_ll_usb.c ****   * @param  ch_num  Channel number
1521:Drivers/STM32L4xx_HAL_Driver/Src/stm32l4xx_ll_usb.c ****   *         This parameter can be a value from 1 to 15
1522:Drivers/STM32L4xx_HAL_Driver/Src/stm32l4xx_ll_usb.c ****   * @param  epnum  Endpoint number
1523:Drivers/STM32L4xx_HAL_Driver/Src/stm32l4xx_ll_usb.c ****   *          This parameter can be a value from 1 to 15
1524:Drivers/STM32L4xx_HAL_Driver/Src/stm32l4xx_ll_usb.c ****   * @param  dev_address  Current device address
1525:Drivers/STM32L4xx_HAL_Driver/Src/stm32l4xx_ll_usb.c ****   *          This parameter can be a value from 0 to 255
1526:Drivers/STM32L4xx_HAL_Driver/Src/stm32l4xx_ll_usb.c ****   * @param  speed  Current device speed
1527:Drivers/STM32L4xx_HAL_Driver/Src/stm32l4xx_ll_usb.c ****   *          This parameter can be one of these values:
1528:Drivers/STM32L4xx_HAL_Driver/Src/stm32l4xx_ll_usb.c ****   *            @arg USB_OTG_SPEED_FULL: Full speed mode
1529:Drivers/STM32L4xx_HAL_Driver/Src/stm32l4xx_ll_usb.c ****   *            @arg USB_OTG_SPEED_LOW: Low speed mode
1530:Drivers/STM32L4xx_HAL_Driver/Src/stm32l4xx_ll_usb.c ****   * @param  ep_type  Endpoint Type
1531:Drivers/STM32L4xx_HAL_Driver/Src/stm32l4xx_ll_usb.c ****   *          This parameter can be one of these values:
1532:Drivers/STM32L4xx_HAL_Driver/Src/stm32l4xx_ll_usb.c ****   *            @arg EP_TYPE_CTRL: Control type
1533:Drivers/STM32L4xx_HAL_Driver/Src/stm32l4xx_ll_usb.c ****   *            @arg EP_TYPE_ISOC: Isochronous type
1534:Drivers/STM32L4xx_HAL_Driver/Src/stm32l4xx_ll_usb.c ****   *            @arg EP_TYPE_BULK: Bulk type
1535:Drivers/STM32L4xx_HAL_Driver/Src/stm32l4xx_ll_usb.c ****   *            @arg EP_TYPE_INTR: Interrupt type
1536:Drivers/STM32L4xx_HAL_Driver/Src/stm32l4xx_ll_usb.c ****   * @param  mps  Max Packet Size
1537:Drivers/STM32L4xx_HAL_Driver/Src/stm32l4xx_ll_usb.c ****   *          This parameter can be a value from 0 to 32K
1538:Drivers/STM32L4xx_HAL_Driver/Src/stm32l4xx_ll_usb.c ****   * @retval HAL state
1539:Drivers/STM32L4xx_HAL_Driver/Src/stm32l4xx_ll_usb.c ****   */
1540:Drivers/STM32L4xx_HAL_Driver/Src/stm32l4xx_ll_usb.c **** HAL_StatusTypeDef USB_HC_Init(USB_OTG_GlobalTypeDef *USBx, uint8_t ch_num,
1541:Drivers/STM32L4xx_HAL_Driver/Src/stm32l4xx_ll_usb.c ****                               uint8_t epnum, uint8_t dev_address, uint8_t speed,
1542:Drivers/STM32L4xx_HAL_Driver/Src/stm32l4xx_ll_usb.c ****                               uint8_t ep_type, uint16_t mps)
1543:Drivers/STM32L4xx_HAL_Driver/Src/stm32l4xx_ll_usb.c **** {
 3989              		.loc 1 1543 1 is_stmt 1 view -0
 3990              		.cfi_startproc
 3991              		@ args = 12, pretend = 0, frame = 0
 3992              		@ frame_needed = 0, uses_anonymous_args = 0
 3993              		.loc 1 1543 1 is_stmt 0 view .LVU1246
 3994 0000 2DE9F843 		push	{r3, r4, r5, r6, r7, r8, r9, lr}
 3995              	.LCFI62:
 3996              		.cfi_def_cfa_offset 32
 3997              		.cfi_offset 3, -32
 3998              		.cfi_offset 4, -28
 3999              		.cfi_offset 5, -24
 4000              		.cfi_offset 6, -20
 4001              		.cfi_offset 7, -16
 4002              		.cfi_offset 8, -12
 4003              		.cfi_offset 9, -8
 4004              		.cfi_offset 14, -4
 4005 0004 9146     		mov	r9, r2
 4006 0006 1C46     		mov	r4, r3
 4007 0008 9DF82450 		ldrb	r5, [sp, #36]	@ zero_extendqisi2
1544:Drivers/STM32L4xx_HAL_Driver/Src/stm32l4xx_ll_usb.c ****   HAL_StatusTypeDef ret = HAL_OK;
 4008              		.loc 1 1544 3 is_stmt 1 view .LVU1247
ARM GAS  /tmp/ccS8Yg0I.s 			page 116


 4009              	.LVL317:
1545:Drivers/STM32L4xx_HAL_Driver/Src/stm32l4xx_ll_usb.c ****   uint32_t USBx_BASE = (uint32_t)USBx;
 4010              		.loc 1 1545 3 view .LVU1248
1546:Drivers/STM32L4xx_HAL_Driver/Src/stm32l4xx_ll_usb.c ****   uint32_t HCcharEpDir;
 4011              		.loc 1 1546 3 view .LVU1249
1547:Drivers/STM32L4xx_HAL_Driver/Src/stm32l4xx_ll_usb.c ****   uint32_t HCcharLowSpeed;
 4012              		.loc 1 1547 3 view .LVU1250
1548:Drivers/STM32L4xx_HAL_Driver/Src/stm32l4xx_ll_usb.c ****   uint32_t HostCoreSpeed;
 4013              		.loc 1 1548 3 view .LVU1251
1549:Drivers/STM32L4xx_HAL_Driver/Src/stm32l4xx_ll_usb.c **** 
1550:Drivers/STM32L4xx_HAL_Driver/Src/stm32l4xx_ll_usb.c ****   /* Clear old interrupt conditions for this host channel. */
1551:Drivers/STM32L4xx_HAL_Driver/Src/stm32l4xx_ll_usb.c ****   USBx_HC((uint32_t)ch_num)->HCINT = 0xFFFFFFFFU;
 4014              		.loc 1 1551 3 view .LVU1252
 4015 000c 00EB4116 		add	r6, r0, r1, lsl #5
 4016 0010 06F5A063 		add	r3, r6, #1280
 4017              	.LVL318:
 4018              		.loc 1 1551 36 is_stmt 0 view .LVU1253
 4019 0014 4FF0FF32 		mov	r2, #-1
 4020              	.LVL319:
 4021              		.loc 1 1551 36 view .LVU1254
 4022 0018 9A60     		str	r2, [r3, #8]
1552:Drivers/STM32L4xx_HAL_Driver/Src/stm32l4xx_ll_usb.c **** 
1553:Drivers/STM32L4xx_HAL_Driver/Src/stm32l4xx_ll_usb.c ****   /* Enable channel interrupts required for this transfer. */
1554:Drivers/STM32L4xx_HAL_Driver/Src/stm32l4xx_ll_usb.c ****   switch (ep_type)
 4023              		.loc 1 1554 3 is_stmt 1 view .LVU1255
 4024 001a 032D     		cmp	r5, #3
 4025 001c 6ED8     		bhi	.L250
 4026 001e DFE805F0 		tbb	[pc, r5]
 4027              	.L243:
 4028 0022 02       		.byte	(.L244-.L243)/2
 4029 0023 5F       		.byte	(.L245-.L243)/2
 4030 0024 02       		.byte	(.L244-.L243)/2
 4031 0025 51       		.byte	(.L242-.L243)/2
 4032              		.p2align 1
 4033              	.L244:
1555:Drivers/STM32L4xx_HAL_Driver/Src/stm32l4xx_ll_usb.c ****   {
1556:Drivers/STM32L4xx_HAL_Driver/Src/stm32l4xx_ll_usb.c ****     case EP_TYPE_CTRL:
1557:Drivers/STM32L4xx_HAL_Driver/Src/stm32l4xx_ll_usb.c ****     case EP_TYPE_BULK:
1558:Drivers/STM32L4xx_HAL_Driver/Src/stm32l4xx_ll_usb.c ****       USBx_HC((uint32_t)ch_num)->HCINTMSK = USB_OTG_HCINTMSK_XFRCM  |
 4034              		.loc 1 1558 7 view .LVU1256
 4035              		.loc 1 1558 43 is_stmt 0 view .LVU1257
 4036 0026 40F29D42 		movw	r2, #1181
 4037 002a DA60     		str	r2, [r3, #12]
1559:Drivers/STM32L4xx_HAL_Driver/Src/stm32l4xx_ll_usb.c ****                                             USB_OTG_HCINTMSK_STALLM |
1560:Drivers/STM32L4xx_HAL_Driver/Src/stm32l4xx_ll_usb.c ****                                             USB_OTG_HCINTMSK_TXERRM |
1561:Drivers/STM32L4xx_HAL_Driver/Src/stm32l4xx_ll_usb.c ****                                             USB_OTG_HCINTMSK_DTERRM |
1562:Drivers/STM32L4xx_HAL_Driver/Src/stm32l4xx_ll_usb.c ****                                             USB_OTG_HCINTMSK_AHBERR |
1563:Drivers/STM32L4xx_HAL_Driver/Src/stm32l4xx_ll_usb.c ****                                             USB_OTG_HCINTMSK_NAKM;
1564:Drivers/STM32L4xx_HAL_Driver/Src/stm32l4xx_ll_usb.c **** 
1565:Drivers/STM32L4xx_HAL_Driver/Src/stm32l4xx_ll_usb.c ****       if ((epnum & 0x80U) == 0x80U)
 4038              		.loc 1 1565 7 is_stmt 1 view .LVU1258
 4039              		.loc 1 1565 10 is_stmt 0 view .LVU1259
 4040 002c 19F0800F 		tst	r9, #128
 4041 0030 42D1     		bne	.L258
1544:Drivers/STM32L4xx_HAL_Driver/Src/stm32l4xx_ll_usb.c ****   uint32_t USBx_BASE = (uint32_t)USBx;
 4042              		.loc 1 1544 21 view .LVU1260
 4043 0032 0027     		movs	r7, #0
ARM GAS  /tmp/ccS8Yg0I.s 			page 117


 4044              	.L241:
 4045              	.LVL320:
1566:Drivers/STM32L4xx_HAL_Driver/Src/stm32l4xx_ll_usb.c ****       {
1567:Drivers/STM32L4xx_HAL_Driver/Src/stm32l4xx_ll_usb.c ****         USBx_HC((uint32_t)ch_num)->HCINTMSK |= USB_OTG_HCINTMSK_BBERRM;
1568:Drivers/STM32L4xx_HAL_Driver/Src/stm32l4xx_ll_usb.c ****       }
1569:Drivers/STM32L4xx_HAL_Driver/Src/stm32l4xx_ll_usb.c ****       break;
1570:Drivers/STM32L4xx_HAL_Driver/Src/stm32l4xx_ll_usb.c **** 
1571:Drivers/STM32L4xx_HAL_Driver/Src/stm32l4xx_ll_usb.c ****     case EP_TYPE_INTR:
1572:Drivers/STM32L4xx_HAL_Driver/Src/stm32l4xx_ll_usb.c ****       USBx_HC((uint32_t)ch_num)->HCINTMSK = USB_OTG_HCINTMSK_XFRCM  |
1573:Drivers/STM32L4xx_HAL_Driver/Src/stm32l4xx_ll_usb.c ****                                             USB_OTG_HCINTMSK_STALLM |
1574:Drivers/STM32L4xx_HAL_Driver/Src/stm32l4xx_ll_usb.c ****                                             USB_OTG_HCINTMSK_TXERRM |
1575:Drivers/STM32L4xx_HAL_Driver/Src/stm32l4xx_ll_usb.c ****                                             USB_OTG_HCINTMSK_DTERRM |
1576:Drivers/STM32L4xx_HAL_Driver/Src/stm32l4xx_ll_usb.c ****                                             USB_OTG_HCINTMSK_NAKM   |
1577:Drivers/STM32L4xx_HAL_Driver/Src/stm32l4xx_ll_usb.c ****                                             USB_OTG_HCINTMSK_AHBERR |
1578:Drivers/STM32L4xx_HAL_Driver/Src/stm32l4xx_ll_usb.c ****                                             USB_OTG_HCINTMSK_FRMORM;
1579:Drivers/STM32L4xx_HAL_Driver/Src/stm32l4xx_ll_usb.c **** 
1580:Drivers/STM32L4xx_HAL_Driver/Src/stm32l4xx_ll_usb.c ****       if ((epnum & 0x80U) == 0x80U)
1581:Drivers/STM32L4xx_HAL_Driver/Src/stm32l4xx_ll_usb.c ****       {
1582:Drivers/STM32L4xx_HAL_Driver/Src/stm32l4xx_ll_usb.c ****         USBx_HC((uint32_t)ch_num)->HCINTMSK |= USB_OTG_HCINTMSK_BBERRM;
1583:Drivers/STM32L4xx_HAL_Driver/Src/stm32l4xx_ll_usb.c ****       }
1584:Drivers/STM32L4xx_HAL_Driver/Src/stm32l4xx_ll_usb.c **** 
1585:Drivers/STM32L4xx_HAL_Driver/Src/stm32l4xx_ll_usb.c ****       break;
1586:Drivers/STM32L4xx_HAL_Driver/Src/stm32l4xx_ll_usb.c **** 
1587:Drivers/STM32L4xx_HAL_Driver/Src/stm32l4xx_ll_usb.c ****     case EP_TYPE_ISOC:
1588:Drivers/STM32L4xx_HAL_Driver/Src/stm32l4xx_ll_usb.c ****       USBx_HC((uint32_t)ch_num)->HCINTMSK = USB_OTG_HCINTMSK_XFRCM  |
1589:Drivers/STM32L4xx_HAL_Driver/Src/stm32l4xx_ll_usb.c ****                                             USB_OTG_HCINTMSK_ACKM   |
1590:Drivers/STM32L4xx_HAL_Driver/Src/stm32l4xx_ll_usb.c ****                                             USB_OTG_HCINTMSK_AHBERR |
1591:Drivers/STM32L4xx_HAL_Driver/Src/stm32l4xx_ll_usb.c ****                                             USB_OTG_HCINTMSK_FRMORM;
1592:Drivers/STM32L4xx_HAL_Driver/Src/stm32l4xx_ll_usb.c **** 
1593:Drivers/STM32L4xx_HAL_Driver/Src/stm32l4xx_ll_usb.c ****       if ((epnum & 0x80U) == 0x80U)
1594:Drivers/STM32L4xx_HAL_Driver/Src/stm32l4xx_ll_usb.c ****       {
1595:Drivers/STM32L4xx_HAL_Driver/Src/stm32l4xx_ll_usb.c ****         USBx_HC((uint32_t)ch_num)->HCINTMSK |= (USB_OTG_HCINTMSK_TXERRM | USB_OTG_HCINTMSK_BBERRM);
1596:Drivers/STM32L4xx_HAL_Driver/Src/stm32l4xx_ll_usb.c ****       }
1597:Drivers/STM32L4xx_HAL_Driver/Src/stm32l4xx_ll_usb.c ****       break;
1598:Drivers/STM32L4xx_HAL_Driver/Src/stm32l4xx_ll_usb.c **** 
1599:Drivers/STM32L4xx_HAL_Driver/Src/stm32l4xx_ll_usb.c ****     default:
1600:Drivers/STM32L4xx_HAL_Driver/Src/stm32l4xx_ll_usb.c ****       ret = HAL_ERROR;
1601:Drivers/STM32L4xx_HAL_Driver/Src/stm32l4xx_ll_usb.c ****       break;
1602:Drivers/STM32L4xx_HAL_Driver/Src/stm32l4xx_ll_usb.c ****   }
1603:Drivers/STM32L4xx_HAL_Driver/Src/stm32l4xx_ll_usb.c **** 
1604:Drivers/STM32L4xx_HAL_Driver/Src/stm32l4xx_ll_usb.c ****   /* Enable host channel Halt interrupt */
1605:Drivers/STM32L4xx_HAL_Driver/Src/stm32l4xx_ll_usb.c ****   USBx_HC((uint32_t)ch_num)->HCINTMSK |= USB_OTG_HCINTMSK_CHHM;
 4046              		.loc 1 1605 3 is_stmt 1 view .LVU1261
 4047              		.loc 1 1605 39 is_stmt 0 view .LVU1262
 4048 0034 DA68     		ldr	r2, [r3, #12]
 4049 0036 42F00202 		orr	r2, r2, #2
 4050 003a DA60     		str	r2, [r3, #12]
1606:Drivers/STM32L4xx_HAL_Driver/Src/stm32l4xx_ll_usb.c **** 
1607:Drivers/STM32L4xx_HAL_Driver/Src/stm32l4xx_ll_usb.c ****   /* Enable the top level host channel interrupt. */
1608:Drivers/STM32L4xx_HAL_Driver/Src/stm32l4xx_ll_usb.c ****   USBx_HOST->HAINTMSK |= 1UL << (ch_num & 0xFU);
 4051              		.loc 1 1608 3 is_stmt 1 view .LVU1263
 4052              		.loc 1 1608 23 is_stmt 0 view .LVU1264
 4053 003c D0F81834 		ldr	r3, [r0, #1048]
 4054              		.loc 1 1608 41 view .LVU1265
 4055 0040 01F00F01 		and	r1, r1, #15
 4056              	.LVL321:
 4057              		.loc 1 1608 30 view .LVU1266
ARM GAS  /tmp/ccS8Yg0I.s 			page 118


 4058 0044 0122     		movs	r2, #1
 4059 0046 02FA01F1 		lsl	r1, r2, r1
 4060              		.loc 1 1608 23 view .LVU1267
 4061 004a 1943     		orrs	r1, r1, r3
 4062 004c C0F81814 		str	r1, [r0, #1048]
1609:Drivers/STM32L4xx_HAL_Driver/Src/stm32l4xx_ll_usb.c **** 
1610:Drivers/STM32L4xx_HAL_Driver/Src/stm32l4xx_ll_usb.c ****   /* Make sure host channel interrupts are enabled. */
1611:Drivers/STM32L4xx_HAL_Driver/Src/stm32l4xx_ll_usb.c ****   USBx->GINTMSK |= USB_OTG_GINTMSK_HCIM;
 4063              		.loc 1 1611 3 is_stmt 1 view .LVU1268
 4064              		.loc 1 1611 17 is_stmt 0 view .LVU1269
 4065 0050 8369     		ldr	r3, [r0, #24]
 4066 0052 43F00073 		orr	r3, r3, #33554432
 4067 0056 8361     		str	r3, [r0, #24]
1612:Drivers/STM32L4xx_HAL_Driver/Src/stm32l4xx_ll_usb.c **** 
1613:Drivers/STM32L4xx_HAL_Driver/Src/stm32l4xx_ll_usb.c ****   /* Program the HCCHAR register */
1614:Drivers/STM32L4xx_HAL_Driver/Src/stm32l4xx_ll_usb.c ****   if ((epnum & 0x80U) == 0x80U)
 4068              		.loc 1 1614 3 is_stmt 1 view .LVU1270
 4069              		.loc 1 1614 6 is_stmt 0 view .LVU1271
 4070 0058 19F0800F 		tst	r9, #128
 4071 005c 50D1     		bne	.L259
1615:Drivers/STM32L4xx_HAL_Driver/Src/stm32l4xx_ll_usb.c ****   {
1616:Drivers/STM32L4xx_HAL_Driver/Src/stm32l4xx_ll_usb.c ****     HCcharEpDir = (0x1U << 15) & USB_OTG_HCCHAR_EPDIR;
1617:Drivers/STM32L4xx_HAL_Driver/Src/stm32l4xx_ll_usb.c ****   }
1618:Drivers/STM32L4xx_HAL_Driver/Src/stm32l4xx_ll_usb.c ****   else
1619:Drivers/STM32L4xx_HAL_Driver/Src/stm32l4xx_ll_usb.c ****   {
1620:Drivers/STM32L4xx_HAL_Driver/Src/stm32l4xx_ll_usb.c ****     HCcharEpDir = 0U;
 4072              		.loc 1 1620 17 view .LVU1272
 4073 005e 4FF00008 		mov	r8, #0
 4074              	.L246:
 4075              	.LVL322:
1621:Drivers/STM32L4xx_HAL_Driver/Src/stm32l4xx_ll_usb.c ****   }
1622:Drivers/STM32L4xx_HAL_Driver/Src/stm32l4xx_ll_usb.c **** 
1623:Drivers/STM32L4xx_HAL_Driver/Src/stm32l4xx_ll_usb.c ****   HostCoreSpeed = USB_GetHostSpeed(USBx);
 4076              		.loc 1 1623 3 is_stmt 1 view .LVU1273
 4077              		.loc 1 1623 19 is_stmt 0 view .LVU1274
 4078 0062 FFF7FEFF 		bl	USB_GetHostSpeed
 4079              	.LVL323:
1624:Drivers/STM32L4xx_HAL_Driver/Src/stm32l4xx_ll_usb.c **** 
1625:Drivers/STM32L4xx_HAL_Driver/Src/stm32l4xx_ll_usb.c ****   /* LS device plugged to HUB */
1626:Drivers/STM32L4xx_HAL_Driver/Src/stm32l4xx_ll_usb.c ****   if ((speed == HPRT0_PRTSPD_LOW_SPEED) && (HostCoreSpeed != HPRT0_PRTSPD_LOW_SPEED))
 4080              		.loc 1 1626 3 is_stmt 1 view .LVU1275
 4081              		.loc 1 1626 6 is_stmt 0 view .LVU1276
 4082 0066 9DF82030 		ldrb	r3, [sp, #32]	@ zero_extendqisi2
 4083 006a 022B     		cmp	r3, #2
 4084 006c 4BD0     		beq	.L260
1627:Drivers/STM32L4xx_HAL_Driver/Src/stm32l4xx_ll_usb.c ****   {
1628:Drivers/STM32L4xx_HAL_Driver/Src/stm32l4xx_ll_usb.c ****     HCcharLowSpeed = (0x1U << 17) & USB_OTG_HCCHAR_LSDEV;
1629:Drivers/STM32L4xx_HAL_Driver/Src/stm32l4xx_ll_usb.c ****   }
1630:Drivers/STM32L4xx_HAL_Driver/Src/stm32l4xx_ll_usb.c ****   else
1631:Drivers/STM32L4xx_HAL_Driver/Src/stm32l4xx_ll_usb.c ****   {
1632:Drivers/STM32L4xx_HAL_Driver/Src/stm32l4xx_ll_usb.c ****     HCcharLowSpeed = 0U;
 4085              		.loc 1 1632 20 view .LVU1277
 4086 006e 0021     		movs	r1, #0
 4087              	.L247:
 4088              	.LVL324:
1633:Drivers/STM32L4xx_HAL_Driver/Src/stm32l4xx_ll_usb.c ****   }
1634:Drivers/STM32L4xx_HAL_Driver/Src/stm32l4xx_ll_usb.c **** 
ARM GAS  /tmp/ccS8Yg0I.s 			page 119


1635:Drivers/STM32L4xx_HAL_Driver/Src/stm32l4xx_ll_usb.c ****   USBx_HC((uint32_t)ch_num)->HCCHAR = (((uint32_t)dev_address << 22) & USB_OTG_HCCHAR_DAD) |
 4089              		.loc 1 1635 3 is_stmt 1 view .LVU1278
 4090              		.loc 1 1635 63 is_stmt 0 view .LVU1279
 4091 0070 A305     		lsls	r3, r4, #22
 4092              		.loc 1 1635 70 view .LVU1280
 4093 0072 03F0FE53 		and	r3, r3, #532676608
1636:Drivers/STM32L4xx_HAL_Driver/Src/stm32l4xx_ll_usb.c ****                                       ((((uint32_t)epnum & 0x7FU) << 11) & USB_OTG_HCCHAR_EPNUM) |
 4094              		.loc 1 1636 67 view .LVU1281
 4095 0076 4FEAC929 		lsl	r9, r9, #11
 4096              		.loc 1 1636 74 view .LVU1282
 4097 007a 09F4F049 		and	r9, r9, #30720
1635:Drivers/STM32L4xx_HAL_Driver/Src/stm32l4xx_ll_usb.c ****                                       ((((uint32_t)epnum & 0x7FU) << 11) & USB_OTG_HCCHAR_EPNUM) |
 4098              		.loc 1 1635 92 view .LVU1283
 4099 007e 43EA0903 		orr	r3, r3, r9
1637:Drivers/STM32L4xx_HAL_Driver/Src/stm32l4xx_ll_usb.c ****                                       (((uint32_t)ep_type << 18) & USB_OTG_HCCHAR_EPTYP) |
 4100              		.loc 1 1637 59 view .LVU1284
 4101 0082 AC04     		lsls	r4, r5, #18
 4102              		.loc 1 1637 66 view .LVU1285
 4103 0084 04F44024 		and	r4, r4, #786432
1636:Drivers/STM32L4xx_HAL_Driver/Src/stm32l4xx_ll_usb.c ****                                       ((((uint32_t)epnum & 0x7FU) << 11) & USB_OTG_HCCHAR_EPNUM) |
 4104              		.loc 1 1636 98 view .LVU1286
 4105 0088 2343     		orrs	r3, r3, r4
1638:Drivers/STM32L4xx_HAL_Driver/Src/stm32l4xx_ll_usb.c ****                                       ((uint32_t)mps & USB_OTG_HCCHAR_MPSIZ) | HCcharEpDir | HCchar
 4106              		.loc 1 1638 54 view .LVU1287
 4107 008a BDF82820 		ldrh	r2, [sp, #40]
 4108 008e C2F30A02 		ubfx	r2, r2, #0, #11
1637:Drivers/STM32L4xx_HAL_Driver/Src/stm32l4xx_ll_usb.c ****                                       (((uint32_t)ep_type << 18) & USB_OTG_HCCHAR_EPTYP) |
 4109              		.loc 1 1637 90 view .LVU1288
 4110 0092 1343     		orrs	r3, r3, r2
 4111              		.loc 1 1638 78 view .LVU1289
 4112 0094 43EA0803 		orr	r3, r3, r8
 4113              		.loc 1 1638 92 view .LVU1290
 4114 0098 0B43     		orrs	r3, r3, r1
1635:Drivers/STM32L4xx_HAL_Driver/Src/stm32l4xx_ll_usb.c ****                                       ((((uint32_t)epnum & 0x7FU) << 11) & USB_OTG_HCCHAR_EPNUM) |
 4115              		.loc 1 1635 37 view .LVU1291
 4116 009a C6F80035 		str	r3, [r6, #1280]
1639:Drivers/STM32L4xx_HAL_Driver/Src/stm32l4xx_ll_usb.c **** 
1640:Drivers/STM32L4xx_HAL_Driver/Src/stm32l4xx_ll_usb.c ****   if ((ep_type == EP_TYPE_INTR) || (ep_type == EP_TYPE_ISOC))
 4117              		.loc 1 1640 3 is_stmt 1 view .LVU1292
 4118              		.loc 1 1640 6 is_stmt 0 view .LVU1293
 4119 009e 032D     		cmp	r5, #3
 4120 00a0 01D0     		beq	.L248
 4121              		.loc 1 1640 33 discriminator 1 view .LVU1294
 4122 00a2 012D     		cmp	r5, #1
 4123 00a4 05D1     		bne	.L249
 4124              	.L248:
1641:Drivers/STM32L4xx_HAL_Driver/Src/stm32l4xx_ll_usb.c ****   {
1642:Drivers/STM32L4xx_HAL_Driver/Src/stm32l4xx_ll_usb.c ****     USBx_HC((uint32_t)ch_num)->HCCHAR |= USB_OTG_HCCHAR_ODDFRM;
 4125              		.loc 1 1642 5 is_stmt 1 view .LVU1295
 4126              		.loc 1 1642 39 is_stmt 0 view .LVU1296
 4127 00a6 D6F80035 		ldr	r3, [r6, #1280]
 4128 00aa 43F00053 		orr	r3, r3, #536870912
 4129 00ae C6F80035 		str	r3, [r6, #1280]
 4130              	.L249:
1643:Drivers/STM32L4xx_HAL_Driver/Src/stm32l4xx_ll_usb.c ****   }
1644:Drivers/STM32L4xx_HAL_Driver/Src/stm32l4xx_ll_usb.c **** 
1645:Drivers/STM32L4xx_HAL_Driver/Src/stm32l4xx_ll_usb.c ****   return ret;
ARM GAS  /tmp/ccS8Yg0I.s 			page 120


 4131              		.loc 1 1645 3 is_stmt 1 view .LVU1297
1646:Drivers/STM32L4xx_HAL_Driver/Src/stm32l4xx_ll_usb.c **** }
 4132              		.loc 1 1646 1 is_stmt 0 view .LVU1298
 4133 00b2 3846     		mov	r0, r7
 4134              	.LVL325:
 4135              		.loc 1 1646 1 view .LVU1299
 4136 00b4 BDE8F883 		pop	{r3, r4, r5, r6, r7, r8, r9, pc}
 4137              	.LVL326:
 4138              	.L258:
1567:Drivers/STM32L4xx_HAL_Driver/Src/stm32l4xx_ll_usb.c ****       }
 4139              		.loc 1 1567 9 is_stmt 1 view .LVU1300
1567:Drivers/STM32L4xx_HAL_Driver/Src/stm32l4xx_ll_usb.c ****       }
 4140              		.loc 1 1567 45 is_stmt 0 view .LVU1301
 4141 00b8 DA68     		ldr	r2, [r3, #12]
 4142 00ba 42F48072 		orr	r2, r2, #256
 4143 00be DA60     		str	r2, [r3, #12]
1544:Drivers/STM32L4xx_HAL_Driver/Src/stm32l4xx_ll_usb.c ****   uint32_t USBx_BASE = (uint32_t)USBx;
 4144              		.loc 1 1544 21 view .LVU1302
 4145 00c0 0027     		movs	r7, #0
 4146 00c2 B7E7     		b	.L241
 4147              	.L242:
1572:Drivers/STM32L4xx_HAL_Driver/Src/stm32l4xx_ll_usb.c ****                                             USB_OTG_HCINTMSK_STALLM |
 4148              		.loc 1 1572 7 is_stmt 1 view .LVU1303
1572:Drivers/STM32L4xx_HAL_Driver/Src/stm32l4xx_ll_usb.c ****                                             USB_OTG_HCINTMSK_STALLM |
 4149              		.loc 1 1572 43 is_stmt 0 view .LVU1304
 4150 00c4 40F29D62 		movw	r2, #1693
 4151 00c8 DA60     		str	r2, [r3, #12]
1580:Drivers/STM32L4xx_HAL_Driver/Src/stm32l4xx_ll_usb.c ****       {
 4152              		.loc 1 1580 7 is_stmt 1 view .LVU1305
1580:Drivers/STM32L4xx_HAL_Driver/Src/stm32l4xx_ll_usb.c ****       {
 4153              		.loc 1 1580 10 is_stmt 0 view .LVU1306
 4154 00ca 19F0800F 		tst	r9, #128
 4155 00ce 01D1     		bne	.L261
1544:Drivers/STM32L4xx_HAL_Driver/Src/stm32l4xx_ll_usb.c ****   uint32_t USBx_BASE = (uint32_t)USBx;
 4156              		.loc 1 1544 21 view .LVU1307
 4157 00d0 0027     		movs	r7, #0
 4158 00d2 AFE7     		b	.L241
 4159              	.L261:
1582:Drivers/STM32L4xx_HAL_Driver/Src/stm32l4xx_ll_usb.c ****       }
 4160              		.loc 1 1582 9 is_stmt 1 view .LVU1308
1582:Drivers/STM32L4xx_HAL_Driver/Src/stm32l4xx_ll_usb.c ****       }
 4161              		.loc 1 1582 45 is_stmt 0 view .LVU1309
 4162 00d4 DA68     		ldr	r2, [r3, #12]
 4163 00d6 42F48072 		orr	r2, r2, #256
 4164 00da DA60     		str	r2, [r3, #12]
1544:Drivers/STM32L4xx_HAL_Driver/Src/stm32l4xx_ll_usb.c ****   uint32_t USBx_BASE = (uint32_t)USBx;
 4165              		.loc 1 1544 21 view .LVU1310
 4166 00dc 0027     		movs	r7, #0
 4167 00de A9E7     		b	.L241
 4168              	.L245:
1588:Drivers/STM32L4xx_HAL_Driver/Src/stm32l4xx_ll_usb.c ****                                             USB_OTG_HCINTMSK_ACKM   |
 4169              		.loc 1 1588 7 is_stmt 1 view .LVU1311
1588:Drivers/STM32L4xx_HAL_Driver/Src/stm32l4xx_ll_usb.c ****                                             USB_OTG_HCINTMSK_ACKM   |
 4170              		.loc 1 1588 43 is_stmt 0 view .LVU1312
 4171 00e0 40F22522 		movw	r2, #549
 4172 00e4 DA60     		str	r2, [r3, #12]
1593:Drivers/STM32L4xx_HAL_Driver/Src/stm32l4xx_ll_usb.c ****       {
ARM GAS  /tmp/ccS8Yg0I.s 			page 121


 4173              		.loc 1 1593 7 is_stmt 1 view .LVU1313
1593:Drivers/STM32L4xx_HAL_Driver/Src/stm32l4xx_ll_usb.c ****       {
 4174              		.loc 1 1593 10 is_stmt 0 view .LVU1314
 4175 00e6 19F0800F 		tst	r9, #128
 4176 00ea 01D1     		bne	.L262
1544:Drivers/STM32L4xx_HAL_Driver/Src/stm32l4xx_ll_usb.c ****   uint32_t USBx_BASE = (uint32_t)USBx;
 4177              		.loc 1 1544 21 view .LVU1315
 4178 00ec 0027     		movs	r7, #0
 4179 00ee A1E7     		b	.L241
 4180              	.L262:
1595:Drivers/STM32L4xx_HAL_Driver/Src/stm32l4xx_ll_usb.c ****       }
 4181              		.loc 1 1595 9 is_stmt 1 view .LVU1316
1595:Drivers/STM32L4xx_HAL_Driver/Src/stm32l4xx_ll_usb.c ****       }
 4182              		.loc 1 1595 45 is_stmt 0 view .LVU1317
 4183 00f0 DA68     		ldr	r2, [r3, #12]
 4184 00f2 42F4C072 		orr	r2, r2, #384
 4185 00f6 DA60     		str	r2, [r3, #12]
1544:Drivers/STM32L4xx_HAL_Driver/Src/stm32l4xx_ll_usb.c ****   uint32_t USBx_BASE = (uint32_t)USBx;
 4186              		.loc 1 1544 21 view .LVU1318
 4187 00f8 0027     		movs	r7, #0
 4188 00fa 9BE7     		b	.L241
 4189              	.L250:
1551:Drivers/STM32L4xx_HAL_Driver/Src/stm32l4xx_ll_usb.c **** 
 4190              		.loc 1 1551 36 view .LVU1319
 4191 00fc 0127     		movs	r7, #1
 4192 00fe 99E7     		b	.L241
 4193              	.LVL327:
 4194              	.L259:
1616:Drivers/STM32L4xx_HAL_Driver/Src/stm32l4xx_ll_usb.c ****   }
 4195              		.loc 1 1616 17 view .LVU1320
 4196 0100 4FF40048 		mov	r8, #32768
 4197 0104 ADE7     		b	.L246
 4198              	.LVL328:
 4199              	.L260:
1626:Drivers/STM32L4xx_HAL_Driver/Src/stm32l4xx_ll_usb.c ****   {
 4200              		.loc 1 1626 41 discriminator 1 view .LVU1321
 4201 0106 0228     		cmp	r0, #2
 4202 0108 02D0     		beq	.L263
1628:Drivers/STM32L4xx_HAL_Driver/Src/stm32l4xx_ll_usb.c ****   }
 4203              		.loc 1 1628 20 view .LVU1322
 4204 010a 4FF40031 		mov	r1, #131072
 4205 010e AFE7     		b	.L247
 4206              	.L263:
1632:Drivers/STM32L4xx_HAL_Driver/Src/stm32l4xx_ll_usb.c ****   }
 4207              		.loc 1 1632 20 view .LVU1323
 4208 0110 0021     		movs	r1, #0
 4209 0112 ADE7     		b	.L247
 4210              		.cfi_endproc
 4211              	.LFE175:
 4213              		.section	.text.USB_HC_StartXfer,"ax",%progbits
 4214              		.align	1
 4215              		.global	USB_HC_StartXfer
 4216              		.syntax unified
 4217              		.thumb
 4218              		.thumb_func
 4219              		.fpu fpv4-sp-d16
 4221              	USB_HC_StartXfer:
ARM GAS  /tmp/ccS8Yg0I.s 			page 122


 4222              	.LVL329:
 4223              	.LFB176:
1647:Drivers/STM32L4xx_HAL_Driver/Src/stm32l4xx_ll_usb.c **** 
1648:Drivers/STM32L4xx_HAL_Driver/Src/stm32l4xx_ll_usb.c **** /**
1649:Drivers/STM32L4xx_HAL_Driver/Src/stm32l4xx_ll_usb.c ****   * @brief  Start a transfer over a host channel
1650:Drivers/STM32L4xx_HAL_Driver/Src/stm32l4xx_ll_usb.c ****   * @param  USBx  Selected device
1651:Drivers/STM32L4xx_HAL_Driver/Src/stm32l4xx_ll_usb.c ****   * @param  hc  pointer to host channel structure
1652:Drivers/STM32L4xx_HAL_Driver/Src/stm32l4xx_ll_usb.c ****   * @retval HAL state
1653:Drivers/STM32L4xx_HAL_Driver/Src/stm32l4xx_ll_usb.c ****   */
1654:Drivers/STM32L4xx_HAL_Driver/Src/stm32l4xx_ll_usb.c **** HAL_StatusTypeDef USB_HC_StartXfer(USB_OTG_GlobalTypeDef *USBx, USB_OTG_HCTypeDef *hc)
1655:Drivers/STM32L4xx_HAL_Driver/Src/stm32l4xx_ll_usb.c **** {
 4224              		.loc 1 1655 1 is_stmt 1 view -0
 4225              		.cfi_startproc
 4226              		@ args = 0, pretend = 0, frame = 8
 4227              		@ frame_needed = 0, uses_anonymous_args = 0
 4228              		.loc 1 1655 1 is_stmt 0 view .LVU1325
 4229 0000 30B5     		push	{r4, r5, lr}
 4230              	.LCFI63:
 4231              		.cfi_def_cfa_offset 12
 4232              		.cfi_offset 4, -12
 4233              		.cfi_offset 5, -8
 4234              		.cfi_offset 14, -4
 4235 0002 83B0     		sub	sp, sp, #12
 4236              	.LCFI64:
 4237              		.cfi_def_cfa_offset 24
1656:Drivers/STM32L4xx_HAL_Driver/Src/stm32l4xx_ll_usb.c ****   uint32_t USBx_BASE = (uint32_t)USBx;
 4238              		.loc 1 1656 3 is_stmt 1 view .LVU1326
 4239              	.LVL330:
1657:Drivers/STM32L4xx_HAL_Driver/Src/stm32l4xx_ll_usb.c ****   uint32_t ch_num = (uint32_t)hc->ch_num;
 4240              		.loc 1 1657 3 view .LVU1327
 4241              		.loc 1 1657 33 is_stmt 0 view .LVU1328
 4242 0004 4B78     		ldrb	r3, [r1, #1]	@ zero_extendqisi2
 4243              	.LVL331:
1658:Drivers/STM32L4xx_HAL_Driver/Src/stm32l4xx_ll_usb.c ****   __IO uint32_t tmpreg;
 4244              		.loc 1 1658 3 is_stmt 1 view .LVU1329
1659:Drivers/STM32L4xx_HAL_Driver/Src/stm32l4xx_ll_usb.c ****   uint8_t  is_oddframe;
 4245              		.loc 1 1659 3 view .LVU1330
1660:Drivers/STM32L4xx_HAL_Driver/Src/stm32l4xx_ll_usb.c ****   uint16_t len_words;
 4246              		.loc 1 1660 3 view .LVU1331
1661:Drivers/STM32L4xx_HAL_Driver/Src/stm32l4xx_ll_usb.c ****   uint16_t num_packets;
 4247              		.loc 1 1661 3 view .LVU1332
1662:Drivers/STM32L4xx_HAL_Driver/Src/stm32l4xx_ll_usb.c ****   uint16_t max_hc_pkt_count = 256U;
 4248              		.loc 1 1662 3 view .LVU1333
1663:Drivers/STM32L4xx_HAL_Driver/Src/stm32l4xx_ll_usb.c **** 
1664:Drivers/STM32L4xx_HAL_Driver/Src/stm32l4xx_ll_usb.c ****   /* Compute the expected number of packets associated to the transfer */
1665:Drivers/STM32L4xx_HAL_Driver/Src/stm32l4xx_ll_usb.c ****   if (hc->xfer_len > 0U)
 4249              		.loc 1 1665 3 view .LVU1334
 4250              		.loc 1 1665 9 is_stmt 0 view .LVU1335
 4251 0006 4D69     		ldr	r5, [r1, #20]
 4252              		.loc 1 1665 6 view .LVU1336
 4253 0008 5DB1     		cbz	r5, .L275
1666:Drivers/STM32L4xx_HAL_Driver/Src/stm32l4xx_ll_usb.c ****   {
1667:Drivers/STM32L4xx_HAL_Driver/Src/stm32l4xx_ll_usb.c ****     num_packets = (uint16_t)((hc->xfer_len + hc->max_packet - 1U) / hc->max_packet);
 4254              		.loc 1 1667 5 is_stmt 1 view .LVU1337
 4255              		.loc 1 1667 48 is_stmt 0 view .LVU1338
 4256 000a 0A89     		ldrh	r2, [r1, #8]
 4257              		.loc 1 1667 44 view .LVU1339
ARM GAS  /tmp/ccS8Yg0I.s 			page 123


 4258 000c AC18     		adds	r4, r5, r2
 4259              		.loc 1 1667 61 view .LVU1340
 4260 000e 013C     		subs	r4, r4, #1
 4261              		.loc 1 1667 67 view .LVU1341
 4262 0010 B4FBF2F4 		udiv	r4, r4, r2
 4263              		.loc 1 1667 17 view .LVU1342
 4264 0014 A4B2     		uxth	r4, r4
 4265              	.LVL332:
1668:Drivers/STM32L4xx_HAL_Driver/Src/stm32l4xx_ll_usb.c **** 
1669:Drivers/STM32L4xx_HAL_Driver/Src/stm32l4xx_ll_usb.c ****     if (num_packets > max_hc_pkt_count)
 4266              		.loc 1 1669 5 is_stmt 1 view .LVU1343
 4267              		.loc 1 1669 8 is_stmt 0 view .LVU1344
 4268 0016 B4F5807F 		cmp	r4, #256
 4269 001a 03D9     		bls	.L265
1670:Drivers/STM32L4xx_HAL_Driver/Src/stm32l4xx_ll_usb.c ****     {
1671:Drivers/STM32L4xx_HAL_Driver/Src/stm32l4xx_ll_usb.c ****       num_packets = max_hc_pkt_count;
 4270              		.loc 1 1671 19 view .LVU1345
 4271 001c 4FF48074 		mov	r4, #256
 4272              	.LVL333:
 4273              		.loc 1 1671 19 view .LVU1346
 4274 0020 00E0     		b	.L265
 4275              	.LVL334:
 4276              	.L275:
1672:Drivers/STM32L4xx_HAL_Driver/Src/stm32l4xx_ll_usb.c ****       hc->XferSize = (uint32_t)num_packets * hc->max_packet;
1673:Drivers/STM32L4xx_HAL_Driver/Src/stm32l4xx_ll_usb.c ****     }
1674:Drivers/STM32L4xx_HAL_Driver/Src/stm32l4xx_ll_usb.c ****   }
1675:Drivers/STM32L4xx_HAL_Driver/Src/stm32l4xx_ll_usb.c ****   else
1676:Drivers/STM32L4xx_HAL_Driver/Src/stm32l4xx_ll_usb.c ****   {
1677:Drivers/STM32L4xx_HAL_Driver/Src/stm32l4xx_ll_usb.c ****     num_packets = 1U;
 4277              		.loc 1 1677 17 view .LVU1347
 4278 0022 0124     		movs	r4, #1
 4279              	.L265:
 4280              	.LVL335:
1678:Drivers/STM32L4xx_HAL_Driver/Src/stm32l4xx_ll_usb.c ****   }
1679:Drivers/STM32L4xx_HAL_Driver/Src/stm32l4xx_ll_usb.c **** 
1680:Drivers/STM32L4xx_HAL_Driver/Src/stm32l4xx_ll_usb.c ****   /*
1681:Drivers/STM32L4xx_HAL_Driver/Src/stm32l4xx_ll_usb.c ****    * For IN channel HCTSIZ.XferSize is expected to be an integer multiple of
1682:Drivers/STM32L4xx_HAL_Driver/Src/stm32l4xx_ll_usb.c ****    * max_packet size.
1683:Drivers/STM32L4xx_HAL_Driver/Src/stm32l4xx_ll_usb.c ****    */
1684:Drivers/STM32L4xx_HAL_Driver/Src/stm32l4xx_ll_usb.c ****   if (hc->ep_is_in != 0U)
 4281              		.loc 1 1684 3 is_stmt 1 view .LVU1348
 4282              		.loc 1 1684 9 is_stmt 0 view .LVU1349
 4283 0024 CA78     		ldrb	r2, [r1, #3]	@ zero_extendqisi2
 4284              		.loc 1 1684 6 view .LVU1350
 4285 0026 002A     		cmp	r2, #0
 4286 0028 48D0     		beq	.L266
1685:Drivers/STM32L4xx_HAL_Driver/Src/stm32l4xx_ll_usb.c ****   {
1686:Drivers/STM32L4xx_HAL_Driver/Src/stm32l4xx_ll_usb.c ****     hc->XferSize = (uint32_t)num_packets * hc->max_packet;
 4287              		.loc 1 1686 5 is_stmt 1 view .LVU1351
 4288              		.loc 1 1686 46 is_stmt 0 view .LVU1352
 4289 002a 0A89     		ldrh	r2, [r1, #8]
 4290              		.loc 1 1686 42 view .LVU1353
 4291 002c 02FB04F2 		mul	r2, r2, r4
 4292              		.loc 1 1686 18 view .LVU1354
 4293 0030 0A61     		str	r2, [r1, #16]
 4294              	.L267:
1687:Drivers/STM32L4xx_HAL_Driver/Src/stm32l4xx_ll_usb.c ****   }
ARM GAS  /tmp/ccS8Yg0I.s 			page 124


1688:Drivers/STM32L4xx_HAL_Driver/Src/stm32l4xx_ll_usb.c ****   else
1689:Drivers/STM32L4xx_HAL_Driver/Src/stm32l4xx_ll_usb.c ****   {
1690:Drivers/STM32L4xx_HAL_Driver/Src/stm32l4xx_ll_usb.c ****     hc->XferSize = hc->xfer_len;
1691:Drivers/STM32L4xx_HAL_Driver/Src/stm32l4xx_ll_usb.c ****   }
1692:Drivers/STM32L4xx_HAL_Driver/Src/stm32l4xx_ll_usb.c **** 
1693:Drivers/STM32L4xx_HAL_Driver/Src/stm32l4xx_ll_usb.c ****   /* Initialize the HCTSIZn register */
1694:Drivers/STM32L4xx_HAL_Driver/Src/stm32l4xx_ll_usb.c ****   USBx_HC(ch_num)->HCTSIZ = (hc->XferSize & USB_OTG_HCTSIZ_XFRSIZ) |
 4295              		.loc 1 1694 3 is_stmt 1 view .LVU1355
 4296              		.loc 1 1694 32 is_stmt 0 view .LVU1356
 4297 0032 0A69     		ldr	r2, [r1, #16]
 4298              		.loc 1 1694 43 view .LVU1357
 4299 0034 C2F31202 		ubfx	r2, r2, #0, #19
1695:Drivers/STM32L4xx_HAL_Driver/Src/stm32l4xx_ll_usb.c ****                             (((uint32_t)num_packets << 19) & USB_OTG_HCTSIZ_PKTCNT) |
 4300              		.loc 1 1695 60 view .LVU1358
 4301 0038 334D     		ldr	r5, .L278
 4302 003a 05EAC444 		and	r4, r5, r4, lsl #19
 4303              	.LVL336:
1694:Drivers/STM32L4xx_HAL_Driver/Src/stm32l4xx_ll_usb.c ****                             (((uint32_t)num_packets << 19) & USB_OTG_HCTSIZ_PKTCNT) |
 4304              		.loc 1 1694 68 view .LVU1359
 4305 003e 2243     		orrs	r2, r2, r4
1696:Drivers/STM32L4xx_HAL_Driver/Src/stm32l4xx_ll_usb.c ****                             (((uint32_t)hc->data_pid << 29) & USB_OTG_HCTSIZ_DPID);
 4306              		.loc 1 1696 43 view .LVU1360
 4307 0040 8C7A     		ldrb	r4, [r1, #10]	@ zero_extendqisi2
 4308              		.loc 1 1696 54 view .LVU1361
 4309 0042 6407     		lsls	r4, r4, #29
 4310              		.loc 1 1696 61 view .LVU1362
 4311 0044 04F0C044 		and	r4, r4, #1610612736
1694:Drivers/STM32L4xx_HAL_Driver/Src/stm32l4xx_ll_usb.c ****                             (((uint32_t)num_packets << 19) & USB_OTG_HCTSIZ_PKTCNT) |
 4312              		.loc 1 1694 3 view .LVU1363
 4313 0048 00EB4313 		add	r3, r0, r3, lsl #5
 4314              	.LVL337:
1694:Drivers/STM32L4xx_HAL_Driver/Src/stm32l4xx_ll_usb.c ****                             (((uint32_t)num_packets << 19) & USB_OTG_HCTSIZ_PKTCNT) |
 4315              		.loc 1 1694 3 view .LVU1364
 4316 004c 03F5A065 		add	r5, r3, #1280
1695:Drivers/STM32L4xx_HAL_Driver/Src/stm32l4xx_ll_usb.c ****                             (((uint32_t)num_packets << 19) & USB_OTG_HCTSIZ_PKTCNT) |
 4317              		.loc 1 1695 85 view .LVU1365
 4318 0050 2243     		orrs	r2, r2, r4
1694:Drivers/STM32L4xx_HAL_Driver/Src/stm32l4xx_ll_usb.c ****                             (((uint32_t)num_packets << 19) & USB_OTG_HCTSIZ_PKTCNT) |
 4319              		.loc 1 1694 27 view .LVU1366
 4320 0052 C3F81025 		str	r2, [r3, #1296]
 4321              	.LVL338:
1697:Drivers/STM32L4xx_HAL_Driver/Src/stm32l4xx_ll_usb.c **** 
1698:Drivers/STM32L4xx_HAL_Driver/Src/stm32l4xx_ll_usb.c ****   is_oddframe = (((uint32_t)USBx_HOST->HFNUM & 0x01U) != 0U) ? 0U : 1U;
 4322              		.loc 1 1698 3 is_stmt 1 view .LVU1367
 4323              		.loc 1 1698 29 is_stmt 0 view .LVU1368
 4324 0056 00F58064 		add	r4, r0, #1024
 4325              		.loc 1 1698 38 view .LVU1369
 4326 005a A268     		ldr	r2, [r4, #8]
 4327              		.loc 1 1698 67 view .LVU1370
 4328 005c 12F0010F 		tst	r2, #1
 4329              	.LVL339:
1699:Drivers/STM32L4xx_HAL_Driver/Src/stm32l4xx_ll_usb.c ****   USBx_HC(ch_num)->HCCHAR &= ~USB_OTG_HCCHAR_ODDFRM;
 4330              		.loc 1 1699 3 is_stmt 1 view .LVU1371
 4331              		.loc 1 1699 27 is_stmt 0 view .LVU1372
 4332 0060 D3F80025 		ldr	r2, [r3, #1280]
 4333 0064 22F00052 		bic	r2, r2, #536870912
 4334 0068 C3F80025 		str	r2, [r3, #1280]
ARM GAS  /tmp/ccS8Yg0I.s 			page 125


1700:Drivers/STM32L4xx_HAL_Driver/Src/stm32l4xx_ll_usb.c ****   USBx_HC(ch_num)->HCCHAR |= (uint32_t)is_oddframe << 29;
 4335              		.loc 1 1700 3 is_stmt 1 view .LVU1373
 4336              		.loc 1 1700 27 is_stmt 0 view .LVU1374
 4337 006c D3F80025 		ldr	r2, [r3, #1280]
 4338              		.loc 1 1700 52 view .LVU1375
 4339 0070 0CBF     		ite	eq
 4340 0072 4FF00055 		moveq	r5, #536870912
 4341 0076 0025     		movne	r5, #0
 4342              		.loc 1 1700 27 view .LVU1376
 4343 0078 2A43     		orrs	r2, r2, r5
 4344 007a C3F80025 		str	r2, [r3, #1280]
1701:Drivers/STM32L4xx_HAL_Driver/Src/stm32l4xx_ll_usb.c **** 
1702:Drivers/STM32L4xx_HAL_Driver/Src/stm32l4xx_ll_usb.c ****   /* Set host channel enable */
1703:Drivers/STM32L4xx_HAL_Driver/Src/stm32l4xx_ll_usb.c ****   tmpreg = USBx_HC(ch_num)->HCCHAR;
 4345              		.loc 1 1703 3 is_stmt 1 view .LVU1377
 4346              		.loc 1 1703 27 is_stmt 0 view .LVU1378
 4347 007e D3F80025 		ldr	r2, [r3, #1280]
 4348              		.loc 1 1703 10 view .LVU1379
 4349 0082 0192     		str	r2, [sp, #4]
1704:Drivers/STM32L4xx_HAL_Driver/Src/stm32l4xx_ll_usb.c ****   tmpreg &= ~USB_OTG_HCCHAR_CHDIS;
 4350              		.loc 1 1704 3 is_stmt 1 view .LVU1380
 4351              		.loc 1 1704 10 is_stmt 0 view .LVU1381
 4352 0084 019A     		ldr	r2, [sp, #4]
 4353 0086 22F08042 		bic	r2, r2, #1073741824
 4354 008a 0192     		str	r2, [sp, #4]
1705:Drivers/STM32L4xx_HAL_Driver/Src/stm32l4xx_ll_usb.c **** 
1706:Drivers/STM32L4xx_HAL_Driver/Src/stm32l4xx_ll_usb.c ****   /* make sure to set the correct ep direction */
1707:Drivers/STM32L4xx_HAL_Driver/Src/stm32l4xx_ll_usb.c ****   if (hc->ep_is_in != 0U)
 4355              		.loc 1 1707 3 is_stmt 1 view .LVU1382
 4356              		.loc 1 1707 9 is_stmt 0 view .LVU1383
 4357 008c CA78     		ldrb	r2, [r1, #3]	@ zero_extendqisi2
 4358              		.loc 1 1707 6 view .LVU1384
 4359 008e BAB1     		cbz	r2, .L268
 4360              	.LVL340:
1708:Drivers/STM32L4xx_HAL_Driver/Src/stm32l4xx_ll_usb.c ****   {
1709:Drivers/STM32L4xx_HAL_Driver/Src/stm32l4xx_ll_usb.c ****     tmpreg |= USB_OTG_HCCHAR_EPDIR;
 4361              		.loc 1 1709 5 is_stmt 1 view .LVU1385
 4362              		.loc 1 1709 12 is_stmt 0 view .LVU1386
 4363 0090 019A     		ldr	r2, [sp, #4]
 4364 0092 42F40042 		orr	r2, r2, #32768
 4365 0096 0192     		str	r2, [sp, #4]
 4366              	.L269:
1710:Drivers/STM32L4xx_HAL_Driver/Src/stm32l4xx_ll_usb.c ****   }
1711:Drivers/STM32L4xx_HAL_Driver/Src/stm32l4xx_ll_usb.c ****   else
1712:Drivers/STM32L4xx_HAL_Driver/Src/stm32l4xx_ll_usb.c ****   {
1713:Drivers/STM32L4xx_HAL_Driver/Src/stm32l4xx_ll_usb.c ****     tmpreg &= ~USB_OTG_HCCHAR_EPDIR;
1714:Drivers/STM32L4xx_HAL_Driver/Src/stm32l4xx_ll_usb.c ****   }
1715:Drivers/STM32L4xx_HAL_Driver/Src/stm32l4xx_ll_usb.c ****   tmpreg |= USB_OTG_HCCHAR_CHENA;
 4367              		.loc 1 1715 3 is_stmt 1 view .LVU1387
 4368              		.loc 1 1715 10 is_stmt 0 view .LVU1388
 4369 0098 019A     		ldr	r2, [sp, #4]
 4370 009a 42F00042 		orr	r2, r2, #-2147483648
 4371 009e 0192     		str	r2, [sp, #4]
1716:Drivers/STM32L4xx_HAL_Driver/Src/stm32l4xx_ll_usb.c ****   USBx_HC(ch_num)->HCCHAR = tmpreg;
 4372              		.loc 1 1716 3 is_stmt 1 view .LVU1389
 4373              		.loc 1 1716 27 is_stmt 0 view .LVU1390
 4374 00a0 019A     		ldr	r2, [sp, #4]
ARM GAS  /tmp/ccS8Yg0I.s 			page 126


 4375 00a2 C3F80025 		str	r2, [r3, #1280]
1717:Drivers/STM32L4xx_HAL_Driver/Src/stm32l4xx_ll_usb.c **** 
1718:Drivers/STM32L4xx_HAL_Driver/Src/stm32l4xx_ll_usb.c ****   if ((hc->ep_is_in == 0U) && (hc->xfer_len > 0U))
 4376              		.loc 1 1718 3 is_stmt 1 view .LVU1391
 4377              		.loc 1 1718 10 is_stmt 0 view .LVU1392
 4378 00a6 CB78     		ldrb	r3, [r1, #3]	@ zero_extendqisi2
 4379              		.loc 1 1718 6 view .LVU1393
 4380 00a8 FBB9     		cbnz	r3, .L270
 4381              		.loc 1 1718 34 discriminator 1 view .LVU1394
 4382 00aa 4B69     		ldr	r3, [r1, #20]
 4383              		.loc 1 1718 28 discriminator 1 view .LVU1395
 4384 00ac EBB1     		cbz	r3, .L270
1719:Drivers/STM32L4xx_HAL_Driver/Src/stm32l4xx_ll_usb.c ****   {
1720:Drivers/STM32L4xx_HAL_Driver/Src/stm32l4xx_ll_usb.c ****     switch (hc->ep_type)
 4385              		.loc 1 1720 5 is_stmt 1 view .LVU1396
 4386              		.loc 1 1720 15 is_stmt 0 view .LVU1397
 4387 00ae CA79     		ldrb	r2, [r1, #7]	@ zero_extendqisi2
 4388 00b0 032A     		cmp	r2, #3
 4389 00b2 15D8     		bhi	.L271
 4390 00b4 DFE802F0 		tbb	[pc, r2]
 4391              	.L273:
 4392 00b8 09       		.byte	(.L274-.L273)/2
 4393 00b9 1C       		.byte	(.L272-.L273)/2
 4394 00ba 09       		.byte	(.L274-.L273)/2
 4395 00bb 1C       		.byte	(.L272-.L273)/2
 4396              	.LVL341:
 4397              		.p2align 1
 4398              	.L266:
1690:Drivers/STM32L4xx_HAL_Driver/Src/stm32l4xx_ll_usb.c ****   }
 4399              		.loc 1 1690 5 is_stmt 1 view .LVU1398
1690:Drivers/STM32L4xx_HAL_Driver/Src/stm32l4xx_ll_usb.c ****   }
 4400              		.loc 1 1690 18 is_stmt 0 view .LVU1399
 4401 00bc 0D61     		str	r5, [r1, #16]
 4402 00be B8E7     		b	.L267
 4403              	.LVL342:
 4404              	.L268:
1713:Drivers/STM32L4xx_HAL_Driver/Src/stm32l4xx_ll_usb.c ****   }
 4405              		.loc 1 1713 5 is_stmt 1 view .LVU1400
1713:Drivers/STM32L4xx_HAL_Driver/Src/stm32l4xx_ll_usb.c ****   }
 4406              		.loc 1 1713 12 is_stmt 0 view .LVU1401
 4407 00c0 019A     		ldr	r2, [sp, #4]
 4408 00c2 22F40042 		bic	r2, r2, #32768
 4409 00c6 0192     		str	r2, [sp, #4]
 4410 00c8 E6E7     		b	.L269
 4411              	.L274:
1721:Drivers/STM32L4xx_HAL_Driver/Src/stm32l4xx_ll_usb.c ****     {
1722:Drivers/STM32L4xx_HAL_Driver/Src/stm32l4xx_ll_usb.c ****       /* Non periodic transfer */
1723:Drivers/STM32L4xx_HAL_Driver/Src/stm32l4xx_ll_usb.c ****       case EP_TYPE_CTRL:
1724:Drivers/STM32L4xx_HAL_Driver/Src/stm32l4xx_ll_usb.c ****       case EP_TYPE_BULK:
1725:Drivers/STM32L4xx_HAL_Driver/Src/stm32l4xx_ll_usb.c **** 
1726:Drivers/STM32L4xx_HAL_Driver/Src/stm32l4xx_ll_usb.c ****         len_words = (uint16_t)((hc->xfer_len + 3U) / 4U);
 4412              		.loc 1 1726 9 is_stmt 1 view .LVU1402
 4413              		.loc 1 1726 46 is_stmt 0 view .LVU1403
 4414 00ca 0333     		adds	r3, r3, #3
 4415              	.LVL343:
1727:Drivers/STM32L4xx_HAL_Driver/Src/stm32l4xx_ll_usb.c **** 
1728:Drivers/STM32L4xx_HAL_Driver/Src/stm32l4xx_ll_usb.c ****         /* check if there is enough space in FIFO space */
ARM GAS  /tmp/ccS8Yg0I.s 			page 127


1729:Drivers/STM32L4xx_HAL_Driver/Src/stm32l4xx_ll_usb.c ****         if (len_words > (USBx->HNPTXSTS & 0xFFFFU))
 4416              		.loc 1 1729 9 is_stmt 1 view .LVU1404
 4417              		.loc 1 1729 30 is_stmt 0 view .LVU1405
 4418 00cc C26A     		ldr	r2, [r0, #44]
 4419              		.loc 1 1729 41 view .LVU1406
 4420 00ce 92B2     		uxth	r2, r2
 4421              		.loc 1 1729 12 view .LVU1407
 4422 00d0 C3F38F03 		ubfx	r3, r3, #2, #16
 4423              	.LVL344:
 4424              		.loc 1 1729 12 view .LVU1408
 4425 00d4 9A42     		cmp	r2, r3
 4426 00d6 03D2     		bcs	.L271
1730:Drivers/STM32L4xx_HAL_Driver/Src/stm32l4xx_ll_usb.c ****         {
1731:Drivers/STM32L4xx_HAL_Driver/Src/stm32l4xx_ll_usb.c ****           /* need to process data in nptxfempty interrupt */
1732:Drivers/STM32L4xx_HAL_Driver/Src/stm32l4xx_ll_usb.c ****           USBx->GINTMSK |= USB_OTG_GINTMSK_NPTXFEM;
 4427              		.loc 1 1732 11 is_stmt 1 view .LVU1409
 4428              		.loc 1 1732 25 is_stmt 0 view .LVU1410
 4429 00d8 8369     		ldr	r3, [r0, #24]
 4430 00da 43F02003 		orr	r3, r3, #32
 4431 00de 8361     		str	r3, [r0, #24]
 4432              	.LVL345:
 4433              	.L271:
1733:Drivers/STM32L4xx_HAL_Driver/Src/stm32l4xx_ll_usb.c ****         }
1734:Drivers/STM32L4xx_HAL_Driver/Src/stm32l4xx_ll_usb.c ****         break;
1735:Drivers/STM32L4xx_HAL_Driver/Src/stm32l4xx_ll_usb.c **** 
1736:Drivers/STM32L4xx_HAL_Driver/Src/stm32l4xx_ll_usb.c ****       /* Periodic transfer */
1737:Drivers/STM32L4xx_HAL_Driver/Src/stm32l4xx_ll_usb.c ****       case EP_TYPE_INTR:
1738:Drivers/STM32L4xx_HAL_Driver/Src/stm32l4xx_ll_usb.c ****       case EP_TYPE_ISOC:
1739:Drivers/STM32L4xx_HAL_Driver/Src/stm32l4xx_ll_usb.c ****         len_words = (uint16_t)((hc->xfer_len + 3U) / 4U);
1740:Drivers/STM32L4xx_HAL_Driver/Src/stm32l4xx_ll_usb.c ****         /* check if there is enough space in FIFO space */
1741:Drivers/STM32L4xx_HAL_Driver/Src/stm32l4xx_ll_usb.c ****         if (len_words > (USBx_HOST->HPTXSTS & 0xFFFFU)) /* split the transfer */
1742:Drivers/STM32L4xx_HAL_Driver/Src/stm32l4xx_ll_usb.c ****         {
1743:Drivers/STM32L4xx_HAL_Driver/Src/stm32l4xx_ll_usb.c ****           /* need to process data in ptxfempty interrupt */
1744:Drivers/STM32L4xx_HAL_Driver/Src/stm32l4xx_ll_usb.c ****           USBx->GINTMSK |= USB_OTG_GINTMSK_PTXFEM;
1745:Drivers/STM32L4xx_HAL_Driver/Src/stm32l4xx_ll_usb.c ****         }
1746:Drivers/STM32L4xx_HAL_Driver/Src/stm32l4xx_ll_usb.c ****         break;
1747:Drivers/STM32L4xx_HAL_Driver/Src/stm32l4xx_ll_usb.c **** 
1748:Drivers/STM32L4xx_HAL_Driver/Src/stm32l4xx_ll_usb.c ****       default:
1749:Drivers/STM32L4xx_HAL_Driver/Src/stm32l4xx_ll_usb.c ****         break;
1750:Drivers/STM32L4xx_HAL_Driver/Src/stm32l4xx_ll_usb.c ****     }
1751:Drivers/STM32L4xx_HAL_Driver/Src/stm32l4xx_ll_usb.c **** 
1752:Drivers/STM32L4xx_HAL_Driver/Src/stm32l4xx_ll_usb.c ****     /* Write packet into the Tx FIFO. */
1753:Drivers/STM32L4xx_HAL_Driver/Src/stm32l4xx_ll_usb.c ****     (void)USB_WritePacket(USBx, hc->xfer_buff, hc->ch_num, (uint16_t)hc->xfer_len);
 4434              		.loc 1 1753 5 is_stmt 1 view .LVU1411
 4435              		.loc 1 1753 11 is_stmt 0 view .LVU1412
 4436 00e0 8B8A     		ldrh	r3, [r1, #20]
 4437 00e2 4A78     		ldrb	r2, [r1, #1]	@ zero_extendqisi2
 4438 00e4 C968     		ldr	r1, [r1, #12]
 4439              	.LVL346:
 4440              		.loc 1 1753 11 view .LVU1413
 4441 00e6 FFF7FEFF 		bl	USB_WritePacket
 4442              	.LVL347:
 4443              	.L270:
1754:Drivers/STM32L4xx_HAL_Driver/Src/stm32l4xx_ll_usb.c ****   }
1755:Drivers/STM32L4xx_HAL_Driver/Src/stm32l4xx_ll_usb.c **** 
1756:Drivers/STM32L4xx_HAL_Driver/Src/stm32l4xx_ll_usb.c ****   return HAL_OK;
 4444              		.loc 1 1756 3 is_stmt 1 view .LVU1414
ARM GAS  /tmp/ccS8Yg0I.s 			page 128


1757:Drivers/STM32L4xx_HAL_Driver/Src/stm32l4xx_ll_usb.c **** }
 4445              		.loc 1 1757 1 is_stmt 0 view .LVU1415
 4446 00ea 0020     		movs	r0, #0
 4447 00ec 03B0     		add	sp, sp, #12
 4448              	.LCFI65:
 4449              		.cfi_remember_state
 4450              		.cfi_def_cfa_offset 12
 4451              		@ sp needed
 4452 00ee 30BD     		pop	{r4, r5, pc}
 4453              	.LVL348:
 4454              	.L272:
 4455              	.LCFI66:
 4456              		.cfi_restore_state
1739:Drivers/STM32L4xx_HAL_Driver/Src/stm32l4xx_ll_usb.c ****         /* check if there is enough space in FIFO space */
 4457              		.loc 1 1739 9 is_stmt 1 view .LVU1416
1739:Drivers/STM32L4xx_HAL_Driver/Src/stm32l4xx_ll_usb.c ****         /* check if there is enough space in FIFO space */
 4458              		.loc 1 1739 46 is_stmt 0 view .LVU1417
 4459 00f0 0333     		adds	r3, r3, #3
 4460              	.LVL349:
1741:Drivers/STM32L4xx_HAL_Driver/Src/stm32l4xx_ll_usb.c ****         {
 4461              		.loc 1 1741 9 is_stmt 1 view .LVU1418
1741:Drivers/STM32L4xx_HAL_Driver/Src/stm32l4xx_ll_usb.c ****         {
 4462              		.loc 1 1741 35 is_stmt 0 view .LVU1419
 4463 00f2 2269     		ldr	r2, [r4, #16]
1741:Drivers/STM32L4xx_HAL_Driver/Src/stm32l4xx_ll_usb.c ****         {
 4464              		.loc 1 1741 45 view .LVU1420
 4465 00f4 92B2     		uxth	r2, r2
1741:Drivers/STM32L4xx_HAL_Driver/Src/stm32l4xx_ll_usb.c ****         {
 4466              		.loc 1 1741 12 view .LVU1421
 4467 00f6 C3F38F03 		ubfx	r3, r3, #2, #16
 4468              	.LVL350:
1741:Drivers/STM32L4xx_HAL_Driver/Src/stm32l4xx_ll_usb.c ****         {
 4469              		.loc 1 1741 12 view .LVU1422
 4470 00fa 9A42     		cmp	r2, r3
 4471 00fc F0D2     		bcs	.L271
1744:Drivers/STM32L4xx_HAL_Driver/Src/stm32l4xx_ll_usb.c ****         }
 4472              		.loc 1 1744 11 is_stmt 1 view .LVU1423
1744:Drivers/STM32L4xx_HAL_Driver/Src/stm32l4xx_ll_usb.c ****         }
 4473              		.loc 1 1744 25 is_stmt 0 view .LVU1424
 4474 00fe 8369     		ldr	r3, [r0, #24]
 4475 0100 43F08063 		orr	r3, r3, #67108864
 4476 0104 8361     		str	r3, [r0, #24]
 4477              	.LVL351:
1744:Drivers/STM32L4xx_HAL_Driver/Src/stm32l4xx_ll_usb.c ****         }
 4478              		.loc 1 1744 25 view .LVU1425
 4479 0106 EBE7     		b	.L271
 4480              	.L279:
 4481              		.align	2
 4482              	.L278:
 4483 0108 0000F81F 		.word	536346624
 4484              		.cfi_endproc
 4485              	.LFE176:
 4487              		.section	.text.USB_HC_ReadInterrupt,"ax",%progbits
 4488              		.align	1
 4489              		.global	USB_HC_ReadInterrupt
 4490              		.syntax unified
 4491              		.thumb
ARM GAS  /tmp/ccS8Yg0I.s 			page 129


 4492              		.thumb_func
 4493              		.fpu fpv4-sp-d16
 4495              	USB_HC_ReadInterrupt:
 4496              	.LVL352:
 4497              	.LFB177:
1758:Drivers/STM32L4xx_HAL_Driver/Src/stm32l4xx_ll_usb.c **** 
1759:Drivers/STM32L4xx_HAL_Driver/Src/stm32l4xx_ll_usb.c **** /**
1760:Drivers/STM32L4xx_HAL_Driver/Src/stm32l4xx_ll_usb.c ****   * @brief Read all host channel interrupts status
1761:Drivers/STM32L4xx_HAL_Driver/Src/stm32l4xx_ll_usb.c ****   * @param  USBx  Selected device
1762:Drivers/STM32L4xx_HAL_Driver/Src/stm32l4xx_ll_usb.c ****   * @retval HAL state
1763:Drivers/STM32L4xx_HAL_Driver/Src/stm32l4xx_ll_usb.c ****   */
1764:Drivers/STM32L4xx_HAL_Driver/Src/stm32l4xx_ll_usb.c **** uint32_t USB_HC_ReadInterrupt(USB_OTG_GlobalTypeDef *USBx)
1765:Drivers/STM32L4xx_HAL_Driver/Src/stm32l4xx_ll_usb.c **** {
 4498              		.loc 1 1765 1 is_stmt 1 view -0
 4499              		.cfi_startproc
 4500              		@ args = 0, pretend = 0, frame = 0
 4501              		@ frame_needed = 0, uses_anonymous_args = 0
 4502              		@ link register save eliminated.
1766:Drivers/STM32L4xx_HAL_Driver/Src/stm32l4xx_ll_usb.c ****   uint32_t USBx_BASE = (uint32_t)USBx;
 4503              		.loc 1 1766 3 view .LVU1427
1767:Drivers/STM32L4xx_HAL_Driver/Src/stm32l4xx_ll_usb.c **** 
1768:Drivers/STM32L4xx_HAL_Driver/Src/stm32l4xx_ll_usb.c ****   return ((USBx_HOST->HAINT) & 0xFFFFU);
 4504              		.loc 1 1768 3 view .LVU1428
 4505              		.loc 1 1768 12 is_stmt 0 view .LVU1429
 4506 0000 00F58060 		add	r0, r0, #1024
 4507              	.LVL353:
 4508              		.loc 1 1768 21 view .LVU1430
 4509 0004 4069     		ldr	r0, [r0, #20]
 4510              	.LVL354:
1769:Drivers/STM32L4xx_HAL_Driver/Src/stm32l4xx_ll_usb.c **** }
 4511              		.loc 1 1769 1 view .LVU1431
 4512 0006 80B2     		uxth	r0, r0
 4513 0008 7047     		bx	lr
 4514              		.cfi_endproc
 4515              	.LFE177:
 4517              		.section	.text.USB_HC_Halt,"ax",%progbits
 4518              		.align	1
 4519              		.global	USB_HC_Halt
 4520              		.syntax unified
 4521              		.thumb
 4522              		.thumb_func
 4523              		.fpu fpv4-sp-d16
 4525              	USB_HC_Halt:
 4526              	.LVL355:
 4527              	.LFB178:
1770:Drivers/STM32L4xx_HAL_Driver/Src/stm32l4xx_ll_usb.c **** 
1771:Drivers/STM32L4xx_HAL_Driver/Src/stm32l4xx_ll_usb.c **** /**
1772:Drivers/STM32L4xx_HAL_Driver/Src/stm32l4xx_ll_usb.c ****   * @brief  Halt a host channel
1773:Drivers/STM32L4xx_HAL_Driver/Src/stm32l4xx_ll_usb.c ****   * @param  USBx  Selected device
1774:Drivers/STM32L4xx_HAL_Driver/Src/stm32l4xx_ll_usb.c ****   * @param  hc_num  Host Channel number
1775:Drivers/STM32L4xx_HAL_Driver/Src/stm32l4xx_ll_usb.c ****   *         This parameter can be a value from 1 to 15
1776:Drivers/STM32L4xx_HAL_Driver/Src/stm32l4xx_ll_usb.c ****   * @retval HAL state
1777:Drivers/STM32L4xx_HAL_Driver/Src/stm32l4xx_ll_usb.c ****   */
1778:Drivers/STM32L4xx_HAL_Driver/Src/stm32l4xx_ll_usb.c **** HAL_StatusTypeDef USB_HC_Halt(USB_OTG_GlobalTypeDef *USBx, uint8_t hc_num)
1779:Drivers/STM32L4xx_HAL_Driver/Src/stm32l4xx_ll_usb.c **** {
 4528              		.loc 1 1779 1 is_stmt 1 view -0
 4529              		.cfi_startproc
ARM GAS  /tmp/ccS8Yg0I.s 			page 130


 4530              		@ args = 0, pretend = 0, frame = 8
 4531              		@ frame_needed = 0, uses_anonymous_args = 0
 4532              		@ link register save eliminated.
 4533              		.loc 1 1779 1 is_stmt 0 view .LVU1433
 4534 0000 30B4     		push	{r4, r5}
 4535              	.LCFI67:
 4536              		.cfi_def_cfa_offset 8
 4537              		.cfi_offset 4, -8
 4538              		.cfi_offset 5, -4
 4539 0002 82B0     		sub	sp, sp, #8
 4540              	.LCFI68:
 4541              		.cfi_def_cfa_offset 16
1780:Drivers/STM32L4xx_HAL_Driver/Src/stm32l4xx_ll_usb.c ****   uint32_t USBx_BASE = (uint32_t)USBx;
 4542              		.loc 1 1780 3 is_stmt 1 view .LVU1434
 4543              	.LVL356:
1781:Drivers/STM32L4xx_HAL_Driver/Src/stm32l4xx_ll_usb.c ****   uint32_t hcnum = (uint32_t)hc_num;
 4544              		.loc 1 1781 3 view .LVU1435
1782:Drivers/STM32L4xx_HAL_Driver/Src/stm32l4xx_ll_usb.c ****   __IO uint32_t count = 0U;
 4545              		.loc 1 1782 3 view .LVU1436
 4546              		.loc 1 1782 17 is_stmt 0 view .LVU1437
 4547 0004 0023     		movs	r3, #0
 4548 0006 0193     		str	r3, [sp, #4]
1783:Drivers/STM32L4xx_HAL_Driver/Src/stm32l4xx_ll_usb.c ****   uint32_t HcEpType = (USBx_HC(hcnum)->HCCHAR & USB_OTG_HCCHAR_EPTYP) >> 18;
 4549              		.loc 1 1783 3 is_stmt 1 view .LVU1438
 4550              		.loc 1 1783 24 is_stmt 0 view .LVU1439
 4551 0008 00EB4111 		add	r1, r0, r1, lsl #5
 4552              	.LVL357:
 4553              		.loc 1 1783 24 view .LVU1440
 4554 000c 01F5A064 		add	r4, r1, #1280
 4555              		.loc 1 1783 38 view .LVU1441
 4556 0010 D1F80035 		ldr	r3, [r1, #1280]
 4557              		.loc 1 1783 12 view .LVU1442
 4558 0014 C3F38143 		ubfx	r3, r3, #18, #2
 4559              	.LVL358:
1784:Drivers/STM32L4xx_HAL_Driver/Src/stm32l4xx_ll_usb.c ****   uint32_t ChannelEna = (USBx_HC(hcnum)->HCCHAR & USB_OTG_HCCHAR_CHENA) >> 31;
 4560              		.loc 1 1784 3 is_stmt 1 view .LVU1443
 4561              		.loc 1 1784 40 is_stmt 0 view .LVU1444
 4562 0018 D1F80025 		ldr	r2, [r1, #1280]
 4563              	.LVL359:
1785:Drivers/STM32L4xx_HAL_Driver/Src/stm32l4xx_ll_usb.c **** 
1786:Drivers/STM32L4xx_HAL_Driver/Src/stm32l4xx_ll_usb.c ****   if (((USBx->GAHBCFG & USB_OTG_GAHBCFG_DMAEN) == USB_OTG_GAHBCFG_DMAEN) &&
 4564              		.loc 1 1786 3 is_stmt 1 view .LVU1445
 4565              		.loc 1 1786 13 is_stmt 0 view .LVU1446
 4566 001c 8568     		ldr	r5, [r0, #8]
 4567              		.loc 1 1786 6 view .LVU1447
 4568 001e 15F0200F 		tst	r5, #32
 4569 0022 02D0     		beq	.L282
 4570 0024 D20F     		lsrs	r2, r2, #31
 4571              	.LVL360:
 4572              		.loc 1 1786 74 discriminator 1 view .LVU1448
 4573 0026 002A     		cmp	r2, #0
 4574 0028 4FD0     		beq	.L283
 4575              	.LVL361:
 4576              	.L282:
1787:Drivers/STM32L4xx_HAL_Driver/Src/stm32l4xx_ll_usb.c ****       (ChannelEna == 0U))
1788:Drivers/STM32L4xx_HAL_Driver/Src/stm32l4xx_ll_usb.c ****   {
1789:Drivers/STM32L4xx_HAL_Driver/Src/stm32l4xx_ll_usb.c ****     return HAL_OK;
ARM GAS  /tmp/ccS8Yg0I.s 			page 131


1790:Drivers/STM32L4xx_HAL_Driver/Src/stm32l4xx_ll_usb.c ****   }
1791:Drivers/STM32L4xx_HAL_Driver/Src/stm32l4xx_ll_usb.c **** 
1792:Drivers/STM32L4xx_HAL_Driver/Src/stm32l4xx_ll_usb.c ****   /* Check for space in the request queue to issue the halt. */
1793:Drivers/STM32L4xx_HAL_Driver/Src/stm32l4xx_ll_usb.c ****   if ((HcEpType == HCCHAR_CTRL) || (HcEpType == HCCHAR_BULK))
 4577              		.loc 1 1793 3 is_stmt 1 view .LVU1449
 4578              		.loc 1 1793 6 is_stmt 0 view .LVU1450
 4579 002a 1BB3     		cbz	r3, .L284
 4580              		.loc 1 1793 33 discriminator 1 view .LVU1451
 4581 002c 022B     		cmp	r3, #2
 4582 002e 21D0     		beq	.L284
1794:Drivers/STM32L4xx_HAL_Driver/Src/stm32l4xx_ll_usb.c ****   {
1795:Drivers/STM32L4xx_HAL_Driver/Src/stm32l4xx_ll_usb.c ****     USBx_HC(hcnum)->HCCHAR |= USB_OTG_HCCHAR_CHDIS;
1796:Drivers/STM32L4xx_HAL_Driver/Src/stm32l4xx_ll_usb.c **** 
1797:Drivers/STM32L4xx_HAL_Driver/Src/stm32l4xx_ll_usb.c ****     if ((USBx->GAHBCFG & USB_OTG_GAHBCFG_DMAEN) == 0U)
1798:Drivers/STM32L4xx_HAL_Driver/Src/stm32l4xx_ll_usb.c ****     {
1799:Drivers/STM32L4xx_HAL_Driver/Src/stm32l4xx_ll_usb.c ****       if ((USBx->HNPTXSTS & (0xFFU << 16)) == 0U)
1800:Drivers/STM32L4xx_HAL_Driver/Src/stm32l4xx_ll_usb.c ****       {
1801:Drivers/STM32L4xx_HAL_Driver/Src/stm32l4xx_ll_usb.c ****         USBx_HC(hcnum)->HCCHAR &= ~USB_OTG_HCCHAR_CHENA;
1802:Drivers/STM32L4xx_HAL_Driver/Src/stm32l4xx_ll_usb.c ****         USBx_HC(hcnum)->HCCHAR |= USB_OTG_HCCHAR_CHENA;
1803:Drivers/STM32L4xx_HAL_Driver/Src/stm32l4xx_ll_usb.c ****         do
1804:Drivers/STM32L4xx_HAL_Driver/Src/stm32l4xx_ll_usb.c ****         {
1805:Drivers/STM32L4xx_HAL_Driver/Src/stm32l4xx_ll_usb.c ****           count++;
1806:Drivers/STM32L4xx_HAL_Driver/Src/stm32l4xx_ll_usb.c **** 
1807:Drivers/STM32L4xx_HAL_Driver/Src/stm32l4xx_ll_usb.c ****           if (count > 1000U)
1808:Drivers/STM32L4xx_HAL_Driver/Src/stm32l4xx_ll_usb.c ****           {
1809:Drivers/STM32L4xx_HAL_Driver/Src/stm32l4xx_ll_usb.c ****             break;
1810:Drivers/STM32L4xx_HAL_Driver/Src/stm32l4xx_ll_usb.c ****           }
1811:Drivers/STM32L4xx_HAL_Driver/Src/stm32l4xx_ll_usb.c ****         } while ((USBx_HC(hcnum)->HCCHAR & USB_OTG_HCCHAR_CHENA) == USB_OTG_HCCHAR_CHENA);
1812:Drivers/STM32L4xx_HAL_Driver/Src/stm32l4xx_ll_usb.c ****       }
1813:Drivers/STM32L4xx_HAL_Driver/Src/stm32l4xx_ll_usb.c ****       else
1814:Drivers/STM32L4xx_HAL_Driver/Src/stm32l4xx_ll_usb.c ****       {
1815:Drivers/STM32L4xx_HAL_Driver/Src/stm32l4xx_ll_usb.c ****         USBx_HC(hcnum)->HCCHAR |= USB_OTG_HCCHAR_CHENA;
1816:Drivers/STM32L4xx_HAL_Driver/Src/stm32l4xx_ll_usb.c ****       }
1817:Drivers/STM32L4xx_HAL_Driver/Src/stm32l4xx_ll_usb.c ****     }
1818:Drivers/STM32L4xx_HAL_Driver/Src/stm32l4xx_ll_usb.c ****   }
1819:Drivers/STM32L4xx_HAL_Driver/Src/stm32l4xx_ll_usb.c ****   else
1820:Drivers/STM32L4xx_HAL_Driver/Src/stm32l4xx_ll_usb.c ****   {
1821:Drivers/STM32L4xx_HAL_Driver/Src/stm32l4xx_ll_usb.c ****     USBx_HC(hcnum)->HCCHAR |= USB_OTG_HCCHAR_CHDIS;
 4583              		.loc 1 1821 5 is_stmt 1 view .LVU1452
 4584              		.loc 1 1821 28 is_stmt 0 view .LVU1453
 4585 0030 D1F80035 		ldr	r3, [r1, #1280]
 4586              	.LVL362:
 4587              		.loc 1 1821 28 view .LVU1454
 4588 0034 43F08043 		orr	r3, r3, #1073741824
 4589 0038 C1F80035 		str	r3, [r1, #1280]
1822:Drivers/STM32L4xx_HAL_Driver/Src/stm32l4xx_ll_usb.c **** 
1823:Drivers/STM32L4xx_HAL_Driver/Src/stm32l4xx_ll_usb.c ****     if ((USBx_HOST->HPTXSTS & (0xFFU << 16)) == 0U)
 4590              		.loc 1 1823 5 is_stmt 1 view .LVU1455
 4591              		.loc 1 1823 19 is_stmt 0 view .LVU1456
 4592 003c D0F81034 		ldr	r3, [r0, #1040]
 4593              		.loc 1 1823 8 view .LVU1457
 4594 0040 13F47F0F 		tst	r3, #16711680
 4595 0044 45D1     		bne	.L288
1824:Drivers/STM32L4xx_HAL_Driver/Src/stm32l4xx_ll_usb.c ****     {
1825:Drivers/STM32L4xx_HAL_Driver/Src/stm32l4xx_ll_usb.c ****       USBx_HC(hcnum)->HCCHAR &= ~USB_OTG_HCCHAR_CHENA;
 4596              		.loc 1 1825 7 is_stmt 1 view .LVU1458
 4597              		.loc 1 1825 30 is_stmt 0 view .LVU1459
ARM GAS  /tmp/ccS8Yg0I.s 			page 132


 4598 0046 D1F80035 		ldr	r3, [r1, #1280]
 4599 004a 23F00043 		bic	r3, r3, #-2147483648
 4600 004e C1F80035 		str	r3, [r1, #1280]
1826:Drivers/STM32L4xx_HAL_Driver/Src/stm32l4xx_ll_usb.c ****       USBx_HC(hcnum)->HCCHAR |= USB_OTG_HCCHAR_CHENA;
 4601              		.loc 1 1826 7 is_stmt 1 view .LVU1460
 4602              		.loc 1 1826 30 is_stmt 0 view .LVU1461
 4603 0052 D1F80035 		ldr	r3, [r1, #1280]
 4604 0056 43F00043 		orr	r3, r3, #-2147483648
 4605 005a C1F80035 		str	r3, [r1, #1280]
 4606              	.L289:
1827:Drivers/STM32L4xx_HAL_Driver/Src/stm32l4xx_ll_usb.c ****       do
 4607              		.loc 1 1827 7 is_stmt 1 view .LVU1462
1828:Drivers/STM32L4xx_HAL_Driver/Src/stm32l4xx_ll_usb.c ****       {
1829:Drivers/STM32L4xx_HAL_Driver/Src/stm32l4xx_ll_usb.c ****         count++;
 4608              		.loc 1 1829 9 view .LVU1463
 4609              		.loc 1 1829 14 is_stmt 0 view .LVU1464
 4610 005e 019B     		ldr	r3, [sp, #4]
 4611 0060 0133     		adds	r3, r3, #1
 4612 0062 0193     		str	r3, [sp, #4]
1830:Drivers/STM32L4xx_HAL_Driver/Src/stm32l4xx_ll_usb.c **** 
1831:Drivers/STM32L4xx_HAL_Driver/Src/stm32l4xx_ll_usb.c ****         if (count > 1000U)
 4613              		.loc 1 1831 9 is_stmt 1 view .LVU1465
 4614              		.loc 1 1831 19 is_stmt 0 view .LVU1466
 4615 0064 019B     		ldr	r3, [sp, #4]
 4616              		.loc 1 1831 12 view .LVU1467
 4617 0066 B3F57A7F 		cmp	r3, #1000
 4618 006a 2ED8     		bhi	.L283
1832:Drivers/STM32L4xx_HAL_Driver/Src/stm32l4xx_ll_usb.c ****         {
1833:Drivers/STM32L4xx_HAL_Driver/Src/stm32l4xx_ll_usb.c ****           break;
1834:Drivers/STM32L4xx_HAL_Driver/Src/stm32l4xx_ll_usb.c ****         }
1835:Drivers/STM32L4xx_HAL_Driver/Src/stm32l4xx_ll_usb.c ****       } while ((USBx_HC(hcnum)->HCCHAR & USB_OTG_HCCHAR_CHENA) == USB_OTG_HCCHAR_CHENA);
 4619              		.loc 1 1835 15 is_stmt 1 view .LVU1468
 4620              		.loc 1 1835 31 is_stmt 0 view .LVU1469
 4621 006c 2368     		ldr	r3, [r4]
 4622              		.loc 1 1835 7 view .LVU1470
 4623 006e 002B     		cmp	r3, #0
 4624 0070 F5DB     		blt	.L289
 4625 0072 2AE0     		b	.L283
 4626              	.LVL363:
 4627              	.L284:
1795:Drivers/STM32L4xx_HAL_Driver/Src/stm32l4xx_ll_usb.c **** 
 4628              		.loc 1 1795 5 is_stmt 1 view .LVU1471
1795:Drivers/STM32L4xx_HAL_Driver/Src/stm32l4xx_ll_usb.c **** 
 4629              		.loc 1 1795 28 is_stmt 0 view .LVU1472
 4630 0074 D1F80035 		ldr	r3, [r1, #1280]
 4631              	.LVL364:
1795:Drivers/STM32L4xx_HAL_Driver/Src/stm32l4xx_ll_usb.c **** 
 4632              		.loc 1 1795 28 view .LVU1473
 4633 0078 43F08043 		orr	r3, r3, #1073741824
 4634 007c C1F80035 		str	r3, [r1, #1280]
1797:Drivers/STM32L4xx_HAL_Driver/Src/stm32l4xx_ll_usb.c ****     {
 4635              		.loc 1 1797 5 is_stmt 1 view .LVU1474
1797:Drivers/STM32L4xx_HAL_Driver/Src/stm32l4xx_ll_usb.c ****     {
 4636              		.loc 1 1797 14 is_stmt 0 view .LVU1475
 4637 0080 8368     		ldr	r3, [r0, #8]
1797:Drivers/STM32L4xx_HAL_Driver/Src/stm32l4xx_ll_usb.c ****     {
 4638              		.loc 1 1797 8 view .LVU1476
ARM GAS  /tmp/ccS8Yg0I.s 			page 133


 4639 0082 13F0200F 		tst	r3, #32
 4640 0086 20D1     		bne	.L283
1799:Drivers/STM32L4xx_HAL_Driver/Src/stm32l4xx_ll_usb.c ****       {
 4641              		.loc 1 1799 7 is_stmt 1 view .LVU1477
1799:Drivers/STM32L4xx_HAL_Driver/Src/stm32l4xx_ll_usb.c ****       {
 4642              		.loc 1 1799 16 is_stmt 0 view .LVU1478
 4643 0088 C36A     		ldr	r3, [r0, #44]
1799:Drivers/STM32L4xx_HAL_Driver/Src/stm32l4xx_ll_usb.c ****       {
 4644              		.loc 1 1799 10 view .LVU1479
 4645 008a 13F47F0F 		tst	r3, #16711680
 4646 008e 16D1     		bne	.L286
1801:Drivers/STM32L4xx_HAL_Driver/Src/stm32l4xx_ll_usb.c ****         USBx_HC(hcnum)->HCCHAR |= USB_OTG_HCCHAR_CHENA;
 4647              		.loc 1 1801 9 is_stmt 1 view .LVU1480
1801:Drivers/STM32L4xx_HAL_Driver/Src/stm32l4xx_ll_usb.c ****         USBx_HC(hcnum)->HCCHAR |= USB_OTG_HCCHAR_CHENA;
 4648              		.loc 1 1801 32 is_stmt 0 view .LVU1481
 4649 0090 D1F80035 		ldr	r3, [r1, #1280]
 4650 0094 23F00043 		bic	r3, r3, #-2147483648
 4651 0098 C1F80035 		str	r3, [r1, #1280]
1802:Drivers/STM32L4xx_HAL_Driver/Src/stm32l4xx_ll_usb.c ****         do
 4652              		.loc 1 1802 9 is_stmt 1 view .LVU1482
1802:Drivers/STM32L4xx_HAL_Driver/Src/stm32l4xx_ll_usb.c ****         do
 4653              		.loc 1 1802 32 is_stmt 0 view .LVU1483
 4654 009c D1F80035 		ldr	r3, [r1, #1280]
 4655 00a0 43F00043 		orr	r3, r3, #-2147483648
 4656 00a4 C1F80035 		str	r3, [r1, #1280]
 4657              	.L287:
1803:Drivers/STM32L4xx_HAL_Driver/Src/stm32l4xx_ll_usb.c ****         {
 4658              		.loc 1 1803 9 is_stmt 1 view .LVU1484
1805:Drivers/STM32L4xx_HAL_Driver/Src/stm32l4xx_ll_usb.c **** 
 4659              		.loc 1 1805 11 view .LVU1485
1805:Drivers/STM32L4xx_HAL_Driver/Src/stm32l4xx_ll_usb.c **** 
 4660              		.loc 1 1805 16 is_stmt 0 view .LVU1486
 4661 00a8 019B     		ldr	r3, [sp, #4]
 4662 00aa 0133     		adds	r3, r3, #1
 4663 00ac 0193     		str	r3, [sp, #4]
1807:Drivers/STM32L4xx_HAL_Driver/Src/stm32l4xx_ll_usb.c ****           {
 4664              		.loc 1 1807 11 is_stmt 1 view .LVU1487
1807:Drivers/STM32L4xx_HAL_Driver/Src/stm32l4xx_ll_usb.c ****           {
 4665              		.loc 1 1807 21 is_stmt 0 view .LVU1488
 4666 00ae 019B     		ldr	r3, [sp, #4]
1807:Drivers/STM32L4xx_HAL_Driver/Src/stm32l4xx_ll_usb.c ****           {
 4667              		.loc 1 1807 14 view .LVU1489
 4668 00b0 B3F57A7F 		cmp	r3, #1000
 4669 00b4 09D8     		bhi	.L283
1811:Drivers/STM32L4xx_HAL_Driver/Src/stm32l4xx_ll_usb.c ****       }
 4670              		.loc 1 1811 17 is_stmt 1 view .LVU1490
1811:Drivers/STM32L4xx_HAL_Driver/Src/stm32l4xx_ll_usb.c ****       }
 4671              		.loc 1 1811 33 is_stmt 0 view .LVU1491
 4672 00b6 2368     		ldr	r3, [r4]
1811:Drivers/STM32L4xx_HAL_Driver/Src/stm32l4xx_ll_usb.c ****       }
 4673              		.loc 1 1811 9 view .LVU1492
 4674 00b8 002B     		cmp	r3, #0
 4675 00ba F5DB     		blt	.L287
 4676 00bc 05E0     		b	.L283
 4677              	.L286:
1815:Drivers/STM32L4xx_HAL_Driver/Src/stm32l4xx_ll_usb.c ****       }
 4678              		.loc 1 1815 9 is_stmt 1 view .LVU1493
ARM GAS  /tmp/ccS8Yg0I.s 			page 134


1815:Drivers/STM32L4xx_HAL_Driver/Src/stm32l4xx_ll_usb.c ****       }
 4679              		.loc 1 1815 32 is_stmt 0 view .LVU1494
 4680 00be D1F80035 		ldr	r3, [r1, #1280]
 4681 00c2 43F00043 		orr	r3, r3, #-2147483648
 4682 00c6 C1F80035 		str	r3, [r1, #1280]
 4683              	.L283:
1836:Drivers/STM32L4xx_HAL_Driver/Src/stm32l4xx_ll_usb.c ****     }
1837:Drivers/STM32L4xx_HAL_Driver/Src/stm32l4xx_ll_usb.c ****     else
1838:Drivers/STM32L4xx_HAL_Driver/Src/stm32l4xx_ll_usb.c ****     {
1839:Drivers/STM32L4xx_HAL_Driver/Src/stm32l4xx_ll_usb.c ****       USBx_HC(hcnum)->HCCHAR |= USB_OTG_HCCHAR_CHENA;
1840:Drivers/STM32L4xx_HAL_Driver/Src/stm32l4xx_ll_usb.c ****     }
1841:Drivers/STM32L4xx_HAL_Driver/Src/stm32l4xx_ll_usb.c ****   }
1842:Drivers/STM32L4xx_HAL_Driver/Src/stm32l4xx_ll_usb.c **** 
1843:Drivers/STM32L4xx_HAL_Driver/Src/stm32l4xx_ll_usb.c ****   return HAL_OK;
1844:Drivers/STM32L4xx_HAL_Driver/Src/stm32l4xx_ll_usb.c **** }
 4684              		.loc 1 1844 1 view .LVU1495
 4685 00ca 0020     		movs	r0, #0
 4686              	.LVL365:
 4687              		.loc 1 1844 1 view .LVU1496
 4688 00cc 02B0     		add	sp, sp, #8
 4689              	.LCFI69:
 4690              		.cfi_remember_state
 4691              		.cfi_def_cfa_offset 8
 4692              		@ sp needed
 4693 00ce 30BC     		pop	{r4, r5}
 4694              	.LCFI70:
 4695              		.cfi_restore 5
 4696              		.cfi_restore 4
 4697              		.cfi_def_cfa_offset 0
 4698 00d0 7047     		bx	lr
 4699              	.LVL366:
 4700              	.L288:
 4701              	.LCFI71:
 4702              		.cfi_restore_state
1839:Drivers/STM32L4xx_HAL_Driver/Src/stm32l4xx_ll_usb.c ****     }
 4703              		.loc 1 1839 7 is_stmt 1 view .LVU1497
1839:Drivers/STM32L4xx_HAL_Driver/Src/stm32l4xx_ll_usb.c ****     }
 4704              		.loc 1 1839 30 is_stmt 0 view .LVU1498
 4705 00d2 D1F80035 		ldr	r3, [r1, #1280]
 4706 00d6 43F00043 		orr	r3, r3, #-2147483648
 4707 00da C1F80035 		str	r3, [r1, #1280]
 4708 00de F4E7     		b	.L283
 4709              		.cfi_endproc
 4710              	.LFE178:
 4712              		.section	.text.USB_DoPing,"ax",%progbits
 4713              		.align	1
 4714              		.global	USB_DoPing
 4715              		.syntax unified
 4716              		.thumb
 4717              		.thumb_func
 4718              		.fpu fpv4-sp-d16
 4720              	USB_DoPing:
 4721              	.LVL367:
 4722              	.LFB179:
1845:Drivers/STM32L4xx_HAL_Driver/Src/stm32l4xx_ll_usb.c **** 
1846:Drivers/STM32L4xx_HAL_Driver/Src/stm32l4xx_ll_usb.c **** /**
1847:Drivers/STM32L4xx_HAL_Driver/Src/stm32l4xx_ll_usb.c ****   * @brief  Initiate Do Ping protocol
ARM GAS  /tmp/ccS8Yg0I.s 			page 135


1848:Drivers/STM32L4xx_HAL_Driver/Src/stm32l4xx_ll_usb.c ****   * @param  USBx  Selected device
1849:Drivers/STM32L4xx_HAL_Driver/Src/stm32l4xx_ll_usb.c ****   * @param  hc_num  Host Channel number
1850:Drivers/STM32L4xx_HAL_Driver/Src/stm32l4xx_ll_usb.c ****   *         This parameter can be a value from 1 to 15
1851:Drivers/STM32L4xx_HAL_Driver/Src/stm32l4xx_ll_usb.c ****   * @retval HAL state
1852:Drivers/STM32L4xx_HAL_Driver/Src/stm32l4xx_ll_usb.c ****   */
1853:Drivers/STM32L4xx_HAL_Driver/Src/stm32l4xx_ll_usb.c **** HAL_StatusTypeDef USB_DoPing(USB_OTG_GlobalTypeDef *USBx, uint8_t ch_num)
1854:Drivers/STM32L4xx_HAL_Driver/Src/stm32l4xx_ll_usb.c **** {
 4723              		.loc 1 1854 1 is_stmt 1 view -0
 4724              		.cfi_startproc
 4725              		@ args = 0, pretend = 0, frame = 0
 4726              		@ frame_needed = 0, uses_anonymous_args = 0
 4727              		@ link register save eliminated.
1855:Drivers/STM32L4xx_HAL_Driver/Src/stm32l4xx_ll_usb.c ****   uint32_t USBx_BASE = (uint32_t)USBx;
 4728              		.loc 1 1855 3 view .LVU1500
1856:Drivers/STM32L4xx_HAL_Driver/Src/stm32l4xx_ll_usb.c ****   uint32_t chnum = (uint32_t)ch_num;
 4729              		.loc 1 1856 3 view .LVU1501
1857:Drivers/STM32L4xx_HAL_Driver/Src/stm32l4xx_ll_usb.c ****   uint32_t num_packets = 1U;
 4730              		.loc 1 1857 3 view .LVU1502
1858:Drivers/STM32L4xx_HAL_Driver/Src/stm32l4xx_ll_usb.c ****   uint32_t tmpreg;
 4731              		.loc 1 1858 3 view .LVU1503
1859:Drivers/STM32L4xx_HAL_Driver/Src/stm32l4xx_ll_usb.c **** 
1860:Drivers/STM32L4xx_HAL_Driver/Src/stm32l4xx_ll_usb.c ****   USBx_HC(chnum)->HCTSIZ = ((num_packets << 19) & USB_OTG_HCTSIZ_PKTCNT) |
 4732              		.loc 1 1860 3 view .LVU1504
 4733 0000 00EB4111 		add	r1, r0, r1, lsl #5
 4734              	.LVL368:
 4735              		.loc 1 1860 26 is_stmt 0 view .LVU1505
 4736 0004 064A     		ldr	r2, .L292
 4737 0006 C1F81025 		str	r2, [r1, #1296]
1861:Drivers/STM32L4xx_HAL_Driver/Src/stm32l4xx_ll_usb.c ****                            USB_OTG_HCTSIZ_DOPING;
1862:Drivers/STM32L4xx_HAL_Driver/Src/stm32l4xx_ll_usb.c **** 
1863:Drivers/STM32L4xx_HAL_Driver/Src/stm32l4xx_ll_usb.c ****   /* Set host channel enable */
1864:Drivers/STM32L4xx_HAL_Driver/Src/stm32l4xx_ll_usb.c ****   tmpreg = USBx_HC(chnum)->HCCHAR;
 4738              		.loc 1 1864 3 is_stmt 1 view .LVU1506
 4739              		.loc 1 1864 10 is_stmt 0 view .LVU1507
 4740 000a D1F80035 		ldr	r3, [r1, #1280]
 4741              	.LVL369:
1865:Drivers/STM32L4xx_HAL_Driver/Src/stm32l4xx_ll_usb.c ****   tmpreg &= ~USB_OTG_HCCHAR_CHDIS;
 4742              		.loc 1 1865 3 is_stmt 1 view .LVU1508
 4743              		.loc 1 1865 10 is_stmt 0 view .LVU1509
 4744 000e 23F08043 		bic	r3, r3, #1073741824
 4745              	.LVL370:
1866:Drivers/STM32L4xx_HAL_Driver/Src/stm32l4xx_ll_usb.c ****   tmpreg |= USB_OTG_HCCHAR_CHENA;
 4746              		.loc 1 1866 3 is_stmt 1 view .LVU1510
 4747              		.loc 1 1866 10 is_stmt 0 view .LVU1511
 4748 0012 43F00043 		orr	r3, r3, #-2147483648
 4749              	.LVL371:
1867:Drivers/STM32L4xx_HAL_Driver/Src/stm32l4xx_ll_usb.c ****   USBx_HC(chnum)->HCCHAR = tmpreg;
 4750              		.loc 1 1867 3 is_stmt 1 view .LVU1512
 4751              		.loc 1 1867 26 is_stmt 0 view .LVU1513
 4752 0016 C1F80035 		str	r3, [r1, #1280]
1868:Drivers/STM32L4xx_HAL_Driver/Src/stm32l4xx_ll_usb.c **** 
1869:Drivers/STM32L4xx_HAL_Driver/Src/stm32l4xx_ll_usb.c ****   return HAL_OK;
 4753              		.loc 1 1869 3 is_stmt 1 view .LVU1514
1870:Drivers/STM32L4xx_HAL_Driver/Src/stm32l4xx_ll_usb.c **** }
 4754              		.loc 1 1870 1 is_stmt 0 view .LVU1515
 4755 001a 0020     		movs	r0, #0
 4756              	.LVL372:
ARM GAS  /tmp/ccS8Yg0I.s 			page 136


 4757              		.loc 1 1870 1 view .LVU1516
 4758 001c 7047     		bx	lr
 4759              	.L293:
 4760 001e 00BF     		.align	2
 4761              	.L292:
 4762 0020 00000880 		.word	-2146959360
 4763              		.cfi_endproc
 4764              	.LFE179:
 4766              		.section	.text.USB_StopHost,"ax",%progbits
 4767              		.align	1
 4768              		.global	USB_StopHost
 4769              		.syntax unified
 4770              		.thumb
 4771              		.thumb_func
 4772              		.fpu fpv4-sp-d16
 4774              	USB_StopHost:
 4775              	.LVL373:
 4776              	.LFB180:
1871:Drivers/STM32L4xx_HAL_Driver/Src/stm32l4xx_ll_usb.c **** 
1872:Drivers/STM32L4xx_HAL_Driver/Src/stm32l4xx_ll_usb.c **** /**
1873:Drivers/STM32L4xx_HAL_Driver/Src/stm32l4xx_ll_usb.c ****   * @brief  Stop Host Core
1874:Drivers/STM32L4xx_HAL_Driver/Src/stm32l4xx_ll_usb.c ****   * @param  USBx  Selected device
1875:Drivers/STM32L4xx_HAL_Driver/Src/stm32l4xx_ll_usb.c ****   * @retval HAL state
1876:Drivers/STM32L4xx_HAL_Driver/Src/stm32l4xx_ll_usb.c ****   */
1877:Drivers/STM32L4xx_HAL_Driver/Src/stm32l4xx_ll_usb.c **** HAL_StatusTypeDef USB_StopHost(USB_OTG_GlobalTypeDef *USBx)
1878:Drivers/STM32L4xx_HAL_Driver/Src/stm32l4xx_ll_usb.c **** {
 4777              		.loc 1 1878 1 is_stmt 1 view -0
 4778              		.cfi_startproc
 4779              		@ args = 0, pretend = 0, frame = 8
 4780              		@ frame_needed = 0, uses_anonymous_args = 0
 4781              		.loc 1 1878 1 is_stmt 0 view .LVU1518
 4782 0000 70B5     		push	{r4, r5, r6, lr}
 4783              	.LCFI72:
 4784              		.cfi_def_cfa_offset 16
 4785              		.cfi_offset 4, -16
 4786              		.cfi_offset 5, -12
 4787              		.cfi_offset 6, -8
 4788              		.cfi_offset 14, -4
 4789 0002 82B0     		sub	sp, sp, #8
 4790              	.LCFI73:
 4791              		.cfi_def_cfa_offset 24
 4792 0004 0546     		mov	r5, r0
1879:Drivers/STM32L4xx_HAL_Driver/Src/stm32l4xx_ll_usb.c ****   HAL_StatusTypeDef ret = HAL_OK;
 4793              		.loc 1 1879 3 is_stmt 1 view .LVU1519
 4794              	.LVL374:
1880:Drivers/STM32L4xx_HAL_Driver/Src/stm32l4xx_ll_usb.c ****   uint32_t USBx_BASE = (uint32_t)USBx;
 4795              		.loc 1 1880 3 view .LVU1520
 4796              		.loc 1 1880 12 is_stmt 0 view .LVU1521
 4797 0006 0446     		mov	r4, r0
 4798              	.LVL375:
1881:Drivers/STM32L4xx_HAL_Driver/Src/stm32l4xx_ll_usb.c ****   __IO uint32_t count = 0U;
 4799              		.loc 1 1881 3 is_stmt 1 view .LVU1522
 4800              		.loc 1 1881 17 is_stmt 0 view .LVU1523
 4801 0008 0023     		movs	r3, #0
 4802 000a 0193     		str	r3, [sp, #4]
1882:Drivers/STM32L4xx_HAL_Driver/Src/stm32l4xx_ll_usb.c ****   uint32_t value;
 4803              		.loc 1 1882 3 is_stmt 1 view .LVU1524
ARM GAS  /tmp/ccS8Yg0I.s 			page 137


1883:Drivers/STM32L4xx_HAL_Driver/Src/stm32l4xx_ll_usb.c ****   uint32_t i;
 4804              		.loc 1 1883 3 view .LVU1525
1884:Drivers/STM32L4xx_HAL_Driver/Src/stm32l4xx_ll_usb.c **** 
1885:Drivers/STM32L4xx_HAL_Driver/Src/stm32l4xx_ll_usb.c ****   (void)USB_DisableGlobalInt(USBx);
 4805              		.loc 1 1885 3 view .LVU1526
 4806              		.loc 1 1885 9 is_stmt 0 view .LVU1527
 4807 000c FFF7FEFF 		bl	USB_DisableGlobalInt
 4808              	.LVL376:
1886:Drivers/STM32L4xx_HAL_Driver/Src/stm32l4xx_ll_usb.c **** 
1887:Drivers/STM32L4xx_HAL_Driver/Src/stm32l4xx_ll_usb.c ****   /* Flush USB FIFO */
1888:Drivers/STM32L4xx_HAL_Driver/Src/stm32l4xx_ll_usb.c ****   if (USB_FlushTxFifo(USBx, 0x10U) != HAL_OK) /* all Tx FIFOs */
 4809              		.loc 1 1888 3 is_stmt 1 view .LVU1528
 4810              		.loc 1 1888 7 is_stmt 0 view .LVU1529
 4811 0010 1021     		movs	r1, #16
 4812 0012 2846     		mov	r0, r5
 4813 0014 FFF7FEFF 		bl	USB_FlushTxFifo
 4814              	.LVL377:
 4815              		.loc 1 1888 6 view .LVU1530
 4816 0018 0646     		mov	r6, r0
 4817 001a 00B1     		cbz	r0, .L295
1889:Drivers/STM32L4xx_HAL_Driver/Src/stm32l4xx_ll_usb.c ****   {
1890:Drivers/STM32L4xx_HAL_Driver/Src/stm32l4xx_ll_usb.c ****     ret = HAL_ERROR;
 4818              		.loc 1 1890 9 view .LVU1531
 4819 001c 0126     		movs	r6, #1
 4820              	.L295:
 4821              	.LVL378:
1891:Drivers/STM32L4xx_HAL_Driver/Src/stm32l4xx_ll_usb.c ****   }
1892:Drivers/STM32L4xx_HAL_Driver/Src/stm32l4xx_ll_usb.c **** 
1893:Drivers/STM32L4xx_HAL_Driver/Src/stm32l4xx_ll_usb.c ****   if (USB_FlushRxFifo(USBx) != HAL_OK)
 4822              		.loc 1 1893 3 is_stmt 1 view .LVU1532
 4823              		.loc 1 1893 7 is_stmt 0 view .LVU1533
 4824 001e 2846     		mov	r0, r5
 4825 0020 FFF7FEFF 		bl	USB_FlushRxFifo
 4826              	.LVL379:
 4827              		.loc 1 1893 6 view .LVU1534
 4828 0024 00B1     		cbz	r0, .L296
1894:Drivers/STM32L4xx_HAL_Driver/Src/stm32l4xx_ll_usb.c ****   {
1895:Drivers/STM32L4xx_HAL_Driver/Src/stm32l4xx_ll_usb.c ****     ret = HAL_ERROR;
 4829              		.loc 1 1895 9 view .LVU1535
 4830 0026 0126     		movs	r6, #1
 4831              	.LVL380:
 4832              	.L296:
1896:Drivers/STM32L4xx_HAL_Driver/Src/stm32l4xx_ll_usb.c ****   }
1897:Drivers/STM32L4xx_HAL_Driver/Src/stm32l4xx_ll_usb.c **** 
1898:Drivers/STM32L4xx_HAL_Driver/Src/stm32l4xx_ll_usb.c ****   /* Flush out any leftover queued requests. */
1899:Drivers/STM32L4xx_HAL_Driver/Src/stm32l4xx_ll_usb.c ****   for (i = 0U; i <= 15U; i++)
 4833              		.loc 1 1899 3 is_stmt 1 view .LVU1536
 4834              		.loc 1 1899 10 is_stmt 0 view .LVU1537
 4835 0028 0022     		movs	r2, #0
 4836              		.loc 1 1899 3 view .LVU1538
 4837 002a 0AE0     		b	.L297
 4838              	.LVL381:
 4839              	.L298:
1900:Drivers/STM32L4xx_HAL_Driver/Src/stm32l4xx_ll_usb.c ****   {
1901:Drivers/STM32L4xx_HAL_Driver/Src/stm32l4xx_ll_usb.c ****     value = USBx_HC(i)->HCCHAR;
 4840              		.loc 1 1901 5 is_stmt 1 discriminator 3 view .LVU1539
 4841              		.loc 1 1901 13 is_stmt 0 discriminator 3 view .LVU1540
ARM GAS  /tmp/ccS8Yg0I.s 			page 138


 4842 002c 04EB4211 		add	r1, r4, r2, lsl #5
 4843              		.loc 1 1901 11 discriminator 3 view .LVU1541
 4844 0030 D1F80035 		ldr	r3, [r1, #1280]
 4845              	.LVL382:
1902:Drivers/STM32L4xx_HAL_Driver/Src/stm32l4xx_ll_usb.c ****     value |=  USB_OTG_HCCHAR_CHDIS;
 4846              		.loc 1 1902 5 is_stmt 1 discriminator 3 view .LVU1542
1903:Drivers/STM32L4xx_HAL_Driver/Src/stm32l4xx_ll_usb.c ****     value &= ~USB_OTG_HCCHAR_CHENA;
 4847              		.loc 1 1903 5 discriminator 3 view .LVU1543
1904:Drivers/STM32L4xx_HAL_Driver/Src/stm32l4xx_ll_usb.c ****     value &= ~USB_OTG_HCCHAR_EPDIR;
 4848              		.loc 1 1904 5 discriminator 3 view .LVU1544
 4849 0034 23F08023 		bic	r3, r3, #-2147450880
 4850              	.LVL383:
 4851              		.loc 1 1904 11 is_stmt 0 discriminator 3 view .LVU1545
 4852 0038 43F08043 		orr	r3, r3, #1073741824
 4853              	.LVL384:
1905:Drivers/STM32L4xx_HAL_Driver/Src/stm32l4xx_ll_usb.c ****     USBx_HC(i)->HCCHAR = value;
 4854              		.loc 1 1905 5 is_stmt 1 discriminator 3 view .LVU1546
 4855              		.loc 1 1905 24 is_stmt 0 discriminator 3 view .LVU1547
 4856 003c C1F80035 		str	r3, [r1, #1280]
1899:Drivers/STM32L4xx_HAL_Driver/Src/stm32l4xx_ll_usb.c ****   {
 4857              		.loc 1 1899 26 is_stmt 1 discriminator 3 view .LVU1548
1899:Drivers/STM32L4xx_HAL_Driver/Src/stm32l4xx_ll_usb.c ****   {
 4858              		.loc 1 1899 27 is_stmt 0 discriminator 3 view .LVU1549
 4859 0040 0132     		adds	r2, r2, #1
 4860              	.LVL385:
 4861              	.L297:
1899:Drivers/STM32L4xx_HAL_Driver/Src/stm32l4xx_ll_usb.c ****   {
 4862              		.loc 1 1899 16 is_stmt 1 discriminator 1 view .LVU1550
1899:Drivers/STM32L4xx_HAL_Driver/Src/stm32l4xx_ll_usb.c ****   {
 4863              		.loc 1 1899 3 is_stmt 0 discriminator 1 view .LVU1551
 4864 0042 0F2A     		cmp	r2, #15
 4865 0044 F2D9     		bls	.L298
1906:Drivers/STM32L4xx_HAL_Driver/Src/stm32l4xx_ll_usb.c ****   }
1907:Drivers/STM32L4xx_HAL_Driver/Src/stm32l4xx_ll_usb.c **** 
1908:Drivers/STM32L4xx_HAL_Driver/Src/stm32l4xx_ll_usb.c ****   /* Halt all channels to put them into a known state. */
1909:Drivers/STM32L4xx_HAL_Driver/Src/stm32l4xx_ll_usb.c ****   for (i = 0U; i <= 15U; i++)
 4866              		.loc 1 1909 10 view .LVU1552
 4867 0046 0021     		movs	r1, #0
 4868 0048 00E0     		b	.L299
 4869              	.LVL386:
 4870              	.L300:
 4871              		.loc 1 1909 26 is_stmt 1 discriminator 2 view .LVU1553
 4872              		.loc 1 1909 27 is_stmt 0 discriminator 2 view .LVU1554
 4873 004a 0131     		adds	r1, r1, #1
 4874              	.LVL387:
 4875              	.L299:
 4876              		.loc 1 1909 16 is_stmt 1 discriminator 1 view .LVU1555
 4877              		.loc 1 1909 3 is_stmt 0 discriminator 1 view .LVU1556
 4878 004c 0F29     		cmp	r1, #15
 4879 004e 16D8     		bhi	.L306
1910:Drivers/STM32L4xx_HAL_Driver/Src/stm32l4xx_ll_usb.c ****   {
1911:Drivers/STM32L4xx_HAL_Driver/Src/stm32l4xx_ll_usb.c ****     value = USBx_HC(i)->HCCHAR;
 4880              		.loc 1 1911 5 is_stmt 1 view .LVU1557
 4881              		.loc 1 1911 13 is_stmt 0 view .LVU1558
 4882 0050 04EB4110 		add	r0, r4, r1, lsl #5
 4883 0054 00F5A062 		add	r2, r0, #1280
 4884              		.loc 1 1911 11 view .LVU1559
ARM GAS  /tmp/ccS8Yg0I.s 			page 139


 4885 0058 D0F80035 		ldr	r3, [r0, #1280]
 4886              	.LVL388:
1912:Drivers/STM32L4xx_HAL_Driver/Src/stm32l4xx_ll_usb.c ****     value |= USB_OTG_HCCHAR_CHDIS;
 4887              		.loc 1 1912 5 is_stmt 1 view .LVU1560
1913:Drivers/STM32L4xx_HAL_Driver/Src/stm32l4xx_ll_usb.c ****     value |= USB_OTG_HCCHAR_CHENA;
 4888              		.loc 1 1913 5 view .LVU1561
1914:Drivers/STM32L4xx_HAL_Driver/Src/stm32l4xx_ll_usb.c ****     value &= ~USB_OTG_HCCHAR_EPDIR;
 4889              		.loc 1 1914 5 view .LVU1562
 4890 005c 23F40043 		bic	r3, r3, #32768
 4891              	.LVL389:
 4892              		.loc 1 1914 11 is_stmt 0 view .LVU1563
 4893 0060 43F04043 		orr	r3, r3, #-1073741824
 4894              	.LVL390:
1915:Drivers/STM32L4xx_HAL_Driver/Src/stm32l4xx_ll_usb.c ****     USBx_HC(i)->HCCHAR = value;
 4895              		.loc 1 1915 5 is_stmt 1 view .LVU1564
 4896              		.loc 1 1915 24 is_stmt 0 view .LVU1565
 4897 0064 C0F80035 		str	r3, [r0, #1280]
 4898              	.LVL391:
 4899              	.L301:
1916:Drivers/STM32L4xx_HAL_Driver/Src/stm32l4xx_ll_usb.c **** 
1917:Drivers/STM32L4xx_HAL_Driver/Src/stm32l4xx_ll_usb.c ****     do
 4900              		.loc 1 1917 5 is_stmt 1 view .LVU1566
1918:Drivers/STM32L4xx_HAL_Driver/Src/stm32l4xx_ll_usb.c ****     {
1919:Drivers/STM32L4xx_HAL_Driver/Src/stm32l4xx_ll_usb.c ****       count++;
 4901              		.loc 1 1919 7 view .LVU1567
 4902              		.loc 1 1919 12 is_stmt 0 view .LVU1568
 4903 0068 019B     		ldr	r3, [sp, #4]
 4904 006a 0133     		adds	r3, r3, #1
 4905 006c 0193     		str	r3, [sp, #4]
1920:Drivers/STM32L4xx_HAL_Driver/Src/stm32l4xx_ll_usb.c **** 
1921:Drivers/STM32L4xx_HAL_Driver/Src/stm32l4xx_ll_usb.c ****       if (count > 1000U)
 4906              		.loc 1 1921 7 is_stmt 1 view .LVU1569
 4907              		.loc 1 1921 17 is_stmt 0 view .LVU1570
 4908 006e 019B     		ldr	r3, [sp, #4]
 4909              		.loc 1 1921 10 view .LVU1571
 4910 0070 B3F57A7F 		cmp	r3, #1000
 4911 0074 E9D8     		bhi	.L300
1922:Drivers/STM32L4xx_HAL_Driver/Src/stm32l4xx_ll_usb.c ****       {
1923:Drivers/STM32L4xx_HAL_Driver/Src/stm32l4xx_ll_usb.c ****         break;
1924:Drivers/STM32L4xx_HAL_Driver/Src/stm32l4xx_ll_usb.c ****       }
1925:Drivers/STM32L4xx_HAL_Driver/Src/stm32l4xx_ll_usb.c ****     } while ((USBx_HC(i)->HCCHAR & USB_OTG_HCCHAR_CHENA) == USB_OTG_HCCHAR_CHENA);
 4912              		.loc 1 1925 13 is_stmt 1 view .LVU1572
 4913              		.loc 1 1925 25 is_stmt 0 view .LVU1573
 4914 0076 1368     		ldr	r3, [r2]
 4915              		.loc 1 1925 5 view .LVU1574
 4916 0078 002B     		cmp	r3, #0
 4917 007a F5DB     		blt	.L301
 4918 007c E5E7     		b	.L300
 4919              	.L306:
1926:Drivers/STM32L4xx_HAL_Driver/Src/stm32l4xx_ll_usb.c ****   }
1927:Drivers/STM32L4xx_HAL_Driver/Src/stm32l4xx_ll_usb.c **** 
1928:Drivers/STM32L4xx_HAL_Driver/Src/stm32l4xx_ll_usb.c ****   /* Clear any pending Host interrupts */
1929:Drivers/STM32L4xx_HAL_Driver/Src/stm32l4xx_ll_usb.c ****   USBx_HOST->HAINT = 0xFFFFFFFFU;
 4920              		.loc 1 1929 3 is_stmt 1 view .LVU1575
 4921              		.loc 1 1929 20 is_stmt 0 view .LVU1576
 4922 007e 4FF0FF33 		mov	r3, #-1
 4923 0082 C5F81434 		str	r3, [r5, #1044]
ARM GAS  /tmp/ccS8Yg0I.s 			page 140


1930:Drivers/STM32L4xx_HAL_Driver/Src/stm32l4xx_ll_usb.c ****   USBx->GINTSTS = 0xFFFFFFFFU;
 4924              		.loc 1 1930 3 is_stmt 1 view .LVU1577
 4925              		.loc 1 1930 17 is_stmt 0 view .LVU1578
 4926 0086 6B61     		str	r3, [r5, #20]
1931:Drivers/STM32L4xx_HAL_Driver/Src/stm32l4xx_ll_usb.c **** 
1932:Drivers/STM32L4xx_HAL_Driver/Src/stm32l4xx_ll_usb.c ****   (void)USB_EnableGlobalInt(USBx);
 4927              		.loc 1 1932 3 is_stmt 1 view .LVU1579
 4928              		.loc 1 1932 9 is_stmt 0 view .LVU1580
 4929 0088 2846     		mov	r0, r5
 4930 008a FFF7FEFF 		bl	USB_EnableGlobalInt
 4931              	.LVL392:
1933:Drivers/STM32L4xx_HAL_Driver/Src/stm32l4xx_ll_usb.c **** 
1934:Drivers/STM32L4xx_HAL_Driver/Src/stm32l4xx_ll_usb.c ****   return ret;
 4932              		.loc 1 1934 3 is_stmt 1 view .LVU1581
1935:Drivers/STM32L4xx_HAL_Driver/Src/stm32l4xx_ll_usb.c **** }
 4933              		.loc 1 1935 1 is_stmt 0 view .LVU1582
 4934 008e 3046     		mov	r0, r6
 4935 0090 02B0     		add	sp, sp, #8
 4936              	.LCFI74:
 4937              		.cfi_def_cfa_offset 16
 4938              		@ sp needed
 4939 0092 70BD     		pop	{r4, r5, r6, pc}
 4940              		.loc 1 1935 1 view .LVU1583
 4941              		.cfi_endproc
 4942              	.LFE180:
 4944              		.section	.text.USB_ActivateRemoteWakeup,"ax",%progbits
 4945              		.align	1
 4946              		.global	USB_ActivateRemoteWakeup
 4947              		.syntax unified
 4948              		.thumb
 4949              		.thumb_func
 4950              		.fpu fpv4-sp-d16
 4952              	USB_ActivateRemoteWakeup:
 4953              	.LVL393:
 4954              	.LFB181:
1936:Drivers/STM32L4xx_HAL_Driver/Src/stm32l4xx_ll_usb.c **** 
1937:Drivers/STM32L4xx_HAL_Driver/Src/stm32l4xx_ll_usb.c **** /**
1938:Drivers/STM32L4xx_HAL_Driver/Src/stm32l4xx_ll_usb.c ****   * @brief  USB_ActivateRemoteWakeup active remote wakeup signalling
1939:Drivers/STM32L4xx_HAL_Driver/Src/stm32l4xx_ll_usb.c ****   * @param  USBx Selected device
1940:Drivers/STM32L4xx_HAL_Driver/Src/stm32l4xx_ll_usb.c ****   * @retval HAL status
1941:Drivers/STM32L4xx_HAL_Driver/Src/stm32l4xx_ll_usb.c ****   */
1942:Drivers/STM32L4xx_HAL_Driver/Src/stm32l4xx_ll_usb.c **** HAL_StatusTypeDef USB_ActivateRemoteWakeup(USB_OTG_GlobalTypeDef *USBx)
1943:Drivers/STM32L4xx_HAL_Driver/Src/stm32l4xx_ll_usb.c **** {
 4955              		.loc 1 1943 1 is_stmt 1 view -0
 4956              		.cfi_startproc
 4957              		@ args = 0, pretend = 0, frame = 0
 4958              		@ frame_needed = 0, uses_anonymous_args = 0
 4959              		@ link register save eliminated.
1944:Drivers/STM32L4xx_HAL_Driver/Src/stm32l4xx_ll_usb.c ****   uint32_t USBx_BASE = (uint32_t)USBx;
 4960              		.loc 1 1944 3 view .LVU1585
1945:Drivers/STM32L4xx_HAL_Driver/Src/stm32l4xx_ll_usb.c **** 
1946:Drivers/STM32L4xx_HAL_Driver/Src/stm32l4xx_ll_usb.c ****   if ((USBx_DEVICE->DSTS & USB_OTG_DSTS_SUSPSTS) == USB_OTG_DSTS_SUSPSTS)
 4961              		.loc 1 1946 3 view .LVU1586
 4962              		.loc 1 1946 19 is_stmt 0 view .LVU1587
 4963 0000 D0F80838 		ldr	r3, [r0, #2056]
 4964              		.loc 1 1946 8 view .LVU1588
 4965 0004 00F50060 		add	r0, r0, #2048
ARM GAS  /tmp/ccS8Yg0I.s 			page 141


 4966              	.LVL394:
 4967              		.loc 1 1946 6 view .LVU1589
 4968 0008 13F0010F 		tst	r3, #1
 4969 000c 03D0     		beq	.L308
1947:Drivers/STM32L4xx_HAL_Driver/Src/stm32l4xx_ll_usb.c ****   {
1948:Drivers/STM32L4xx_HAL_Driver/Src/stm32l4xx_ll_usb.c ****     /* active Remote wakeup signalling */
1949:Drivers/STM32L4xx_HAL_Driver/Src/stm32l4xx_ll_usb.c ****     USBx_DEVICE->DCTL |= USB_OTG_DCTL_RWUSIG;
 4970              		.loc 1 1949 5 is_stmt 1 view .LVU1590
 4971              		.loc 1 1949 23 is_stmt 0 view .LVU1591
 4972 000e 4368     		ldr	r3, [r0, #4]
 4973 0010 43F00103 		orr	r3, r3, #1
 4974 0014 4360     		str	r3, [r0, #4]
 4975              	.L308:
1950:Drivers/STM32L4xx_HAL_Driver/Src/stm32l4xx_ll_usb.c ****   }
1951:Drivers/STM32L4xx_HAL_Driver/Src/stm32l4xx_ll_usb.c **** 
1952:Drivers/STM32L4xx_HAL_Driver/Src/stm32l4xx_ll_usb.c ****   return HAL_OK;
 4976              		.loc 1 1952 3 is_stmt 1 view .LVU1592
1953:Drivers/STM32L4xx_HAL_Driver/Src/stm32l4xx_ll_usb.c **** }
 4977              		.loc 1 1953 1 is_stmt 0 view .LVU1593
 4978 0016 0020     		movs	r0, #0
 4979              	.LVL395:
 4980              		.loc 1 1953 1 view .LVU1594
 4981 0018 7047     		bx	lr
 4982              		.cfi_endproc
 4983              	.LFE181:
 4985              		.section	.text.USB_DeActivateRemoteWakeup,"ax",%progbits
 4986              		.align	1
 4987              		.global	USB_DeActivateRemoteWakeup
 4988              		.syntax unified
 4989              		.thumb
 4990              		.thumb_func
 4991              		.fpu fpv4-sp-d16
 4993              	USB_DeActivateRemoteWakeup:
 4994              	.LVL396:
 4995              	.LFB182:
1954:Drivers/STM32L4xx_HAL_Driver/Src/stm32l4xx_ll_usb.c **** 
1955:Drivers/STM32L4xx_HAL_Driver/Src/stm32l4xx_ll_usb.c **** /**
1956:Drivers/STM32L4xx_HAL_Driver/Src/stm32l4xx_ll_usb.c ****   * @brief  USB_DeActivateRemoteWakeup de-active remote wakeup signalling
1957:Drivers/STM32L4xx_HAL_Driver/Src/stm32l4xx_ll_usb.c ****   * @param  USBx Selected device
1958:Drivers/STM32L4xx_HAL_Driver/Src/stm32l4xx_ll_usb.c ****   * @retval HAL status
1959:Drivers/STM32L4xx_HAL_Driver/Src/stm32l4xx_ll_usb.c ****   */
1960:Drivers/STM32L4xx_HAL_Driver/Src/stm32l4xx_ll_usb.c **** HAL_StatusTypeDef USB_DeActivateRemoteWakeup(USB_OTG_GlobalTypeDef *USBx)
1961:Drivers/STM32L4xx_HAL_Driver/Src/stm32l4xx_ll_usb.c **** {
 4996              		.loc 1 1961 1 is_stmt 1 view -0
 4997              		.cfi_startproc
 4998              		@ args = 0, pretend = 0, frame = 0
 4999              		@ frame_needed = 0, uses_anonymous_args = 0
 5000              		@ link register save eliminated.
1962:Drivers/STM32L4xx_HAL_Driver/Src/stm32l4xx_ll_usb.c ****   uint32_t USBx_BASE = (uint32_t)USBx;
 5001              		.loc 1 1962 3 view .LVU1596
1963:Drivers/STM32L4xx_HAL_Driver/Src/stm32l4xx_ll_usb.c **** 
1964:Drivers/STM32L4xx_HAL_Driver/Src/stm32l4xx_ll_usb.c ****   /* active Remote wakeup signalling */
1965:Drivers/STM32L4xx_HAL_Driver/Src/stm32l4xx_ll_usb.c ****   USBx_DEVICE->DCTL &= ~(USB_OTG_DCTL_RWUSIG);
 5002              		.loc 1 1965 3 view .LVU1597
 5003              		.loc 1 1965 21 is_stmt 0 view .LVU1598
 5004 0000 D0F80438 		ldr	r3, [r0, #2052]
 5005 0004 23F00103 		bic	r3, r3, #1
ARM GAS  /tmp/ccS8Yg0I.s 			page 142


 5006 0008 C0F80438 		str	r3, [r0, #2052]
1966:Drivers/STM32L4xx_HAL_Driver/Src/stm32l4xx_ll_usb.c **** 
1967:Drivers/STM32L4xx_HAL_Driver/Src/stm32l4xx_ll_usb.c ****   return HAL_OK;
 5007              		.loc 1 1967 3 is_stmt 1 view .LVU1599
1968:Drivers/STM32L4xx_HAL_Driver/Src/stm32l4xx_ll_usb.c **** }
 5008              		.loc 1 1968 1 is_stmt 0 view .LVU1600
 5009 000c 0020     		movs	r0, #0
 5010              	.LVL397:
 5011              		.loc 1 1968 1 view .LVU1601
 5012 000e 7047     		bx	lr
 5013              		.cfi_endproc
 5014              	.LFE182:
 5016              		.text
 5017              	.Letext0:
 5018              		.file 2 "/usr/lib/gcc/arm-none-eabi/9.2.1/include/stdint.h"
 5019              		.file 3 "Middlewares/tensorflow/third_party/cmsis/CMSIS/Core/Include/cmsis_gcc.h"
 5020              		.file 4 "Middlewares/tensorflow/third_party/cmsis/CMSIS/Core/Include/core_cm4.h"
 5021              		.file 5 "Drivers/CMSIS/Device/ST/STM32L4xx/Include/system_stm32l4xx.h"
 5022              		.file 6 "Drivers/CMSIS/Device/ST/STM32L4xx/Include/stm32l4r5xx.h"
 5023              		.file 7 "Drivers/STM32L4xx_HAL_Driver/Inc/stm32l4xx_hal_def.h"
 5024              		.file 8 "Drivers/STM32L4xx_HAL_Driver/Inc/stm32l4xx_hal_flash.h"
 5025              		.file 9 "Drivers/STM32L4xx_HAL_Driver/Inc/stm32l4xx_ll_usb.h"
 5026              		.file 10 "Drivers/STM32L4xx_HAL_Driver/Inc/stm32l4xx_hal_uart.h"
 5027              		.file 11 "Drivers/STM32L4xx_HAL_Driver/Inc/stm32l4xx_hal.h"
ARM GAS  /tmp/ccS8Yg0I.s 			page 143


DEFINED SYMBOLS
                            *ABS*:0000000000000000 stm32l4xx_ll_usb.c
     /tmp/ccS8Yg0I.s:18     .text.USB_CoreReset:0000000000000000 $t
     /tmp/ccS8Yg0I.s:25     .text.USB_CoreReset:0000000000000000 USB_CoreReset
     /tmp/ccS8Yg0I.s:121    .text.USB_CoreReset:000000000000004c $d
     /tmp/ccS8Yg0I.s:126    .text.USB_CoreInit:0000000000000000 $t
     /tmp/ccS8Yg0I.s:133    .text.USB_CoreInit:0000000000000000 USB_CoreInit
     /tmp/ccS8Yg0I.s:205    .text.USB_SetTurnaroundTime:0000000000000000 $t
     /tmp/ccS8Yg0I.s:212    .text.USB_SetTurnaroundTime:0000000000000000 USB_SetTurnaroundTime
     /tmp/ccS8Yg0I.s:392    .text.USB_SetTurnaroundTime:00000000000000a8 $d
     /tmp/ccS8Yg0I.s:411    .text.USB_EnableGlobalInt:0000000000000000 $t
     /tmp/ccS8Yg0I.s:418    .text.USB_EnableGlobalInt:0000000000000000 USB_EnableGlobalInt
     /tmp/ccS8Yg0I.s:441    .text.USB_DisableGlobalInt:0000000000000000 $t
     /tmp/ccS8Yg0I.s:448    .text.USB_DisableGlobalInt:0000000000000000 USB_DisableGlobalInt
     /tmp/ccS8Yg0I.s:471    .text.USB_FlushTxFifo:0000000000000000 $t
     /tmp/ccS8Yg0I.s:478    .text.USB_FlushTxFifo:0000000000000000 USB_FlushTxFifo
     /tmp/ccS8Yg0I.s:576    .text.USB_FlushTxFifo:000000000000004c $d
     /tmp/ccS8Yg0I.s:581    .text.USB_FlushRxFifo:0000000000000000 $t
     /tmp/ccS8Yg0I.s:588    .text.USB_FlushRxFifo:0000000000000000 USB_FlushRxFifo
     /tmp/ccS8Yg0I.s:682    .text.USB_FlushRxFifo:0000000000000048 $d
     /tmp/ccS8Yg0I.s:687    .text.USB_SetDevSpeed:0000000000000000 $t
     /tmp/ccS8Yg0I.s:694    .text.USB_SetDevSpeed:0000000000000000 USB_SetDevSpeed
     /tmp/ccS8Yg0I.s:720    .text.USB_DevInit:0000000000000000 $t
     /tmp/ccS8Yg0I.s:727    .text.USB_DevInit:0000000000000000 USB_DevInit
     /tmp/ccS8Yg0I.s:1055   .text.USB_DevInit:0000000000000168 $d
     /tmp/ccS8Yg0I.s:1060   .text.USB_GetDevSpeed:0000000000000000 $t
     /tmp/ccS8Yg0I.s:1067   .text.USB_GetDevSpeed:0000000000000000 USB_GetDevSpeed
     /tmp/ccS8Yg0I.s:1114   .text.USB_ActivateEndpoint:0000000000000000 $t
     /tmp/ccS8Yg0I.s:1121   .text.USB_ActivateEndpoint:0000000000000000 USB_ActivateEndpoint
     /tmp/ccS8Yg0I.s:1248   .text.USB_ActivateDedicatedEndpoint:0000000000000000 $t
     /tmp/ccS8Yg0I.s:1255   .text.USB_ActivateDedicatedEndpoint:0000000000000000 USB_ActivateDedicatedEndpoint
     /tmp/ccS8Yg0I.s:1391   .text.USB_DeactivateEndpoint:0000000000000000 $t
     /tmp/ccS8Yg0I.s:1398   .text.USB_DeactivateEndpoint:0000000000000000 USB_DeactivateEndpoint
     /tmp/ccS8Yg0I.s:1563   .text.USB_DeactivateEndpoint:00000000000000d4 $d
     /tmp/ccS8Yg0I.s:1569   .text.USB_DeactivateDedicatedEndpoint:0000000000000000 $t
     /tmp/ccS8Yg0I.s:1576   .text.USB_DeactivateDedicatedEndpoint:0000000000000000 USB_DeactivateDedicatedEndpoint
     /tmp/ccS8Yg0I.s:1699   .text.USB_EP0StartXfer:0000000000000000 $t
     /tmp/ccS8Yg0I.s:1706   .text.USB_EP0StartXfer:0000000000000000 USB_EP0StartXfer
     /tmp/ccS8Yg0I.s:1907   .text.USB_EPStopXfer:0000000000000000 $t
     /tmp/ccS8Yg0I.s:1914   .text.USB_EPStopXfer:0000000000000000 USB_EPStopXfer
     /tmp/ccS8Yg0I.s:2084   .text.USB_WritePacket:0000000000000000 $t
     /tmp/ccS8Yg0I.s:2091   .text.USB_WritePacket:0000000000000000 USB_WritePacket
     /tmp/ccS8Yg0I.s:2165   .text.USB_EPStartXfer:0000000000000000 $t
     /tmp/ccS8Yg0I.s:2172   .text.USB_EPStartXfer:0000000000000000 USB_EPStartXfer
     /tmp/ccS8Yg0I.s:2476   .text.USB_EPStartXfer:00000000000001a8 $d
     /tmp/ccS8Yg0I.s:2481   .text.USB_ReadPacket:0000000000000000 $t
     /tmp/ccS8Yg0I.s:2488   .text.USB_ReadPacket:0000000000000000 USB_ReadPacket
     /tmp/ccS8Yg0I.s:2613   .text.USB_EPSetStall:0000000000000000 $t
     /tmp/ccS8Yg0I.s:2620   .text.USB_EPSetStall:0000000000000000 USB_EPSetStall
     /tmp/ccS8Yg0I.s:2701   .text.USB_EPClearStall:0000000000000000 $t
     /tmp/ccS8Yg0I.s:2708   .text.USB_EPClearStall:0000000000000000 USB_EPClearStall
     /tmp/ccS8Yg0I.s:2791   .text.USB_StopDevice:0000000000000000 $t
     /tmp/ccS8Yg0I.s:2798   .text.USB_StopDevice:0000000000000000 USB_StopDevice
     /tmp/ccS8Yg0I.s:2885   .text.USB_SetDevAddress:0000000000000000 $t
     /tmp/ccS8Yg0I.s:2892   .text.USB_SetDevAddress:0000000000000000 USB_SetDevAddress
     /tmp/ccS8Yg0I.s:2927   .text.USB_DevConnect:0000000000000000 $t
     /tmp/ccS8Yg0I.s:2934   .text.USB_DevConnect:0000000000000000 USB_DevConnect
ARM GAS  /tmp/ccS8Yg0I.s 			page 144


     /tmp/ccS8Yg0I.s:2963   .text.USB_DevDisconnect:0000000000000000 $t
     /tmp/ccS8Yg0I.s:2970   .text.USB_DevDisconnect:0000000000000000 USB_DevDisconnect
     /tmp/ccS8Yg0I.s:2999   .text.USB_ReadInterrupts:0000000000000000 $t
     /tmp/ccS8Yg0I.s:3006   .text.USB_ReadInterrupts:0000000000000000 USB_ReadInterrupts
     /tmp/ccS8Yg0I.s:3033   .text.USB_ReadDevAllOutEpInterrupt:0000000000000000 $t
     /tmp/ccS8Yg0I.s:3040   .text.USB_ReadDevAllOutEpInterrupt:0000000000000000 USB_ReadDevAllOutEpInterrupt
     /tmp/ccS8Yg0I.s:3073   .text.USB_ReadDevAllInEpInterrupt:0000000000000000 $t
     /tmp/ccS8Yg0I.s:3080   .text.USB_ReadDevAllInEpInterrupt:0000000000000000 USB_ReadDevAllInEpInterrupt
     /tmp/ccS8Yg0I.s:3113   .text.USB_ReadDevOutEPInterrupt:0000000000000000 $t
     /tmp/ccS8Yg0I.s:3120   .text.USB_ReadDevOutEPInterrupt:0000000000000000 USB_ReadDevOutEPInterrupt
     /tmp/ccS8Yg0I.s:3154   .text.USB_ReadDevInEPInterrupt:0000000000000000 $t
     /tmp/ccS8Yg0I.s:3161   .text.USB_ReadDevInEPInterrupt:0000000000000000 USB_ReadDevInEPInterrupt
     /tmp/ccS8Yg0I.s:3222   .text.USB_ClearInterrupts:0000000000000000 $t
     /tmp/ccS8Yg0I.s:3229   .text.USB_ClearInterrupts:0000000000000000 USB_ClearInterrupts
     /tmp/ccS8Yg0I.s:3248   .text.USB_GetMode:0000000000000000 $t
     /tmp/ccS8Yg0I.s:3255   .text.USB_GetMode:0000000000000000 USB_GetMode
     /tmp/ccS8Yg0I.s:3274   .text.USB_SetCurrentMode:0000000000000000 $t
     /tmp/ccS8Yg0I.s:3281   .text.USB_SetCurrentMode:0000000000000000 USB_SetCurrentMode
     /tmp/ccS8Yg0I.s:3398   .text.USB_ActivateSetup:0000000000000000 $t
     /tmp/ccS8Yg0I.s:3405   .text.USB_ActivateSetup:0000000000000000 USB_ActivateSetup
     /tmp/ccS8Yg0I.s:3435   .text.USB_EP0_OutStart:0000000000000000 $t
     /tmp/ccS8Yg0I.s:3442   .text.USB_EP0_OutStart:0000000000000000 USB_EP0_OutStart
     /tmp/ccS8Yg0I.s:3497   .text.USB_EP0_OutStart:0000000000000040 $d
     /tmp/ccS8Yg0I.s:3502   .text.USB_HostInit:0000000000000000 $t
     /tmp/ccS8Yg0I.s:3509   .text.USB_HostInit:0000000000000000 USB_HostInit
     /tmp/ccS8Yg0I.s:3658   .text.USB_HostInit:0000000000000098 $d
     /tmp/ccS8Yg0I.s:3664   .text.USB_InitFSLSPClkSel:0000000000000000 $t
     /tmp/ccS8Yg0I.s:3671   .text.USB_InitFSLSPClkSel:0000000000000000 USB_InitFSLSPClkSel
     /tmp/ccS8Yg0I.s:3742   .text.USB_ResetPort:0000000000000000 $t
     /tmp/ccS8Yg0I.s:3749   .text.USB_ResetPort:0000000000000000 USB_ResetPort
     /tmp/ccS8Yg0I.s:3818   .text.USB_DriveVbus:0000000000000000 $t
     /tmp/ccS8Yg0I.s:3825   .text.USB_DriveVbus:0000000000000000 USB_DriveVbus
     /tmp/ccS8Yg0I.s:3904   .text.USB_GetHostSpeed:0000000000000000 $t
     /tmp/ccS8Yg0I.s:3911   .text.USB_GetHostSpeed:0000000000000000 USB_GetHostSpeed
     /tmp/ccS8Yg0I.s:3949   .text.USB_GetCurrentFrame:0000000000000000 $t
     /tmp/ccS8Yg0I.s:3956   .text.USB_GetCurrentFrame:0000000000000000 USB_GetCurrentFrame
     /tmp/ccS8Yg0I.s:3979   .text.USB_HC_Init:0000000000000000 $t
     /tmp/ccS8Yg0I.s:3986   .text.USB_HC_Init:0000000000000000 USB_HC_Init
     /tmp/ccS8Yg0I.s:4028   .text.USB_HC_Init:0000000000000022 $d
     /tmp/ccS8Yg0I.s:4032   .text.USB_HC_Init:0000000000000026 $t
     /tmp/ccS8Yg0I.s:4214   .text.USB_HC_StartXfer:0000000000000000 $t
     /tmp/ccS8Yg0I.s:4221   .text.USB_HC_StartXfer:0000000000000000 USB_HC_StartXfer
     /tmp/ccS8Yg0I.s:4392   .text.USB_HC_StartXfer:00000000000000b8 $d
     /tmp/ccS8Yg0I.s:4397   .text.USB_HC_StartXfer:00000000000000bc $t
     /tmp/ccS8Yg0I.s:4483   .text.USB_HC_StartXfer:0000000000000108 $d
     /tmp/ccS8Yg0I.s:4488   .text.USB_HC_ReadInterrupt:0000000000000000 $t
     /tmp/ccS8Yg0I.s:4495   .text.USB_HC_ReadInterrupt:0000000000000000 USB_HC_ReadInterrupt
     /tmp/ccS8Yg0I.s:4518   .text.USB_HC_Halt:0000000000000000 $t
     /tmp/ccS8Yg0I.s:4525   .text.USB_HC_Halt:0000000000000000 USB_HC_Halt
     /tmp/ccS8Yg0I.s:4713   .text.USB_DoPing:0000000000000000 $t
     /tmp/ccS8Yg0I.s:4720   .text.USB_DoPing:0000000000000000 USB_DoPing
     /tmp/ccS8Yg0I.s:4762   .text.USB_DoPing:0000000000000020 $d
     /tmp/ccS8Yg0I.s:4767   .text.USB_StopHost:0000000000000000 $t
     /tmp/ccS8Yg0I.s:4774   .text.USB_StopHost:0000000000000000 USB_StopHost
     /tmp/ccS8Yg0I.s:4945   .text.USB_ActivateRemoteWakeup:0000000000000000 $t
     /tmp/ccS8Yg0I.s:4952   .text.USB_ActivateRemoteWakeup:0000000000000000 USB_ActivateRemoteWakeup
     /tmp/ccS8Yg0I.s:4986   .text.USB_DeActivateRemoteWakeup:0000000000000000 $t
ARM GAS  /tmp/ccS8Yg0I.s 			page 145


     /tmp/ccS8Yg0I.s:4993   .text.USB_DeActivateRemoteWakeup:0000000000000000 USB_DeActivateRemoteWakeup

UNDEFINED SYMBOLS
HAL_Delay
